ARM GAS  C:\Users\MICHAE~1.MAC\AppData\Local\Temp\ccOp1ZUS.s 			page 1


   1              		.syntax unified
   2              		.cpu cortex-m0plus
   3              		.fpu softvfp
   4              		.eabi_attribute 20, 1
   5              		.eabi_attribute 21, 1
   6              		.eabi_attribute 23, 3
   7              		.eabi_attribute 24, 1
   8              		.eabi_attribute 25, 1
   9              		.eabi_attribute 26, 1
  10              		.eabi_attribute 30, 1
  11              		.eabi_attribute 34, 0
  12              		.eabi_attribute 18, 4
  13              		.thumb
  14              		.syntax unified
  15              		.file	"CapSense_1_Processing.c"
  16              		.text
  17              	.Ltext0:
  18              		.cfi_sections	.debug_frame
  19              		.section	.text.CapSense_1_DpInitialize,"ax",%progbits
  20              		.align	2
  21              		.global	CapSense_1_DpInitialize
  22              		.code	16
  23              		.thumb_func
  24              		.type	CapSense_1_DpInitialize, %function
  25              	CapSense_1_DpInitialize:
  26              	.LFB1:
  27              		.file 1 "Generated_Source\\PSoC4\\CapSense_1_Processing.c"
   1:Generated_Source\PSoC4/CapSense_1_Processing.c **** /***************************************************************************//**
   2:Generated_Source\PSoC4/CapSense_1_Processing.c **** * \file CapSense_1_Processing.c
   3:Generated_Source\PSoC4/CapSense_1_Processing.c **** * \version 5.20
   4:Generated_Source\PSoC4/CapSense_1_Processing.c **** *
   5:Generated_Source\PSoC4/CapSense_1_Processing.c **** * \brief
   6:Generated_Source\PSoC4/CapSense_1_Processing.c **** *   This file provides the source code for the Data Processing module APIs
   7:Generated_Source\PSoC4/CapSense_1_Processing.c **** *   of the Component. The Data Processing module is responsible for the
   8:Generated_Source\PSoC4/CapSense_1_Processing.c **** *   low level raw counts processing provided by the sensing module, maintaining
   9:Generated_Source\PSoC4/CapSense_1_Processing.c **** *   baseline and difference values and performing high-level widget processing
  10:Generated_Source\PSoC4/CapSense_1_Processing.c **** *   like updating button status or calculating slider position.
  11:Generated_Source\PSoC4/CapSense_1_Processing.c **** *
  12:Generated_Source\PSoC4/CapSense_1_Processing.c **** * \see CapSense_1 v5.20 Datasheet
  13:Generated_Source\PSoC4/CapSense_1_Processing.c **** *
  14:Generated_Source\PSoC4/CapSense_1_Processing.c **** *//*****************************************************************************
  15:Generated_Source\PSoC4/CapSense_1_Processing.c **** * Copyright (2016-2018), Cypress Semiconductor Corporation.
  16:Generated_Source\PSoC4/CapSense_1_Processing.c **** ********************************************************************************
  17:Generated_Source\PSoC4/CapSense_1_Processing.c **** * This software is owned by Cypress Semiconductor Corporation (Cypress) and is
  18:Generated_Source\PSoC4/CapSense_1_Processing.c **** * protected by and subject to worldwide patent protection (United States and
  19:Generated_Source\PSoC4/CapSense_1_Processing.c **** * foreign), United States copyright laws and international treaty provisions.
  20:Generated_Source\PSoC4/CapSense_1_Processing.c **** * Cypress hereby grants to licensee a personal, non-exclusive, non-transferable
  21:Generated_Source\PSoC4/CapSense_1_Processing.c **** * license to copy, use, modify, create derivative works of, and compile the
  22:Generated_Source\PSoC4/CapSense_1_Processing.c **** * Cypress Source Code and derivative works for the sole purpose of creating
  23:Generated_Source\PSoC4/CapSense_1_Processing.c **** * custom software in support of licensee product to be used only in conjunction
  24:Generated_Source\PSoC4/CapSense_1_Processing.c **** * with a Cypress integrated circuit as specified in the applicable agreement.
  25:Generated_Source\PSoC4/CapSense_1_Processing.c **** * Any reproduction, modification, translation, compilation, or representation of
  26:Generated_Source\PSoC4/CapSense_1_Processing.c **** * this software except as specified above is prohibited without the express
  27:Generated_Source\PSoC4/CapSense_1_Processing.c **** * written permission of Cypress.
  28:Generated_Source\PSoC4/CapSense_1_Processing.c **** *
  29:Generated_Source\PSoC4/CapSense_1_Processing.c **** * Disclaimer: CYPRESS MAKES NO WARRANTY OF ANY KIND, EXPRESS OR IMPLIED, WITH
  30:Generated_Source\PSoC4/CapSense_1_Processing.c **** * REGARD TO THIS MATERIAL, INCLUDING, BUT NOT LIMITED TO, THE IMPLIED
ARM GAS  C:\Users\MICHAE~1.MAC\AppData\Local\Temp\ccOp1ZUS.s 			page 2


  31:Generated_Source\PSoC4/CapSense_1_Processing.c **** * WARRANTIES OF MERCHANTABILITY AND FITNESS FOR A PARTICULAR PURPOSE.
  32:Generated_Source\PSoC4/CapSense_1_Processing.c **** * Cypress reserves the right to make changes without further notice to the
  33:Generated_Source\PSoC4/CapSense_1_Processing.c **** * materials described herein. Cypress does not assume any liability arising out
  34:Generated_Source\PSoC4/CapSense_1_Processing.c **** * of the application or use of any product or circuit described herein. Cypress
  35:Generated_Source\PSoC4/CapSense_1_Processing.c **** * does not authorize its products for use as critical components in life-support
  36:Generated_Source\PSoC4/CapSense_1_Processing.c **** * systems where a malfunction or failure may reasonably be expected to result in
  37:Generated_Source\PSoC4/CapSense_1_Processing.c **** * significant injury to the user. The inclusion of Cypress' product in a life-
  38:Generated_Source\PSoC4/CapSense_1_Processing.c **** * support systems application implies that the manufacturer assumes all risk of
  39:Generated_Source\PSoC4/CapSense_1_Processing.c **** * such use and in doing so indemnifies Cypress against all charges. Use may be
  40:Generated_Source\PSoC4/CapSense_1_Processing.c **** * limited by and subject to the applicable Cypress software license agreement.
  41:Generated_Source\PSoC4/CapSense_1_Processing.c **** *******************************************************************************/
  42:Generated_Source\PSoC4/CapSense_1_Processing.c **** 
  43:Generated_Source\PSoC4/CapSense_1_Processing.c **** #include "CyLib.h"
  44:Generated_Source\PSoC4/CapSense_1_Processing.c **** #include "cytypes.h"
  45:Generated_Source\PSoC4/CapSense_1_Processing.c **** #include "CapSense_1_Configuration.h"
  46:Generated_Source\PSoC4/CapSense_1_Processing.c **** #include "CapSense_1_Processing.h"
  47:Generated_Source\PSoC4/CapSense_1_Processing.c **** #include "CapSense_1_Filter.h"
  48:Generated_Source\PSoC4/CapSense_1_Processing.c **** 
  49:Generated_Source\PSoC4/CapSense_1_Processing.c **** #if (0u != CapSense_1_CENTROID_EN)
  50:Generated_Source\PSoC4/CapSense_1_Processing.c ****     #include "CapSense_1_Centroid_LL.h"
  51:Generated_Source\PSoC4/CapSense_1_Processing.c **** #endif /* (0 != CapSense_1_CENTROID_EN) */
  52:Generated_Source\PSoC4/CapSense_1_Processing.c **** 
  53:Generated_Source\PSoC4/CapSense_1_Processing.c **** #if (0 != (CapSense_1_CSD_AUTOTUNE & CapSense_1_CSD_SS_TH_EN))
  54:Generated_Source\PSoC4/CapSense_1_Processing.c ****     #include "CapSense_1_SmartSense_LL.h"
  55:Generated_Source\PSoC4/CapSense_1_Processing.c **** #endif /* (0 != (CapSense_1_CSD_AUTOTUNE & CapSense_1_CSD_SS_TH_EN)) */
  56:Generated_Source\PSoC4/CapSense_1_Processing.c **** 
  57:Generated_Source\PSoC4/CapSense_1_Processing.c **** #if (CapSense_1_ENABLE == CapSense_1_SELF_TEST_EN)
  58:Generated_Source\PSoC4/CapSense_1_Processing.c ****     #include "CapSense_1_SelfTest.h"
  59:Generated_Source\PSoC4/CapSense_1_Processing.c **** #endif
  60:Generated_Source\PSoC4/CapSense_1_Processing.c **** 
  61:Generated_Source\PSoC4/CapSense_1_Processing.c **** #if (CapSense_1_ENABLE == CapSense_1_CENTROID_5X5_CSD_EN)
  62:Generated_Source\PSoC4/CapSense_1_Processing.c ****     #include "CapSense_1_AdvancedCentroid_LL.h"
  63:Generated_Source\PSoC4/CapSense_1_Processing.c **** #endif
  64:Generated_Source\PSoC4/CapSense_1_Processing.c **** 
  65:Generated_Source\PSoC4/CapSense_1_Processing.c **** #if (CapSense_1_ENABLE == CapSense_1_POS_ADAPTIVE_IIR_FILTER_EN)
  66:Generated_Source\PSoC4/CapSense_1_Processing.c ****     #include "CapSense_1_AdaptiveFilter_LL.h"
  67:Generated_Source\PSoC4/CapSense_1_Processing.c **** #endif
  68:Generated_Source\PSoC4/CapSense_1_Processing.c **** 
  69:Generated_Source\PSoC4/CapSense_1_Processing.c **** #if(CapSense_1_ENABLE == CapSense_1_BALLISTIC_MULTIPLIER_EN)
  70:Generated_Source\PSoC4/CapSense_1_Processing.c ****     #include "CapSense_1_Gesture.h"
  71:Generated_Source\PSoC4/CapSense_1_Processing.c **** #endif
  72:Generated_Source\PSoC4/CapSense_1_Processing.c **** 
  73:Generated_Source\PSoC4/CapSense_1_Processing.c **** /**************************************************************************************************
  74:Generated_Source\PSoC4/CapSense_1_Processing.c **** * Local definition
  75:Generated_Source\PSoC4/CapSense_1_Processing.c **** ***************************************************************************************************
  76:Generated_Source\PSoC4/CapSense_1_Processing.c **** 
  77:Generated_Source\PSoC4/CapSense_1_Processing.c **** /* UINT32 constant with all odd bits set. It is used by the processing function of the Proximity wi
  78:Generated_Source\PSoC4/CapSense_1_Processing.c **** *  determine type of the status bit: odd bits report proximity status; even bits report touch statu
  79:Generated_Source\PSoC4/CapSense_1_Processing.c **** */
  80:Generated_Source\PSoC4/CapSense_1_Processing.c **** #define UINT32_ODD_BITS_CONST       (0x55555555u)
  81:Generated_Source\PSoC4/CapSense_1_Processing.c **** 
  82:Generated_Source\PSoC4/CapSense_1_Processing.c **** /* Default value for the Off Debounce counter when the Off Debounce is disabled */
  83:Generated_Source\PSoC4/CapSense_1_Processing.c **** #define DEFAULT_OFF_DEBOUNCE_VALUE  (1u)
  84:Generated_Source\PSoC4/CapSense_1_Processing.c **** #define PERCENTAGE_100              (100u)
  85:Generated_Source\PSoC4/CapSense_1_Processing.c **** #define TEMP_BUFFER_MSB_SHIFT       (16)
  86:Generated_Source\PSoC4/CapSense_1_Processing.c **** 
  87:Generated_Source\PSoC4/CapSense_1_Processing.c **** /**************************************************************************************************
ARM GAS  C:\Users\MICHAE~1.MAC\AppData\Local\Temp\ccOp1ZUS.s 			page 3


  88:Generated_Source\PSoC4/CapSense_1_Processing.c **** * Local variables
  89:Generated_Source\PSoC4/CapSense_1_Processing.c **** ***************************************************************************************************
  90:Generated_Source\PSoC4/CapSense_1_Processing.c **** #if (0u != CapSense_1_CSX_MULTIPHASE_TX_EN)
  91:Generated_Source\PSoC4/CapSense_1_Processing.c ****     static uint16 deconvRowData[CapSense_1_CSX_MAX_TX_PHASE_LENGTH];
  92:Generated_Source\PSoC4/CapSense_1_Processing.c **** #endif
  93:Generated_Source\PSoC4/CapSense_1_Processing.c **** 
  94:Generated_Source\PSoC4/CapSense_1_Processing.c **** 
  95:Generated_Source\PSoC4/CapSense_1_Processing.c **** /**************************************************************************************************
  96:Generated_Source\PSoC4/CapSense_1_Processing.c **** * Static Function Prototypes
  97:Generated_Source\PSoC4/CapSense_1_Processing.c **** ***************************************************************************************************
  98:Generated_Source\PSoC4/CapSense_1_Processing.c **** /**
  99:Generated_Source\PSoC4/CapSense_1_Processing.c **** * \cond SECTION_C_INTERNAL
 100:Generated_Source\PSoC4/CapSense_1_Processing.c **** * \addtogroup group_c_internal
 101:Generated_Source\PSoC4/CapSense_1_Processing.c **** * \{
 102:Generated_Source\PSoC4/CapSense_1_Processing.c **** */
 103:Generated_Source\PSoC4/CapSense_1_Processing.c **** #if (0u != CapSense_1_TOTAL_LINEAR_SLIDERS)
 104:Generated_Source\PSoC4/CapSense_1_Processing.c ****     static CY_INLINE void DpUpdateLinSlider(
 105:Generated_Source\PSoC4/CapSense_1_Processing.c ****                         const uint16 newPos[], uint32 numTouches,
 106:Generated_Source\PSoC4/CapSense_1_Processing.c ****                         CapSense_1_FLASH_WD_STRUCT const *ptrFlashWdgt,
 107:Generated_Source\PSoC4/CapSense_1_Processing.c ****                         CapSense_1_RAM_WD_SLIDER_STRUCT *ptrRamWdgt);
 108:Generated_Source\PSoC4/CapSense_1_Processing.c **** #endif /* #if (0u != CapSense_1_TOTAL_LINEAR_SLIDERS) */
 109:Generated_Source\PSoC4/CapSense_1_Processing.c **** 
 110:Generated_Source\PSoC4/CapSense_1_Processing.c **** #if (0u != CapSense_1_TOTAL_RADIAL_SLIDERS)
 111:Generated_Source\PSoC4/CapSense_1_Processing.c ****     static CY_INLINE void DpUpdateRadSlider(
 112:Generated_Source\PSoC4/CapSense_1_Processing.c ****                         const uint16 newPos[], uint32 numTouches,
 113:Generated_Source\PSoC4/CapSense_1_Processing.c ****                         CapSense_1_FLASH_WD_STRUCT const * ptrFlashWdgt,
 114:Generated_Source\PSoC4/CapSense_1_Processing.c ****                         CapSense_1_RAM_WD_SLIDER_STRUCT *ptrRamWdgt);
 115:Generated_Source\PSoC4/CapSense_1_Processing.c **** #endif /* #if (0u != CapSense_1_TOTAL_RADIAL_SLIDERS) */
 116:Generated_Source\PSoC4/CapSense_1_Processing.c **** 
 117:Generated_Source\PSoC4/CapSense_1_Processing.c **** #if (0u != CapSense_1_CSD_TOUCHPAD_WIDGET_EN)
 118:Generated_Source\PSoC4/CapSense_1_Processing.c ****     static CY_INLINE void CapSense_1_DpInitCsdTouchpad(CapSense_1_FLASH_WD_STRUCT const * ptrFlashW
 119:Generated_Source\PSoC4/CapSense_1_Processing.c **** #endif /* #if (0u != CapSense_1_CSD_TOUCHPAD_WIDGET_EN) */
 120:Generated_Source\PSoC4/CapSense_1_Processing.c **** 
 121:Generated_Source\PSoC4/CapSense_1_Processing.c **** #if (0u != CapSense_1_CSX_TOUCHPAD_WIDGET_EN)
 122:Generated_Source\PSoC4/CapSense_1_Processing.c ****     static CY_INLINE void CapSense_1_DpInitCsxTouchpad(CapSense_1_FLASH_WD_STRUCT const * ptrFlashW
 123:Generated_Source\PSoC4/CapSense_1_Processing.c **** #endif /* #if (0u != CapSense_1_CSX_TOUCHPAD_WIDGET_EN) */
 124:Generated_Source\PSoC4/CapSense_1_Processing.c **** 
 125:Generated_Source\PSoC4/CapSense_1_Processing.c **** #if (0u != CapSense_1_SLIDER_WIDGET_EN)
 126:Generated_Source\PSoC4/CapSense_1_Processing.c ****     static CY_INLINE void CapSense_1_DpInitSlider(CapSense_1_FLASH_WD_STRUCT const * ptrFlashWdgt);
 127:Generated_Source\PSoC4/CapSense_1_Processing.c **** #endif /* #if (0u != CapSense_1_SLIDER_WIDGET_EN) */
 128:Generated_Source\PSoC4/CapSense_1_Processing.c **** 
 129:Generated_Source\PSoC4/CapSense_1_Processing.c **** #if (0u != CapSense_1_CSD_MATRIX_WIDGET_EN)
 130:Generated_Source\PSoC4/CapSense_1_Processing.c ****     static CY_INLINE void CapSense_1_DpInitCsdMatrix(CapSense_1_FLASH_WD_STRUCT const * ptrFlashWdg
 131:Generated_Source\PSoC4/CapSense_1_Processing.c **** #endif /* #if (0u != CapSense_1_CSD_MATRIX_WIDGET_EN) */
 132:Generated_Source\PSoC4/CapSense_1_Processing.c **** 
 133:Generated_Source\PSoC4/CapSense_1_Processing.c **** /** \}
 134:Generated_Source\PSoC4/CapSense_1_Processing.c **** * \endcond */
 135:Generated_Source\PSoC4/CapSense_1_Processing.c **** 
 136:Generated_Source\PSoC4/CapSense_1_Processing.c **** #if (0u != CapSense_1_CSD_TOUCHPAD_WIDGET_EN)
 137:Generated_Source\PSoC4/CapSense_1_Processing.c **** /*******************************************************************************
 138:Generated_Source\PSoC4/CapSense_1_Processing.c **** * Function Name: CapSense_1_DpInitCsdTouchpad
 139:Generated_Source\PSoC4/CapSense_1_Processing.c **** ****************************************************************************//**
 140:Generated_Source\PSoC4/CapSense_1_Processing.c **** *
 141:Generated_Source\PSoC4/CapSense_1_Processing.c **** * \brief
 142:Generated_Source\PSoC4/CapSense_1_Processing.c **** *  Performs initialization of the CSD touchpad widget.
 143:Generated_Source\PSoC4/CapSense_1_Processing.c **** *   - Resets the position data to NONE
 144:Generated_Source\PSoC4/CapSense_1_Processing.c **** *   - Initializes the position filter history if enabled.
ARM GAS  C:\Users\MICHAE~1.MAC\AppData\Local\Temp\ccOp1ZUS.s 			page 4


 145:Generated_Source\PSoC4/CapSense_1_Processing.c **** *
 146:Generated_Source\PSoC4/CapSense_1_Processing.c **** * \details
 147:Generated_Source\PSoC4/CapSense_1_Processing.c **** *  The position data is always reset to the CapSense_1_TOUCHPAD_POS_NONE value.
 148:Generated_Source\PSoC4/CapSense_1_Processing.c **** *  The same happens to the position filter history data if enabled.
 149:Generated_Source\PSoC4/CapSense_1_Processing.c **** *
 150:Generated_Source\PSoC4/CapSense_1_Processing.c **** *******************************************************************************/
 151:Generated_Source\PSoC4/CapSense_1_Processing.c **** static CY_INLINE void CapSense_1_DpInitCsdTouchpad(CapSense_1_FLASH_WD_STRUCT const * ptrFlashWdgt)
 152:Generated_Source\PSoC4/CapSense_1_Processing.c **** {
 153:Generated_Source\PSoC4/CapSense_1_Processing.c ****     #if (CapSense_1_ENABLE == CapSense_1_CENTROID_5X5_CSD_EN)
 154:Generated_Source\PSoC4/CapSense_1_Processing.c ****         uint32 touchIndex;
 155:Generated_Source\PSoC4/CapSense_1_Processing.c ****     #endif
 156:Generated_Source\PSoC4/CapSense_1_Processing.c **** 
 157:Generated_Source\PSoC4/CapSense_1_Processing.c ****     CapSense_1_RAM_WD_CSD_TOUCHPAD_STRUCT *ptrWdTouchpad;
 158:Generated_Source\PSoC4/CapSense_1_Processing.c **** 
 159:Generated_Source\PSoC4/CapSense_1_Processing.c ****     #if (0u != CapSense_1_POSITION_FILTER_EN)
 160:Generated_Source\PSoC4/CapSense_1_Processing.c ****         CapSense_1_TOUCHPAD_POS_HISTORY_STRUCT *ptrHistory;
 161:Generated_Source\PSoC4/CapSense_1_Processing.c ****     #endif  /* #if (0u != CapSense_1_POSITION_FILTER_EN) */
 162:Generated_Source\PSoC4/CapSense_1_Processing.c **** 
 163:Generated_Source\PSoC4/CapSense_1_Processing.c ****     #if (0u != CapSense_1_POS_ADAPTIVE_IIR_FILTER_EN)
 164:Generated_Source\PSoC4/CapSense_1_Processing.c ****         ADAPTIVE_FILTER_CONTEXT_STRUCT adpContext;
 165:Generated_Source\PSoC4/CapSense_1_Processing.c ****     #endif /* (0u != CapSense_1_POS_ADAPTIVE_IIR_FILTER_EN) */
 166:Generated_Source\PSoC4/CapSense_1_Processing.c **** 
 167:Generated_Source\PSoC4/CapSense_1_Processing.c ****     ptrWdTouchpad = ptrFlashWdgt->ptr2WdgtRam;
 168:Generated_Source\PSoC4/CapSense_1_Processing.c **** 
 169:Generated_Source\PSoC4/CapSense_1_Processing.c ****     /* Reset position data */
 170:Generated_Source\PSoC4/CapSense_1_Processing.c ****     #if (CapSense_1_ENABLE == CapSense_1_CENTROID_5X5_CSD_EN)
 171:Generated_Source\PSoC4/CapSense_1_Processing.c ****         #if (CapSense_1_ENABLE == CapSense_1_CENTROID_3X3_CSD_EN)
 172:Generated_Source\PSoC4/CapSense_1_Processing.c ****             if (0u != (ptrFlashWdgt->staticConfig & CapSense_1_CENTROID_5X5_MASK))
 173:Generated_Source\PSoC4/CapSense_1_Processing.c ****             {
 174:Generated_Source\PSoC4/CapSense_1_Processing.c ****         #endif
 175:Generated_Source\PSoC4/CapSense_1_Processing.c **** 
 176:Generated_Source\PSoC4/CapSense_1_Processing.c ****         ptrWdTouchpad->position.touchNum = 0u;
 177:Generated_Source\PSoC4/CapSense_1_Processing.c **** 
 178:Generated_Source\PSoC4/CapSense_1_Processing.c ****         #if (0u != CapSense_1_POSITION_FILTER_EN)
 179:Generated_Source\PSoC4/CapSense_1_Processing.c ****             ptrHistory = ptrFlashWdgt->ptr2PosHistory;
 180:Generated_Source\PSoC4/CapSense_1_Processing.c ****         #endif /* (0u != CapSense_1_POSITION_FILTER_EN) */
 181:Generated_Source\PSoC4/CapSense_1_Processing.c **** 
 182:Generated_Source\PSoC4/CapSense_1_Processing.c ****         for (touchIndex = 0u; touchIndex < ADVANCED_CENTROID_MAX_TOUCHES; touchIndex++)
 183:Generated_Source\PSoC4/CapSense_1_Processing.c ****         {
 184:Generated_Source\PSoC4/CapSense_1_Processing.c ****             ptrWdTouchpad->position.pos[touchIndex].x = ADVANCED_CENTROID_POSITION_NONE;
 185:Generated_Source\PSoC4/CapSense_1_Processing.c ****             ptrWdTouchpad->position.pos[touchIndex].y = ADVANCED_CENTROID_POSITION_NONE;
 186:Generated_Source\PSoC4/CapSense_1_Processing.c ****             ptrWdTouchpad->position.pos[touchIndex].zX = ADVANCED_CENTROID_POSITION_NONE;
 187:Generated_Source\PSoC4/CapSense_1_Processing.c ****             ptrWdTouchpad->position.pos[touchIndex].zY = ADVANCED_CENTROID_POSITION_NONE;
 188:Generated_Source\PSoC4/CapSense_1_Processing.c **** 
 189:Generated_Source\PSoC4/CapSense_1_Processing.c ****             /* Clear position filter history data if available */
 190:Generated_Source\PSoC4/CapSense_1_Processing.c ****             #if (0u != CapSense_1_POSITION_FILTER_EN)
 191:Generated_Source\PSoC4/CapSense_1_Processing.c ****                 if (NULL != ptrHistory)
 192:Generated_Source\PSoC4/CapSense_1_Processing.c ****                 {
 193:Generated_Source\PSoC4/CapSense_1_Processing.c ****                     CapSense_1_InitPosFiltersDd(&ptrHistory[touchIndex], CapSense_1_TOUCHPAD_POS_NO
 194:Generated_Source\PSoC4/CapSense_1_Processing.c ****                     #if (0u != CapSense_1_POS_ADAPTIVE_IIR_FILTER_EN)
 195:Generated_Source\PSoC4/CapSense_1_Processing.c ****                         AdaptiveFilter_Initialize(&ptrWdTouchpad->aiirConfig, &adpContext);
 196:Generated_Source\PSoC4/CapSense_1_Processing.c ****                         ptrHistory[touchIndex].xPos.posAIIRCoeff = adpContext.coefficient;
 197:Generated_Source\PSoC4/CapSense_1_Processing.c ****                         ptrHistory[touchIndex].yPos.posAIIRCoeff = adpContext.coefficient;
 198:Generated_Source\PSoC4/CapSense_1_Processing.c ****                     #endif /* (0u != CapSense_1_POS_ADAPTIVE_IIR_FILTER_EN) */
 199:Generated_Source\PSoC4/CapSense_1_Processing.c ****                 }
 200:Generated_Source\PSoC4/CapSense_1_Processing.c ****             #endif /* (0u != CapSense_1_POSITION_FILTER_EN) */
 201:Generated_Source\PSoC4/CapSense_1_Processing.c ****         }
ARM GAS  C:\Users\MICHAE~1.MAC\AppData\Local\Temp\ccOp1ZUS.s 			page 5


 202:Generated_Source\PSoC4/CapSense_1_Processing.c **** 
 203:Generated_Source\PSoC4/CapSense_1_Processing.c ****         #if (CapSense_1_ENABLE == CapSense_1_CENTROID_3X3_CSD_EN)
 204:Generated_Source\PSoC4/CapSense_1_Processing.c ****             }
 205:Generated_Source\PSoC4/CapSense_1_Processing.c ****         #endif
 206:Generated_Source\PSoC4/CapSense_1_Processing.c ****     #endif
 207:Generated_Source\PSoC4/CapSense_1_Processing.c **** 
 208:Generated_Source\PSoC4/CapSense_1_Processing.c ****     #if (CapSense_1_ENABLE == CapSense_1_CENTROID_3X3_CSD_EN)
 209:Generated_Source\PSoC4/CapSense_1_Processing.c ****         if (0u != (ptrFlashWdgt->staticConfig & CapSense_1_CENTROID_3X3_MASK))
 210:Generated_Source\PSoC4/CapSense_1_Processing.c ****         {
 211:Generated_Source\PSoC4/CapSense_1_Processing.c ****             ptrWdTouchpad->posX = CapSense_1_TOUCHPAD_POS_NONE;
 212:Generated_Source\PSoC4/CapSense_1_Processing.c ****             ptrWdTouchpad->posY = CapSense_1_TOUCHPAD_POS_NONE;
 213:Generated_Source\PSoC4/CapSense_1_Processing.c **** 
 214:Generated_Source\PSoC4/CapSense_1_Processing.c ****             /* Clear position filter history data if available */
 215:Generated_Source\PSoC4/CapSense_1_Processing.c ****             #if (0u != CapSense_1_POSITION_FILTER_EN)
 216:Generated_Source\PSoC4/CapSense_1_Processing.c ****                 ptrHistory = ptrFlashWdgt->ptr2PosHistory;
 217:Generated_Source\PSoC4/CapSense_1_Processing.c ****                 CapSense_1_InitPosFiltersDd(ptrHistory, CapSense_1_TOUCHPAD_POS_NONE, CapSense_1_TO
 218:Generated_Source\PSoC4/CapSense_1_Processing.c **** 
 219:Generated_Source\PSoC4/CapSense_1_Processing.c ****                 #if (0u != CapSense_1_POS_ADAPTIVE_IIR_FILTER_EN)
 220:Generated_Source\PSoC4/CapSense_1_Processing.c ****                     if (NULL != ptrHistory)
 221:Generated_Source\PSoC4/CapSense_1_Processing.c ****                     {
 222:Generated_Source\PSoC4/CapSense_1_Processing.c ****                         AdaptiveFilter_Initialize(&ptrWdTouchpad->aiirConfig, &adpContext);
 223:Generated_Source\PSoC4/CapSense_1_Processing.c ****                         ptrHistory->xPos.posAIIRCoeff = adpContext.coefficient;
 224:Generated_Source\PSoC4/CapSense_1_Processing.c ****                         ptrHistory->yPos.posAIIRCoeff = adpContext.coefficient;
 225:Generated_Source\PSoC4/CapSense_1_Processing.c ****                     }
 226:Generated_Source\PSoC4/CapSense_1_Processing.c ****                 #endif /* (0u != CapSense_1_POS_ADAPTIVE_IIR_FILTER_EN) */
 227:Generated_Source\PSoC4/CapSense_1_Processing.c ****             #endif /* (0u != CapSense_1_POSITION_FILTER_EN) */
 228:Generated_Source\PSoC4/CapSense_1_Processing.c ****         }
 229:Generated_Source\PSoC4/CapSense_1_Processing.c ****     #endif
 230:Generated_Source\PSoC4/CapSense_1_Processing.c **** }
 231:Generated_Source\PSoC4/CapSense_1_Processing.c **** #endif /* #if (0u != CapSense_1_CSD_TOUCHPAD_WIDGET_EN) */
 232:Generated_Source\PSoC4/CapSense_1_Processing.c **** 
 233:Generated_Source\PSoC4/CapSense_1_Processing.c **** #if (0u != CapSense_1_CSX_TOUCHPAD_WIDGET_EN)
 234:Generated_Source\PSoC4/CapSense_1_Processing.c **** /*******************************************************************************
 235:Generated_Source\PSoC4/CapSense_1_Processing.c **** * Function Name: CapSense_1_DpInitCsxTouchpad
 236:Generated_Source\PSoC4/CapSense_1_Processing.c **** ****************************************************************************//**
 237:Generated_Source\PSoC4/CapSense_1_Processing.c **** *
 238:Generated_Source\PSoC4/CapSense_1_Processing.c **** * \brief
 239:Generated_Source\PSoC4/CapSense_1_Processing.c **** *  Performs initialization of the CSX touchpad widget i.e. Resets the position data to NONE.
 240:Generated_Source\PSoC4/CapSense_1_Processing.c **** *
 241:Generated_Source\PSoC4/CapSense_1_Processing.c **** * \details
 242:Generated_Source\PSoC4/CapSense_1_Processing.c **** *  The position data is always reset to the CapSense_1_TOUCHPAD_POS_NONE value.
 243:Generated_Source\PSoC4/CapSense_1_Processing.c **** *
 244:Generated_Source\PSoC4/CapSense_1_Processing.c **** *******************************************************************************/
 245:Generated_Source\PSoC4/CapSense_1_Processing.c **** static CY_INLINE void CapSense_1_DpInitCsxTouchpad(CapSense_1_FLASH_WD_STRUCT const * ptrFlashWdgt)
 246:Generated_Source\PSoC4/CapSense_1_Processing.c **** {
 247:Generated_Source\PSoC4/CapSense_1_Processing.c ****     CapSense_1_RAM_WD_CSX_TOUCHPAD_STRUCT *ptrWdTouchpad;
 248:Generated_Source\PSoC4/CapSense_1_Processing.c **** 
 249:Generated_Source\PSoC4/CapSense_1_Processing.c ****     #if (0u != CapSense_1_POSITION_FILTER_EN)
 250:Generated_Source\PSoC4/CapSense_1_Processing.c ****         uint32 touchIndex;
 251:Generated_Source\PSoC4/CapSense_1_Processing.c ****         CapSense_1_TOUCHPAD_POS_HISTORY_STRUCT *ptrHistory;
 252:Generated_Source\PSoC4/CapSense_1_Processing.c ****     #endif  /* #if (0u != CapSense_1_POSITION_FILTER_EN) */
 253:Generated_Source\PSoC4/CapSense_1_Processing.c **** 
 254:Generated_Source\PSoC4/CapSense_1_Processing.c ****     #if (0u != CapSense_1_POS_ADAPTIVE_IIR_FILTER_EN)
 255:Generated_Source\PSoC4/CapSense_1_Processing.c ****         ADAPTIVE_FILTER_CONTEXT_STRUCT adpContext;
 256:Generated_Source\PSoC4/CapSense_1_Processing.c ****     #endif /* (0u != CapSense_1_POS_ADAPTIVE_IIR_FILTER_EN) */
 257:Generated_Source\PSoC4/CapSense_1_Processing.c **** 
 258:Generated_Source\PSoC4/CapSense_1_Processing.c ****     ptrWdTouchpad = ptrFlashWdgt->ptr2WdgtRam;
ARM GAS  C:\Users\MICHAE~1.MAC\AppData\Local\Temp\ccOp1ZUS.s 			page 6


 259:Generated_Source\PSoC4/CapSense_1_Processing.c **** 
 260:Generated_Source\PSoC4/CapSense_1_Processing.c ****     #if (0u != CapSense_1_POSITION_FILTER_EN)
 261:Generated_Source\PSoC4/CapSense_1_Processing.c ****         ptrHistory = ptrFlashWdgt->ptr2PosHistory;
 262:Generated_Source\PSoC4/CapSense_1_Processing.c ****     #endif /* (0u != CapSense_1_POSITION_FILTER_EN) */
 263:Generated_Source\PSoC4/CapSense_1_Processing.c **** 
 264:Generated_Source\PSoC4/CapSense_1_Processing.c ****     /* Reset position data for finger */
 265:Generated_Source\PSoC4/CapSense_1_Processing.c ****     ptrWdTouchpad->touch[0u].x = CapSense_1_TOUCHPAD_POS_NONE;
 266:Generated_Source\PSoC4/CapSense_1_Processing.c ****     ptrWdTouchpad->touch[0u].y = CapSense_1_TOUCHPAD_POS_NONE;
 267:Generated_Source\PSoC4/CapSense_1_Processing.c ****     ptrWdTouchpad->touch[0u].z = LO8(CapSense_1_TOUCHPAD_POS_NONE);
 268:Generated_Source\PSoC4/CapSense_1_Processing.c **** 
 269:Generated_Source\PSoC4/CapSense_1_Processing.c ****     #if (CapSense_1_CSX_MAX_FINGERS > 1u)
 270:Generated_Source\PSoC4/CapSense_1_Processing.c ****         ptrWdTouchpad->touch[1u].x = CapSense_1_TOUCHPAD_POS_NONE;
 271:Generated_Source\PSoC4/CapSense_1_Processing.c ****         ptrWdTouchpad->touch[1u].y = CapSense_1_TOUCHPAD_POS_NONE;
 272:Generated_Source\PSoC4/CapSense_1_Processing.c ****         ptrWdTouchpad->touch[1u].z = LO8(CapSense_1_TOUCHPAD_POS_NONE);
 273:Generated_Source\PSoC4/CapSense_1_Processing.c ****     #endif /* #if (CapSense_1_CSX_MAX_FINGERS > 1u) */
 274:Generated_Source\PSoC4/CapSense_1_Processing.c **** 
 275:Generated_Source\PSoC4/CapSense_1_Processing.c ****     #if (CapSense_1_CSX_MAX_FINGERS > 2u)
 276:Generated_Source\PSoC4/CapSense_1_Processing.c ****         ptrWdTouchpad->touch[2u].x = CapSense_1_TOUCHPAD_POS_NONE;
 277:Generated_Source\PSoC4/CapSense_1_Processing.c ****         ptrWdTouchpad->touch[2u].y = CapSense_1_TOUCHPAD_POS_NONE;
 278:Generated_Source\PSoC4/CapSense_1_Processing.c ****         ptrWdTouchpad->touch[2u].z = LO8(CapSense_1_TOUCHPAD_POS_NONE);
 279:Generated_Source\PSoC4/CapSense_1_Processing.c ****     #endif /* #if (CapSense_1_CSX_MAX_FINGERS > 2u) */
 280:Generated_Source\PSoC4/CapSense_1_Processing.c **** 
 281:Generated_Source\PSoC4/CapSense_1_Processing.c ****     #if (0u != CapSense_1_POSITION_FILTER_EN)
 282:Generated_Source\PSoC4/CapSense_1_Processing.c ****         for (touchIndex = 0u; touchIndex < CapSense_1_CSX_MAX_FINGERS; touchIndex++)
 283:Generated_Source\PSoC4/CapSense_1_Processing.c ****         {
 284:Generated_Source\PSoC4/CapSense_1_Processing.c ****             if (NULL != ptrHistory)
 285:Generated_Source\PSoC4/CapSense_1_Processing.c ****             {
 286:Generated_Source\PSoC4/CapSense_1_Processing.c ****                 /* Clear position filter history data if available */
 287:Generated_Source\PSoC4/CapSense_1_Processing.c ****                 CapSense_1_InitPosFiltersDd(&ptrHistory[touchIndex], CapSense_1_TOUCHPAD_POS_NONE, 
 288:Generated_Source\PSoC4/CapSense_1_Processing.c ****                 #if (0u != CapSense_1_POS_ADAPTIVE_IIR_FILTER_EN)
 289:Generated_Source\PSoC4/CapSense_1_Processing.c ****                     AdaptiveFilter_Initialize(&ptrWdTouchpad->aiirConfig, &adpContext);
 290:Generated_Source\PSoC4/CapSense_1_Processing.c ****                     ptrHistory[touchIndex].xPos.posAIIRCoeff = adpContext.coefficient;
 291:Generated_Source\PSoC4/CapSense_1_Processing.c ****                     ptrHistory[touchIndex].yPos.posAIIRCoeff = adpContext.coefficient;
 292:Generated_Source\PSoC4/CapSense_1_Processing.c ****                 #endif /* (0u != CapSense_1_POS_ADAPTIVE_IIR_FILTER_EN) */
 293:Generated_Source\PSoC4/CapSense_1_Processing.c ****             }
 294:Generated_Source\PSoC4/CapSense_1_Processing.c ****         }
 295:Generated_Source\PSoC4/CapSense_1_Processing.c ****     #endif /* (0u != CapSense_1_POSITION_FILTER_EN) */
 296:Generated_Source\PSoC4/CapSense_1_Processing.c **** }
 297:Generated_Source\PSoC4/CapSense_1_Processing.c **** #endif /* #if (0u != CapSense_1_CSX_TOUCHPAD_WIDGET_EN) */
 298:Generated_Source\PSoC4/CapSense_1_Processing.c **** 
 299:Generated_Source\PSoC4/CapSense_1_Processing.c **** #if (0u != CapSense_1_SLIDER_WIDGET_EN)
 300:Generated_Source\PSoC4/CapSense_1_Processing.c **** /*******************************************************************************
 301:Generated_Source\PSoC4/CapSense_1_Processing.c **** * Function Name: CapSense_1_DpInitSlider
 302:Generated_Source\PSoC4/CapSense_1_Processing.c **** ****************************************************************************//**
 303:Generated_Source\PSoC4/CapSense_1_Processing.c **** *
 304:Generated_Source\PSoC4/CapSense_1_Processing.c **** * \brief
 305:Generated_Source\PSoC4/CapSense_1_Processing.c **** *  Performs initialization of the Radial and Linear Slider widget.
 306:Generated_Source\PSoC4/CapSense_1_Processing.c **** *   - Resets the position data to NONE
 307:Generated_Source\PSoC4/CapSense_1_Processing.c **** *   - Initializes the position filter history to NONE if enabled.
 308:Generated_Source\PSoC4/CapSense_1_Processing.c **** *
 309:Generated_Source\PSoC4/CapSense_1_Processing.c **** * \details
 310:Generated_Source\PSoC4/CapSense_1_Processing.c **** *  Position data is always reset to the CapSense_1_SLIDER_POS_NONE value.
 311:Generated_Source\PSoC4/CapSense_1_Processing.c **** *  The same happens to the position filter history data if enabled.
 312:Generated_Source\PSoC4/CapSense_1_Processing.c **** *
 313:Generated_Source\PSoC4/CapSense_1_Processing.c **** *******************************************************************************/
 314:Generated_Source\PSoC4/CapSense_1_Processing.c **** static CY_INLINE void CapSense_1_DpInitSlider(CapSense_1_FLASH_WD_STRUCT const * ptrFlashWdgt)
 315:Generated_Source\PSoC4/CapSense_1_Processing.c **** {
ARM GAS  C:\Users\MICHAE~1.MAC\AppData\Local\Temp\ccOp1ZUS.s 			page 7


 316:Generated_Source\PSoC4/CapSense_1_Processing.c ****     uint32 idx;
 317:Generated_Source\PSoC4/CapSense_1_Processing.c ****     CapSense_1_RAM_WD_SLIDER_STRUCT *ptrWdSlider;
 318:Generated_Source\PSoC4/CapSense_1_Processing.c **** 
 319:Generated_Source\PSoC4/CapSense_1_Processing.c ****     #if (0u != CapSense_1_POSITION_FILTER_EN)
 320:Generated_Source\PSoC4/CapSense_1_Processing.c ****         CapSense_1_SLIDER_POS_HISTORY_STRUCT *ptrHistory;
 321:Generated_Source\PSoC4/CapSense_1_Processing.c ****     #endif /* #if (0u != CapSense_1_POSITION_FILTER_EN) */
 322:Generated_Source\PSoC4/CapSense_1_Processing.c **** 
 323:Generated_Source\PSoC4/CapSense_1_Processing.c ****     #if (0u != CapSense_1_POS_ADAPTIVE_IIR_FILTER_EN)
 324:Generated_Source\PSoC4/CapSense_1_Processing.c ****         ADAPTIVE_FILTER_CONTEXT_STRUCT context;
 325:Generated_Source\PSoC4/CapSense_1_Processing.c ****     #endif /* (0u != CapSense_1_POS_ADAPTIVE_IIR_FILTER_EN) */
 326:Generated_Source\PSoC4/CapSense_1_Processing.c **** 
 327:Generated_Source\PSoC4/CapSense_1_Processing.c ****     ptrWdSlider = ptrFlashWdgt->ptr2WdgtRam;
 328:Generated_Source\PSoC4/CapSense_1_Processing.c **** 
 329:Generated_Source\PSoC4/CapSense_1_Processing.c ****     /* Reset slider position data to NONE */
 330:Generated_Source\PSoC4/CapSense_1_Processing.c ****     for (idx = 0u; idx < CapSense_1_NUM_CENTROIDS; idx++)
 331:Generated_Source\PSoC4/CapSense_1_Processing.c ****     {
 332:Generated_Source\PSoC4/CapSense_1_Processing.c ****         ptrWdSlider->position[idx] = CapSense_1_SLIDER_POS_NONE;
 333:Generated_Source\PSoC4/CapSense_1_Processing.c **** 
 334:Generated_Source\PSoC4/CapSense_1_Processing.c ****         #if (0u != CapSense_1_POSITION_FILTER_EN)
 335:Generated_Source\PSoC4/CapSense_1_Processing.c ****             ptrHistory = ptrFlashWdgt->ptr2PosHistory;
 336:Generated_Source\PSoC4/CapSense_1_Processing.c ****             if (NULL != ptrHistory)
 337:Generated_Source\PSoC4/CapSense_1_Processing.c ****             {
 338:Generated_Source\PSoC4/CapSense_1_Processing.c ****                 CapSense_1_InitPosFiltersSd(&ptrHistory[idx], CapSense_1_SLIDER_POS_NONE);
 339:Generated_Source\PSoC4/CapSense_1_Processing.c ****                 #if (0u != CapSense_1_POS_ADAPTIVE_IIR_FILTER_EN)
 340:Generated_Source\PSoC4/CapSense_1_Processing.c ****                     AdaptiveFilter_Initialize(&ptrWdSlider->aiirConfig, &context);
 341:Generated_Source\PSoC4/CapSense_1_Processing.c ****                     ptrHistory->posAIIRCoeff = context.coefficient;
 342:Generated_Source\PSoC4/CapSense_1_Processing.c ****                 #endif /* (0u != CapSense_1_POS_ADAPTIVE_IIR_FILTER_EN) */
 343:Generated_Source\PSoC4/CapSense_1_Processing.c ****             }
 344:Generated_Source\PSoC4/CapSense_1_Processing.c **** 
 345:Generated_Source\PSoC4/CapSense_1_Processing.c ****         #endif /* #if (0u != CapSense_1_POSITION_FILTER_EN) */
 346:Generated_Source\PSoC4/CapSense_1_Processing.c ****     }
 347:Generated_Source\PSoC4/CapSense_1_Processing.c **** }
 348:Generated_Source\PSoC4/CapSense_1_Processing.c **** #endif /* #if (0u != CapSense_1_SLIDER_WIDGET_EN) */
 349:Generated_Source\PSoC4/CapSense_1_Processing.c **** 
 350:Generated_Source\PSoC4/CapSense_1_Processing.c **** #if (0u != CapSense_1_CSD_MATRIX_WIDGET_EN)
 351:Generated_Source\PSoC4/CapSense_1_Processing.c **** /*******************************************************************************
 352:Generated_Source\PSoC4/CapSense_1_Processing.c **** * Function Name: CapSense_1_DpInitCsdMatrix
 353:Generated_Source\PSoC4/CapSense_1_Processing.c **** ****************************************************************************//**
 354:Generated_Source\PSoC4/CapSense_1_Processing.c **** *
 355:Generated_Source\PSoC4/CapSense_1_Processing.c **** * \brief
 356:Generated_Source\PSoC4/CapSense_1_Processing.c **** *  Performs initialization of the CSD Matrix Buttons widget.
 357:Generated_Source\PSoC4/CapSense_1_Processing.c **** *   - Resets the active button position data to NONE.
 358:Generated_Source\PSoC4/CapSense_1_Processing.c **** *
 359:Generated_Source\PSoC4/CapSense_1_Processing.c **** * \details
 360:Generated_Source\PSoC4/CapSense_1_Processing.c **** *  Position data is always reset to the CapSense_1_MATRIX_POS_NONE value.
 361:Generated_Source\PSoC4/CapSense_1_Processing.c **** *
 362:Generated_Source\PSoC4/CapSense_1_Processing.c **** *******************************************************************************/
 363:Generated_Source\PSoC4/CapSense_1_Processing.c **** static CY_INLINE void CapSense_1_DpInitCsdMatrix(CapSense_1_FLASH_WD_STRUCT const * ptrFlashWdgt)
 364:Generated_Source\PSoC4/CapSense_1_Processing.c **** {
 365:Generated_Source\PSoC4/CapSense_1_Processing.c ****     CapSense_1_RAM_WD_CSD_MATRIX_STRUCT *ptrRamWdgt;
 366:Generated_Source\PSoC4/CapSense_1_Processing.c **** 
 367:Generated_Source\PSoC4/CapSense_1_Processing.c ****     ptrRamWdgt = (CapSense_1_RAM_WD_CSD_MATRIX_STRUCT *)ptrFlashWdgt->ptr2WdgtRam;
 368:Generated_Source\PSoC4/CapSense_1_Processing.c **** 
 369:Generated_Source\PSoC4/CapSense_1_Processing.c ****     /* Reset sensor id, row and col registers in data structure */
 370:Generated_Source\PSoC4/CapSense_1_Processing.c ****     ptrRamWdgt->posRow   = CapSense_1_MATRIX_POS_NONE;
 371:Generated_Source\PSoC4/CapSense_1_Processing.c ****     ptrRamWdgt->posCol   = CapSense_1_MATRIX_POS_NONE;
 372:Generated_Source\PSoC4/CapSense_1_Processing.c ****     ptrRamWdgt->posSnsId = CapSense_1_MATRIX_POS_NONE;
ARM GAS  C:\Users\MICHAE~1.MAC\AppData\Local\Temp\ccOp1ZUS.s 			page 8


 373:Generated_Source\PSoC4/CapSense_1_Processing.c **** }
 374:Generated_Source\PSoC4/CapSense_1_Processing.c **** #endif /* #if (0u != CapSense_1_CSD_MATRIX_WIDGET_EN) */
 375:Generated_Source\PSoC4/CapSense_1_Processing.c **** 
 376:Generated_Source\PSoC4/CapSense_1_Processing.c **** /*******************************************************************************
 377:Generated_Source\PSoC4/CapSense_1_Processing.c **** * Function Name: CapSense_1_DpInitialize
 378:Generated_Source\PSoC4/CapSense_1_Processing.c **** ****************************************************************************//**
 379:Generated_Source\PSoC4/CapSense_1_Processing.c **** *
 380:Generated_Source\PSoC4/CapSense_1_Processing.c **** * \brief
 381:Generated_Source\PSoC4/CapSense_1_Processing.c **** *  Performs initialization of the data processing FW module:
 382:Generated_Source\PSoC4/CapSense_1_Processing.c **** *   - Resets the de-bounce counters of all the widgets
 383:Generated_Source\PSoC4/CapSense_1_Processing.c **** *   - Resets the position filter history for slider and touchpad widgets
 384:Generated_Source\PSoC4/CapSense_1_Processing.c **** *   - Clears widget and sensor statuses
 385:Generated_Source\PSoC4/CapSense_1_Processing.c **** *   - Enables all the widgets.
 386:Generated_Source\PSoC4/CapSense_1_Processing.c **** *
 387:Generated_Source\PSoC4/CapSense_1_Processing.c **** * \details
 388:Generated_Source\PSoC4/CapSense_1_Processing.c **** *  The Button and Matrix Button widgets have individual de-bounce counter per
 389:Generated_Source\PSoC4/CapSense_1_Processing.c **** *  sensor for the CSD widgets and per node for the CSX widgets.
 390:Generated_Source\PSoC4/CapSense_1_Processing.c **** *
 391:Generated_Source\PSoC4/CapSense_1_Processing.c **** *  The Slider and Touchpad widgets have a single de-bounce counter per widget.
 392:Generated_Source\PSoC4/CapSense_1_Processing.c **** *
 393:Generated_Source\PSoC4/CapSense_1_Processing.c **** *  The Proximity widget has two de-bounce counters per sensor. One for the
 394:Generated_Source\PSoC4/CapSense_1_Processing.c **** *  proximity event and second for the touch event.
 395:Generated_Source\PSoC4/CapSense_1_Processing.c **** *
 396:Generated_Source\PSoC4/CapSense_1_Processing.c **** *  All debounce counters during initialization are set to the value of the
 397:Generated_Source\PSoC4/CapSense_1_Processing.c **** *  onDebounce widget parameter.
 398:Generated_Source\PSoC4/CapSense_1_Processing.c **** *
 399:Generated_Source\PSoC4/CapSense_1_Processing.c **** *******************************************************************************/
 400:Generated_Source\PSoC4/CapSense_1_Processing.c **** void CapSense_1_DpInitialize(void)
 401:Generated_Source\PSoC4/CapSense_1_Processing.c **** {
  28              		.loc 1 401 0
  29              		.cfi_startproc
  30              		@ args = 0, pretend = 0, frame = 0
  31              		@ frame_needed = 0, uses_anonymous_args = 0
  32 0000 70B5     		push	{r4, r5, r6, lr}
  33              		.cfi_def_cfa_offset 16
  34              		.cfi_offset 4, -16
  35              		.cfi_offset 5, -12
  36              		.cfi_offset 6, -8
  37              		.cfi_offset 14, -4
  38              	.LVL0:
 402:Generated_Source\PSoC4/CapSense_1_Processing.c ****     uint32 wdgtId;
 403:Generated_Source\PSoC4/CapSense_1_Processing.c ****     CapSense_1_WD_TYPE_ENUM widgetType;
 404:Generated_Source\PSoC4/CapSense_1_Processing.c ****     CapSense_1_RAM_WD_BASE_STRUCT * ptrRamWdgt;
 405:Generated_Source\PSoC4/CapSense_1_Processing.c ****     CapSense_1_FLASH_WD_STRUCT const * ptrFlashWdgt;
 406:Generated_Source\PSoC4/CapSense_1_Processing.c **** 
 407:Generated_Source\PSoC4/CapSense_1_Processing.c ****     for (wdgtId = 0u; wdgtId < CapSense_1_WDGT_STATUS_WORDS; wdgtId++)
  39              		.loc 1 407 0
  40 0002 0023     		movs	r3, #0
  41 0004 09E0     		b	.L2
  42              	.LVL1:
  43              	.L3:
 408:Generated_Source\PSoC4/CapSense_1_Processing.c ****     {
 409:Generated_Source\PSoC4/CapSense_1_Processing.c ****         /* Clear widget status */
 410:Generated_Source\PSoC4/CapSense_1_Processing.c ****         CapSense_1_dsRam.wdgtStatus[wdgtId] = 0u;
  44              		.loc 1 410 0 discriminator 3
  45 0006 1249     		ldr	r1, .L8
  46 0008 1A1D     		adds	r2, r3, #4
ARM GAS  C:\Users\MICHAE~1.MAC\AppData\Local\Temp\ccOp1ZUS.s 			page 9


  47 000a 9200     		lsls	r2, r2, #2
  48 000c 8818     		adds	r0, r1, r2
  49 000e 0024     		movs	r4, #0
  50 0010 4460     		str	r4, [r0, #4]
 411:Generated_Source\PSoC4/CapSense_1_Processing.c **** 
 412:Generated_Source\PSoC4/CapSense_1_Processing.c ****         /* Enable all the widgets */
 413:Generated_Source\PSoC4/CapSense_1_Processing.c ****         CapSense_1_dsRam.wdgtEnable[wdgtId] = 0xFFFFFFFFLu;
  51              		.loc 1 413 0 discriminator 3
  52 0012 0120     		movs	r0, #1
  53 0014 4042     		rsbs	r0, r0, #0
  54 0016 5050     		str	r0, [r2, r1]
 407:Generated_Source\PSoC4/CapSense_1_Processing.c ****     {
  55              		.loc 1 407 0 discriminator 3
  56 0018 0133     		adds	r3, r3, #1
  57              	.LVL2:
  58              	.L2:
 407:Generated_Source\PSoC4/CapSense_1_Processing.c ****     {
  59              		.loc 1 407 0 is_stmt 0 discriminator 1
  60 001a 002B     		cmp	r3, #0
  61 001c F3D0     		beq	.L3
  62 001e 0D4C     		ldr	r4, .L8+4
  63 0020 0523     		movs	r3, #5
  64              	.LVL3:
  65 0022 10E0     		b	.L4
  66              	.LVL4:
  67              	.L7:
 414:Generated_Source\PSoC4/CapSense_1_Processing.c **** 
 415:Generated_Source\PSoC4/CapSense_1_Processing.c ****         /* Set all the widgets to working state if the Self-Test is not enabled */
 416:Generated_Source\PSoC4/CapSense_1_Processing.c ****         #if (0u != CapSense_1_SELF_TEST_EN)
 417:Generated_Source\PSoC4/CapSense_1_Processing.c ****             CapSense_1_dsRam.wdgtWorking[wdgtId] = 0xFFFFFFFFLu;
 418:Generated_Source\PSoC4/CapSense_1_Processing.c ****         #endif /* #if (0u == CapSense_1_SELF_TEST_EN) */
 419:Generated_Source\PSoC4/CapSense_1_Processing.c ****     }
 420:Generated_Source\PSoC4/CapSense_1_Processing.c **** 
 421:Generated_Source\PSoC4/CapSense_1_Processing.c ****     ptrFlashWdgt = CapSense_1_dsFlash.wdgtArray;
 422:Generated_Source\PSoC4/CapSense_1_Processing.c **** 
 423:Generated_Source\PSoC4/CapSense_1_Processing.c ****     for (wdgtId = CapSense_1_TOTAL_WIDGETS; wdgtId-- > 0u; )
 424:Generated_Source\PSoC4/CapSense_1_Processing.c ****     {
 425:Generated_Source\PSoC4/CapSense_1_Processing.c ****         ptrRamWdgt = (CapSense_1_RAM_WD_BASE_STRUCT *)ptrFlashWdgt->ptr2WdgtRam;
  68              		.loc 1 425 0 is_stmt 1
  69 0024 6668     		ldr	r6, [r4, #4]
  70              	.LVL5:
 426:Generated_Source\PSoC4/CapSense_1_Processing.c ****         widgetType = (CapSense_1_WD_TYPE_ENUM)ptrFlashWdgt->wdgtType;
  71              		.loc 1 426 0
  72 0026 A27E     		ldrb	r2, [r4, #26]
  73              	.LVL6:
 427:Generated_Source\PSoC4/CapSense_1_Processing.c **** 
 428:Generated_Source\PSoC4/CapSense_1_Processing.c ****         /* Clear all sensor statuses */
 429:Generated_Source\PSoC4/CapSense_1_Processing.c ****         CapSense_1_dsRam.snsStatus[wdgtId] = 0u;
  74              		.loc 1 429 0
  75 0028 094B     		ldr	r3, .L8
  76 002a 5B19     		adds	r3, r3, r5
  77 002c 0021     		movs	r1, #0
  78 002e 1976     		strb	r1, [r3, #24]
 430:Generated_Source\PSoC4/CapSense_1_Processing.c **** 
 431:Generated_Source\PSoC4/CapSense_1_Processing.c ****         /* Reset de-bounce counters */
 432:Generated_Source\PSoC4/CapSense_1_Processing.c ****         switch (widgetType)
  79              		.loc 1 432 0
ARM GAS  C:\Users\MICHAE~1.MAC\AppData\Local\Temp\ccOp1ZUS.s 			page 10


  80 0030 012A     		cmp	r2, #1
  81 0032 06D1     		bne	.L5
 433:Generated_Source\PSoC4/CapSense_1_Processing.c ****         {
 434:Generated_Source\PSoC4/CapSense_1_Processing.c ****         #if (0u != CapSense_1_MATRIX_WIDGET_EN)
 435:Generated_Source\PSoC4/CapSense_1_Processing.c ****             case CapSense_1_WD_MATRIX_BUTTON_E:
 436:Generated_Source\PSoC4/CapSense_1_Processing.c ****                 #if (0u != CapSense_1_CSD_MATRIX_WIDGET_EN)
 437:Generated_Source\PSoC4/CapSense_1_Processing.c ****                     if (CapSense_1_SENSE_METHOD_CSD_E == CapSense_1_GET_SENSE_METHOD(ptrFlashWdgt))
 438:Generated_Source\PSoC4/CapSense_1_Processing.c ****                     {
 439:Generated_Source\PSoC4/CapSense_1_Processing.c ****                         CapSense_1_DpInitCsdMatrix(ptrFlashWdgt);
 440:Generated_Source\PSoC4/CapSense_1_Processing.c ****                     }
 441:Generated_Source\PSoC4/CapSense_1_Processing.c ****                 #endif /* #if (0u != CapSense_1_CSD_MATRIX_WIDGET_EN) */
 442:Generated_Source\PSoC4/CapSense_1_Processing.c **** 
 443:Generated_Source\PSoC4/CapSense_1_Processing.c ****                 if (NULL != ptrFlashWdgt->ptr2DebounceArr)
 444:Generated_Source\PSoC4/CapSense_1_Processing.c ****                 {
 445:Generated_Source\PSoC4/CapSense_1_Processing.c ****                     /* Initialize array of debounce counters */
 446:Generated_Source\PSoC4/CapSense_1_Processing.c ****                     (void)memset(ptrFlashWdgt->ptr2DebounceArr,
 447:Generated_Source\PSoC4/CapSense_1_Processing.c ****                                  (int32)ptrRamWdgt->onDebounce,
 448:Generated_Source\PSoC4/CapSense_1_Processing.c ****                                  (size_t)ptrFlashWdgt->totalNumSns);
 449:Generated_Source\PSoC4/CapSense_1_Processing.c ****                 }
 450:Generated_Source\PSoC4/CapSense_1_Processing.c ****                 break;
 451:Generated_Source\PSoC4/CapSense_1_Processing.c ****         #endif /* #if (0u != CapSense_1_MATRIX_WIDGET_EN) */
 452:Generated_Source\PSoC4/CapSense_1_Processing.c **** 
 453:Generated_Source\PSoC4/CapSense_1_Processing.c ****         #if (0u != CapSense_1_BUTTON_WIDGET_EN)
 454:Generated_Source\PSoC4/CapSense_1_Processing.c ****             case CapSense_1_WD_BUTTON_E:
 455:Generated_Source\PSoC4/CapSense_1_Processing.c ****                 if (NULL != ptrFlashWdgt->ptr2DebounceArr)
  82              		.loc 1 455 0
  83 0034 2069     		ldr	r0, [r4, #16]
  84 0036 0028     		cmp	r0, #0
  85 0038 03D0     		beq	.L5
 456:Generated_Source\PSoC4/CapSense_1_Processing.c ****                 {
 457:Generated_Source\PSoC4/CapSense_1_Processing.c ****                     /* Initialize array of debounce counters */
 458:Generated_Source\PSoC4/CapSense_1_Processing.c ****                     (void)memset(ptrFlashWdgt->ptr2DebounceArr,
 459:Generated_Source\PSoC4/CapSense_1_Processing.c ****                                  (int32)ptrRamWdgt->onDebounce,
  86              		.loc 1 459 0
  87 003a F179     		ldrb	r1, [r6, #7]
 460:Generated_Source\PSoC4/CapSense_1_Processing.c ****                                  (size_t)ptrFlashWdgt->totalNumSns);
  88              		.loc 1 460 0
  89 003c 228B     		ldrh	r2, [r4, #24]
  90              	.LVL7:
 458:Generated_Source\PSoC4/CapSense_1_Processing.c ****                                  (int32)ptrRamWdgt->onDebounce,
  91              		.loc 1 458 0
  92 003e FFF7FEFF 		bl	memset
  93              	.LVL8:
  94              	.L5:
 461:Generated_Source\PSoC4/CapSense_1_Processing.c ****                 }
 462:Generated_Source\PSoC4/CapSense_1_Processing.c ****                 break;
 463:Generated_Source\PSoC4/CapSense_1_Processing.c ****         #endif /* #if (0u != CapSense_1_BUTTON_WIDGET_EN) */
 464:Generated_Source\PSoC4/CapSense_1_Processing.c **** 
 465:Generated_Source\PSoC4/CapSense_1_Processing.c ****         #if (0u != CapSense_1_SLIDER_WIDGET_EN)
 466:Generated_Source\PSoC4/CapSense_1_Processing.c ****             case CapSense_1_WD_LINEAR_SLIDER_E:
 467:Generated_Source\PSoC4/CapSense_1_Processing.c ****             case CapSense_1_WD_RADIAL_SLIDER_E:
 468:Generated_Source\PSoC4/CapSense_1_Processing.c ****                 if (NULL != ptrFlashWdgt->ptr2DebounceArr)
 469:Generated_Source\PSoC4/CapSense_1_Processing.c ****                 {
 470:Generated_Source\PSoC4/CapSense_1_Processing.c ****                     /* Initialize single debounce counter of slider */
 471:Generated_Source\PSoC4/CapSense_1_Processing.c ****                     *(uint8 *)(ptrFlashWdgt->ptr2DebounceArr) = ptrRamWdgt->onDebounce;
 472:Generated_Source\PSoC4/CapSense_1_Processing.c ****                 }
 473:Generated_Source\PSoC4/CapSense_1_Processing.c **** 
ARM GAS  C:\Users\MICHAE~1.MAC\AppData\Local\Temp\ccOp1ZUS.s 			page 11


 474:Generated_Source\PSoC4/CapSense_1_Processing.c ****                 CapSense_1_DpInitSlider(ptrFlashWdgt);
 475:Generated_Source\PSoC4/CapSense_1_Processing.c **** 
 476:Generated_Source\PSoC4/CapSense_1_Processing.c ****                 break;
 477:Generated_Source\PSoC4/CapSense_1_Processing.c ****         #endif /* #if (0u != CapSense_1_SLIDER_WIDGET_EN) */
 478:Generated_Source\PSoC4/CapSense_1_Processing.c **** 
 479:Generated_Source\PSoC4/CapSense_1_Processing.c ****         #if (0u != CapSense_1_TOUCHPAD_WIDGET_EN)
 480:Generated_Source\PSoC4/CapSense_1_Processing.c ****             case CapSense_1_WD_TOUCHPAD_E:
 481:Generated_Source\PSoC4/CapSense_1_Processing.c ****                 if (NULL != ptrFlashWdgt->ptr2DebounceArr)
 482:Generated_Source\PSoC4/CapSense_1_Processing.c ****                 {
 483:Generated_Source\PSoC4/CapSense_1_Processing.c ****                     /* Initialize single debounce counter of touchpad */
 484:Generated_Source\PSoC4/CapSense_1_Processing.c ****                     *(uint8 *)(ptrFlashWdgt->ptr2DebounceArr) = ptrRamWdgt->onDebounce;
 485:Generated_Source\PSoC4/CapSense_1_Processing.c ****                 }
 486:Generated_Source\PSoC4/CapSense_1_Processing.c **** 
 487:Generated_Source\PSoC4/CapSense_1_Processing.c ****                 #if (0u != CapSense_1_CSD_TOUCHPAD_WIDGET_EN)
 488:Generated_Source\PSoC4/CapSense_1_Processing.c ****                     if (CapSense_1_SENSE_METHOD_CSD_E == CapSense_1_GET_SENSE_METHOD(ptrFlashWdgt))
 489:Generated_Source\PSoC4/CapSense_1_Processing.c ****                     {
 490:Generated_Source\PSoC4/CapSense_1_Processing.c ****                         CapSense_1_DpInitCsdTouchpad(ptrFlashWdgt);
 491:Generated_Source\PSoC4/CapSense_1_Processing.c ****                     }
 492:Generated_Source\PSoC4/CapSense_1_Processing.c ****                 #endif /* #if (0u != CapSense_1_CSD_TOUCHPAD_WIDGET_EN) */
 493:Generated_Source\PSoC4/CapSense_1_Processing.c **** 
 494:Generated_Source\PSoC4/CapSense_1_Processing.c ****                 #if (0u != CapSense_1_CSX_TOUCHPAD_WIDGET_EN)
 495:Generated_Source\PSoC4/CapSense_1_Processing.c ****                     if (CapSense_1_SENSE_METHOD_CSX_E == CapSense_1_GET_SENSE_METHOD(ptrFlashWdgt))
 496:Generated_Source\PSoC4/CapSense_1_Processing.c ****                     {
 497:Generated_Source\PSoC4/CapSense_1_Processing.c ****                         CapSense_1_DpInitCsxTouchpad(ptrFlashWdgt);
 498:Generated_Source\PSoC4/CapSense_1_Processing.c ****                     }
 499:Generated_Source\PSoC4/CapSense_1_Processing.c ****                 #endif /* #if (0u != CapSense_1_CSX_TOUCHPAD_WIDGET_EN) */
 500:Generated_Source\PSoC4/CapSense_1_Processing.c **** 
 501:Generated_Source\PSoC4/CapSense_1_Processing.c ****                 break;
 502:Generated_Source\PSoC4/CapSense_1_Processing.c ****         #endif /* #if (0u != CapSense_1_TOUCHPAD_WIDGET_EN) */
 503:Generated_Source\PSoC4/CapSense_1_Processing.c **** 
 504:Generated_Source\PSoC4/CapSense_1_Processing.c ****         #if (0u != CapSense_1_PROXIMITY_WIDGET_EN)
 505:Generated_Source\PSoC4/CapSense_1_Processing.c ****             case CapSense_1_WD_PROXIMITY_E:
 506:Generated_Source\PSoC4/CapSense_1_Processing.c ****                 if (NULL != ptrFlashWdgt->ptr2DebounceArr)
 507:Generated_Source\PSoC4/CapSense_1_Processing.c ****                 {
 508:Generated_Source\PSoC4/CapSense_1_Processing.c ****                     /* Proximity widgets have 2 de-bounce counters per sensor.
 509:Generated_Source\PSoC4/CapSense_1_Processing.c ****                      * Therefore the number of sensors is multiplied by 2.
 510:Generated_Source\PSoC4/CapSense_1_Processing.c ****                      */
 511:Generated_Source\PSoC4/CapSense_1_Processing.c ****                    (void)memset(ptrFlashWdgt->ptr2DebounceArr,
 512:Generated_Source\PSoC4/CapSense_1_Processing.c ****                                 (int32)ptrRamWdgt->onDebounce,
 513:Generated_Source\PSoC4/CapSense_1_Processing.c ****                                 (size_t)ptrFlashWdgt->totalNumSns * 2u);
 514:Generated_Source\PSoC4/CapSense_1_Processing.c ****                 }
 515:Generated_Source\PSoC4/CapSense_1_Processing.c ****                 break;
 516:Generated_Source\PSoC4/CapSense_1_Processing.c ****         #endif /* #if (0u != CapSense_1_PROXIMITY_WIDGET_EN) */
 517:Generated_Source\PSoC4/CapSense_1_Processing.c **** 
 518:Generated_Source\PSoC4/CapSense_1_Processing.c ****         #if (0u != CapSense_1_ENCODERDIAL_WIDGET_EN)
 519:Generated_Source\PSoC4/CapSense_1_Processing.c ****             case CapSense_1_WD_ENCODERDIAL_E:
 520:Generated_Source\PSoC4/CapSense_1_Processing.c ****                 if (NULL != ptrFlashWdgt->ptr2DebounceArr)
 521:Generated_Source\PSoC4/CapSense_1_Processing.c ****                 {
 522:Generated_Source\PSoC4/CapSense_1_Processing.c ****                     /* Proximity widgets have 2 de-bounce counters per sensor.
 523:Generated_Source\PSoC4/CapSense_1_Processing.c ****                      * Therefore the number of sensors is multiplied by 2.
 524:Generated_Source\PSoC4/CapSense_1_Processing.c ****                      */
 525:Generated_Source\PSoC4/CapSense_1_Processing.c ****                    (void)memset(ptrFlashWdgt->ptr2DebounceArr,
 526:Generated_Source\PSoC4/CapSense_1_Processing.c ****                                 (int32)ptrRamWdgt->onDebounce,
 527:Generated_Source\PSoC4/CapSense_1_Processing.c ****                                 (size_t)ptrFlashWdgt->totalNumSns);
 528:Generated_Source\PSoC4/CapSense_1_Processing.c ****                 }
 529:Generated_Source\PSoC4/CapSense_1_Processing.c ****                 break;
 530:Generated_Source\PSoC4/CapSense_1_Processing.c ****         #endif /* (0u != CapSense_1_ENCODERDIAL_WIDGET_EN) */
ARM GAS  C:\Users\MICHAE~1.MAC\AppData\Local\Temp\ccOp1ZUS.s 			page 12


 531:Generated_Source\PSoC4/CapSense_1_Processing.c ****             default:
 532:Generated_Source\PSoC4/CapSense_1_Processing.c ****                 break;
 533:Generated_Source\PSoC4/CapSense_1_Processing.c ****         }
 534:Generated_Source\PSoC4/CapSense_1_Processing.c **** 
 535:Generated_Source\PSoC4/CapSense_1_Processing.c ****         /* Move to next widget */
 536:Generated_Source\PSoC4/CapSense_1_Processing.c ****         ptrFlashWdgt++;
  95              		.loc 1 536 0
  96 0042 2034     		adds	r4, r4, #32
  97              	.LVL9:
 423:Generated_Source\PSoC4/CapSense_1_Processing.c ****     {
  98              		.loc 1 423 0
  99 0044 2B00     		movs	r3, r5
 100              	.LVL10:
 101              	.L4:
 423:Generated_Source\PSoC4/CapSense_1_Processing.c ****     {
 102              		.loc 1 423 0 is_stmt 0 discriminator 1
 103 0046 5D1E     		subs	r5, r3, #1
 104              	.LVL11:
 105 0048 002B     		cmp	r3, #0
 106 004a EBD1     		bne	.L7
 537:Generated_Source\PSoC4/CapSense_1_Processing.c ****     }
 538:Generated_Source\PSoC4/CapSense_1_Processing.c **** }
 107              		.loc 1 538 0 is_stmt 1
 108              		@ sp needed
 109              	.LVL12:
 110              	.LVL13:
 111 004c 70BD     		pop	{r4, r5, r6, pc}
 112              	.L9:
 113 004e C046     		.align	2
 114              	.L8:
 115 0050 00000000 		.word	CapSense_1_dsRam
 116 0054 00000000 		.word	CapSense_1_dsFlash
 117              		.cfi_endproc
 118              	.LFE1:
 119              		.size	CapSense_1_DpInitialize, .-CapSense_1_DpInitialize
 120              		.section	.text.CapSense_1_DpUpdateThresholds,"ax",%progbits
 121              		.align	2
 122              		.global	CapSense_1_DpUpdateThresholds
 123              		.code	16
 124              		.thumb_func
 125              		.type	CapSense_1_DpUpdateThresholds, %function
 126              	CapSense_1_DpUpdateThresholds:
 127              	.LFB5:
 539:Generated_Source\PSoC4/CapSense_1_Processing.c **** 
 540:Generated_Source\PSoC4/CapSense_1_Processing.c **** #if (0u != CapSense_1_TOTAL_CSX_WIDGETS)
 541:Generated_Source\PSoC4/CapSense_1_Processing.c **** /*******************************************************************************
 542:Generated_Source\PSoC4/CapSense_1_Processing.c **** * Function Name: CapSense_1_DpProcessCsxWidgetRawCounts
 543:Generated_Source\PSoC4/CapSense_1_Processing.c **** ****************************************************************************//**
 544:Generated_Source\PSoC4/CapSense_1_Processing.c **** *
 545:Generated_Source\PSoC4/CapSense_1_Processing.c **** * \brief
 546:Generated_Source\PSoC4/CapSense_1_Processing.c **** *  Performs default processing of the CSX raw counts.
 547:Generated_Source\PSoC4/CapSense_1_Processing.c **** *
 548:Generated_Source\PSoC4/CapSense_1_Processing.c **** * \details
 549:Generated_Source\PSoC4/CapSense_1_Processing.c **** *  Performs default processing of the CSX raw counts:
 550:Generated_Source\PSoC4/CapSense_1_Processing.c **** *   - Run Filters
 551:Generated_Source\PSoC4/CapSense_1_Processing.c **** *   - Update Baselines
 552:Generated_Source\PSoC4/CapSense_1_Processing.c **** *   - Update Differences
ARM GAS  C:\Users\MICHAE~1.MAC\AppData\Local\Temp\ccOp1ZUS.s 			page 13


 553:Generated_Source\PSoC4/CapSense_1_Processing.c **** *   - Update Status.
 554:Generated_Source\PSoC4/CapSense_1_Processing.c **** *  The same process is applied to all the sensors of the specified widget.
 555:Generated_Source\PSoC4/CapSense_1_Processing.c **** *
 556:Generated_Source\PSoC4/CapSense_1_Processing.c **** * \param ptrFlashWdgt The pointer to the Flash widget structure.
 557:Generated_Source\PSoC4/CapSense_1_Processing.c **** *
 558:Generated_Source\PSoC4/CapSense_1_Processing.c **** * \return
 559:Generated_Source\PSoC4/CapSense_1_Processing.c **** *  Returns the status of the specified widget processing operation:
 560:Generated_Source\PSoC4/CapSense_1_Processing.c **** *  - CYRET_SUCCESS if operation was successfully completed;
 561:Generated_Source\PSoC4/CapSense_1_Processing.c **** *  - CapSense_1_PROCESS_BASELINE_FAILED if baseline processing of any
 562:Generated_Source\PSoC4/CapSense_1_Processing.c **** *    sensor of the specified widget failed. The result is concatenated with the index
 563:Generated_Source\PSoC4/CapSense_1_Processing.c **** *    of failed sensor.
 564:Generated_Source\PSoC4/CapSense_1_Processing.c **** *
 565:Generated_Source\PSoC4/CapSense_1_Processing.c **** *******************************************************************************/
 566:Generated_Source\PSoC4/CapSense_1_Processing.c **** uint32 CapSense_1_DpProcessCsxWidgetRawCounts(CapSense_1_FLASH_WD_STRUCT const *ptrFlashWdgt)
 567:Generated_Source\PSoC4/CapSense_1_Processing.c **** {
 568:Generated_Source\PSoC4/CapSense_1_Processing.c ****     uint32 result = CYRET_SUCCESS;
 569:Generated_Source\PSoC4/CapSense_1_Processing.c ****     uint32 widgetType;
 570:Generated_Source\PSoC4/CapSense_1_Processing.c ****     uint32 snsCount;
 571:Generated_Source\PSoC4/CapSense_1_Processing.c ****     CapSense_1_RAM_SNS_STRUCT *ptrSnsTmp;
 572:Generated_Source\PSoC4/CapSense_1_Processing.c ****     CapSense_1_RAM_WD_BASE_STRUCT *ptrRamWdgt;
 573:Generated_Source\PSoC4/CapSense_1_Processing.c **** 
 574:Generated_Source\PSoC4/CapSense_1_Processing.c ****     #if (CapSense_1_ENABLE == CapSense_1_RC_FILTER_EN)
 575:Generated_Source\PSoC4/CapSense_1_Processing.c ****         CapSense_1_PTR_FILTER_VARIANT fltrHistV;
 576:Generated_Source\PSoC4/CapSense_1_Processing.c **** 
 577:Generated_Source\PSoC4/CapSense_1_Processing.c ****         fltrHistV.ptr = ptrFlashWdgt->ptr2FltrHistory;
 578:Generated_Source\PSoC4/CapSense_1_Processing.c ****     #endif /* #if (CapSense_1_ENABLE == CapSense_1_RC_FILTER_EN) */
 579:Generated_Source\PSoC4/CapSense_1_Processing.c **** 
 580:Generated_Source\PSoC4/CapSense_1_Processing.c ****     ptrSnsTmp = ptrFlashWdgt->ptr2SnsRam;
 581:Generated_Source\PSoC4/CapSense_1_Processing.c ****     snsCount = ptrFlashWdgt->totalNumSns;
 582:Generated_Source\PSoC4/CapSense_1_Processing.c ****     ptrRamWdgt = (CapSense_1_RAM_WD_BASE_STRUCT *)ptrFlashWdgt->ptr2WdgtRam;
 583:Generated_Source\PSoC4/CapSense_1_Processing.c ****     widgetType = ptrFlashWdgt->wdgtType;
 584:Generated_Source\PSoC4/CapSense_1_Processing.c **** 
 585:Generated_Source\PSoC4/CapSense_1_Processing.c ****     /* Run deconvolution algorithm for the widgets with multiphase TX support */
 586:Generated_Source\PSoC4/CapSense_1_Processing.c ****     #if (0u != CapSense_1_CSX_MULTIPHASE_TX_EN)
 587:Generated_Source\PSoC4/CapSense_1_Processing.c ****         if (0u != (ptrFlashWdgt->staticConfig & CapSense_1_MULTIPHASE_TX_MASK))
 588:Generated_Source\PSoC4/CapSense_1_Processing.c ****         {
 589:Generated_Source\PSoC4/CapSense_1_Processing.c ****             CapSense_1_DpDeconvolution(ptrFlashWdgt);
 590:Generated_Source\PSoC4/CapSense_1_Processing.c ****         }
 591:Generated_Source\PSoC4/CapSense_1_Processing.c ****     #endif  /* #if (0u != CapSense_1_CSX_MULTIPHASE_TX_EN) */
 592:Generated_Source\PSoC4/CapSense_1_Processing.c **** 
 593:Generated_Source\PSoC4/CapSense_1_Processing.c ****     for (;snsCount-- > 0u;)
 594:Generated_Source\PSoC4/CapSense_1_Processing.c ****     {
 595:Generated_Source\PSoC4/CapSense_1_Processing.c ****         #if (CapSense_1_ENABLE == CapSense_1_RC_FILTER_EN)
 596:Generated_Source\PSoC4/CapSense_1_Processing.c ****             CapSense_1_FtRunEnabledFiltersInternal(fltrHistV, ptrSnsTmp, widgetType);
 597:Generated_Source\PSoC4/CapSense_1_Processing.c ****             #if (CapSense_1_ALP_FILTER_EN)
 598:Generated_Source\PSoC4/CapSense_1_Processing.c ****                 CapSense_1_ConfigRunALPInternal(fltrHistV, ptrRamWdgt, ptrSnsTmp, widgetType);
 599:Generated_Source\PSoC4/CapSense_1_Processing.c ****             #endif
 600:Generated_Source\PSoC4/CapSense_1_Processing.c ****         #endif /* #if (CapSense_1_ENABLE == CapSense_1_RC_FILTER_EN) */
 601:Generated_Source\PSoC4/CapSense_1_Processing.c **** 
 602:Generated_Source\PSoC4/CapSense_1_Processing.c ****         result = CapSense_1_FtUpdateBaseline(ptrRamWdgt, ptrSnsTmp, widgetType);
 603:Generated_Source\PSoC4/CapSense_1_Processing.c **** 
 604:Generated_Source\PSoC4/CapSense_1_Processing.c ****         #if (CapSense_1_ENABLE == CapSense_1_TST_BSLN_DUPLICATION_EN)
 605:Generated_Source\PSoC4/CapSense_1_Processing.c ****             if (CYRET_SUCCESS != result)
 606:Generated_Source\PSoC4/CapSense_1_Processing.c ****             {
 607:Generated_Source\PSoC4/CapSense_1_Processing.c ****                 result = snsCount | CapSense_1_PROCESS_BASELINE_FAILED;
 608:Generated_Source\PSoC4/CapSense_1_Processing.c ****             }
 609:Generated_Source\PSoC4/CapSense_1_Processing.c ****         #endif /* (CapSense_1_ENABLE == CapSense_1_TST_BSLN_DUPLICATION_EN) */
ARM GAS  C:\Users\MICHAE~1.MAC\AppData\Local\Temp\ccOp1ZUS.s 			page 14


 610:Generated_Source\PSoC4/CapSense_1_Processing.c **** 
 611:Generated_Source\PSoC4/CapSense_1_Processing.c ****         CapSense_1_DpUpdateDifferences(ptrRamWdgt, ptrSnsTmp);
 612:Generated_Source\PSoC4/CapSense_1_Processing.c **** 
 613:Generated_Source\PSoC4/CapSense_1_Processing.c ****         /* Move pointers to the next sensor and filter history objects */
 614:Generated_Source\PSoC4/CapSense_1_Processing.c ****         ptrSnsTmp++;
 615:Generated_Source\PSoC4/CapSense_1_Processing.c **** 
 616:Generated_Source\PSoC4/CapSense_1_Processing.c ****         #if (CapSense_1_ENABLE == CapSense_1_RC_FILTER_EN)
 617:Generated_Source\PSoC4/CapSense_1_Processing.c ****             CapSense_1_INC_REG_FLTR_OBJ(fltrHistV);
 618:Generated_Source\PSoC4/CapSense_1_Processing.c ****         #endif /* #if (CapSense_1_ENABLE == CapSense_1_RC_FILTER_EN) */
 619:Generated_Source\PSoC4/CapSense_1_Processing.c ****     }
 620:Generated_Source\PSoC4/CapSense_1_Processing.c ****     return result;
 621:Generated_Source\PSoC4/CapSense_1_Processing.c **** }
 622:Generated_Source\PSoC4/CapSense_1_Processing.c **** 
 623:Generated_Source\PSoC4/CapSense_1_Processing.c **** /*******************************************************************************
 624:Generated_Source\PSoC4/CapSense_1_Processing.c **** * Function Name: CapSense_1_DpProcessCsxSensorRawCountsExt
 625:Generated_Source\PSoC4/CapSense_1_Processing.c **** ****************************************************************************//**
 626:Generated_Source\PSoC4/CapSense_1_Processing.c **** *
 627:Generated_Source\PSoC4/CapSense_1_Processing.c **** * \brief
 628:Generated_Source\PSoC4/CapSense_1_Processing.c **** *   Performs customized processing of the CSX sensor raw counts.
 629:Generated_Source\PSoC4/CapSense_1_Processing.c **** *
 630:Generated_Source\PSoC4/CapSense_1_Processing.c **** * \details
 631:Generated_Source\PSoC4/CapSense_1_Processing.c **** *   Performs customized processing of the CSX sensor raw counts.
 632:Generated_Source\PSoC4/CapSense_1_Processing.c **** *
 633:Generated_Source\PSoC4/CapSense_1_Processing.c **** *   If all bits are set at once the default processing order will take place.
 634:Generated_Source\PSoC4/CapSense_1_Processing.c **** *   For the custom order this API can be called multiple times and execute one task at a time.
 635:Generated_Source\PSoC4/CapSense_1_Processing.c **** *
 636:Generated_Source\PSoC4/CapSense_1_Processing.c **** * \param ptrFlashWdgt The pointer to the Flash Widget Object.
 637:Generated_Source\PSoC4/CapSense_1_Processing.c **** * \param curSnsPtr    The pointer to the specific RAM Sensor Object.
 638:Generated_Source\PSoC4/CapSense_1_Processing.c **** * \param fltrHistV    The pointer to the Filter History Object in RAM associated with specific sens
 639:Generated_Source\PSoC4/CapSense_1_Processing.c **** * \param mode         The bit-mask with the data processing tasks to be executed.
 640:Generated_Source\PSoC4/CapSense_1_Processing.c **** *   The mode parameters can take the following values:
 641:Generated_Source\PSoC4/CapSense_1_Processing.c **** *    - CapSense_1_PROCESS_FILTER     (0x01) Run Firmware Filter
 642:Generated_Source\PSoC4/CapSense_1_Processing.c **** *    - CapSense_1_PROCESS_BASELINE   (0x02) Update Baselines
 643:Generated_Source\PSoC4/CapSense_1_Processing.c **** *    - CapSense_1_PROCESS_DIFFCOUNTS (0x04) Update Difference Counts
 644:Generated_Source\PSoC4/CapSense_1_Processing.c **** *    - CapSense_1_PROCESS_ALL               Execute all tasks
 645:Generated_Source\PSoC4/CapSense_1_Processing.c **** *
 646:Generated_Source\PSoC4/CapSense_1_Processing.c **** * \return
 647:Generated_Source\PSoC4/CapSense_1_Processing.c **** *  Returns the status of the specified sensor processing operation:
 648:Generated_Source\PSoC4/CapSense_1_Processing.c **** *  - CYRET_SUCCESS if operation was successfully completed;
 649:Generated_Source\PSoC4/CapSense_1_Processing.c **** *  - CapSense_1_PROCESS_BASELINE_FAILED if baseline processing of any
 650:Generated_Source\PSoC4/CapSense_1_Processing.c **** *    sensor of the specified widget failed. The result is concatenated with the index
 651:Generated_Source\PSoC4/CapSense_1_Processing.c **** *    of failed sensor.
 652:Generated_Source\PSoC4/CapSense_1_Processing.c **** *
 653:Generated_Source\PSoC4/CapSense_1_Processing.c **** *******************************************************************************/
 654:Generated_Source\PSoC4/CapSense_1_Processing.c **** uint32 CapSense_1_DpProcessCsxSensorRawCountsExt(
 655:Generated_Source\PSoC4/CapSense_1_Processing.c ****                 CapSense_1_FLASH_WD_STRUCT const *ptrFlashWdgt,
 656:Generated_Source\PSoC4/CapSense_1_Processing.c ****                 CapSense_1_RAM_SNS_STRUCT *curSnsPtr,
 657:Generated_Source\PSoC4/CapSense_1_Processing.c ****                 CapSense_1_PTR_FILTER_VARIANT fltrHistV,
 658:Generated_Source\PSoC4/CapSense_1_Processing.c ****                 uint32 mode)
 659:Generated_Source\PSoC4/CapSense_1_Processing.c **** {
 660:Generated_Source\PSoC4/CapSense_1_Processing.c ****     uint32  result = CYRET_SUCCESS;
 661:Generated_Source\PSoC4/CapSense_1_Processing.c ****     uint32  widgetType;
 662:Generated_Source\PSoC4/CapSense_1_Processing.c ****     CapSense_1_RAM_WD_BASE_STRUCT *ptrRamWdgt;
 663:Generated_Source\PSoC4/CapSense_1_Processing.c **** 
 664:Generated_Source\PSoC4/CapSense_1_Processing.c ****     widgetType = ptrFlashWdgt->wdgtType;
 665:Generated_Source\PSoC4/CapSense_1_Processing.c ****     ptrRamWdgt = (CapSense_1_RAM_WD_BASE_STRUCT *)ptrFlashWdgt->ptr2WdgtRam;
 666:Generated_Source\PSoC4/CapSense_1_Processing.c **** 
ARM GAS  C:\Users\MICHAE~1.MAC\AppData\Local\Temp\ccOp1ZUS.s 			page 15


 667:Generated_Source\PSoC4/CapSense_1_Processing.c ****     #if (CapSense_1_ENABLE == CapSense_1_RC_FILTER_EN)
 668:Generated_Source\PSoC4/CapSense_1_Processing.c ****         if (0u != (mode & CapSense_1_PROCESS_FILTER))
 669:Generated_Source\PSoC4/CapSense_1_Processing.c ****         {
 670:Generated_Source\PSoC4/CapSense_1_Processing.c ****             CapSense_1_FtRunEnabledFiltersInternal(fltrHistV, curSnsPtr, widgetType);
 671:Generated_Source\PSoC4/CapSense_1_Processing.c ****             #if (CapSense_1_ALP_FILTER_EN)
 672:Generated_Source\PSoC4/CapSense_1_Processing.c ****                 CapSense_1_ConfigRunALPInternal(fltrHistV, ptrRamWdgt, curSnsPtr, widgetType);
 673:Generated_Source\PSoC4/CapSense_1_Processing.c ****             #endif
 674:Generated_Source\PSoC4/CapSense_1_Processing.c ****         }
 675:Generated_Source\PSoC4/CapSense_1_Processing.c ****     #else
 676:Generated_Source\PSoC4/CapSense_1_Processing.c ****         (void)fltrHistV; /* This parameter is unused in such configurations */
 677:Generated_Source\PSoC4/CapSense_1_Processing.c ****     #endif /* #if (CapSense_1_ENABLE == CapSense_1_RC_FILTER_EN) */
 678:Generated_Source\PSoC4/CapSense_1_Processing.c **** 
 679:Generated_Source\PSoC4/CapSense_1_Processing.c ****     if (0u != (mode & CapSense_1_PROCESS_BASELINE))
 680:Generated_Source\PSoC4/CapSense_1_Processing.c ****     {
 681:Generated_Source\PSoC4/CapSense_1_Processing.c ****         result = CapSense_1_FtUpdateBaseline(ptrRamWdgt, curSnsPtr, widgetType);
 682:Generated_Source\PSoC4/CapSense_1_Processing.c ****     }
 683:Generated_Source\PSoC4/CapSense_1_Processing.c **** 
 684:Generated_Source\PSoC4/CapSense_1_Processing.c ****     if (0u != (mode & CapSense_1_PROCESS_DIFFCOUNTS))
 685:Generated_Source\PSoC4/CapSense_1_Processing.c ****     {
 686:Generated_Source\PSoC4/CapSense_1_Processing.c ****         CapSense_1_DpUpdateDifferences(ptrRamWdgt, curSnsPtr);
 687:Generated_Source\PSoC4/CapSense_1_Processing.c ****     }
 688:Generated_Source\PSoC4/CapSense_1_Processing.c ****     return result;
 689:Generated_Source\PSoC4/CapSense_1_Processing.c **** }
 690:Generated_Source\PSoC4/CapSense_1_Processing.c **** 
 691:Generated_Source\PSoC4/CapSense_1_Processing.c **** 
 692:Generated_Source\PSoC4/CapSense_1_Processing.c **** /*******************************************************************************
 693:Generated_Source\PSoC4/CapSense_1_Processing.c **** * Function Name: CapSense_1_DpProcessCsxWidgetStatus
 694:Generated_Source\PSoC4/CapSense_1_Processing.c **** ****************************************************************************//**
 695:Generated_Source\PSoC4/CapSense_1_Processing.c **** *
 696:Generated_Source\PSoC4/CapSense_1_Processing.c **** * \brief
 697:Generated_Source\PSoC4/CapSense_1_Processing.c **** *   Updates the status of the CSX widget in the Data Structure.
 698:Generated_Source\PSoC4/CapSense_1_Processing.c **** *
 699:Generated_Source\PSoC4/CapSense_1_Processing.c **** * \details
 700:Generated_Source\PSoC4/CapSense_1_Processing.c **** *  This API determines the type of widget and runs the appropriate function
 701:Generated_Source\PSoC4/CapSense_1_Processing.c **** *  that implements the status update algorithm for this type of widget.
 702:Generated_Source\PSoC4/CapSense_1_Processing.c **** *
 703:Generated_Source\PSoC4/CapSense_1_Processing.c **** *  When the widget-specific processing completes this API updates the snsStatus
 704:Generated_Source\PSoC4/CapSense_1_Processing.c **** *  and wdgtStatus registers in the data structure. The wdgtStatus register
 705:Generated_Source\PSoC4/CapSense_1_Processing.c **** *  is a bitmask were each bit corresponds to the specific widget identified by
 706:Generated_Source\PSoC4/CapSense_1_Processing.c **** *  the widget index. When the bit is set the widget is active (touched);
 707:Generated_Source\PSoC4/CapSense_1_Processing.c **** *
 708:Generated_Source\PSoC4/CapSense_1_Processing.c **** *  Depending on the type of widget the snsStatus register may contain either
 709:Generated_Source\PSoC4/CapSense_1_Processing.c **** *  status of each widget node (active/non-active) or in case of the CSX Touchpad
 710:Generated_Source\PSoC4/CapSense_1_Processing.c **** *  is contains the number of touches. In both cases 0 means that widget is not
 711:Generated_Source\PSoC4/CapSense_1_Processing.c **** *  active.
 712:Generated_Source\PSoC4/CapSense_1_Processing.c **** *
 713:Generated_Source\PSoC4/CapSense_1_Processing.c **** * \param widgetId     The widget ID number.
 714:Generated_Source\PSoC4/CapSense_1_Processing.c **** * \param ptrFlashWdgt The pointer to the Flash Widget Object.
 715:Generated_Source\PSoC4/CapSense_1_Processing.c **** *
 716:Generated_Source\PSoC4/CapSense_1_Processing.c **** *******************************************************************************/
 717:Generated_Source\PSoC4/CapSense_1_Processing.c **** void CapSense_1_DpProcessCsxWidgetStatus(uint32 widgetId, CapSense_1_FLASH_WD_STRUCT const *ptrFlas
 718:Generated_Source\PSoC4/CapSense_1_Processing.c **** {
 719:Generated_Source\PSoC4/CapSense_1_Processing.c ****     uint32 sensorStatus;
 720:Generated_Source\PSoC4/CapSense_1_Processing.c ****     uint32 wdStatusIndex;
 721:Generated_Source\PSoC4/CapSense_1_Processing.c ****     uint32 wdStatusMask;
 722:Generated_Source\PSoC4/CapSense_1_Processing.c ****     CapSense_1_WD_TYPE_ENUM widgetType;
 723:Generated_Source\PSoC4/CapSense_1_Processing.c **** 
ARM GAS  C:\Users\MICHAE~1.MAC\AppData\Local\Temp\ccOp1ZUS.s 			page 16


 724:Generated_Source\PSoC4/CapSense_1_Processing.c ****     widgetType = (CapSense_1_WD_TYPE_ENUM)ptrFlashWdgt->wdgtType;
 725:Generated_Source\PSoC4/CapSense_1_Processing.c ****     sensorStatus = CapSense_1_dsRam.snsStatus[widgetId];
 726:Generated_Source\PSoC4/CapSense_1_Processing.c **** 
 727:Generated_Source\PSoC4/CapSense_1_Processing.c ****     switch (widgetType)
 728:Generated_Source\PSoC4/CapSense_1_Processing.c ****     {
 729:Generated_Source\PSoC4/CapSense_1_Processing.c ****     #if (0u != CapSense_1_BUTTON_WIDGET_EN)
 730:Generated_Source\PSoC4/CapSense_1_Processing.c ****         case CapSense_1_WD_BUTTON_E:
 731:Generated_Source\PSoC4/CapSense_1_Processing.c ****             sensorStatus = CapSense_1_DpProcessButton(sensorStatus, ptrFlashWdgt);
 732:Generated_Source\PSoC4/CapSense_1_Processing.c ****             break;
 733:Generated_Source\PSoC4/CapSense_1_Processing.c ****     #endif /* #if (0u != CapSense_1_BUTTON_WIDGET_EN) */
 734:Generated_Source\PSoC4/CapSense_1_Processing.c **** 
 735:Generated_Source\PSoC4/CapSense_1_Processing.c ****     #if (0u != CapSense_1_CSX_MATRIX_WIDGET_EN)
 736:Generated_Source\PSoC4/CapSense_1_Processing.c ****         case CapSense_1_WD_MATRIX_BUTTON_E:
 737:Generated_Source\PSoC4/CapSense_1_Processing.c ****             sensorStatus = CapSense_1_DpProcessButton(sensorStatus, ptrFlashWdgt);
 738:Generated_Source\PSoC4/CapSense_1_Processing.c ****             break;
 739:Generated_Source\PSoC4/CapSense_1_Processing.c ****     #endif /* #if (0u != CapSense_1_CSX_MATRIX_WIDGET_EN) */
 740:Generated_Source\PSoC4/CapSense_1_Processing.c **** 
 741:Generated_Source\PSoC4/CapSense_1_Processing.c ****     #if (0u != CapSense_1_CSX_TOUCHPAD_WIDGET_EN)
 742:Generated_Source\PSoC4/CapSense_1_Processing.c ****         case CapSense_1_WD_TOUCHPAD_E:
 743:Generated_Source\PSoC4/CapSense_1_Processing.c ****             sensorStatus = CapSense_1_DpProcessCsxTouchpad(sensorStatus, ptrFlashWdgt);
 744:Generated_Source\PSoC4/CapSense_1_Processing.c ****             break;
 745:Generated_Source\PSoC4/CapSense_1_Processing.c ****     #endif /* #if (0u != CapSense_1_CSX_TOUCHPAD_WIDGET_EN) */
 746:Generated_Source\PSoC4/CapSense_1_Processing.c **** 
 747:Generated_Source\PSoC4/CapSense_1_Processing.c ****     default:
 748:Generated_Source\PSoC4/CapSense_1_Processing.c ****         CYASSERT(0u);
 749:Generated_Source\PSoC4/CapSense_1_Processing.c ****         break;
 750:Generated_Source\PSoC4/CapSense_1_Processing.c ****     }
 751:Generated_Source\PSoC4/CapSense_1_Processing.c **** 
 752:Generated_Source\PSoC4/CapSense_1_Processing.c ****     /* Update sensor status in the data structure */
 753:Generated_Source\PSoC4/CapSense_1_Processing.c ****     CapSense_1_dsRam.snsStatus[widgetId] = (CapSense_1_SNS_STS_TYPE)sensorStatus;
 754:Generated_Source\PSoC4/CapSense_1_Processing.c **** 
 755:Generated_Source\PSoC4/CapSense_1_Processing.c ****     /* The next two lines calculate index and bitmask of the widget status bit in the wdgtStatus ar
 756:Generated_Source\PSoC4/CapSense_1_Processing.c ****     wdStatusIndex = CapSense_1_GET_WDGT_STATUS_INDEX(widgetId);
 757:Generated_Source\PSoC4/CapSense_1_Processing.c ****     wdStatusMask = CapSense_1_GET_WDGT_STATUS_MASK(widgetId);
 758:Generated_Source\PSoC4/CapSense_1_Processing.c **** 
 759:Generated_Source\PSoC4/CapSense_1_Processing.c ****     /* Check if there are active sensors and update widget status accordingly */
 760:Generated_Source\PSoC4/CapSense_1_Processing.c ****     if (0u == sensorStatus)
 761:Generated_Source\PSoC4/CapSense_1_Processing.c ****     {
 762:Generated_Source\PSoC4/CapSense_1_Processing.c ****         CapSense_1_dsRam.wdgtStatus[wdStatusIndex] &= ~wdStatusMask;
 763:Generated_Source\PSoC4/CapSense_1_Processing.c ****     }
 764:Generated_Source\PSoC4/CapSense_1_Processing.c ****     else
 765:Generated_Source\PSoC4/CapSense_1_Processing.c ****     {
 766:Generated_Source\PSoC4/CapSense_1_Processing.c ****         CapSense_1_dsRam.wdgtStatus[wdStatusIndex] |= wdStatusMask;
 767:Generated_Source\PSoC4/CapSense_1_Processing.c ****     }
 768:Generated_Source\PSoC4/CapSense_1_Processing.c **** }
 769:Generated_Source\PSoC4/CapSense_1_Processing.c **** #endif /* #if CapSense_1_TOTAL_CSX_WIDGETS */
 770:Generated_Source\PSoC4/CapSense_1_Processing.c **** 
 771:Generated_Source\PSoC4/CapSense_1_Processing.c **** #if (0u != CapSense_1_TOTAL_ISX_WIDGETS)
 772:Generated_Source\PSoC4/CapSense_1_Processing.c **** /*******************************************************************************
 773:Generated_Source\PSoC4/CapSense_1_Processing.c **** * Function Name: CapSense_1_DpProcessIsxWidgetRawCounts
 774:Generated_Source\PSoC4/CapSense_1_Processing.c **** ****************************************************************************//**
 775:Generated_Source\PSoC4/CapSense_1_Processing.c **** *
 776:Generated_Source\PSoC4/CapSense_1_Processing.c **** * \brief
 777:Generated_Source\PSoC4/CapSense_1_Processing.c **** *  Performs default processing of the ISX raw counts.
 778:Generated_Source\PSoC4/CapSense_1_Processing.c **** *
 779:Generated_Source\PSoC4/CapSense_1_Processing.c **** * \details
 780:Generated_Source\PSoC4/CapSense_1_Processing.c **** *  Performs default processing of the ISX raw counts:
ARM GAS  C:\Users\MICHAE~1.MAC\AppData\Local\Temp\ccOp1ZUS.s 			page 17


 781:Generated_Source\PSoC4/CapSense_1_Processing.c **** *   - Run Filters
 782:Generated_Source\PSoC4/CapSense_1_Processing.c **** *   - Update Baselines
 783:Generated_Source\PSoC4/CapSense_1_Processing.c **** *   - Update Differences
 784:Generated_Source\PSoC4/CapSense_1_Processing.c **** *   - Update Status.
 785:Generated_Source\PSoC4/CapSense_1_Processing.c **** *  The same process is applied to all the sensors of the specified widget.
 786:Generated_Source\PSoC4/CapSense_1_Processing.c **** *
 787:Generated_Source\PSoC4/CapSense_1_Processing.c **** * \param ptrFlashWdgt The pointer to the Flash widget structure.
 788:Generated_Source\PSoC4/CapSense_1_Processing.c **** *
 789:Generated_Source\PSoC4/CapSense_1_Processing.c **** * \return
 790:Generated_Source\PSoC4/CapSense_1_Processing.c **** *  Returns the status of the specified widget processing operation:
 791:Generated_Source\PSoC4/CapSense_1_Processing.c **** *  - CYRET_SUCCESS if operation was successfully completed;
 792:Generated_Source\PSoC4/CapSense_1_Processing.c **** *  - CapSense_1_PROCESS_BASELINE_FAILED if baseline processing of any
 793:Generated_Source\PSoC4/CapSense_1_Processing.c **** *    sensor of the specified widget failed. The result is concatenated with the index
 794:Generated_Source\PSoC4/CapSense_1_Processing.c **** *    of failed sensor.
 795:Generated_Source\PSoC4/CapSense_1_Processing.c **** *
 796:Generated_Source\PSoC4/CapSense_1_Processing.c **** *******************************************************************************/
 797:Generated_Source\PSoC4/CapSense_1_Processing.c **** uint32 CapSense_1_DpProcessIsxWidgetRawCounts(CapSense_1_FLASH_WD_STRUCT const *ptrFlashWdgt)
 798:Generated_Source\PSoC4/CapSense_1_Processing.c **** {
 799:Generated_Source\PSoC4/CapSense_1_Processing.c ****     uint32 result = CYRET_SUCCESS;
 800:Generated_Source\PSoC4/CapSense_1_Processing.c ****     uint32 widgetType;
 801:Generated_Source\PSoC4/CapSense_1_Processing.c ****     uint32 snsCount;
 802:Generated_Source\PSoC4/CapSense_1_Processing.c ****     CapSense_1_RAM_SNS_STRUCT *ptrSns;
 803:Generated_Source\PSoC4/CapSense_1_Processing.c ****     CapSense_1_RAM_WD_BASE_STRUCT *ptrRamWdgt;
 804:Generated_Source\PSoC4/CapSense_1_Processing.c **** 
 805:Generated_Source\PSoC4/CapSense_1_Processing.c ****     #if (CapSense_1_ENABLE == CapSense_1_RC_FILTER_EN)
 806:Generated_Source\PSoC4/CapSense_1_Processing.c ****         CapSense_1_PTR_FILTER_VARIANT fltrHistV;
 807:Generated_Source\PSoC4/CapSense_1_Processing.c **** 
 808:Generated_Source\PSoC4/CapSense_1_Processing.c ****         fltrHistV.ptr = ptrFlashWdgt->ptr2FltrHistory;
 809:Generated_Source\PSoC4/CapSense_1_Processing.c ****     #endif /* #if (CapSense_1_ENABLE == CapSense_1_RC_FILTER_EN) */
 810:Generated_Source\PSoC4/CapSense_1_Processing.c **** 
 811:Generated_Source\PSoC4/CapSense_1_Processing.c ****     ptrSns = ptrFlashWdgt->ptr2SnsRam;
 812:Generated_Source\PSoC4/CapSense_1_Processing.c ****     snsCount = ptrFlashWdgt->totalNumSns;
 813:Generated_Source\PSoC4/CapSense_1_Processing.c ****     ptrRamWdgt = ptrFlashWdgt->ptr2WdgtRam;
 814:Generated_Source\PSoC4/CapSense_1_Processing.c ****     widgetType = ptrFlashWdgt->wdgtType;
 815:Generated_Source\PSoC4/CapSense_1_Processing.c **** 
 816:Generated_Source\PSoC4/CapSense_1_Processing.c ****     #if (0u != CapSense_1_ISX_SKIP_OVSMPL_SPECIFIC_NODES)
 817:Generated_Source\PSoC4/CapSense_1_Processing.c ****         if (0u != ptrSns->resolution)
 818:Generated_Source\PSoC4/CapSense_1_Processing.c ****     #endif
 819:Generated_Source\PSoC4/CapSense_1_Processing.c ****     {
 820:Generated_Source\PSoC4/CapSense_1_Processing.c ****         for(;snsCount-- > 0u;)
 821:Generated_Source\PSoC4/CapSense_1_Processing.c ****         {
 822:Generated_Source\PSoC4/CapSense_1_Processing.c ****             #if (CapSense_1_ENABLE == CapSense_1_RC_FILTER_EN)
 823:Generated_Source\PSoC4/CapSense_1_Processing.c ****                 CapSense_1_FtRunEnabledFiltersInternal(fltrHistV, ptrSns, widgetType);
 824:Generated_Source\PSoC4/CapSense_1_Processing.c ****             #endif /* #if (CapSense_1_ENABLE == CapSense_1_RC_FILTER_EN) */
 825:Generated_Source\PSoC4/CapSense_1_Processing.c **** 
 826:Generated_Source\PSoC4/CapSense_1_Processing.c ****             result = CapSense_1_FtUpdateBaseline(ptrRamWdgt, ptrSns, widgetType);
 827:Generated_Source\PSoC4/CapSense_1_Processing.c **** 
 828:Generated_Source\PSoC4/CapSense_1_Processing.c ****             #if (CapSense_1_ENABLE == CapSense_1_TST_BSLN_DUPLICATION_EN)
 829:Generated_Source\PSoC4/CapSense_1_Processing.c ****                 if (CYRET_SUCCESS != result)
 830:Generated_Source\PSoC4/CapSense_1_Processing.c ****                 {
 831:Generated_Source\PSoC4/CapSense_1_Processing.c ****                     result = CapSense_1_PROCESS_BASELINE_FAILED;
 832:Generated_Source\PSoC4/CapSense_1_Processing.c ****                 }
 833:Generated_Source\PSoC4/CapSense_1_Processing.c ****             #endif /* (CapSense_1_ENABLE == CapSense_1_TST_BSLN_DUPLICATION_EN) */
 834:Generated_Source\PSoC4/CapSense_1_Processing.c **** 
 835:Generated_Source\PSoC4/CapSense_1_Processing.c ****             CapSense_1_DpUpdateDifferences(ptrRamWdgt, ptrSns);
 836:Generated_Source\PSoC4/CapSense_1_Processing.c ****             ptrSns++;
 837:Generated_Source\PSoC4/CapSense_1_Processing.c ****         }
ARM GAS  C:\Users\MICHAE~1.MAC\AppData\Local\Temp\ccOp1ZUS.s 			page 18


 838:Generated_Source\PSoC4/CapSense_1_Processing.c ****     }
 839:Generated_Source\PSoC4/CapSense_1_Processing.c **** 
 840:Generated_Source\PSoC4/CapSense_1_Processing.c ****     #if (CapSense_1_ENABLE == CapSense_1_RC_FILTER_EN)
 841:Generated_Source\PSoC4/CapSense_1_Processing.c ****         CapSense_1_INC_FLTR_OBJ_VARIANT(0u, fltrHistV);
 842:Generated_Source\PSoC4/CapSense_1_Processing.c ****     #endif /* #if (CapSense_1_ENABLE == CapSense_1_RC_FILTER_EN) */
 843:Generated_Source\PSoC4/CapSense_1_Processing.c **** 
 844:Generated_Source\PSoC4/CapSense_1_Processing.c ****     return result;
 845:Generated_Source\PSoC4/CapSense_1_Processing.c **** }
 846:Generated_Source\PSoC4/CapSense_1_Processing.c **** 
 847:Generated_Source\PSoC4/CapSense_1_Processing.c **** /*******************************************************************************
 848:Generated_Source\PSoC4/CapSense_1_Processing.c **** * Function Name: CapSense_1_DpProcessIsxSensorRawCountsExt
 849:Generated_Source\PSoC4/CapSense_1_Processing.c **** ****************************************************************************//**
 850:Generated_Source\PSoC4/CapSense_1_Processing.c **** *
 851:Generated_Source\PSoC4/CapSense_1_Processing.c **** * \brief
 852:Generated_Source\PSoC4/CapSense_1_Processing.c **** *   Performs customized processing of the ISX sensor raw counts.
 853:Generated_Source\PSoC4/CapSense_1_Processing.c **** *
 854:Generated_Source\PSoC4/CapSense_1_Processing.c **** * \details
 855:Generated_Source\PSoC4/CapSense_1_Processing.c **** *   Performs customized processing of the ISX sensor raw counts.
 856:Generated_Source\PSoC4/CapSense_1_Processing.c **** *
 857:Generated_Source\PSoC4/CapSense_1_Processing.c **** *   If all bits are set at once the default processing order will take place.
 858:Generated_Source\PSoC4/CapSense_1_Processing.c **** *   For the custom order this API can be called multiple times and execute one task at a time.
 859:Generated_Source\PSoC4/CapSense_1_Processing.c **** *
 860:Generated_Source\PSoC4/CapSense_1_Processing.c **** * \param ptrFlashWdgt The pointer to the Flash Widget Object.
 861:Generated_Source\PSoC4/CapSense_1_Processing.c **** * \param ptrSns       The pointer to the specific RAM Sensor Object.
 862:Generated_Source\PSoC4/CapSense_1_Processing.c **** * \param fltrHistV    The pointer to the Filter History Object in RAM associated with specific sens
 863:Generated_Source\PSoC4/CapSense_1_Processing.c **** * \param mode         The bit-mask with the data processing tasks to be executed.
 864:Generated_Source\PSoC4/CapSense_1_Processing.c **** *   The mode parameters can take the following values:
 865:Generated_Source\PSoC4/CapSense_1_Processing.c **** *    - CapSense_1_PROCESS_FILTER     (0x01) Run Firmware Filter
 866:Generated_Source\PSoC4/CapSense_1_Processing.c **** *    - CapSense_1_PROCESS_BASELINE   (0x02) Update Baselines
 867:Generated_Source\PSoC4/CapSense_1_Processing.c **** *    - CapSense_1_PROCESS_DIFFCOUNTS (0x04) Update Difference Counts
 868:Generated_Source\PSoC4/CapSense_1_Processing.c **** *    - CapSense_1_PROCESS_ALL               Execute all tasks
 869:Generated_Source\PSoC4/CapSense_1_Processing.c **** *
 870:Generated_Source\PSoC4/CapSense_1_Processing.c **** * \return
 871:Generated_Source\PSoC4/CapSense_1_Processing.c **** *  Returns the status of the specified sensor processing operation:
 872:Generated_Source\PSoC4/CapSense_1_Processing.c **** *  - CYRET_SUCCESS if operation was successfully completed;
 873:Generated_Source\PSoC4/CapSense_1_Processing.c **** *  - CapSense_1_PROCESS_BASELINE_FAILED if baseline processing of any
 874:Generated_Source\PSoC4/CapSense_1_Processing.c **** *    sensor of the specified widget failed. The result is concatenated with the index
 875:Generated_Source\PSoC4/CapSense_1_Processing.c **** *    of failed sensor.
 876:Generated_Source\PSoC4/CapSense_1_Processing.c **** *
 877:Generated_Source\PSoC4/CapSense_1_Processing.c **** *******************************************************************************/
 878:Generated_Source\PSoC4/CapSense_1_Processing.c **** uint32 CapSense_1_DpProcessIsxSensorRawCountsExt(
 879:Generated_Source\PSoC4/CapSense_1_Processing.c ****                 CapSense_1_FLASH_WD_STRUCT const *ptrFlashWdgt,
 880:Generated_Source\PSoC4/CapSense_1_Processing.c ****                 CapSense_1_RAM_SNS_STRUCT *ptrSns,
 881:Generated_Source\PSoC4/CapSense_1_Processing.c ****                 CapSense_1_PTR_FILTER_VARIANT fltrHistV,
 882:Generated_Source\PSoC4/CapSense_1_Processing.c ****                 uint32 mode)
 883:Generated_Source\PSoC4/CapSense_1_Processing.c **** {
 884:Generated_Source\PSoC4/CapSense_1_Processing.c ****     uint32  result = CYRET_SUCCESS;
 885:Generated_Source\PSoC4/CapSense_1_Processing.c ****     uint32  widgetType;
 886:Generated_Source\PSoC4/CapSense_1_Processing.c ****     CapSense_1_RAM_WD_BASE_STRUCT *ptrRamWdgt;
 887:Generated_Source\PSoC4/CapSense_1_Processing.c **** 
 888:Generated_Source\PSoC4/CapSense_1_Processing.c ****     widgetType = ptrFlashWdgt->wdgtType;
 889:Generated_Source\PSoC4/CapSense_1_Processing.c ****     ptrRamWdgt = ptrFlashWdgt->ptr2WdgtRam;
 890:Generated_Source\PSoC4/CapSense_1_Processing.c **** 
 891:Generated_Source\PSoC4/CapSense_1_Processing.c ****     #if (CapSense_1_ENABLE == CapSense_1_RC_FILTER_EN)
 892:Generated_Source\PSoC4/CapSense_1_Processing.c ****         if (0u != (mode & CapSense_1_PROCESS_FILTER))
 893:Generated_Source\PSoC4/CapSense_1_Processing.c ****         {
 894:Generated_Source\PSoC4/CapSense_1_Processing.c ****             CapSense_1_FtRunEnabledFiltersInternal(fltrHistV, ptrSns, widgetType);
ARM GAS  C:\Users\MICHAE~1.MAC\AppData\Local\Temp\ccOp1ZUS.s 			page 19


 895:Generated_Source\PSoC4/CapSense_1_Processing.c ****         }
 896:Generated_Source\PSoC4/CapSense_1_Processing.c ****     #else
 897:Generated_Source\PSoC4/CapSense_1_Processing.c ****         (void)fltrHistV; /* This parameter is unused in such configurations */
 898:Generated_Source\PSoC4/CapSense_1_Processing.c ****     #endif /* #if (CapSense_1_ENABLE == CapSense_1_RC_FILTER_EN) */
 899:Generated_Source\PSoC4/CapSense_1_Processing.c **** 
 900:Generated_Source\PSoC4/CapSense_1_Processing.c ****     if (0u != (mode & CapSense_1_PROCESS_BASELINE))
 901:Generated_Source\PSoC4/CapSense_1_Processing.c ****     {
 902:Generated_Source\PSoC4/CapSense_1_Processing.c ****         result = CapSense_1_FtUpdateBaseline(ptrRamWdgt, ptrSns, widgetType);
 903:Generated_Source\PSoC4/CapSense_1_Processing.c ****     }
 904:Generated_Source\PSoC4/CapSense_1_Processing.c **** 
 905:Generated_Source\PSoC4/CapSense_1_Processing.c ****     if (0u != (mode & CapSense_1_PROCESS_DIFFCOUNTS))
 906:Generated_Source\PSoC4/CapSense_1_Processing.c ****     {
 907:Generated_Source\PSoC4/CapSense_1_Processing.c ****         CapSense_1_DpUpdateDifferences(ptrRamWdgt, ptrSns);
 908:Generated_Source\PSoC4/CapSense_1_Processing.c ****     }
 909:Generated_Source\PSoC4/CapSense_1_Processing.c ****     return result;
 910:Generated_Source\PSoC4/CapSense_1_Processing.c **** }
 911:Generated_Source\PSoC4/CapSense_1_Processing.c **** 
 912:Generated_Source\PSoC4/CapSense_1_Processing.c **** 
 913:Generated_Source\PSoC4/CapSense_1_Processing.c **** /*******************************************************************************
 914:Generated_Source\PSoC4/CapSense_1_Processing.c **** * Function Name: CapSense_1_DpProcessIsxWidgetStatus
 915:Generated_Source\PSoC4/CapSense_1_Processing.c **** ****************************************************************************//**
 916:Generated_Source\PSoC4/CapSense_1_Processing.c **** *
 917:Generated_Source\PSoC4/CapSense_1_Processing.c **** * \brief
 918:Generated_Source\PSoC4/CapSense_1_Processing.c **** *   Updates the status of the ISX widget in the Data Structure.
 919:Generated_Source\PSoC4/CapSense_1_Processing.c **** *
 920:Generated_Source\PSoC4/CapSense_1_Processing.c **** * \details
 921:Generated_Source\PSoC4/CapSense_1_Processing.c **** *  This API determines the type of widget and runs the appropriate function
 922:Generated_Source\PSoC4/CapSense_1_Processing.c **** *  that implements the status update algorithm for this type of widget.
 923:Generated_Source\PSoC4/CapSense_1_Processing.c **** *
 924:Generated_Source\PSoC4/CapSense_1_Processing.c **** *  When the widget-specific processing completes this API updates the snsStatus
 925:Generated_Source\PSoC4/CapSense_1_Processing.c **** *  and wdgtStatus registers in the data structure. The wdgtStatus register
 926:Generated_Source\PSoC4/CapSense_1_Processing.c **** *  is a bitmask were each bit corresponds to the specific widget identified by
 927:Generated_Source\PSoC4/CapSense_1_Processing.c **** *  the widget index. When the bit is set the widget is active (touched);
 928:Generated_Source\PSoC4/CapSense_1_Processing.c **** *
 929:Generated_Source\PSoC4/CapSense_1_Processing.c **** *  Depending on the type of widget the snsStatus register may contain either
 930:Generated_Source\PSoC4/CapSense_1_Processing.c **** *  status of each widget node (active/non-active) or in case of the ISX Touchpad
 931:Generated_Source\PSoC4/CapSense_1_Processing.c **** *  is contains the number of touches. In both cases 0 means that widget is not
 932:Generated_Source\PSoC4/CapSense_1_Processing.c **** *  active.
 933:Generated_Source\PSoC4/CapSense_1_Processing.c **** *
 934:Generated_Source\PSoC4/CapSense_1_Processing.c **** * \param wdgtId       The widget index number.
 935:Generated_Source\PSoC4/CapSense_1_Processing.c **** * \param ptrFlashWdgt The pointer to the Flash Widget Object.
 936:Generated_Source\PSoC4/CapSense_1_Processing.c **** *
 937:Generated_Source\PSoC4/CapSense_1_Processing.c **** *******************************************************************************/
 938:Generated_Source\PSoC4/CapSense_1_Processing.c **** void CapSense_1_DpProcessIsxWidgetStatus(uint32 wdgtId, CapSense_1_FLASH_WD_STRUCT const *ptrFlashW
 939:Generated_Source\PSoC4/CapSense_1_Processing.c **** {
 940:Generated_Source\PSoC4/CapSense_1_Processing.c ****     uint32 sensorStatus;
 941:Generated_Source\PSoC4/CapSense_1_Processing.c ****     uint32 wdStatusIndex;
 942:Generated_Source\PSoC4/CapSense_1_Processing.c ****     uint32 wdStatusMask;
 943:Generated_Source\PSoC4/CapSense_1_Processing.c ****     CapSense_1_WD_TYPE_ENUM widgetType;
 944:Generated_Source\PSoC4/CapSense_1_Processing.c **** 
 945:Generated_Source\PSoC4/CapSense_1_Processing.c ****     widgetType = (CapSense_1_WD_TYPE_ENUM)ptrFlashWdgt->wdgtType;
 946:Generated_Source\PSoC4/CapSense_1_Processing.c ****     sensorStatus = CapSense_1_dsRam.snsStatus[wdgtId];
 947:Generated_Source\PSoC4/CapSense_1_Processing.c **** 
 948:Generated_Source\PSoC4/CapSense_1_Processing.c ****     switch (widgetType)
 949:Generated_Source\PSoC4/CapSense_1_Processing.c ****     {
 950:Generated_Source\PSoC4/CapSense_1_Processing.c ****     #if (0u != CapSense_1_PROXIMITY_WIDGET_EN)
 951:Generated_Source\PSoC4/CapSense_1_Processing.c ****         case CapSense_1_WD_PROXIMITY_E:
ARM GAS  C:\Users\MICHAE~1.MAC\AppData\Local\Temp\ccOp1ZUS.s 			page 20


 952:Generated_Source\PSoC4/CapSense_1_Processing.c ****             sensorStatus = CapSense_1_DpProcessProximity(sensorStatus, ptrFlashWdgt);
 953:Generated_Source\PSoC4/CapSense_1_Processing.c ****             break;
 954:Generated_Source\PSoC4/CapSense_1_Processing.c ****     #endif /* #if (0u != CapSense_1_Proximity_WIDGET_EN) */
 955:Generated_Source\PSoC4/CapSense_1_Processing.c ****     #if (0u != CapSense_1_ENCODERDIAL_WIDGET_EN)
 956:Generated_Source\PSoC4/CapSense_1_Processing.c ****         case CapSense_1_WD_ENCODERDIAL_E:
 957:Generated_Source\PSoC4/CapSense_1_Processing.c ****             sensorStatus = CapSense_1_DpProcessEncoderDial(sensorStatus, ptrFlashWdgt);
 958:Generated_Source\PSoC4/CapSense_1_Processing.c ****             break;
 959:Generated_Source\PSoC4/CapSense_1_Processing.c ****     #endif /* #if (0u != CapSense_1_Proximity_WIDGET_EN) */
 960:Generated_Source\PSoC4/CapSense_1_Processing.c ****     #if (0u != CapSense_1_BUTTON_WIDGET_EN)
 961:Generated_Source\PSoC4/CapSense_1_Processing.c ****         case CapSense_1_WD_BUTTON_E:
 962:Generated_Source\PSoC4/CapSense_1_Processing.c ****             sensorStatus = CapSense_1_DpProcessButton(sensorStatus, ptrFlashWdgt);
 963:Generated_Source\PSoC4/CapSense_1_Processing.c ****             break;
 964:Generated_Source\PSoC4/CapSense_1_Processing.c ****     #endif /* #if (0u != CapSense_1_Proximity_WIDGET_EN) */
 965:Generated_Source\PSoC4/CapSense_1_Processing.c **** 
 966:Generated_Source\PSoC4/CapSense_1_Processing.c ****     default:
 967:Generated_Source\PSoC4/CapSense_1_Processing.c ****         CYASSERT(0u);
 968:Generated_Source\PSoC4/CapSense_1_Processing.c ****         break;
 969:Generated_Source\PSoC4/CapSense_1_Processing.c ****     }
 970:Generated_Source\PSoC4/CapSense_1_Processing.c **** 
 971:Generated_Source\PSoC4/CapSense_1_Processing.c ****     /* Update sensor status in the data structure */
 972:Generated_Source\PSoC4/CapSense_1_Processing.c ****     CapSense_1_dsRam.snsStatus[wdgtId] = (CapSense_1_SNS_STS_TYPE)sensorStatus;
 973:Generated_Source\PSoC4/CapSense_1_Processing.c **** 
 974:Generated_Source\PSoC4/CapSense_1_Processing.c ****     /* The next two lines calculate index and bitmask of the widget status bit in the wdgtStatus ar
 975:Generated_Source\PSoC4/CapSense_1_Processing.c ****     wdStatusIndex = CapSense_1_GET_WDGT_STATUS_INDEX(wdgtId);
 976:Generated_Source\PSoC4/CapSense_1_Processing.c ****     wdStatusMask = CapSense_1_GET_WDGT_STATUS_MASK(wdgtId);
 977:Generated_Source\PSoC4/CapSense_1_Processing.c **** 
 978:Generated_Source\PSoC4/CapSense_1_Processing.c ****     /* Check if there are active sensors and update widget status accordingly */
 979:Generated_Source\PSoC4/CapSense_1_Processing.c ****     if (0u == sensorStatus)
 980:Generated_Source\PSoC4/CapSense_1_Processing.c ****     {
 981:Generated_Source\PSoC4/CapSense_1_Processing.c ****         CapSense_1_dsRam.wdgtStatus[wdStatusIndex] &= ~wdStatusMask;
 982:Generated_Source\PSoC4/CapSense_1_Processing.c ****     }
 983:Generated_Source\PSoC4/CapSense_1_Processing.c ****     else
 984:Generated_Source\PSoC4/CapSense_1_Processing.c ****     {
 985:Generated_Source\PSoC4/CapSense_1_Processing.c ****         CapSense_1_dsRam.wdgtStatus[wdStatusIndex] |= wdStatusMask;
 986:Generated_Source\PSoC4/CapSense_1_Processing.c ****     }
 987:Generated_Source\PSoC4/CapSense_1_Processing.c **** }
 988:Generated_Source\PSoC4/CapSense_1_Processing.c **** #endif /* #if CapSense_1_TOTAL_ISX_WIDGETS */
 989:Generated_Source\PSoC4/CapSense_1_Processing.c **** 
 990:Generated_Source\PSoC4/CapSense_1_Processing.c **** #if (0u != CapSense_1_TOTAL_CSD_WIDGETS)
 991:Generated_Source\PSoC4/CapSense_1_Processing.c **** /*******************************************************************************
 992:Generated_Source\PSoC4/CapSense_1_Processing.c **** * Function Name: CapSense_1_DpProcessCsdWidgetRawCounts
 993:Generated_Source\PSoC4/CapSense_1_Processing.c **** ****************************************************************************//**
 994:Generated_Source\PSoC4/CapSense_1_Processing.c **** *
 995:Generated_Source\PSoC4/CapSense_1_Processing.c **** * \brief
 996:Generated_Source\PSoC4/CapSense_1_Processing.c **** *   Performs default processing for the CSD widget raw counts.
 997:Generated_Source\PSoC4/CapSense_1_Processing.c **** *
 998:Generated_Source\PSoC4/CapSense_1_Processing.c **** * \details
 999:Generated_Source\PSoC4/CapSense_1_Processing.c **** *   Performs default processing for the CSD widget raw counts:
1000:Generated_Source\PSoC4/CapSense_1_Processing.c **** *    - Run Filters
1001:Generated_Source\PSoC4/CapSense_1_Processing.c **** *    - Update Thresholds (FW Auto-tuning)
1002:Generated_Source\PSoC4/CapSense_1_Processing.c **** *    - Update Baselines
1003:Generated_Source\PSoC4/CapSense_1_Processing.c **** *    - Update Differences.
1004:Generated_Source\PSoC4/CapSense_1_Processing.c **** *   The process is applied to all widget's sensors.
1005:Generated_Source\PSoC4/CapSense_1_Processing.c **** *
1006:Generated_Source\PSoC4/CapSense_1_Processing.c **** * \param ptrFlashWdgt The pointer to the Flash Widget Object.
1007:Generated_Source\PSoC4/CapSense_1_Processing.c **** *
1008:Generated_Source\PSoC4/CapSense_1_Processing.c **** * \return
ARM GAS  C:\Users\MICHAE~1.MAC\AppData\Local\Temp\ccOp1ZUS.s 			page 21


1009:Generated_Source\PSoC4/CapSense_1_Processing.c **** *  Returns the status of the specified widget processing operation:
1010:Generated_Source\PSoC4/CapSense_1_Processing.c **** *  - CYRET_SUCCESS if operation was successfully completed;
1011:Generated_Source\PSoC4/CapSense_1_Processing.c **** *  - CapSense_1_PROCESS_BASELINE_FAILED if baseline processing of any
1012:Generated_Source\PSoC4/CapSense_1_Processing.c **** *    sensor of the specified widget failed. The result is concatenated with the index
1013:Generated_Source\PSoC4/CapSense_1_Processing.c **** *    of failed sensor.
1014:Generated_Source\PSoC4/CapSense_1_Processing.c **** *
1015:Generated_Source\PSoC4/CapSense_1_Processing.c **** *******************************************************************************/
1016:Generated_Source\PSoC4/CapSense_1_Processing.c **** uint32 CapSense_1_DpProcessCsdWidgetRawCounts(CapSense_1_FLASH_WD_STRUCT const *ptrFlashWdgt)
1017:Generated_Source\PSoC4/CapSense_1_Processing.c **** {
1018:Generated_Source\PSoC4/CapSense_1_Processing.c ****     uint32  result = CYRET_SUCCESS;
1019:Generated_Source\PSoC4/CapSense_1_Processing.c **** 
1020:Generated_Source\PSoC4/CapSense_1_Processing.c ****     #if (CapSense_1_ENABLE == CapSense_1_TST_BSLN_DUPLICATION_EN)
1021:Generated_Source\PSoC4/CapSense_1_Processing.c ****         uint32 bslnTstResult = CYRET_SUCCESS;
1022:Generated_Source\PSoC4/CapSense_1_Processing.c ****     #endif /* (CapSense_1_ENABLE == CapSense_1_TST_BSLN_DUPLICATION_EN) */
1023:Generated_Source\PSoC4/CapSense_1_Processing.c **** 
1024:Generated_Source\PSoC4/CapSense_1_Processing.c ****     uint32  widgetType;
1025:Generated_Source\PSoC4/CapSense_1_Processing.c ****     uint32  snsId;
1026:Generated_Source\PSoC4/CapSense_1_Processing.c ****     CapSense_1_RAM_SNS_STRUCT *ptrSnsTmp;
1027:Generated_Source\PSoC4/CapSense_1_Processing.c ****     CapSense_1_RAM_WD_BASE_STRUCT *ptrRamWdgt;
1028:Generated_Source\PSoC4/CapSense_1_Processing.c **** 
1029:Generated_Source\PSoC4/CapSense_1_Processing.c ****     #if (0u != (CapSense_1_CSD_AUTOTUNE & CapSense_1_CSD_SS_TH_EN))
1030:Generated_Source\PSoC4/CapSense_1_Processing.c ****         /* The noise envelope data is available only when Full CSD Auto-Tuning is enabled */
1031:Generated_Source\PSoC4/CapSense_1_Processing.c ****         SMARTSENSE_CSD_NOISE_ENVELOPE_STRUCT *ptrNoiseEnvelope;
1032:Generated_Source\PSoC4/CapSense_1_Processing.c ****         #if (CapSense_1_ENABLE == CapSense_1_PROXIMITY_WIDGET_EN)
1033:Generated_Source\PSoC4/CapSense_1_Processing.c ****             uint32  proximityThreshold;
1034:Generated_Source\PSoC4/CapSense_1_Processing.c ****         #endif /* (0 != CapSense_1_PROXIMITY_WIDGET_EN) */
1035:Generated_Source\PSoC4/CapSense_1_Processing.c ****     #endif /* #if (0u != (CapSense_1_CSD_AUTOTUNE & CapSense_1_CSD_SS_TH_EN)) */
1036:Generated_Source\PSoC4/CapSense_1_Processing.c **** 
1037:Generated_Source\PSoC4/CapSense_1_Processing.c ****     #if (CapSense_1_ENABLE == CapSense_1_RC_FILTER_EN)
1038:Generated_Source\PSoC4/CapSense_1_Processing.c ****         CapSense_1_PTR_FILTER_VARIANT fltrHistV;
1039:Generated_Source\PSoC4/CapSense_1_Processing.c **** 
1040:Generated_Source\PSoC4/CapSense_1_Processing.c ****         /* Determine if widget type is proximity */
1041:Generated_Source\PSoC4/CapSense_1_Processing.c ****         uint32 isProxWdgt = (CapSense_1_GET_WIDGET_TYPE(ptrFlashWdgt) == CapSense_1_WD_PROXIMITY_E)
1042:Generated_Source\PSoC4/CapSense_1_Processing.c **** 
1043:Generated_Source\PSoC4/CapSense_1_Processing.c ****         /* Get pointer to the filter history object */
1044:Generated_Source\PSoC4/CapSense_1_Processing.c ****         fltrHistV.ptr = ptrFlashWdgt->ptr2FltrHistory;
1045:Generated_Source\PSoC4/CapSense_1_Processing.c ****     #endif /* #if (CapSense_1_ENABLE == CapSense_1_RC_FILTER_EN) */
1046:Generated_Source\PSoC4/CapSense_1_Processing.c **** 
1047:Generated_Source\PSoC4/CapSense_1_Processing.c ****     ptrSnsTmp = ptrFlashWdgt->ptr2SnsRam;
1048:Generated_Source\PSoC4/CapSense_1_Processing.c ****     ptrRamWdgt = (CapSense_1_RAM_WD_BASE_STRUCT *)ptrFlashWdgt->ptr2WdgtRam;
1049:Generated_Source\PSoC4/CapSense_1_Processing.c ****     widgetType = ptrFlashWdgt->wdgtType;
1050:Generated_Source\PSoC4/CapSense_1_Processing.c **** 
1051:Generated_Source\PSoC4/CapSense_1_Processing.c ****     #if (0u != (CapSense_1_CSD_AUTOTUNE & CapSense_1_CSD_SS_TH_EN))
1052:Generated_Source\PSoC4/CapSense_1_Processing.c ****         ptrNoiseEnvelope = ptrFlashWdgt->ptr2NoiseEnvlp;
1053:Generated_Source\PSoC4/CapSense_1_Processing.c ****     #endif /* #if (0u != (CapSense_1_CSD_AUTOTUNE & CapSense_1_CSD_SS_TH_EN)) */
1054:Generated_Source\PSoC4/CapSense_1_Processing.c **** 
1055:Generated_Source\PSoC4/CapSense_1_Processing.c ****     /* Iterate through all widget's sensors */
1056:Generated_Source\PSoC4/CapSense_1_Processing.c ****     for(snsId = 0u; snsId < ptrFlashWdgt->totalNumSns; snsId++)
1057:Generated_Source\PSoC4/CapSense_1_Processing.c ****     {
1058:Generated_Source\PSoC4/CapSense_1_Processing.c ****         /* Run all enabled filter on specified widget's sensor */
1059:Generated_Source\PSoC4/CapSense_1_Processing.c ****         #if (CapSense_1_ENABLE == CapSense_1_RC_FILTER_EN)
1060:Generated_Source\PSoC4/CapSense_1_Processing.c ****             CapSense_1_FtRunEnabledFiltersInternal(fltrHistV, ptrSnsTmp, widgetType);
1061:Generated_Source\PSoC4/CapSense_1_Processing.c ****             #if (CapSense_1_ALP_FILTER_EN)
1062:Generated_Source\PSoC4/CapSense_1_Processing.c ****                 CapSense_1_ConfigRunALPInternal(fltrHistV, ptrRamWdgt, ptrSnsTmp, widgetType);
1063:Generated_Source\PSoC4/CapSense_1_Processing.c ****             #endif
1064:Generated_Source\PSoC4/CapSense_1_Processing.c ****         #endif /* #if (CapSense_1_ENABLE == CapSense_1_RC_FILTER_EN) */
1065:Generated_Source\PSoC4/CapSense_1_Processing.c **** 
ARM GAS  C:\Users\MICHAE~1.MAC\AppData\Local\Temp\ccOp1ZUS.s 			page 22


1066:Generated_Source\PSoC4/CapSense_1_Processing.c ****         /* Run auto-tuning activities */
1067:Generated_Source\PSoC4/CapSense_1_Processing.c ****         #if (0u != (CapSense_1_CSD_AUTOTUNE & CapSense_1_CSD_SS_TH_EN))
1068:Generated_Source\PSoC4/CapSense_1_Processing.c ****             SmartSense_RunNoiseEnvelope(ptrSnsTmp->raw[0u], ptrRamWdgt->sigPFC, ptrNoiseEnvelope);
1069:Generated_Source\PSoC4/CapSense_1_Processing.c ****             CapSense_1_DpUpdateThresholds(ptrRamWdgt, ptrNoiseEnvelope, snsId);
1070:Generated_Source\PSoC4/CapSense_1_Processing.c **** 
1071:Generated_Source\PSoC4/CapSense_1_Processing.c ****             /* Calculate Proximity Touch Threshold in SmartSense mode based on Finger Threshold and
1072:Generated_Source\PSoC4/CapSense_1_Processing.c ****             #if (CapSense_1_ENABLE == CapSense_1_PROXIMITY_WIDGET_EN)
1073:Generated_Source\PSoC4/CapSense_1_Processing.c ****                 if (CapSense_1_WD_PROXIMITY_E == CapSense_1_GET_WIDGET_TYPE(ptrFlashWdgt))
1074:Generated_Source\PSoC4/CapSense_1_Processing.c ****                 {
1075:Generated_Source\PSoC4/CapSense_1_Processing.c ****                     proximityThreshold = ((uint32)ptrRamWdgt->fingerTh * CapSense_1_PROX_TOUCH_COEF
1076:Generated_Source\PSoC4/CapSense_1_Processing.c ****                     if ((((1Lu) << CapSense_1_THRESHOLD_SIZE) - 1u) < proximityThreshold)
1077:Generated_Source\PSoC4/CapSense_1_Processing.c ****                     {
1078:Generated_Source\PSoC4/CapSense_1_Processing.c ****                         proximityThreshold = ((1Lu) << CapSense_1_THRESHOLD_SIZE) - 1u;
1079:Generated_Source\PSoC4/CapSense_1_Processing.c ****                     }
1080:Generated_Source\PSoC4/CapSense_1_Processing.c ****                     ((CapSense_1_RAM_WD_PROXIMITY_STRUCT *)ptrFlashWdgt->ptr2WdgtRam)->proxTouchTh 
1081:Generated_Source\PSoC4/CapSense_1_Processing.c ****                         (CapSense_1_THRESHOLD_TYPE)proximityThreshold;
1082:Generated_Source\PSoC4/CapSense_1_Processing.c ****                 }
1083:Generated_Source\PSoC4/CapSense_1_Processing.c ****             #endif /* (0 != CapSense_1_PROXIMITY_WIDGET_EN) */
1084:Generated_Source\PSoC4/CapSense_1_Processing.c **** 
1085:Generated_Source\PSoC4/CapSense_1_Processing.c ****             /* Move to next noise-envelope object */
1086:Generated_Source\PSoC4/CapSense_1_Processing.c ****             ptrNoiseEnvelope++;
1087:Generated_Source\PSoC4/CapSense_1_Processing.c ****         #endif /* (0u != (CapSense_1_CSD_AUTOTUNE & CapSense_1_CSD_SS_TH_EN)) */
1088:Generated_Source\PSoC4/CapSense_1_Processing.c **** 
1089:Generated_Source\PSoC4/CapSense_1_Processing.c ****         #if (CapSense_1_ENABLE == CapSense_1_TST_BSLN_DUPLICATION_EN)
1090:Generated_Source\PSoC4/CapSense_1_Processing.c ****             bslnTstResult = CapSense_1_FtUpdateBaseline(ptrRamWdgt, ptrSnsTmp, widgetType);
1091:Generated_Source\PSoC4/CapSense_1_Processing.c ****             if ((CYRET_SUCCESS != bslnTstResult) && (CYRET_SUCCESS == result))
1092:Generated_Source\PSoC4/CapSense_1_Processing.c ****             {
1093:Generated_Source\PSoC4/CapSense_1_Processing.c ****                 result = snsId | CapSense_1_PROCESS_BASELINE_FAILED;
1094:Generated_Source\PSoC4/CapSense_1_Processing.c ****             }
1095:Generated_Source\PSoC4/CapSense_1_Processing.c ****         #else /* (CapSense_1_ENABLE == CapSense_1_TST_BSLN_DUPLICATION_EN) */
1096:Generated_Source\PSoC4/CapSense_1_Processing.c ****             result = CapSense_1_FtUpdateBaseline(ptrRamWdgt, ptrSnsTmp, widgetType);
1097:Generated_Source\PSoC4/CapSense_1_Processing.c ****         #endif /* (CapSense_1_ENABLE == CapSense_1_TST_BSLN_DUPLICATION_EN) */
1098:Generated_Source\PSoC4/CapSense_1_Processing.c **** 
1099:Generated_Source\PSoC4/CapSense_1_Processing.c ****         CapSense_1_DpUpdateDifferences(ptrRamWdgt, ptrSnsTmp);
1100:Generated_Source\PSoC4/CapSense_1_Processing.c **** 
1101:Generated_Source\PSoC4/CapSense_1_Processing.c ****         /* Move to next sensor object */
1102:Generated_Source\PSoC4/CapSense_1_Processing.c ****         ptrSnsTmp++;
1103:Generated_Source\PSoC4/CapSense_1_Processing.c **** 
1104:Generated_Source\PSoC4/CapSense_1_Processing.c ****         #if (CapSense_1_ENABLE == CapSense_1_RC_FILTER_EN)
1105:Generated_Source\PSoC4/CapSense_1_Processing.c ****             /* Move to the next filter history object */
1106:Generated_Source\PSoC4/CapSense_1_Processing.c ****             CapSense_1_INC_FLTR_OBJ_VARIANT(isProxWdgt, fltrHistV);
1107:Generated_Source\PSoC4/CapSense_1_Processing.c ****         #endif /* #if (CapSense_1_ENABLE == CapSense_1_RC_FILTER_EN) */
1108:Generated_Source\PSoC4/CapSense_1_Processing.c ****     }
1109:Generated_Source\PSoC4/CapSense_1_Processing.c ****     return result;
1110:Generated_Source\PSoC4/CapSense_1_Processing.c **** }
1111:Generated_Source\PSoC4/CapSense_1_Processing.c **** 
1112:Generated_Source\PSoC4/CapSense_1_Processing.c **** 
1113:Generated_Source\PSoC4/CapSense_1_Processing.c **** /*******************************************************************************
1114:Generated_Source\PSoC4/CapSense_1_Processing.c **** * Function Name: CapSense_1_DpProcessCsdSensorRawCountsExt
1115:Generated_Source\PSoC4/CapSense_1_Processing.c **** ****************************************************************************//**
1116:Generated_Source\PSoC4/CapSense_1_Processing.c **** *
1117:Generated_Source\PSoC4/CapSense_1_Processing.c **** * \brief
1118:Generated_Source\PSoC4/CapSense_1_Processing.c **** *   Performs customized processing of the CSD sensor raw counts.
1119:Generated_Source\PSoC4/CapSense_1_Processing.c **** *
1120:Generated_Source\PSoC4/CapSense_1_Processing.c **** * \details
1121:Generated_Source\PSoC4/CapSense_1_Processing.c **** *   Performs customized processing of the CSD sensor raw counts.
1122:Generated_Source\PSoC4/CapSense_1_Processing.c **** *
ARM GAS  C:\Users\MICHAE~1.MAC\AppData\Local\Temp\ccOp1ZUS.s 			page 23


1123:Generated_Source\PSoC4/CapSense_1_Processing.c **** *   Note that this API updates data associated only with the sensor. It cannot be used to update
1124:Generated_Source\PSoC4/CapSense_1_Processing.c **** *   widget status.
1125:Generated_Source\PSoC4/CapSense_1_Processing.c **** *
1126:Generated_Source\PSoC4/CapSense_1_Processing.c **** * \param ptrFlashWdgt The pointer to the Flash widget structure.
1127:Generated_Source\PSoC4/CapSense_1_Processing.c **** * \param curSnsPtr    The pointer to the sensor object in RAM.
1128:Generated_Source\PSoC4/CapSense_1_Processing.c **** * \param fltrHistV    The pointer to the Filter History Object in RAM.
1129:Generated_Source\PSoC4/CapSense_1_Processing.c **** * \param mode         The bit-mask with the data processing tasks to be executed.
1130:Generated_Source\PSoC4/CapSense_1_Processing.c **** *   The mode parameters can take the following values:
1131:Generated_Source\PSoC4/CapSense_1_Processing.c **** *    - CapSense_1_PROCESS_FILTER     (0x01) Run Firmware Filter
1132:Generated_Source\PSoC4/CapSense_1_Processing.c **** *    - CapSense_1_PROCESS_BASELINE   (0x02) Update Baselines
1133:Generated_Source\PSoC4/CapSense_1_Processing.c **** *    - CapSense_1_PROCESS_DIFFCOUNTS (0x04) Update Difference Counts
1134:Generated_Source\PSoC4/CapSense_1_Processing.c **** *    - CapSense_1_PROCESS_CALC_NOISE (0x08) Calculate Noise (only if FW Tuning is enabled)
1135:Generated_Source\PSoC4/CapSense_1_Processing.c **** *    - CapSense_1_PROCESS_THRESHOLDS (0x10) Update Thresholds (only if FW Tuning is enabled)
1136:Generated_Source\PSoC4/CapSense_1_Processing.c **** *    - CapSense_1_PROCESS_ALL               Execute all tasks
1137:Generated_Source\PSoC4/CapSense_1_Processing.c **** *
1138:Generated_Source\PSoC4/CapSense_1_Processing.c **** * \return
1139:Generated_Source\PSoC4/CapSense_1_Processing.c **** *  Returns the status of the specified sensor processing operation:
1140:Generated_Source\PSoC4/CapSense_1_Processing.c **** *  - CYRET_SUCCESS if operation was successfully completed.
1141:Generated_Source\PSoC4/CapSense_1_Processing.c **** *  - CapSense_1_PROCESS_BASELINE_FAILED if baseline processing of any
1142:Generated_Source\PSoC4/CapSense_1_Processing.c **** *    sensor of the specified widget failed. The result is concatenated with the index
1143:Generated_Source\PSoC4/CapSense_1_Processing.c **** *    of failed sensor.
1144:Generated_Source\PSoC4/CapSense_1_Processing.c **** *
1145:Generated_Source\PSoC4/CapSense_1_Processing.c **** *******************************************************************************/
1146:Generated_Source\PSoC4/CapSense_1_Processing.c **** uint32 CapSense_1_DpProcessCsdSensorRawCountsExt(
1147:Generated_Source\PSoC4/CapSense_1_Processing.c ****                 CapSense_1_FLASH_WD_STRUCT const *ptrFlashWdgt,
1148:Generated_Source\PSoC4/CapSense_1_Processing.c ****                 CapSense_1_RAM_SNS_STRUCT *curSnsPtr,
1149:Generated_Source\PSoC4/CapSense_1_Processing.c ****                 CapSense_1_PTR_FILTER_VARIANT fltrHistV,
1150:Generated_Source\PSoC4/CapSense_1_Processing.c ****                  uint32 mode)
1151:Generated_Source\PSoC4/CapSense_1_Processing.c **** {
1152:Generated_Source\PSoC4/CapSense_1_Processing.c ****     uint32 result = CYRET_SUCCESS;
1153:Generated_Source\PSoC4/CapSense_1_Processing.c ****     uint32  widgetType;
1154:Generated_Source\PSoC4/CapSense_1_Processing.c ****     CapSense_1_RAM_WD_BASE_STRUCT *ptrRamWdgt;
1155:Generated_Source\PSoC4/CapSense_1_Processing.c **** 
1156:Generated_Source\PSoC4/CapSense_1_Processing.c ****     #if (0u != (CapSense_1_CSD_AUTOTUNE & CapSense_1_CSD_SS_TH_EN))
1157:Generated_Source\PSoC4/CapSense_1_Processing.c ****         SMARTSENSE_CSD_NOISE_ENVELOPE_STRUCT *ptrNoiseEnvelope;
1158:Generated_Source\PSoC4/CapSense_1_Processing.c ****         #if (CapSense_1_ENABLE == CapSense_1_PROXIMITY_WIDGET_EN)
1159:Generated_Source\PSoC4/CapSense_1_Processing.c ****             uint32  proximityThreshold;
1160:Generated_Source\PSoC4/CapSense_1_Processing.c ****         #endif /* (0 != CapSense_1_PROXIMITY_WIDGET_EN) */
1161:Generated_Source\PSoC4/CapSense_1_Processing.c **** 
1162:Generated_Source\PSoC4/CapSense_1_Processing.c ****         /* Need to specify pointer to corresponding sensor's noise-envelope object.*/
1163:Generated_Source\PSoC4/CapSense_1_Processing.c ****         ptrNoiseEnvelope = ptrFlashWdgt->ptr2NoiseEnvlp;
1164:Generated_Source\PSoC4/CapSense_1_Processing.c ****     #endif /* (0u != (CapSense_1_CSD_AUTOTUNE & CapSense_1_CSD_SS_TH_EN)) */
1165:Generated_Source\PSoC4/CapSense_1_Processing.c **** 
1166:Generated_Source\PSoC4/CapSense_1_Processing.c ****     widgetType = ptrFlashWdgt->wdgtType;
1167:Generated_Source\PSoC4/CapSense_1_Processing.c ****     ptrRamWdgt = (CapSense_1_RAM_WD_BASE_STRUCT *)ptrFlashWdgt->ptr2WdgtRam;
1168:Generated_Source\PSoC4/CapSense_1_Processing.c **** 
1169:Generated_Source\PSoC4/CapSense_1_Processing.c ****     #if (CapSense_1_ENABLE == CapSense_1_RC_FILTER_EN)
1170:Generated_Source\PSoC4/CapSense_1_Processing.c ****         if (0u != (mode & CapSense_1_PROCESS_FILTER))
1171:Generated_Source\PSoC4/CapSense_1_Processing.c ****         {
1172:Generated_Source\PSoC4/CapSense_1_Processing.c ****             CapSense_1_FtRunEnabledFiltersInternal(fltrHistV, curSnsPtr, widgetType);
1173:Generated_Source\PSoC4/CapSense_1_Processing.c ****             #if (CapSense_1_ALP_FILTER_EN)
1174:Generated_Source\PSoC4/CapSense_1_Processing.c ****                 CapSense_1_ConfigRunALPInternal(fltrHistV, ptrRamWdgt, curSnsPtr, widgetType);
1175:Generated_Source\PSoC4/CapSense_1_Processing.c ****             #endif
1176:Generated_Source\PSoC4/CapSense_1_Processing.c ****         }
1177:Generated_Source\PSoC4/CapSense_1_Processing.c ****     #else
1178:Generated_Source\PSoC4/CapSense_1_Processing.c ****         (void)fltrHistV; /* This parameter is unused in such configurations */
1179:Generated_Source\PSoC4/CapSense_1_Processing.c ****     #endif /* #if (CapSense_1_ENABLE == CapSense_1_RC_FILTER_EN) */
ARM GAS  C:\Users\MICHAE~1.MAC\AppData\Local\Temp\ccOp1ZUS.s 			page 24


1180:Generated_Source\PSoC4/CapSense_1_Processing.c **** 
1181:Generated_Source\PSoC4/CapSense_1_Processing.c ****     #if (0u != (CapSense_1_CSD_AUTOTUNE & CapSense_1_CSD_SS_TH_EN))
1182:Generated_Source\PSoC4/CapSense_1_Processing.c ****         if (0u != (mode & CapSense_1_PROCESS_CALC_NOISE))
1183:Generated_Source\PSoC4/CapSense_1_Processing.c ****         {
1184:Generated_Source\PSoC4/CapSense_1_Processing.c ****             SmartSense_RunNoiseEnvelope(curSnsPtr->raw[0u], ptrRamWdgt->sigPFC, ptrNoiseEnvelope);
1185:Generated_Source\PSoC4/CapSense_1_Processing.c ****         }
1186:Generated_Source\PSoC4/CapSense_1_Processing.c **** 
1187:Generated_Source\PSoC4/CapSense_1_Processing.c ****         if (0u != (mode & CapSense_1_PROCESS_THRESHOLDS))
1188:Generated_Source\PSoC4/CapSense_1_Processing.c ****         {
1189:Generated_Source\PSoC4/CapSense_1_Processing.c ****             CapSense_1_DpUpdateThresholds(ptrRamWdgt, ptrNoiseEnvelope, 0u);
1190:Generated_Source\PSoC4/CapSense_1_Processing.c **** 
1191:Generated_Source\PSoC4/CapSense_1_Processing.c ****             /* Calculate Proximity Touch Threshold in SmartSense mode based on Finger Threshold and
1192:Generated_Source\PSoC4/CapSense_1_Processing.c ****             #if (CapSense_1_ENABLE == CapSense_1_PROXIMITY_WIDGET_EN)
1193:Generated_Source\PSoC4/CapSense_1_Processing.c ****                 if (CapSense_1_WD_PROXIMITY_E == CapSense_1_GET_WIDGET_TYPE(ptrFlashWdgt))
1194:Generated_Source\PSoC4/CapSense_1_Processing.c ****                 {
1195:Generated_Source\PSoC4/CapSense_1_Processing.c ****                     proximityThreshold = ((uint32)ptrRamWdgt->fingerTh * CapSense_1_PROX_TOUCH_COEF
1196:Generated_Source\PSoC4/CapSense_1_Processing.c ****                     if ((((1Lu) << CapSense_1_THRESHOLD_SIZE) - 1u) < proximityThreshold)
1197:Generated_Source\PSoC4/CapSense_1_Processing.c ****                     {
1198:Generated_Source\PSoC4/CapSense_1_Processing.c ****                         proximityThreshold = ((1Lu) << CapSense_1_THRESHOLD_SIZE) - 1u;
1199:Generated_Source\PSoC4/CapSense_1_Processing.c ****                     }
1200:Generated_Source\PSoC4/CapSense_1_Processing.c ****                     ((CapSense_1_RAM_WD_PROXIMITY_STRUCT *)ptrFlashWdgt->ptr2WdgtRam)->proxTouchTh 
1201:Generated_Source\PSoC4/CapSense_1_Processing.c ****                         (CapSense_1_THRESHOLD_TYPE)proximityThreshold;
1202:Generated_Source\PSoC4/CapSense_1_Processing.c ****                 }
1203:Generated_Source\PSoC4/CapSense_1_Processing.c ****             #endif /* (0 != CapSense_1_PROXIMITY_WIDGET_EN) */
1204:Generated_Source\PSoC4/CapSense_1_Processing.c ****         }
1205:Generated_Source\PSoC4/CapSense_1_Processing.c ****     #endif /* #if (0u != (CapSense_1_CSD_AUTOTUNE & CapSense_1_CSD_SS_TH_EN)) */
1206:Generated_Source\PSoC4/CapSense_1_Processing.c **** 
1207:Generated_Source\PSoC4/CapSense_1_Processing.c ****     if (0u != (mode & CapSense_1_PROCESS_BASELINE))
1208:Generated_Source\PSoC4/CapSense_1_Processing.c ****     {
1209:Generated_Source\PSoC4/CapSense_1_Processing.c ****         result = CapSense_1_FtUpdateBaseline(ptrRamWdgt, curSnsPtr, widgetType);
1210:Generated_Source\PSoC4/CapSense_1_Processing.c ****     }
1211:Generated_Source\PSoC4/CapSense_1_Processing.c **** 
1212:Generated_Source\PSoC4/CapSense_1_Processing.c ****     if (0u != (mode & CapSense_1_PROCESS_DIFFCOUNTS))
1213:Generated_Source\PSoC4/CapSense_1_Processing.c ****     {
1214:Generated_Source\PSoC4/CapSense_1_Processing.c ****         CapSense_1_DpUpdateDifferences(ptrRamWdgt, curSnsPtr);
1215:Generated_Source\PSoC4/CapSense_1_Processing.c ****     }
1216:Generated_Source\PSoC4/CapSense_1_Processing.c ****     return result;
1217:Generated_Source\PSoC4/CapSense_1_Processing.c **** }
1218:Generated_Source\PSoC4/CapSense_1_Processing.c **** 
1219:Generated_Source\PSoC4/CapSense_1_Processing.c **** /*******************************************************************************
1220:Generated_Source\PSoC4/CapSense_1_Processing.c **** * Function Name: CapSense_1_DpProcessCsdWidgetStatus
1221:Generated_Source\PSoC4/CapSense_1_Processing.c **** ****************************************************************************//**
1222:Generated_Source\PSoC4/CapSense_1_Processing.c **** *
1223:Generated_Source\PSoC4/CapSense_1_Processing.c **** * \brief
1224:Generated_Source\PSoC4/CapSense_1_Processing.c **** *  Runs the status processing of the CSD widget and updates it in the Data Structure.
1225:Generated_Source\PSoC4/CapSense_1_Processing.c **** *
1226:Generated_Source\PSoC4/CapSense_1_Processing.c **** * \details
1227:Generated_Source\PSoC4/CapSense_1_Processing.c **** *  This API determines the widget type and calls the appropriate low-level processing
1228:Generated_Source\PSoC4/CapSense_1_Processing.c **** *  function. Based on the returned results it updates the widget and sensor
1229:Generated_Source\PSoC4/CapSense_1_Processing.c **** *  status in the data structure. Any widget specific registers like the centroid
1230:Generated_Source\PSoC4/CapSense_1_Processing.c **** *  position are updated directly in the low-level processing function.
1231:Generated_Source\PSoC4/CapSense_1_Processing.c **** *
1232:Generated_Source\PSoC4/CapSense_1_Processing.c **** *  When the widget-specific processing completes this API updates the snsStatus
1233:Generated_Source\PSoC4/CapSense_1_Processing.c **** *  and wdgtStatus registers in the data structure. The wdgtStatus register
1234:Generated_Source\PSoC4/CapSense_1_Processing.c **** *  is a bitmask were each bit corresponds to the specific widget identified by
1235:Generated_Source\PSoC4/CapSense_1_Processing.c **** *  the widget index. When the bit is set the widget is active (touched);
1236:Generated_Source\PSoC4/CapSense_1_Processing.c **** *
ARM GAS  C:\Users\MICHAE~1.MAC\AppData\Local\Temp\ccOp1ZUS.s 			page 25


1237:Generated_Source\PSoC4/CapSense_1_Processing.c **** *  The snsStatus register for CSD widgets contains status of each widget sensor
1238:Generated_Source\PSoC4/CapSense_1_Processing.c **** *  (active/non-active). Each bit corresponds to one sensor. In case of the
1239:Generated_Source\PSoC4/CapSense_1_Processing.c **** *  Proximity widget two bits are used per sensor: one for proximity status and
1240:Generated_Source\PSoC4/CapSense_1_Processing.c **** *  second for the touch status.
1241:Generated_Source\PSoC4/CapSense_1_Processing.c **** *
1242:Generated_Source\PSoC4/CapSense_1_Processing.c **** * \param widgetId      The widget index number.
1243:Generated_Source\PSoC4/CapSense_1_Processing.c **** * \param ptrFlashWdgt  The pointer to the Flash widget structure.
1244:Generated_Source\PSoC4/CapSense_1_Processing.c **** *
1245:Generated_Source\PSoC4/CapSense_1_Processing.c **** *******************************************************************************/
1246:Generated_Source\PSoC4/CapSense_1_Processing.c **** void CapSense_1_DpProcessCsdWidgetStatus(uint32 widgetId, CapSense_1_FLASH_WD_STRUCT const *ptrFlas
1247:Generated_Source\PSoC4/CapSense_1_Processing.c **** {
1248:Generated_Source\PSoC4/CapSense_1_Processing.c ****     uint32 sensorStatus;
1249:Generated_Source\PSoC4/CapSense_1_Processing.c ****     uint32 wdStatusIndex;
1250:Generated_Source\PSoC4/CapSense_1_Processing.c ****     uint32 wdStatusMask;
1251:Generated_Source\PSoC4/CapSense_1_Processing.c ****     CapSense_1_WD_TYPE_ENUM widgetType;
1252:Generated_Source\PSoC4/CapSense_1_Processing.c **** 
1253:Generated_Source\PSoC4/CapSense_1_Processing.c ****     widgetType = (CapSense_1_WD_TYPE_ENUM)ptrFlashWdgt->wdgtType;
1254:Generated_Source\PSoC4/CapSense_1_Processing.c ****     sensorStatus = CapSense_1_dsRam.snsStatus[widgetId];
1255:Generated_Source\PSoC4/CapSense_1_Processing.c **** 
1256:Generated_Source\PSoC4/CapSense_1_Processing.c ****     switch (widgetType)
1257:Generated_Source\PSoC4/CapSense_1_Processing.c ****     {
1258:Generated_Source\PSoC4/CapSense_1_Processing.c ****     #if (0u != CapSense_1_BUTTON_WIDGET_EN)
1259:Generated_Source\PSoC4/CapSense_1_Processing.c ****         case CapSense_1_WD_BUTTON_E:
1260:Generated_Source\PSoC4/CapSense_1_Processing.c ****             sensorStatus = CapSense_1_DpProcessButton(sensorStatus, ptrFlashWdgt);
1261:Generated_Source\PSoC4/CapSense_1_Processing.c ****             break;
1262:Generated_Source\PSoC4/CapSense_1_Processing.c ****     #endif /* #if (0u != CapSense_1_BUTTON_WIDGET_EN) */
1263:Generated_Source\PSoC4/CapSense_1_Processing.c **** 
1264:Generated_Source\PSoC4/CapSense_1_Processing.c ****     #if (0u != CapSense_1_SLIDER_WIDGET_EN)
1265:Generated_Source\PSoC4/CapSense_1_Processing.c ****         case CapSense_1_WD_LINEAR_SLIDER_E:
1266:Generated_Source\PSoC4/CapSense_1_Processing.c ****         case CapSense_1_WD_RADIAL_SLIDER_E:
1267:Generated_Source\PSoC4/CapSense_1_Processing.c ****             sensorStatus = CapSense_1_DpProcessSlider(sensorStatus, ptrFlashWdgt);
1268:Generated_Source\PSoC4/CapSense_1_Processing.c ****             break;
1269:Generated_Source\PSoC4/CapSense_1_Processing.c ****     #endif /* #if (0u != CapSense_1_SLIDER_WIDGET_EN) */
1270:Generated_Source\PSoC4/CapSense_1_Processing.c **** 
1271:Generated_Source\PSoC4/CapSense_1_Processing.c ****     #if (0u != CapSense_1_CSD_MATRIX_WIDGET_EN)
1272:Generated_Source\PSoC4/CapSense_1_Processing.c ****         case CapSense_1_WD_MATRIX_BUTTON_E:
1273:Generated_Source\PSoC4/CapSense_1_Processing.c ****             sensorStatus = CapSense_1_DpProcessCsdMatrix(sensorStatus, ptrFlashWdgt);
1274:Generated_Source\PSoC4/CapSense_1_Processing.c ****             break;
1275:Generated_Source\PSoC4/CapSense_1_Processing.c ****     #endif /* #if (0u != CapSense_1_CSD_MATRIX_WIDGET_EN) */
1276:Generated_Source\PSoC4/CapSense_1_Processing.c **** 
1277:Generated_Source\PSoC4/CapSense_1_Processing.c ****     #if (0u != CapSense_1_CSD_TOUCHPAD_WIDGET_EN)
1278:Generated_Source\PSoC4/CapSense_1_Processing.c ****         case CapSense_1_WD_TOUCHPAD_E:
1279:Generated_Source\PSoC4/CapSense_1_Processing.c ****             sensorStatus = CapSense_1_DpProcessCsdTouchpad(sensorStatus, ptrFlashWdgt);
1280:Generated_Source\PSoC4/CapSense_1_Processing.c ****             #if (0u != CapSense_1_BALLISTIC_MULTIPLIER_EN)
1281:Generated_Source\PSoC4/CapSense_1_Processing.c ****                 CapSense_1_RunBallisticMultiplier(widgetId);
1282:Generated_Source\PSoC4/CapSense_1_Processing.c ****             #endif /* (0u != CapSense_1_BALLISTIC_MULTIPLIER_EN) */
1283:Generated_Source\PSoC4/CapSense_1_Processing.c ****             break;
1284:Generated_Source\PSoC4/CapSense_1_Processing.c ****     #endif /* #if (0u != CapSense_1_CSD_TOUCHPAD_WIDGET_EN) */
1285:Generated_Source\PSoC4/CapSense_1_Processing.c **** 
1286:Generated_Source\PSoC4/CapSense_1_Processing.c ****     #if (0u != CapSense_1_PROXIMITY_WIDGET_EN)
1287:Generated_Source\PSoC4/CapSense_1_Processing.c ****         case CapSense_1_WD_PROXIMITY_E:
1288:Generated_Source\PSoC4/CapSense_1_Processing.c ****             sensorStatus = CapSense_1_DpProcessProximity(sensorStatus, ptrFlashWdgt);
1289:Generated_Source\PSoC4/CapSense_1_Processing.c ****             break;
1290:Generated_Source\PSoC4/CapSense_1_Processing.c ****     #endif /* #if (0u != CapSense_1_PROXIMITY_WIDGET_EN) */
1291:Generated_Source\PSoC4/CapSense_1_Processing.c **** 
1292:Generated_Source\PSoC4/CapSense_1_Processing.c ****     default:
1293:Generated_Source\PSoC4/CapSense_1_Processing.c ****         CYASSERT(0u);
ARM GAS  C:\Users\MICHAE~1.MAC\AppData\Local\Temp\ccOp1ZUS.s 			page 26


1294:Generated_Source\PSoC4/CapSense_1_Processing.c ****         break;
1295:Generated_Source\PSoC4/CapSense_1_Processing.c ****     }
1296:Generated_Source\PSoC4/CapSense_1_Processing.c **** 
1297:Generated_Source\PSoC4/CapSense_1_Processing.c ****     CapSense_1_dsRam.snsStatus[widgetId] = (CapSense_1_SNS_STS_TYPE)sensorStatus;
1298:Generated_Source\PSoC4/CapSense_1_Processing.c **** 
1299:Generated_Source\PSoC4/CapSense_1_Processing.c ****     /* The next two lines calculate index and bitmask of the widget status bit in the wdgtStatus ar
1300:Generated_Source\PSoC4/CapSense_1_Processing.c ****     wdStatusIndex = CapSense_1_GET_WDGT_STATUS_INDEX(widgetId);
1301:Generated_Source\PSoC4/CapSense_1_Processing.c ****     wdStatusMask = CapSense_1_GET_WDGT_STATUS_MASK(widgetId);
1302:Generated_Source\PSoC4/CapSense_1_Processing.c **** 
1303:Generated_Source\PSoC4/CapSense_1_Processing.c ****     /* Check if there are active sensors and update widget status accordingly */
1304:Generated_Source\PSoC4/CapSense_1_Processing.c ****     if (0u == sensorStatus)
1305:Generated_Source\PSoC4/CapSense_1_Processing.c ****     {
1306:Generated_Source\PSoC4/CapSense_1_Processing.c ****         CapSense_1_dsRam.wdgtStatus[wdStatusIndex] &= ~wdStatusMask;
1307:Generated_Source\PSoC4/CapSense_1_Processing.c ****     }
1308:Generated_Source\PSoC4/CapSense_1_Processing.c ****     else
1309:Generated_Source\PSoC4/CapSense_1_Processing.c ****     {
1310:Generated_Source\PSoC4/CapSense_1_Processing.c ****         CapSense_1_dsRam.wdgtStatus[wdStatusIndex] |= wdStatusMask;
1311:Generated_Source\PSoC4/CapSense_1_Processing.c ****     }
1312:Generated_Source\PSoC4/CapSense_1_Processing.c **** }
1313:Generated_Source\PSoC4/CapSense_1_Processing.c **** #endif /* #if (0u != CapSense_1_TOTAL_CSD_WIDGETS) */
1314:Generated_Source\PSoC4/CapSense_1_Processing.c **** 
1315:Generated_Source\PSoC4/CapSense_1_Processing.c **** 
1316:Generated_Source\PSoC4/CapSense_1_Processing.c **** #if (0 != (CapSense_1_CSD_AUTOTUNE & CapSense_1_CSD_SS_TH_EN))
1317:Generated_Source\PSoC4/CapSense_1_Processing.c **** /*******************************************************************************
1318:Generated_Source\PSoC4/CapSense_1_Processing.c **** * Function Name: CapSense_1_DpUpdateThresholds
1319:Generated_Source\PSoC4/CapSense_1_Processing.c **** ****************************************************************************//**
1320:Generated_Source\PSoC4/CapSense_1_Processing.c **** *
1321:Generated_Source\PSoC4/CapSense_1_Processing.c **** * \brief
1322:Generated_Source\PSoC4/CapSense_1_Processing.c **** *   Updates noise and finger thresholds for a specified widget.
1323:Generated_Source\PSoC4/CapSense_1_Processing.c **** *
1324:Generated_Source\PSoC4/CapSense_1_Processing.c **** * \details
1325:Generated_Source\PSoC4/CapSense_1_Processing.c **** *   Updates noise and finger thresholds for a specified widget.
1326:Generated_Source\PSoC4/CapSense_1_Processing.c **** *   This algorithm is a part of Auto-tuning feature.
1327:Generated_Source\PSoC4/CapSense_1_Processing.c **** *
1328:Generated_Source\PSoC4/CapSense_1_Processing.c **** * \param ptrRamWdgt       The pointer to the RAM widget object.
1329:Generated_Source\PSoC4/CapSense_1_Processing.c **** * \param ptrNoiseEnvelope The pointer to the noise-envelope object in RAM.
1330:Generated_Source\PSoC4/CapSense_1_Processing.c **** * \param startFlag        The flag indicates when new widget is processed.
1331:Generated_Source\PSoC4/CapSense_1_Processing.c **** *
1332:Generated_Source\PSoC4/CapSense_1_Processing.c **** *******************************************************************************/
1333:Generated_Source\PSoC4/CapSense_1_Processing.c **** void CapSense_1_DpUpdateThresholds(CapSense_1_RAM_WD_BASE_STRUCT *ptrRamWdgt,
1334:Generated_Source\PSoC4/CapSense_1_Processing.c ****                                          SMARTSENSE_CSD_NOISE_ENVELOPE_STRUCT *ptrNoiseEnvelope,
1335:Generated_Source\PSoC4/CapSense_1_Processing.c ****                                          uint32 startFlag)
1336:Generated_Source\PSoC4/CapSense_1_Processing.c **** {
 128              		.loc 1 1336 0
 129              		.cfi_startproc
 130              		@ args = 0, pretend = 0, frame = 8
 131              		@ frame_needed = 0, uses_anonymous_args = 0
 132              	.LVL14:
 133 0000 10B5     		push	{r4, lr}
 134              		.cfi_def_cfa_offset 8
 135              		.cfi_offset 4, -8
 136              		.cfi_offset 14, -4
 137 0002 82B0     		sub	sp, sp, #8
 138              		.cfi_def_cfa_offset 16
 139 0004 0400     		movs	r4, r0
 140 0006 0800     		movs	r0, r1
 141              	.LVL15:
ARM GAS  C:\Users\MICHAE~1.MAC\AppData\Local\Temp\ccOp1ZUS.s 			page 27


 142 0008 1300     		movs	r3, r2
 143              	.LVL16:
1337:Generated_Source\PSoC4/CapSense_1_Processing.c ****     SMARTSENSE_UPDATE_THRESHOLDS_STRUCT thresholds;
1338:Generated_Source\PSoC4/CapSense_1_Processing.c ****     SMARTSENSE_UPDATE_THRESHOLDS_STRUCT *ptrThresholds = &thresholds;
1339:Generated_Source\PSoC4/CapSense_1_Processing.c ****     ptrThresholds->fingerTh = ptrRamWdgt->fingerTh;
 144              		.loc 1 1339 0
 145 000a 6288     		ldrh	r2, [r4, #2]
 146              	.LVL17:
 147 000c 6946     		mov	r1, sp
 148              	.LVL18:
 149 000e 0A80     		strh	r2, [r1]
1340:Generated_Source\PSoC4/CapSense_1_Processing.c **** 
1341:Generated_Source\PSoC4/CapSense_1_Processing.c ****     SmartSense_UpdateThresholds(ptrNoiseEnvelope, ptrThresholds, ptrRamWdgt->sigPFC, startFlag);
 150              		.loc 1 1341 0
 151 0010 228A     		ldrh	r2, [r4, #16]
 152 0012 FFF7FEFF 		bl	SmartSense_UpdateThresholds
 153              	.LVL19:
1342:Generated_Source\PSoC4/CapSense_1_Processing.c **** 
1343:Generated_Source\PSoC4/CapSense_1_Processing.c ****     ptrRamWdgt->fingerTh = ptrThresholds->fingerTh;
 154              		.loc 1 1343 0
 155 0016 6B46     		mov	r3, sp
 156 0018 1B88     		ldrh	r3, [r3]
 157 001a 6380     		strh	r3, [r4, #2]
1344:Generated_Source\PSoC4/CapSense_1_Processing.c ****     ptrRamWdgt->noiseTh = ptrThresholds->noiseTh;
 158              		.loc 1 1344 0
 159 001c 6B46     		mov	r3, sp
 160 001e 9B78     		ldrb	r3, [r3, #2]
 161 0020 2371     		strb	r3, [r4, #4]
1345:Generated_Source\PSoC4/CapSense_1_Processing.c ****     ptrRamWdgt->nNoiseTh = ptrThresholds->nNoiseTh;
 162              		.loc 1 1345 0
 163 0022 6B46     		mov	r3, sp
 164 0024 DB78     		ldrb	r3, [r3, #3]
 165 0026 6371     		strb	r3, [r4, #5]
1346:Generated_Source\PSoC4/CapSense_1_Processing.c ****     ptrRamWdgt->hysteresis = ptrThresholds->hysteresis;
 166              		.loc 1 1346 0
 167 0028 6B46     		mov	r3, sp
 168 002a 1B79     		ldrb	r3, [r3, #4]
 169 002c A371     		strb	r3, [r4, #6]
1347:Generated_Source\PSoC4/CapSense_1_Processing.c **** }
 170              		.loc 1 1347 0
 171 002e 02B0     		add	sp, sp, #8
 172              	.LVL20:
 173              		@ sp needed
 174              	.LVL21:
 175 0030 10BD     		pop	{r4, pc}
 176              		.cfi_endproc
 177              	.LFE5:
 178              		.size	CapSense_1_DpUpdateThresholds, .-CapSense_1_DpUpdateThresholds
 179 0032 C046     		.section	.text.CapSense_1_DpUpdateDifferences,"ax",%progbits
 180              		.align	2
 181              		.global	CapSense_1_DpUpdateDifferences
 182              		.code	16
 183              		.thumb_func
 184              		.type	CapSense_1_DpUpdateDifferences, %function
 185              	CapSense_1_DpUpdateDifferences:
 186              	.LFB6:
1348:Generated_Source\PSoC4/CapSense_1_Processing.c **** #endif /* #if (0u != (CapSense_1_CSD_AUTOTUNE & CapSense_1_CSD_SS_TH_EN)) */
ARM GAS  C:\Users\MICHAE~1.MAC\AppData\Local\Temp\ccOp1ZUS.s 			page 28


1349:Generated_Source\PSoC4/CapSense_1_Processing.c **** 
1350:Generated_Source\PSoC4/CapSense_1_Processing.c **** 
1351:Generated_Source\PSoC4/CapSense_1_Processing.c **** /*******************************************************************************
1352:Generated_Source\PSoC4/CapSense_1_Processing.c **** * Function Name: CapSense_1_DpUpdateDifferences
1353:Generated_Source\PSoC4/CapSense_1_Processing.c **** ****************************************************************************//**
1354:Generated_Source\PSoC4/CapSense_1_Processing.c **** *
1355:Generated_Source\PSoC4/CapSense_1_Processing.c **** * \brief
1356:Generated_Source\PSoC4/CapSense_1_Processing.c **** *   Calculates new difference values.
1357:Generated_Source\PSoC4/CapSense_1_Processing.c **** *   Also, executes the multi-frequency scan algorithm if it is enabled.
1358:Generated_Source\PSoC4/CapSense_1_Processing.c **** *
1359:Generated_Source\PSoC4/CapSense_1_Processing.c **** * \details
1360:Generated_Source\PSoC4/CapSense_1_Processing.c **** *   This API calculates the difference between the baseline and raw counts.
1361:Generated_Source\PSoC4/CapSense_1_Processing.c **** *   If the difference is positive (raw > baseline), and higher than the widget
1362:Generated_Source\PSoC4/CapSense_1_Processing.c **** *   noise threshold, it is saved into the data structure for further processing.
1363:Generated_Source\PSoC4/CapSense_1_Processing.c **** *   Otherwise the difference is set to zero. The final difference value is saved
1364:Generated_Source\PSoC4/CapSense_1_Processing.c **** *   with the subtracted noise threshold value.
1365:Generated_Source\PSoC4/CapSense_1_Processing.c **** *
1366:Generated_Source\PSoC4/CapSense_1_Processing.c **** *   If the multi-frequency scan algorithm is enabled, the difference is calculated
1367:Generated_Source\PSoC4/CapSense_1_Processing.c **** *   for the three sets of data available for each sensor. Then
1368:Generated_Source\PSoC4/CapSense_1_Processing.c **** *   the median filter selects the final difference value.
1369:Generated_Source\PSoC4/CapSense_1_Processing.c **** *
1370:Generated_Source\PSoC4/CapSense_1_Processing.c **** * \param ptrRamWdgt The pointer to the RAR Widget Object.
1371:Generated_Source\PSoC4/CapSense_1_Processing.c **** * \param curSnsPtr  The pointer to the sensor object in RAM.
1372:Generated_Source\PSoC4/CapSense_1_Processing.c **** *
1373:Generated_Source\PSoC4/CapSense_1_Processing.c **** *******************************************************************************/
1374:Generated_Source\PSoC4/CapSense_1_Processing.c **** void CapSense_1_DpUpdateDifferences(
1375:Generated_Source\PSoC4/CapSense_1_Processing.c ****                         CapSense_1_RAM_WD_BASE_STRUCT *ptrRamWdgt,
1376:Generated_Source\PSoC4/CapSense_1_Processing.c ****                         CapSense_1_RAM_SNS_STRUCT *curSnsPtr)
1377:Generated_Source\PSoC4/CapSense_1_Processing.c **** {
 187              		.loc 1 1377 0
 188              		.cfi_startproc
 189              		@ args = 0, pretend = 0, frame = 0
 190              		@ frame_needed = 0, uses_anonymous_args = 0
 191              	.LVL22:
 192 0000 30B5     		push	{r4, r5, lr}
 193              		.cfi_def_cfa_offset 12
 194              		.cfi_offset 4, -12
 195              		.cfi_offset 5, -8
 196              		.cfi_offset 14, -4
 197              	.LVL23:
1378:Generated_Source\PSoC4/CapSense_1_Processing.c ****     register int32 diffValue = 0;
1379:Generated_Source\PSoC4/CapSense_1_Processing.c **** 
1380:Generated_Source\PSoC4/CapSense_1_Processing.c ****     #if (0u != CapSense_1_MULTI_FREQ_SCAN_EN)
1381:Generated_Source\PSoC4/CapSense_1_Processing.c ****         register int32 diffValue_0 = 0;
1382:Generated_Source\PSoC4/CapSense_1_Processing.c ****         register int32 diffValue_2 = 0;
1383:Generated_Source\PSoC4/CapSense_1_Processing.c ****     #endif /* #if (0u != CapSense_1_MULTI_FREQ_SCAN_EN) */
1384:Generated_Source\PSoC4/CapSense_1_Processing.c **** 
1385:Generated_Source\PSoC4/CapSense_1_Processing.c ****     /* Calculate difference */
1386:Generated_Source\PSoC4/CapSense_1_Processing.c ****     diffValue = (int32)curSnsPtr->raw[0u] - (int32)curSnsPtr->bsln[0u];
 198              		.loc 1 1386 0
 199 0002 0B88     		ldrh	r3, [r1]
 200 0004 4A88     		ldrh	r2, [r1, #2]
 201 0006 9C1A     		subs	r4, r3, r2
 202              	.LVL24:
1387:Generated_Source\PSoC4/CapSense_1_Processing.c **** 
1388:Generated_Source\PSoC4/CapSense_1_Processing.c ****     #if (0u != CapSense_1_MULTI_FREQ_SCAN_EN)
1389:Generated_Source\PSoC4/CapSense_1_Processing.c ****         diffValue_0 = (int32)curSnsPtr->raw[1u] - (int32)curSnsPtr->bsln[1u];
ARM GAS  C:\Users\MICHAE~1.MAC\AppData\Local\Temp\ccOp1ZUS.s 			page 29


1390:Generated_Source\PSoC4/CapSense_1_Processing.c ****         diffValue_2 = (int32)curSnsPtr->raw[2u] - (int32)curSnsPtr->bsln[2u];
1391:Generated_Source\PSoC4/CapSense_1_Processing.c **** 
1392:Generated_Source\PSoC4/CapSense_1_Processing.c ****         /* Find median and put it into [0u] element */
1393:Generated_Source\PSoC4/CapSense_1_Processing.c ****         if (diffValue_0 > diffValue)
1394:Generated_Source\PSoC4/CapSense_1_Processing.c ****         {
1395:Generated_Source\PSoC4/CapSense_1_Processing.c ****             register int32 swapv = diffValue_0;
1396:Generated_Source\PSoC4/CapSense_1_Processing.c ****             diffValue_0 = diffValue;
1397:Generated_Source\PSoC4/CapSense_1_Processing.c ****             diffValue = swapv;
1398:Generated_Source\PSoC4/CapSense_1_Processing.c ****         }
1399:Generated_Source\PSoC4/CapSense_1_Processing.c **** 
1400:Generated_Source\PSoC4/CapSense_1_Processing.c ****         if (diffValue > diffValue_2)
1401:Generated_Source\PSoC4/CapSense_1_Processing.c ****         {
1402:Generated_Source\PSoC4/CapSense_1_Processing.c ****             register int32 swapv = diffValue;
1403:Generated_Source\PSoC4/CapSense_1_Processing.c ****             diffValue = diffValue_2;
1404:Generated_Source\PSoC4/CapSense_1_Processing.c ****             diffValue_2 = swapv;
1405:Generated_Source\PSoC4/CapSense_1_Processing.c ****         }
1406:Generated_Source\PSoC4/CapSense_1_Processing.c **** 
1407:Generated_Source\PSoC4/CapSense_1_Processing.c ****         if (diffValue_0 > diffValue)
1408:Generated_Source\PSoC4/CapSense_1_Processing.c ****         {
1409:Generated_Source\PSoC4/CapSense_1_Processing.c ****             register int32 swapv = diffValue_0;
1410:Generated_Source\PSoC4/CapSense_1_Processing.c ****             diffValue_0 = diffValue;
1411:Generated_Source\PSoC4/CapSense_1_Processing.c ****             diffValue = swapv;
1412:Generated_Source\PSoC4/CapSense_1_Processing.c ****         }
1413:Generated_Source\PSoC4/CapSense_1_Processing.c ****     #endif /* #if (0u != CapSense_1_MULTI_FREQ_SCAN_EN) */
1414:Generated_Source\PSoC4/CapSense_1_Processing.c **** 
1415:Generated_Source\PSoC4/CapSense_1_Processing.c ****     curSnsPtr->diff = 0u;
 203              		.loc 1 1415 0
 204 0008 0025     		movs	r5, #0
 205 000a CD80     		strh	r5, [r1, #6]
1416:Generated_Source\PSoC4/CapSense_1_Processing.c **** 
1417:Generated_Source\PSoC4/CapSense_1_Processing.c ****     if (diffValue > (int32)ptrRamWdgt->noiseTh)
 206              		.loc 1 1417 0
 207 000c 0079     		ldrb	r0, [r0, #4]
 208              	.LVL25:
 209 000e 8442     		cmp	r4, r0
 210 0010 00DD     		ble	.L11
1418:Generated_Source\PSoC4/CapSense_1_Processing.c ****     {
1419:Generated_Source\PSoC4/CapSense_1_Processing.c ****         curSnsPtr->diff = (CapSense_1_THRESHOLD_TYPE) diffValue;
 211              		.loc 1 1419 0
 212 0012 CC80     		strh	r4, [r1, #6]
 213              	.L11:
1420:Generated_Source\PSoC4/CapSense_1_Processing.c ****     }
1421:Generated_Source\PSoC4/CapSense_1_Processing.c **** }
 214              		.loc 1 1421 0
 215              		@ sp needed
 216              	.LVL26:
 217 0014 30BD     		pop	{r4, r5, pc}
 218              		.cfi_endproc
 219              	.LFE6:
 220              		.size	CapSense_1_DpUpdateDifferences, .-CapSense_1_DpUpdateDifferences
 221 0016 C046     		.section	.text.CapSense_1_DpProcessCsdWidgetRawCounts,"ax",%progbits
 222              		.align	2
 223              		.global	CapSense_1_DpProcessCsdWidgetRawCounts
 224              		.code	16
 225              		.thumb_func
 226              		.type	CapSense_1_DpProcessCsdWidgetRawCounts, %function
 227              	CapSense_1_DpProcessCsdWidgetRawCounts:
ARM GAS  C:\Users\MICHAE~1.MAC\AppData\Local\Temp\ccOp1ZUS.s 			page 30


 228              	.LFB2:
1017:Generated_Source\PSoC4/CapSense_1_Processing.c ****     uint32  result = CYRET_SUCCESS;
 229              		.loc 1 1017 0
 230              		.cfi_startproc
 231              		@ args = 0, pretend = 0, frame = 8
 232              		@ frame_needed = 0, uses_anonymous_args = 0
 233              	.LVL27:
 234 0000 F0B5     		push	{r4, r5, r6, r7, lr}
 235              		.cfi_def_cfa_offset 20
 236              		.cfi_offset 4, -20
 237              		.cfi_offset 5, -16
 238              		.cfi_offset 6, -12
 239              		.cfi_offset 7, -8
 240              		.cfi_offset 14, -4
 241 0002 5F46     		mov	r7, fp
 242 0004 5646     		mov	r6, r10
 243 0006 4D46     		mov	r5, r9
 244 0008 E0B4     		push	{r5, r6, r7}
 245              		.cfi_def_cfa_offset 32
 246              		.cfi_offset 9, -32
 247              		.cfi_offset 10, -28
 248              		.cfi_offset 11, -24
 249 000a 82B0     		sub	sp, sp, #8
 250              		.cfi_def_cfa_offset 40
 251 000c 8246     		mov	r10, r0
 252              	.LVL28:
1041:Generated_Source\PSoC4/CapSense_1_Processing.c **** 
 253              		.loc 1 1041 0
 254 000e 837E     		ldrb	r3, [r0, #26]
 255 0010 062B     		cmp	r3, #6
 256 0012 02D1     		bne	.L18
 257 0014 0122     		movs	r2, #1
 258 0016 9346     		mov	fp, r2
 259 0018 01E0     		b	.L14
 260              	.L18:
 261 001a 0022     		movs	r2, #0
 262 001c 9346     		mov	fp, r2
 263              	.L14:
 264              	.LVL29:
1044:Generated_Source\PSoC4/CapSense_1_Processing.c ****     #endif /* #if (CapSense_1_ENABLE == CapSense_1_RC_FILTER_EN) */
 265              		.loc 1 1044 0 discriminator 4
 266 001e 5246     		mov	r2, r10
 267 0020 D268     		ldr	r2, [r2, #12]
 268              	.LVL30:
 269 0022 9146     		mov	r9, r2
1047:Generated_Source\PSoC4/CapSense_1_Processing.c ****     ptrRamWdgt = (CapSense_1_RAM_WD_BASE_STRUCT *)ptrFlashWdgt->ptr2WdgtRam;
 270              		.loc 1 1047 0 discriminator 4
 271 0024 5246     		mov	r2, r10
 272              	.LVL31:
 273 0026 9468     		ldr	r4, [r2, #8]
 274              	.LVL32:
1048:Generated_Source\PSoC4/CapSense_1_Processing.c ****     widgetType = ptrFlashWdgt->wdgtType;
 275              		.loc 1 1048 0 discriminator 4
 276 0028 5668     		ldr	r6, [r2, #4]
 277              	.LVL33:
1049:Generated_Source\PSoC4/CapSense_1_Processing.c **** 
 278              		.loc 1 1049 0 discriminator 4
ARM GAS  C:\Users\MICHAE~1.MAC\AppData\Local\Temp\ccOp1ZUS.s 			page 31


 279 002a 0093     		str	r3, [sp]
 280              	.LVL34:
1052:Generated_Source\PSoC4/CapSense_1_Processing.c ****     #endif /* #if (0u != (CapSense_1_CSD_AUTOTUNE & CapSense_1_CSD_SS_TH_EN)) */
 281              		.loc 1 1052 0 discriminator 4
 282 002c D769     		ldr	r7, [r2, #28]
 283              	.LVL35:
1056:Generated_Source\PSoC4/CapSense_1_Processing.c ****     {
 284              		.loc 1 1056 0 discriminator 4
 285 002e 0025     		movs	r5, #0
1018:Generated_Source\PSoC4/CapSense_1_Processing.c **** 
 286              		.loc 1 1018 0 discriminator 4
 287 0030 0023     		movs	r3, #0
 288 0032 0193     		str	r3, [sp, #4]
1056:Generated_Source\PSoC4/CapSense_1_Processing.c ****     {
 289              		.loc 1 1056 0 discriminator 4
 290 0034 21E0     		b	.L15
 291              	.LVL36:
 292              	.L17:
1060:Generated_Source\PSoC4/CapSense_1_Processing.c ****             #if (CapSense_1_ALP_FILTER_EN)
 293              		.loc 1 1060 0
 294 0036 009A     		ldr	r2, [sp]
 295 0038 2100     		movs	r1, r4
 296 003a 4846     		mov	r0, r9
 297 003c FFF7FEFF 		bl	CapSense_1_FtRunEnabledFiltersInternal
 298              	.LVL37:
1068:Generated_Source\PSoC4/CapSense_1_Processing.c ****             CapSense_1_DpUpdateThresholds(ptrRamWdgt, ptrNoiseEnvelope, snsId);
 299              		.loc 1 1068 0
 300 0040 318A     		ldrh	r1, [r6, #16]
 301 0042 2088     		ldrh	r0, [r4]
 302 0044 3A00     		movs	r2, r7
 303 0046 FFF7FEFF 		bl	SmartSense_RunNoiseEnvelope
 304              	.LVL38:
1069:Generated_Source\PSoC4/CapSense_1_Processing.c **** 
 305              		.loc 1 1069 0
 306 004a 2A00     		movs	r2, r5
 307 004c 3900     		movs	r1, r7
 308 004e 3000     		movs	r0, r6
 309 0050 FFF7FEFF 		bl	CapSense_1_DpUpdateThresholds
 310              	.LVL39:
1086:Generated_Source\PSoC4/CapSense_1_Processing.c ****         #endif /* (0u != (CapSense_1_CSD_AUTOTUNE & CapSense_1_CSD_SS_TH_EN)) */
 311              		.loc 1 1086 0
 312 0054 0C37     		adds	r7, r7, #12
 313              	.LVL40:
1096:Generated_Source\PSoC4/CapSense_1_Processing.c ****         #endif /* (CapSense_1_ENABLE == CapSense_1_TST_BSLN_DUPLICATION_EN) */
 314              		.loc 1 1096 0
 315 0056 009A     		ldr	r2, [sp]
 316 0058 2100     		movs	r1, r4
 317 005a 3000     		movs	r0, r6
 318 005c FFF7FEFF 		bl	CapSense_1_FtUpdateBaseline
 319              	.LVL41:
 320 0060 0190     		str	r0, [sp, #4]
 321              	.LVL42:
1099:Generated_Source\PSoC4/CapSense_1_Processing.c **** 
 322              		.loc 1 1099 0
 323 0062 2100     		movs	r1, r4
 324 0064 3000     		movs	r0, r6
 325              	.LVL43:
ARM GAS  C:\Users\MICHAE~1.MAC\AppData\Local\Temp\ccOp1ZUS.s 			page 32


 326 0066 FFF7FEFF 		bl	CapSense_1_DpUpdateDifferences
 327              	.LVL44:
1102:Generated_Source\PSoC4/CapSense_1_Processing.c **** 
 328              		.loc 1 1102 0
 329 006a 0A34     		adds	r4, r4, #10
 330              	.LVL45:
1106:Generated_Source\PSoC4/CapSense_1_Processing.c ****         #endif /* #if (CapSense_1_ENABLE == CapSense_1_RC_FILTER_EN) */
 331              		.loc 1 1106 0
 332 006c 5B46     		mov	r3, fp
 333 006e 002B     		cmp	r3, #0
 334 0070 02D1     		bne	.L16
 335              	.LVL46:
1106:Generated_Source\PSoC4/CapSense_1_Processing.c ****         #endif /* #if (CapSense_1_ENABLE == CapSense_1_RC_FILTER_EN) */
 336              		.loc 1 1106 0 is_stmt 0 discriminator 1
 337 0072 0C33     		adds	r3, r3, #12
 338              	.LVL47:
 339 0074 9C46     		mov	ip, r3
 340 0076 E144     		add	r9, r9, ip
 341              	.LVL48:
 342              	.L16:
1056:Generated_Source\PSoC4/CapSense_1_Processing.c ****     {
 343              		.loc 1 1056 0 is_stmt 1 discriminator 2
 344 0078 0135     		adds	r5, r5, #1
 345              	.LVL49:
 346              	.L15:
1056:Generated_Source\PSoC4/CapSense_1_Processing.c ****     {
 347              		.loc 1 1056 0 is_stmt 0 discriminator 1
 348 007a 5346     		mov	r3, r10
 349 007c 1B8B     		ldrh	r3, [r3, #24]
 350 007e 9D42     		cmp	r5, r3
 351 0080 D9D3     		bcc	.L17
1110:Generated_Source\PSoC4/CapSense_1_Processing.c **** 
 352              		.loc 1 1110 0 is_stmt 1
 353 0082 0198     		ldr	r0, [sp, #4]
 354 0084 02B0     		add	sp, sp, #8
 355              	.LVL50:
 356              		@ sp needed
 357              	.LVL51:
 358              	.LVL52:
 359              	.LVL53:
 360              	.LVL54:
 361              	.LVL55:
 362              	.LVL56:
 363              	.LVL57:
 364 0086 1CBC     		pop	{r2, r3, r4}
 365 0088 9146     		mov	r9, r2
 366 008a 9A46     		mov	r10, r3
 367 008c A346     		mov	fp, r4
 368 008e F0BD     		pop	{r4, r5, r6, r7, pc}
 369              		.cfi_endproc
 370              	.LFE2:
 371              		.size	CapSense_1_DpProcessCsdWidgetRawCounts, .-CapSense_1_DpProcessCsdWidgetRawCounts
 372              		.section	.text.CapSense_1_DpProcessCsdSensorRawCountsExt,"ax",%progbits
 373              		.align	2
 374              		.global	CapSense_1_DpProcessCsdSensorRawCountsExt
 375              		.code	16
 376              		.thumb_func
ARM GAS  C:\Users\MICHAE~1.MAC\AppData\Local\Temp\ccOp1ZUS.s 			page 33


 377              		.type	CapSense_1_DpProcessCsdSensorRawCountsExt, %function
 378              	CapSense_1_DpProcessCsdSensorRawCountsExt:
 379              	.LFB3:
1151:Generated_Source\PSoC4/CapSense_1_Processing.c ****     uint32 result = CYRET_SUCCESS;
 380              		.loc 1 1151 0
 381              		.cfi_startproc
 382              		@ args = 0, pretend = 0, frame = 8
 383              		@ frame_needed = 0, uses_anonymous_args = 0
 384              	.LVL58:
 385 0000 F0B5     		push	{r4, r5, r6, r7, lr}
 386              		.cfi_def_cfa_offset 20
 387              		.cfi_offset 4, -20
 388              		.cfi_offset 5, -16
 389              		.cfi_offset 6, -12
 390              		.cfi_offset 7, -8
 391              		.cfi_offset 14, -4
 392 0002 83B0     		sub	sp, sp, #12
 393              		.cfi_def_cfa_offset 32
 394 0004 0091     		str	r1, [sp]
 395 0006 0192     		str	r2, [sp, #4]
 396 0008 1C00     		movs	r4, r3
 397              	.LVL59:
1163:Generated_Source\PSoC4/CapSense_1_Processing.c ****     #endif /* (0u != (CapSense_1_CSD_AUTOTUNE & CapSense_1_CSD_SS_TH_EN)) */
 398              		.loc 1 1163 0
 399 000a C669     		ldr	r6, [r0, #28]
 400              	.LVL60:
1166:Generated_Source\PSoC4/CapSense_1_Processing.c ****     ptrRamWdgt = (CapSense_1_RAM_WD_BASE_STRUCT *)ptrFlashWdgt->ptr2WdgtRam;
 401              		.loc 1 1166 0
 402 000c 877E     		ldrb	r7, [r0, #26]
 403              	.LVL61:
1167:Generated_Source\PSoC4/CapSense_1_Processing.c **** 
 404              		.loc 1 1167 0
 405 000e 4568     		ldr	r5, [r0, #4]
 406              	.LVL62:
1170:Generated_Source\PSoC4/CapSense_1_Processing.c ****         {
 407              		.loc 1 1170 0
 408 0010 E307     		lsls	r3, r4, #31
 409 0012 03D5     		bpl	.L20
 410              	.LVL63:
1172:Generated_Source\PSoC4/CapSense_1_Processing.c ****             #if (CapSense_1_ALP_FILTER_EN)
 411              		.loc 1 1172 0
 412 0014 3A00     		movs	r2, r7
 413              	.LVL64:
 414 0016 0198     		ldr	r0, [sp, #4]
 415              	.LVL65:
 416 0018 FFF7FEFF 		bl	CapSense_1_FtRunEnabledFiltersInternal
 417              	.LVL66:
 418              	.L20:
1182:Generated_Source\PSoC4/CapSense_1_Processing.c ****         {
 419              		.loc 1 1182 0
 420 001c 2307     		lsls	r3, r4, #28
 421 001e 05D5     		bpl	.L21
1184:Generated_Source\PSoC4/CapSense_1_Processing.c ****         }
 422              		.loc 1 1184 0
 423 0020 298A     		ldrh	r1, [r5, #16]
 424 0022 009B     		ldr	r3, [sp]
 425 0024 1888     		ldrh	r0, [r3]
ARM GAS  C:\Users\MICHAE~1.MAC\AppData\Local\Temp\ccOp1ZUS.s 			page 34


 426 0026 3200     		movs	r2, r6
 427              	.LVL67:
 428 0028 FFF7FEFF 		bl	SmartSense_RunNoiseEnvelope
 429              	.LVL68:
 430              	.L21:
1187:Generated_Source\PSoC4/CapSense_1_Processing.c ****         {
 431              		.loc 1 1187 0
 432 002c E306     		lsls	r3, r4, #27
 433 002e 04D5     		bpl	.L22
1189:Generated_Source\PSoC4/CapSense_1_Processing.c **** 
 434              		.loc 1 1189 0
 435 0030 0022     		movs	r2, #0
 436              	.LVL69:
 437 0032 3100     		movs	r1, r6
 438 0034 2800     		movs	r0, r5
 439 0036 FFF7FEFF 		bl	CapSense_1_DpUpdateThresholds
 440              	.LVL70:
 441              	.L22:
1207:Generated_Source\PSoC4/CapSense_1_Processing.c ****     {
 442              		.loc 1 1207 0
 443 003a A307     		lsls	r3, r4, #30
 444 003c 06D5     		bpl	.L25
1209:Generated_Source\PSoC4/CapSense_1_Processing.c ****     }
 445              		.loc 1 1209 0
 446 003e 3A00     		movs	r2, r7
 447              	.LVL71:
 448 0040 0099     		ldr	r1, [sp]
 449 0042 2800     		movs	r0, r5
 450 0044 FFF7FEFF 		bl	CapSense_1_FtUpdateBaseline
 451              	.LVL72:
 452 0048 0700     		movs	r7, r0
 453              	.LVL73:
 454 004a 00E0     		b	.L23
 455              	.LVL74:
 456              	.L25:
1152:Generated_Source\PSoC4/CapSense_1_Processing.c ****     uint32  widgetType;
 457              		.loc 1 1152 0
 458 004c 0027     		movs	r7, #0
 459              	.LVL75:
 460              	.L23:
1212:Generated_Source\PSoC4/CapSense_1_Processing.c ****     {
 461              		.loc 1 1212 0
 462 004e 6307     		lsls	r3, r4, #29
 463 0050 03D5     		bpl	.L24
1214:Generated_Source\PSoC4/CapSense_1_Processing.c ****     }
 464              		.loc 1 1214 0
 465 0052 0099     		ldr	r1, [sp]
 466 0054 2800     		movs	r0, r5
 467 0056 FFF7FEFF 		bl	CapSense_1_DpUpdateDifferences
 468              	.LVL76:
 469              	.L24:
1217:Generated_Source\PSoC4/CapSense_1_Processing.c **** 
 470              		.loc 1 1217 0
 471 005a 3800     		movs	r0, r7
 472 005c 03B0     		add	sp, sp, #12
 473              	.LVL77:
 474              		@ sp needed
ARM GAS  C:\Users\MICHAE~1.MAC\AppData\Local\Temp\ccOp1ZUS.s 			page 35


 475              	.LVL78:
 476              	.LVL79:
 477              	.LVL80:
 478              	.LVL81:
 479 005e F0BD     		pop	{r4, r5, r6, r7, pc}
 480              		.cfi_endproc
 481              	.LFE3:
 482              		.size	CapSense_1_DpProcessCsdSensorRawCountsExt, .-CapSense_1_DpProcessCsdSensorRawCountsExt
 483              		.section	.text.CapSense_1_DpProcessButton,"ax",%progbits
 484              		.align	2
 485              		.global	CapSense_1_DpProcessButton
 486              		.code	16
 487              		.thumb_func
 488              		.type	CapSense_1_DpProcessButton, %function
 489              	CapSense_1_DpProcessButton:
 490              	.LFB7:
1422:Generated_Source\PSoC4/CapSense_1_Processing.c **** 
1423:Generated_Source\PSoC4/CapSense_1_Processing.c **** 
1424:Generated_Source\PSoC4/CapSense_1_Processing.c **** #if ((0u != CapSense_1_BUTTON_WIDGET_EN) || (0u != CapSense_1_CSX_MATRIX_WIDGET_EN))
1425:Generated_Source\PSoC4/CapSense_1_Processing.c **** /*******************************************************************************
1426:Generated_Source\PSoC4/CapSense_1_Processing.c **** * Function Name: CapSense_1_DpProcessButton
1427:Generated_Source\PSoC4/CapSense_1_Processing.c **** ****************************************************************************//**
1428:Generated_Source\PSoC4/CapSense_1_Processing.c **** *
1429:Generated_Source\PSoC4/CapSense_1_Processing.c **** * \brief
1430:Generated_Source\PSoC4/CapSense_1_Processing.c **** *   Processes the status of the Button widget.
1431:Generated_Source\PSoC4/CapSense_1_Processing.c **** *
1432:Generated_Source\PSoC4/CapSense_1_Processing.c **** * \details
1433:Generated_Source\PSoC4/CapSense_1_Processing.c **** *   This API processes the status of the CSD/CSX Button widget and
1434:Generated_Source\PSoC4/CapSense_1_Processing.c **** *   CSX Matrix Button widget. It applies the hysteresis and de-bounce algorithm
1435:Generated_Source\PSoC4/CapSense_1_Processing.c **** *   to each sensor difference value. This API is expected to be called
1436:Generated_Source\PSoC4/CapSense_1_Processing.c **** *   after each new widget scan. If it is called multiple times for the same
1437:Generated_Source\PSoC4/CapSense_1_Processing.c **** *   scan data, the de-bounce algorithm will not work properly.
1438:Generated_Source\PSoC4/CapSense_1_Processing.c **** *
1439:Generated_Source\PSoC4/CapSense_1_Processing.c **** *   This API does not update any Data Structure registers
1440:Generated_Source\PSoC4/CapSense_1_Processing.c **** *   except the de-bounce counters.
1441:Generated_Source\PSoC4/CapSense_1_Processing.c **** *
1442:Generated_Source\PSoC4/CapSense_1_Processing.c **** * \param currStatus   The current status of the widget sensors.
1443:Generated_Source\PSoC4/CapSense_1_Processing.c **** * \param ptrFlashWdgt The pointer to the Flash Widget Object.
1444:Generated_Source\PSoC4/CapSense_1_Processing.c **** *
1445:Generated_Source\PSoC4/CapSense_1_Processing.c **** * \return Returns the status of the widget's sensors. Bit #0 - corresponds to Sensor #0.
1446:Generated_Source\PSoC4/CapSense_1_Processing.c **** *
1447:Generated_Source\PSoC4/CapSense_1_Processing.c **** *******************************************************************************/
1448:Generated_Source\PSoC4/CapSense_1_Processing.c **** uint32 CapSense_1_DpProcessButton(uint32 currStatus, CapSense_1_FLASH_WD_STRUCT const *ptrFlashWdgt
1449:Generated_Source\PSoC4/CapSense_1_Processing.c **** {
 491              		.loc 1 1449 0
 492              		.cfi_startproc
 493              		@ args = 0, pretend = 0, frame = 0
 494              		@ frame_needed = 0, uses_anonymous_args = 0
 495              	.LVL82:
 496 0000 F0B5     		push	{r4, r5, r6, r7, lr}
 497              		.cfi_def_cfa_offset 20
 498              		.cfi_offset 4, -20
 499              		.cfi_offset 5, -16
 500              		.cfi_offset 6, -12
 501              		.cfi_offset 7, -8
 502              		.cfi_offset 14, -4
1450:Generated_Source\PSoC4/CapSense_1_Processing.c ****     uint32 snsCnt;
ARM GAS  C:\Users\MICHAE~1.MAC\AppData\Local\Temp\ccOp1ZUS.s 			page 36


1451:Generated_Source\PSoC4/CapSense_1_Processing.c ****     uint32 snsMask;
1452:Generated_Source\PSoC4/CapSense_1_Processing.c ****     uint32 newStatus;
1453:Generated_Source\PSoC4/CapSense_1_Processing.c ****     uint32 touchTh;
1454:Generated_Source\PSoC4/CapSense_1_Processing.c ****     CapSense_1_RAM_SNS_STRUCT *ptrSnsTmp;
1455:Generated_Source\PSoC4/CapSense_1_Processing.c ****     CapSense_1_RAM_WD_BASE_STRUCT *ptrRamWdgt;
1456:Generated_Source\PSoC4/CapSense_1_Processing.c ****     uint8 * ptrDebounceCnt;
1457:Generated_Source\PSoC4/CapSense_1_Processing.c **** 
1458:Generated_Source\PSoC4/CapSense_1_Processing.c ****     snsCnt = ptrFlashWdgt->totalNumSns;
 503              		.loc 1 1458 0
 504 0002 0A8B     		ldrh	r2, [r1, #24]
 505              	.LVL83:
1459:Generated_Source\PSoC4/CapSense_1_Processing.c ****     ptrSnsTmp = ptrFlashWdgt->ptr2SnsRam;
 506              		.loc 1 1459 0
 507 0004 8D68     		ldr	r5, [r1, #8]
 508              	.LVL84:
1460:Generated_Source\PSoC4/CapSense_1_Processing.c ****     ptrRamWdgt = (CapSense_1_RAM_WD_BASE_STRUCT *)ptrFlashWdgt->ptr2WdgtRam;
 509              		.loc 1 1460 0
 510 0006 4F68     		ldr	r7, [r1, #4]
 511              	.LVL85:
1461:Generated_Source\PSoC4/CapSense_1_Processing.c ****     ptrDebounceCnt = ptrFlashWdgt->ptr2DebounceArr;
 512              		.loc 1 1461 0
 513 0008 0B69     		ldr	r3, [r1, #16]
 514              	.LVL86:
1462:Generated_Source\PSoC4/CapSense_1_Processing.c **** 
1463:Generated_Source\PSoC4/CapSense_1_Processing.c ****     /* Go through all widget's sensors */
1464:Generated_Source\PSoC4/CapSense_1_Processing.c ****     snsMask = 1Lu;
 515              		.loc 1 1464 0
 516 000a 0121     		movs	r1, #1
 517              	.LVL87:
1465:Generated_Source\PSoC4/CapSense_1_Processing.c ****     for (; snsCnt-- > 0u; )
 518              		.loc 1 1465 0
 519 000c 25E0     		b	.L27
 520              	.LVL88:
 521              	.L35:
1466:Generated_Source\PSoC4/CapSense_1_Processing.c ****     {
1467:Generated_Source\PSoC4/CapSense_1_Processing.c ****         /* Calculate touch threshold taking into account hysteresis
1468:Generated_Source\PSoC4/CapSense_1_Processing.c ****            and current sensor state. */
1469:Generated_Source\PSoC4/CapSense_1_Processing.c ****         touchTh = (0u == (currStatus & snsMask)) ?
 522              		.loc 1 1469 0
 523 000e 0C00     		movs	r4, r1
 524              	.LVL89:
 525 0010 0440     		ands	r4, r0
1470:Generated_Source\PSoC4/CapSense_1_Processing.c ****                   ((uint32)ptrRamWdgt->fingerTh + ptrRamWdgt->hysteresis) :
 526              		.loc 1 1470 0
 527 0012 03D1     		bne	.L28
 528              		.loc 1 1470 0 is_stmt 0 discriminator 1
 529 0014 7E88     		ldrh	r6, [r7, #2]
 530 0016 BA79     		ldrb	r2, [r7, #6]
 531 0018 B218     		adds	r2, r6, r2
 532 001a 02E0     		b	.L29
 533              	.L28:
1471:Generated_Source\PSoC4/CapSense_1_Processing.c ****                   ((uint32)ptrRamWdgt->fingerTh - ptrRamWdgt->hysteresis);
 534              		.loc 1 1471 0 is_stmt 1 discriminator 2
 535 001c 7A88     		ldrh	r2, [r7, #2]
 536 001e BE79     		ldrb	r6, [r7, #6]
1470:Generated_Source\PSoC4/CapSense_1_Processing.c ****                   ((uint32)ptrRamWdgt->fingerTh + ptrRamWdgt->hysteresis) :
 537              		.loc 1 1470 0 discriminator 2
ARM GAS  C:\Users\MICHAE~1.MAC\AppData\Local\Temp\ccOp1ZUS.s 			page 37


 538 0020 921B     		subs	r2, r2, r6
 539              	.L29:
 540              	.LVL90:
1472:Generated_Source\PSoC4/CapSense_1_Processing.c **** 
1473:Generated_Source\PSoC4/CapSense_1_Processing.c ****         /* Determine new potential sensor state */
1474:Generated_Source\PSoC4/CapSense_1_Processing.c ****         newStatus = (ptrSnsTmp->diff > touchTh) ? snsMask : 0u;
 541              		.loc 1 1474 0
 542 0022 EE88     		ldrh	r6, [r5, #6]
 543 0024 B242     		cmp	r2, r6
 544 0026 01D3     		bcc	.L36
 545 0028 0022     		movs	r2, #0
 546              	.LVL91:
 547 002a 00E0     		b	.L30
 548              	.LVL92:
 549              	.L36:
 550 002c 0A00     		movs	r2, r1
 551              	.LVL93:
 552              	.L30:
1475:Generated_Source\PSoC4/CapSense_1_Processing.c **** 
1476:Generated_Source\PSoC4/CapSense_1_Processing.c ****         /* Sensor state changed ? */
1477:Generated_Source\PSoC4/CapSense_1_Processing.c ****         if (newStatus != (currStatus & snsMask))
 553              		.loc 1 1477 0 discriminator 4
 554 002e A242     		cmp	r2, r4
 555 0030 02D0     		beq	.L31
1478:Generated_Source\PSoC4/CapSense_1_Processing.c ****         {
1479:Generated_Source\PSoC4/CapSense_1_Processing.c ****             /* Decrement de-bounce counter */
1480:Generated_Source\PSoC4/CapSense_1_Processing.c ****             (*ptrDebounceCnt)--;
 556              		.loc 1 1480 0
 557 0032 1E78     		ldrb	r6, [r3]
 558 0034 013E     		subs	r6, r6, #1
 559 0036 1E70     		strb	r6, [r3]
 560              	.L31:
1481:Generated_Source\PSoC4/CapSense_1_Processing.c ****         }
1482:Generated_Source\PSoC4/CapSense_1_Processing.c **** 
1483:Generated_Source\PSoC4/CapSense_1_Processing.c ****         /*
1484:Generated_Source\PSoC4/CapSense_1_Processing.c ****         *  This piece of code has two objectives:
1485:Generated_Source\PSoC4/CapSense_1_Processing.c ****         *  1. Reset de-bounce counter if the sensor state did not change.
1486:Generated_Source\PSoC4/CapSense_1_Processing.c ****         *     (It is possible that during previous processing cycles sensor
1487:Generated_Source\PSoC4/CapSense_1_Processing.c ****         *     was active and de-bounce counter was decremented.)
1488:Generated_Source\PSoC4/CapSense_1_Processing.c ****         *  2. Set new sensor state after successful de-bounce.
1489:Generated_Source\PSoC4/CapSense_1_Processing.c ****         */
1490:Generated_Source\PSoC4/CapSense_1_Processing.c ****         if ((newStatus == (currStatus & snsMask)) || (0u == (*ptrDebounceCnt)))
 561              		.loc 1 1490 0
 562 0038 A242     		cmp	r2, r4
 563 003a 02D0     		beq	.L32
 564              		.loc 1 1490 0 is_stmt 0 discriminator 1
 565 003c 1C78     		ldrb	r4, [r3]
 566 003e 002C     		cmp	r4, #0
 567 0040 07D1     		bne	.L33
 568              	.L32:
1491:Generated_Source\PSoC4/CapSense_1_Processing.c ****         {
1492:Generated_Source\PSoC4/CapSense_1_Processing.c ****             /* Set new sensor status */
1493:Generated_Source\PSoC4/CapSense_1_Processing.c ****             currStatus &= ~snsMask;
 569              		.loc 1 1493 0 is_stmt 1
 570 0042 8843     		bics	r0, r1
 571              	.LVL94:
1494:Generated_Source\PSoC4/CapSense_1_Processing.c ****             currStatus |= newStatus;
ARM GAS  C:\Users\MICHAE~1.MAC\AppData\Local\Temp\ccOp1ZUS.s 			page 38


 572              		.loc 1 1494 0
 573 0044 1043     		orrs	r0, r2
 574              	.LVL95:
1495:Generated_Source\PSoC4/CapSense_1_Processing.c **** 
1496:Generated_Source\PSoC4/CapSense_1_Processing.c ****             /* Reset de-bounce counter */
1497:Generated_Source\PSoC4/CapSense_1_Processing.c ****             #if (0u != CapSense_1_OFF_DEBOUNCE_EN)
1498:Generated_Source\PSoC4/CapSense_1_Processing.c ****                 *ptrDebounceCnt = (0Lu == newStatus) ? ptrRamWdgt->onDebounce : ptrRamWdgt->offDebo
1499:Generated_Source\PSoC4/CapSense_1_Processing.c ****             #else
1500:Generated_Source\PSoC4/CapSense_1_Processing.c ****                 *ptrDebounceCnt = (0Lu == newStatus) ? ptrRamWdgt->onDebounce : DEFAULT_OFF_DEBOUNC
 575              		.loc 1 1500 0
 576 0046 002A     		cmp	r2, #0
 577 0048 01D1     		bne	.L37
 578              		.loc 1 1500 0 is_stmt 0 discriminator 1
 579 004a FA79     		ldrb	r2, [r7, #7]
 580              	.LVL96:
 581 004c 00E0     		b	.L34
 582              	.LVL97:
 583              	.L37:
 584              		.loc 1 1500 0
 585 004e 0122     		movs	r2, #1
 586              	.LVL98:
 587              	.L34:
 588              		.loc 1 1500 0 discriminator 4
 589 0050 1A70     		strb	r2, [r3]
 590              	.L33:
1501:Generated_Source\PSoC4/CapSense_1_Processing.c ****             #endif /* #if (0u != CapSense_1_OFF_DEBOUNCE_EN) */
1502:Generated_Source\PSoC4/CapSense_1_Processing.c ****         }
1503:Generated_Source\PSoC4/CapSense_1_Processing.c **** 
1504:Generated_Source\PSoC4/CapSense_1_Processing.c ****         /* Move mask to the next sensor */
1505:Generated_Source\PSoC4/CapSense_1_Processing.c ****         snsMask <<= 1u;
 591              		.loc 1 1505 0 is_stmt 1
 592 0052 4900     		lsls	r1, r1, #1
 593              	.LVL99:
1506:Generated_Source\PSoC4/CapSense_1_Processing.c **** 
1507:Generated_Source\PSoC4/CapSense_1_Processing.c ****         ptrSnsTmp++;
 594              		.loc 1 1507 0
 595 0054 0A35     		adds	r5, r5, #10
 596              	.LVL100:
1508:Generated_Source\PSoC4/CapSense_1_Processing.c ****         ptrDebounceCnt++;
 597              		.loc 1 1508 0
 598 0056 0133     		adds	r3, r3, #1
 599              	.LVL101:
1465:Generated_Source\PSoC4/CapSense_1_Processing.c ****     {
 600              		.loc 1 1465 0
 601 0058 6246     		mov	r2, ip
 602              	.LVL102:
 603              	.L27:
 604 005a 541E     		subs	r4, r2, #1
 605 005c A446     		mov	ip, r4
 606              	.LVL103:
 607 005e 002A     		cmp	r2, #0
 608 0060 D5D1     		bne	.L35
1509:Generated_Source\PSoC4/CapSense_1_Processing.c ****     }
1510:Generated_Source\PSoC4/CapSense_1_Processing.c **** 
1511:Generated_Source\PSoC4/CapSense_1_Processing.c ****     return currStatus;
1512:Generated_Source\PSoC4/CapSense_1_Processing.c **** }
 609              		.loc 1 1512 0
ARM GAS  C:\Users\MICHAE~1.MAC\AppData\Local\Temp\ccOp1ZUS.s 			page 39


 610              		@ sp needed
 611              	.LVL104:
 612              	.LVL105:
 613              	.LVL106:
 614 0062 F0BD     		pop	{r4, r5, r6, r7, pc}
 615              		.cfi_endproc
 616              	.LFE7:
 617              		.size	CapSense_1_DpProcessButton, .-CapSense_1_DpProcessButton
 618              		.section	.text.CapSense_1_DpProcessCsdWidgetStatus,"ax",%progbits
 619              		.align	2
 620              		.global	CapSense_1_DpProcessCsdWidgetStatus
 621              		.code	16
 622              		.thumb_func
 623              		.type	CapSense_1_DpProcessCsdWidgetStatus, %function
 624              	CapSense_1_DpProcessCsdWidgetStatus:
 625              	.LFB4:
1247:Generated_Source\PSoC4/CapSense_1_Processing.c ****     uint32 sensorStatus;
 626              		.loc 1 1247 0
 627              		.cfi_startproc
 628              		@ args = 0, pretend = 0, frame = 0
 629              		@ frame_needed = 0, uses_anonymous_args = 0
 630              	.LVL107:
 631 0000 70B5     		push	{r4, r5, r6, lr}
 632              		.cfi_def_cfa_offset 16
 633              		.cfi_offset 4, -16
 634              		.cfi_offset 5, -12
 635              		.cfi_offset 6, -8
 636              		.cfi_offset 14, -4
 637 0002 0400     		movs	r4, r0
1253:Generated_Source\PSoC4/CapSense_1_Processing.c ****     sensorStatus = CapSense_1_dsRam.snsStatus[widgetId];
 638              		.loc 1 1253 0
 639 0004 8A7E     		ldrb	r2, [r1, #26]
 640              	.LVL108:
1254:Generated_Source\PSoC4/CapSense_1_Processing.c **** 
 641              		.loc 1 1254 0
 642 0006 134B     		ldr	r3, .L45
 643 0008 1B18     		adds	r3, r3, r0
 644 000a 1D7E     		ldrb	r5, [r3, #24]
 645              	.LVL109:
1256:Generated_Source\PSoC4/CapSense_1_Processing.c ****     {
 646              		.loc 1 1256 0
 647 000c 012A     		cmp	r2, #1
 648 000e 04D1     		bne	.L44
1260:Generated_Source\PSoC4/CapSense_1_Processing.c ****             break;
 649              		.loc 1 1260 0
 650 0010 2800     		movs	r0, r5
 651              	.LVL110:
 652 0012 FFF7FEFF 		bl	CapSense_1_DpProcessButton
 653              	.LVL111:
 654 0016 0500     		movs	r5, r0
 655              	.LVL112:
1261:Generated_Source\PSoC4/CapSense_1_Processing.c ****     #endif /* #if (0u != CapSense_1_BUTTON_WIDGET_EN) */
 656              		.loc 1 1261 0
 657 0018 02E0     		b	.L41
 658              	.LVL113:
 659              	.L44:
1293:Generated_Source\PSoC4/CapSense_1_Processing.c ****         break;
ARM GAS  C:\Users\MICHAE~1.MAC\AppData\Local\Temp\ccOp1ZUS.s 			page 40


 660              		.loc 1 1293 0 discriminator 1
 661 001a 0020     		movs	r0, #0
 662              	.LVL114:
 663 001c FFF7FEFF 		bl	CyHalt
 664              	.LVL115:
 665              	.L41:
1297:Generated_Source\PSoC4/CapSense_1_Processing.c **** 
 666              		.loc 1 1297 0
 667 0020 0C4B     		ldr	r3, .L45
 668 0022 1B19     		adds	r3, r3, r4
 669 0024 1D76     		strb	r5, [r3, #24]
1300:Generated_Source\PSoC4/CapSense_1_Processing.c ****     wdStatusMask = CapSense_1_GET_WDGT_STATUS_MASK(widgetId);
 670              		.loc 1 1300 0
 671 0026 6309     		lsrs	r3, r4, #5
 672              	.LVL116:
1301:Generated_Source\PSoC4/CapSense_1_Processing.c **** 
 673              		.loc 1 1301 0
 674 0028 1F22     		movs	r2, #31
 675 002a 1440     		ands	r4, r2
 676              	.LVL117:
 677 002c 1E3A     		subs	r2, r2, #30
 678 002e A240     		lsls	r2, r2, r4
 679              	.LVL118:
1304:Generated_Source\PSoC4/CapSense_1_Processing.c ****     {
 680              		.loc 1 1304 0
 681 0030 002D     		cmp	r5, #0
 682 0032 07D1     		bne	.L42
1306:Generated_Source\PSoC4/CapSense_1_Processing.c ****     }
 683              		.loc 1 1306 0
 684 0034 0433     		adds	r3, r3, #4
 685              	.LVL119:
 686 0036 9B00     		lsls	r3, r3, #2
 687              	.LVL120:
 688 0038 0649     		ldr	r1, .L45
 689 003a CB18     		adds	r3, r1, r3
 690 003c 5968     		ldr	r1, [r3, #4]
 691 003e 9143     		bics	r1, r2
 692 0040 5960     		str	r1, [r3, #4]
 693 0042 06E0     		b	.L38
 694              	.LVL121:
 695              	.L42:
1310:Generated_Source\PSoC4/CapSense_1_Processing.c ****     }
 696              		.loc 1 1310 0
 697 0044 0433     		adds	r3, r3, #4
 698              	.LVL122:
 699 0046 9B00     		lsls	r3, r3, #2
 700              	.LVL123:
 701 0048 0249     		ldr	r1, .L45
 702 004a CB18     		adds	r3, r1, r3
 703 004c 5968     		ldr	r1, [r3, #4]
 704 004e 0A43     		orrs	r2, r1
 705              	.LVL124:
 706 0050 5A60     		str	r2, [r3, #4]
 707              	.L38:
1312:Generated_Source\PSoC4/CapSense_1_Processing.c **** #endif /* #if (0u != CapSense_1_TOTAL_CSD_WIDGETS) */
 708              		.loc 1 1312 0
 709              		@ sp needed
ARM GAS  C:\Users\MICHAE~1.MAC\AppData\Local\Temp\ccOp1ZUS.s 			page 41


 710              	.LVL125:
 711              	.LVL126:
 712 0052 70BD     		pop	{r4, r5, r6, pc}
 713              	.L46:
 714              		.align	2
 715              	.L45:
 716 0054 00000000 		.word	CapSense_1_dsRam
 717              		.cfi_endproc
 718              	.LFE4:
 719              		.size	CapSense_1_DpProcessCsdWidgetStatus, .-CapSense_1_DpProcessCsdWidgetStatus
 720              		.text
 721              	.Letext0:
 722              		.file 2 "Generated_Source\\PSoC4\\cytypes.h"
 723              		.file 3 "c:\\program files (x86)\\cypress\\psoc creator\\4.2\\psoc creator\\import\\gnu\\arm\\5.4.
 724              		.file 4 "Generated_Source\\PSoC4\\CapSense_1_Configuration.h"
 725              		.file 5 "Generated_Source\\PSoC4\\CapSense_1_SmartSense_LL.h"
 726              		.file 6 "Generated_Source\\PSoC4\\CapSense_1_Structure.h"
 727              		.file 7 "c:\\program files (x86)\\cypress\\psoc creator\\4.2\\psoc creator\\import\\gnu\\arm\\5.4.
 728              		.file 8 "Generated_Source\\PSoC4\\CapSense_1_Filter.h"
 729              		.file 9 "Generated_Source\\PSoC4\\CyLib.h"
 730              		.section	.debug_info,"",%progbits
 731              	.Ldebug_info0:
 732 0000 770C0000 		.4byte	0xc77
 733 0004 0400     		.2byte	0x4
 734 0006 00000000 		.4byte	.Ldebug_abbrev0
 735 000a 04       		.byte	0x4
 736 000b 01       		.uleb128 0x1
 737 000c A3010000 		.4byte	.LASF145
 738 0010 0C       		.byte	0xc
 739 0011 12030000 		.4byte	.LASF146
 740 0015 53030000 		.4byte	.LASF147
 741 0019 00000000 		.4byte	.Ldebug_ranges0+0
 742 001d 00000000 		.4byte	0
 743 0021 00000000 		.4byte	.Ldebug_line0
 744 0025 02       		.uleb128 0x2
 745 0026 01       		.byte	0x1
 746 0027 06       		.byte	0x6
 747 0028 7A080000 		.4byte	.LASF0
 748 002c 02       		.uleb128 0x2
 749 002d 01       		.byte	0x1
 750 002e 08       		.byte	0x8
 751 002f 11080000 		.4byte	.LASF1
 752 0033 02       		.uleb128 0x2
 753 0034 02       		.byte	0x2
 754 0035 05       		.byte	0x5
 755 0036 B7060000 		.4byte	.LASF2
 756 003a 02       		.uleb128 0x2
 757 003b 02       		.byte	0x2
 758 003c 07       		.byte	0x7
 759 003d 8B080000 		.4byte	.LASF3
 760 0041 02       		.uleb128 0x2
 761 0042 04       		.byte	0x4
 762 0043 05       		.byte	0x5
 763 0044 C1060000 		.4byte	.LASF4
 764 0048 02       		.uleb128 0x2
 765 0049 04       		.byte	0x4
 766 004a 07       		.byte	0x7
ARM GAS  C:\Users\MICHAE~1.MAC\AppData\Local\Temp\ccOp1ZUS.s 			page 42


 767 004b AF070000 		.4byte	.LASF5
 768 004f 02       		.uleb128 0x2
 769 0050 08       		.byte	0x8
 770 0051 05       		.byte	0x5
 771 0052 A7040000 		.4byte	.LASF6
 772 0056 02       		.uleb128 0x2
 773 0057 08       		.byte	0x8
 774 0058 07       		.byte	0x7
 775 0059 61020000 		.4byte	.LASF7
 776 005d 03       		.uleb128 0x3
 777 005e 04       		.byte	0x4
 778 005f 05       		.byte	0x5
 779 0060 696E7400 		.ascii	"int\000"
 780 0064 02       		.uleb128 0x2
 781 0065 04       		.byte	0x4
 782 0066 07       		.byte	0x7
 783 0067 A7000000 		.4byte	.LASF8
 784 006b 04       		.uleb128 0x4
 785 006c AB080000 		.4byte	.LASF9
 786 0070 02       		.byte	0x2
 787 0071 E401     		.2byte	0x1e4
 788 0073 2C000000 		.4byte	0x2c
 789 0077 04       		.uleb128 0x4
 790 0078 51040000 		.4byte	.LASF10
 791 007c 02       		.byte	0x2
 792 007d E501     		.2byte	0x1e5
 793 007f 3A000000 		.4byte	0x3a
 794 0083 04       		.uleb128 0x4
 795 0084 67050000 		.4byte	.LASF11
 796 0088 02       		.byte	0x2
 797 0089 E601     		.2byte	0x1e6
 798 008b 48000000 		.4byte	0x48
 799 008f 04       		.uleb128 0x4
 800 0090 35020000 		.4byte	.LASF12
 801 0094 02       		.byte	0x2
 802 0095 E901     		.2byte	0x1e9
 803 0097 41000000 		.4byte	0x41
 804 009b 02       		.uleb128 0x2
 805 009c 04       		.byte	0x4
 806 009d 04       		.byte	0x4
 807 009e 9D010000 		.4byte	.LASF13
 808 00a2 02       		.uleb128 0x2
 809 00a3 08       		.byte	0x8
 810 00a4 04       		.byte	0x4
 811 00a5 B1080000 		.4byte	.LASF14
 812 00a9 02       		.uleb128 0x2
 813 00aa 01       		.byte	0x1
 814 00ab 08       		.byte	0x8
 815 00ac 30040000 		.4byte	.LASF15
 816 00b0 05       		.uleb128 0x5
 817 00b1 83000000 		.4byte	0x83
 818 00b5 06       		.uleb128 0x6
 819 00b6 0B030000 		.4byte	.LASF16
 820 00ba 03       		.byte	0x3
 821 00bb D8       		.byte	0xd8
 822 00bc 64000000 		.4byte	0x64
 823 00c0 02       		.uleb128 0x2
ARM GAS  C:\Users\MICHAE~1.MAC\AppData\Local\Temp\ccOp1ZUS.s 			page 43


 824 00c1 08       		.byte	0x8
 825 00c2 04       		.byte	0x4
 826 00c3 E2050000 		.4byte	.LASF17
 827 00c7 02       		.uleb128 0x2
 828 00c8 04       		.byte	0x4
 829 00c9 07       		.byte	0x7
 830 00ca A6070000 		.4byte	.LASF18
 831 00ce 07       		.uleb128 0x7
 832 00cf 04       		.byte	0x4
 833 00d0 04       		.uleb128 0x4
 834 00d1 B5040000 		.4byte	.LASF19
 835 00d5 04       		.byte	0x4
 836 00d6 2D01     		.2byte	0x12d
 837 00d8 77000000 		.4byte	0x77
 838 00dc 04       		.uleb128 0x4
 839 00dd D5020000 		.4byte	.LASF20
 840 00e1 04       		.byte	0x4
 841 00e2 3101     		.2byte	0x131
 842 00e4 6B000000 		.4byte	0x6b
 843 00e8 08       		.uleb128 0x8
 844 00e9 0C       		.byte	0xc
 845 00ea 05       		.byte	0x5
 846 00eb 6E       		.byte	0x6e
 847 00ec 45010000 		.4byte	0x145
 848 00f0 09       		.uleb128 0x9
 849 00f1 15090000 		.4byte	.LASF21
 850 00f5 05       		.byte	0x5
 851 00f6 73       		.byte	0x73
 852 00f7 77000000 		.4byte	0x77
 853 00fb 00       		.byte	0
 854 00fc 09       		.uleb128 0x9
 855 00fd 1C090000 		.4byte	.LASF22
 856 0101 05       		.byte	0x5
 857 0102 77       		.byte	0x77
 858 0103 77000000 		.4byte	0x77
 859 0107 02       		.byte	0x2
 860 0108 09       		.uleb128 0x9
 861 0109 23090000 		.4byte	.LASF23
 862 010d 05       		.byte	0x5
 863 010e 7B       		.byte	0x7b
 864 010f 77000000 		.4byte	0x77
 865 0113 04       		.byte	0x4
 866 0114 09       		.uleb128 0x9
 867 0115 2A090000 		.4byte	.LASF24
 868 0119 05       		.byte	0x5
 869 011a 7F       		.byte	0x7f
 870 011b 77000000 		.4byte	0x77
 871 011f 06       		.byte	0x6
 872 0120 09       		.uleb128 0x9
 873 0121 31090000 		.4byte	.LASF25
 874 0125 05       		.byte	0x5
 875 0126 83       		.byte	0x83
 876 0127 77000000 		.4byte	0x77
 877 012b 08       		.byte	0x8
 878 012c 09       		.uleb128 0x9
 879 012d 38090000 		.4byte	.LASF26
 880 0131 05       		.byte	0x5
ARM GAS  C:\Users\MICHAE~1.MAC\AppData\Local\Temp\ccOp1ZUS.s 			page 44


 881 0132 87       		.byte	0x87
 882 0133 6B000000 		.4byte	0x6b
 883 0137 0A       		.byte	0xa
 884 0138 09       		.uleb128 0x9
 885 0139 3F090000 		.4byte	.LASF27
 886 013d 05       		.byte	0x5
 887 013e 8B       		.byte	0x8b
 888 013f 6B000000 		.4byte	0x6b
 889 0143 0B       		.byte	0xb
 890 0144 00       		.byte	0
 891 0145 06       		.uleb128 0x6
 892 0146 EA030000 		.4byte	.LASF28
 893 014a 05       		.byte	0x5
 894 014b 8C       		.byte	0x8c
 895 014c E8000000 		.4byte	0xe8
 896 0150 08       		.uleb128 0x8
 897 0151 06       		.byte	0x6
 898 0152 05       		.byte	0x5
 899 0153 94       		.byte	0x94
 900 0154 89010000 		.4byte	0x189
 901 0158 09       		.uleb128 0x9
 902 0159 D9070000 		.4byte	.LASF29
 903 015d 05       		.byte	0x5
 904 015e 99       		.byte	0x99
 905 015f 77000000 		.4byte	0x77
 906 0163 00       		.byte	0
 907 0164 09       		.uleb128 0x9
 908 0165 28040000 		.4byte	.LASF30
 909 0169 05       		.byte	0x5
 910 016a 9E       		.byte	0x9e
 911 016b 6B000000 		.4byte	0x6b
 912 016f 02       		.byte	0x2
 913 0170 09       		.uleb128 0x9
 914 0171 04050000 		.4byte	.LASF31
 915 0175 05       		.byte	0x5
 916 0176 A3       		.byte	0xa3
 917 0177 6B000000 		.4byte	0x6b
 918 017b 03       		.byte	0x3
 919 017c 09       		.uleb128 0x9
 920 017d 48030000 		.4byte	.LASF32
 921 0181 05       		.byte	0x5
 922 0182 A8       		.byte	0xa8
 923 0183 6B000000 		.4byte	0x6b
 924 0187 04       		.byte	0x4
 925 0188 00       		.byte	0
 926 0189 06       		.uleb128 0x6
 927 018a F1060000 		.4byte	.LASF33
 928 018e 05       		.byte	0x5
 929 018f A9       		.byte	0xa9
 930 0190 50010000 		.4byte	0x150
 931 0194 0A       		.uleb128 0xa
 932 0195 01       		.byte	0x1
 933 0196 2C000000 		.4byte	0x2c
 934 019a 06       		.byte	0x6
 935 019b 61       		.byte	0x61
 936 019c CB010000 		.4byte	0x1cb
 937 01a0 0B       		.uleb128 0xb
ARM GAS  C:\Users\MICHAE~1.MAC\AppData\Local\Temp\ccOp1ZUS.s 			page 45


 938 01a1 4A020000 		.4byte	.LASF34
 939 01a5 01       		.byte	0x1
 940 01a6 0B       		.uleb128 0xb
 941 01a7 B3050000 		.4byte	.LASF35
 942 01ab 02       		.byte	0x2
 943 01ac 0B       		.uleb128 0xb
 944 01ad 80040000 		.4byte	.LASF36
 945 01b1 03       		.byte	0x3
 946 01b2 0B       		.uleb128 0xb
 947 01b3 B5030000 		.4byte	.LASF37
 948 01b7 04       		.byte	0x4
 949 01b8 0B       		.uleb128 0xb
 950 01b9 0F040000 		.4byte	.LASF38
 951 01bd 05       		.byte	0x5
 952 01be 0B       		.uleb128 0xb
 953 01bf 28060000 		.4byte	.LASF39
 954 01c3 06       		.byte	0x6
 955 01c4 0B       		.uleb128 0xb
 956 01c5 42060000 		.4byte	.LASF40
 957 01c9 07       		.byte	0x7
 958 01ca 00       		.byte	0
 959 01cb 06       		.uleb128 0x6
 960 01cc 03010000 		.4byte	.LASF41
 961 01d0 06       		.byte	0x6
 962 01d1 69       		.byte	0x69
 963 01d2 94010000 		.4byte	0x194
 964 01d6 08       		.uleb128 0x8
 965 01d7 12       		.byte	0x12
 966 01d8 06       		.byte	0x6
 967 01d9 8E       		.byte	0x8e
 968 01da 6F020000 		.4byte	0x26f
 969 01de 09       		.uleb128 0x9
 970 01df 58040000 		.4byte	.LASF42
 971 01e3 06       		.byte	0x6
 972 01e4 93       		.byte	0x93
 973 01e5 77000000 		.4byte	0x77
 974 01e9 00       		.byte	0
 975 01ea 09       		.uleb128 0x9
 976 01eb D9070000 		.4byte	.LASF29
 977 01ef 06       		.byte	0x6
 978 01f0 98       		.byte	0x98
 979 01f1 D0000000 		.4byte	0xd0
 980 01f5 02       		.byte	0x2
 981 01f6 09       		.uleb128 0x9
 982 01f7 28040000 		.4byte	.LASF30
 983 01fb 06       		.byte	0x6
 984 01fc 9D       		.byte	0x9d
 985 01fd 6B000000 		.4byte	0x6b
 986 0201 04       		.byte	0x4
 987 0202 09       		.uleb128 0x9
 988 0203 04050000 		.4byte	.LASF31
 989 0207 06       		.byte	0x6
 990 0208 A2       		.byte	0xa2
 991 0209 6B000000 		.4byte	0x6b
 992 020d 05       		.byte	0x5
 993 020e 09       		.uleb128 0x9
 994 020f 48030000 		.4byte	.LASF32
ARM GAS  C:\Users\MICHAE~1.MAC\AppData\Local\Temp\ccOp1ZUS.s 			page 46


 995 0213 06       		.byte	0x6
 996 0214 A8       		.byte	0xa8
 997 0215 6B000000 		.4byte	0x6b
 998 0219 06       		.byte	0x6
 999 021a 09       		.uleb128 0x9
 1000 021b CF040000 		.4byte	.LASF43
 1001 021f 06       		.byte	0x6
 1002 0220 AE       		.byte	0xae
 1003 0221 6B000000 		.4byte	0x6b
 1004 0225 07       		.byte	0x7
 1005 0226 09       		.uleb128 0x9
 1006 0227 D3030000 		.4byte	.LASF44
 1007 022b 06       		.byte	0x6
 1008 022c B5       		.byte	0xb5
 1009 022d DC000000 		.4byte	0xdc
 1010 0231 08       		.byte	0x8
 1011 0232 09       		.uleb128 0x9
 1012 0233 C1070000 		.4byte	.LASF45
 1013 0237 06       		.byte	0x6
 1014 0238 BC       		.byte	0xbc
 1015 0239 6F020000 		.4byte	0x26f
 1016 023d 09       		.byte	0x9
 1017 023e 09       		.uleb128 0x9
 1018 023f 73080000 		.4byte	.LASF46
 1019 0243 06       		.byte	0x6
 1020 0244 C4       		.byte	0xc4
 1021 0245 77000000 		.4byte	0x77
 1022 0249 0A       		.byte	0xa
 1023 024a 09       		.uleb128 0x9
 1024 024b 8B060000 		.4byte	.LASF47
 1025 024f 06       		.byte	0x6
 1026 0250 C9       		.byte	0xc9
 1027 0251 6B000000 		.4byte	0x6b
 1028 0255 0C       		.byte	0xc
 1029 0256 09       		.uleb128 0x9
 1030 0257 91070000 		.4byte	.LASF48
 1031 025b 06       		.byte	0x6
 1032 025c CF       		.byte	0xcf
 1033 025d 77000000 		.4byte	0x77
 1034 0261 0E       		.byte	0xe
 1035 0262 09       		.uleb128 0x9
 1036 0263 41030000 		.4byte	.LASF49
 1037 0267 06       		.byte	0x6
 1038 0268 D4       		.byte	0xd4
 1039 0269 77000000 		.4byte	0x77
 1040 026d 10       		.byte	0x10
 1041 026e 00       		.byte	0
 1042 026f 0C       		.uleb128 0xc
 1043 0270 6B000000 		.4byte	0x6b
 1044 0274 7F020000 		.4byte	0x27f
 1045 0278 0D       		.uleb128 0xd
 1046 0279 C7000000 		.4byte	0xc7
 1047 027d 00       		.byte	0
 1048 027e 00       		.byte	0
 1049 027f 06       		.uleb128 0x6
 1050 0280 49050000 		.4byte	.LASF50
 1051 0284 06       		.byte	0x6
ARM GAS  C:\Users\MICHAE~1.MAC\AppData\Local\Temp\ccOp1ZUS.s 			page 47


 1052 0285 D5       		.byte	0xd5
 1053 0286 D6010000 		.4byte	0x1d6
 1054 028a 08       		.uleb128 0x8
 1055 028b 12       		.byte	0x12
 1056 028c 06       		.byte	0x6
 1057 028d DA       		.byte	0xda
 1058 028e 29030000 		.4byte	0x329
 1059 0292 09       		.uleb128 0x9
 1060 0293 58040000 		.4byte	.LASF42
 1061 0297 06       		.byte	0x6
 1062 0298 DF       		.byte	0xdf
 1063 0299 77000000 		.4byte	0x77
 1064 029d 00       		.byte	0
 1065 029e 09       		.uleb128 0x9
 1066 029f D9070000 		.4byte	.LASF29
 1067 02a3 06       		.byte	0x6
 1068 02a4 E4       		.byte	0xe4
 1069 02a5 D0000000 		.4byte	0xd0
 1070 02a9 02       		.byte	0x2
 1071 02aa 09       		.uleb128 0x9
 1072 02ab 28040000 		.4byte	.LASF30
 1073 02af 06       		.byte	0x6
 1074 02b0 E9       		.byte	0xe9
 1075 02b1 6B000000 		.4byte	0x6b
 1076 02b5 04       		.byte	0x4
 1077 02b6 09       		.uleb128 0x9
 1078 02b7 04050000 		.4byte	.LASF31
 1079 02bb 06       		.byte	0x6
 1080 02bc EE       		.byte	0xee
 1081 02bd 6B000000 		.4byte	0x6b
 1082 02c1 05       		.byte	0x5
 1083 02c2 09       		.uleb128 0x9
 1084 02c3 48030000 		.4byte	.LASF32
 1085 02c7 06       		.byte	0x6
 1086 02c8 F4       		.byte	0xf4
 1087 02c9 6B000000 		.4byte	0x6b
 1088 02cd 06       		.byte	0x6
 1089 02ce 09       		.uleb128 0x9
 1090 02cf CF040000 		.4byte	.LASF43
 1091 02d3 06       		.byte	0x6
 1092 02d4 FA       		.byte	0xfa
 1093 02d5 6B000000 		.4byte	0x6b
 1094 02d9 07       		.byte	0x7
 1095 02da 0E       		.uleb128 0xe
 1096 02db D3030000 		.4byte	.LASF44
 1097 02df 06       		.byte	0x6
 1098 02e0 0101     		.2byte	0x101
 1099 02e2 DC000000 		.4byte	0xdc
 1100 02e6 08       		.byte	0x8
 1101 02e7 0E       		.uleb128 0xe
 1102 02e8 C1070000 		.4byte	.LASF45
 1103 02ec 06       		.byte	0x6
 1104 02ed 0801     		.2byte	0x108
 1105 02ef 6F020000 		.4byte	0x26f
 1106 02f3 09       		.byte	0x9
 1107 02f4 0E       		.uleb128 0xe
 1108 02f5 73080000 		.4byte	.LASF46
ARM GAS  C:\Users\MICHAE~1.MAC\AppData\Local\Temp\ccOp1ZUS.s 			page 48


 1109 02f9 06       		.byte	0x6
 1110 02fa 1001     		.2byte	0x110
 1111 02fc 77000000 		.4byte	0x77
 1112 0300 0A       		.byte	0xa
 1113 0301 0E       		.uleb128 0xe
 1114 0302 8B060000 		.4byte	.LASF47
 1115 0306 06       		.byte	0x6
 1116 0307 1501     		.2byte	0x115
 1117 0309 6B000000 		.4byte	0x6b
 1118 030d 0C       		.byte	0xc
 1119 030e 0E       		.uleb128 0xe
 1120 030f 91070000 		.4byte	.LASF48
 1121 0313 06       		.byte	0x6
 1122 0314 1B01     		.2byte	0x11b
 1123 0316 77000000 		.4byte	0x77
 1124 031a 0E       		.byte	0xe
 1125 031b 0E       		.uleb128 0xe
 1126 031c 41030000 		.4byte	.LASF49
 1127 0320 06       		.byte	0x6
 1128 0321 2001     		.2byte	0x120
 1129 0323 77000000 		.4byte	0x77
 1130 0327 10       		.byte	0x10
 1131 0328 00       		.byte	0
 1132 0329 04       		.uleb128 0x4
 1133 032a 4F090000 		.4byte	.LASF51
 1134 032e 06       		.byte	0x6
 1135 032f 2101     		.2byte	0x121
 1136 0331 8A020000 		.4byte	0x28a
 1137 0335 0F       		.uleb128 0xf
 1138 0336 5A       		.byte	0x5a
 1139 0337 06       		.byte	0x6
 1140 0338 2701     		.2byte	0x127
 1141 033a 80030000 		.4byte	0x380
 1142 033e 0E       		.uleb128 0xe
 1143 033f 41070000 		.4byte	.LASF52
 1144 0343 06       		.byte	0x6
 1145 0344 2C01     		.2byte	0x12c
 1146 0346 29030000 		.4byte	0x329
 1147 034a 00       		.byte	0
 1148 034b 0E       		.uleb128 0xe
 1149 034c 49070000 		.4byte	.LASF53
 1150 0350 06       		.byte	0x6
 1151 0351 3101     		.2byte	0x131
 1152 0353 29030000 		.4byte	0x329
 1153 0357 12       		.byte	0x12
 1154 0358 0E       		.uleb128 0xe
 1155 0359 51070000 		.4byte	.LASF54
 1156 035d 06       		.byte	0x6
 1157 035e 3601     		.2byte	0x136
 1158 0360 29030000 		.4byte	0x329
 1159 0364 24       		.byte	0x24
 1160 0365 0E       		.uleb128 0xe
 1161 0366 59070000 		.4byte	.LASF55
 1162 036a 06       		.byte	0x6
 1163 036b 3B01     		.2byte	0x13b
 1164 036d 29030000 		.4byte	0x329
 1165 0371 36       		.byte	0x36
ARM GAS  C:\Users\MICHAE~1.MAC\AppData\Local\Temp\ccOp1ZUS.s 			page 49


 1166 0372 0E       		.uleb128 0xe
 1167 0373 61070000 		.4byte	.LASF56
 1168 0377 06       		.byte	0x6
 1169 0378 4001     		.2byte	0x140
 1170 037a 29030000 		.4byte	0x329
 1171 037e 48       		.byte	0x48
 1172 037f 00       		.byte	0
 1173 0380 04       		.uleb128 0x4
 1174 0381 33010000 		.4byte	.LASF57
 1175 0385 06       		.byte	0x6
 1176 0386 4101     		.2byte	0x141
 1177 0388 35030000 		.4byte	0x335
 1178 038c 0F       		.uleb128 0xf
 1179 038d 0A       		.byte	0xa
 1180 038e 06       		.byte	0x6
 1181 038f 4701     		.2byte	0x147
 1182 0391 E4030000 		.4byte	0x3e4
 1183 0395 10       		.uleb128 0x10
 1184 0396 72617700 		.ascii	"raw\000"
 1185 039a 06       		.byte	0x6
 1186 039b 4C01     		.2byte	0x14c
 1187 039d E4030000 		.4byte	0x3e4
 1188 03a1 00       		.byte	0
 1189 03a2 0E       		.uleb128 0xe
 1190 03a3 86080000 		.4byte	.LASF58
 1191 03a7 06       		.byte	0x6
 1192 03a8 5101     		.2byte	0x151
 1193 03aa E4030000 		.4byte	0x3e4
 1194 03ae 02       		.byte	0x2
 1195 03af 0E       		.uleb128 0xe
 1196 03b0 E2070000 		.4byte	.LASF59
 1197 03b4 06       		.byte	0x6
 1198 03b5 5701     		.2byte	0x157
 1199 03b7 6F020000 		.4byte	0x26f
 1200 03bb 04       		.byte	0x4
 1201 03bc 0E       		.uleb128 0xe
 1202 03bd 33070000 		.4byte	.LASF60
 1203 03c1 06       		.byte	0x6
 1204 03c2 5C01     		.2byte	0x15c
 1205 03c4 D0000000 		.4byte	0xd0
 1206 03c8 06       		.byte	0x6
 1207 03c9 0E       		.uleb128 0xe
 1208 03ca E2080000 		.4byte	.LASF61
 1209 03ce 06       		.byte	0x6
 1210 03cf 6101     		.2byte	0x161
 1211 03d1 F4030000 		.4byte	0x3f4
 1212 03d5 08       		.byte	0x8
 1213 03d6 0E       		.uleb128 0xe
 1214 03d7 9E040000 		.4byte	.LASF62
 1215 03db 06       		.byte	0x6
 1216 03dc 6601     		.2byte	0x166
 1217 03de 6F020000 		.4byte	0x26f
 1218 03e2 09       		.byte	0x9
 1219 03e3 00       		.byte	0
 1220 03e4 0C       		.uleb128 0xc
 1221 03e5 77000000 		.4byte	0x77
 1222 03e9 F4030000 		.4byte	0x3f4
ARM GAS  C:\Users\MICHAE~1.MAC\AppData\Local\Temp\ccOp1ZUS.s 			page 50


 1223 03ed 0D       		.uleb128 0xd
 1224 03ee C7000000 		.4byte	0xc7
 1225 03f2 00       		.byte	0
 1226 03f3 00       		.byte	0
 1227 03f4 0C       		.uleb128 0xc
 1228 03f5 DC000000 		.4byte	0xdc
 1229 03f9 04040000 		.4byte	0x404
 1230 03fd 0D       		.uleb128 0xd
 1231 03fe C7000000 		.4byte	0xc7
 1232 0402 00       		.byte	0
 1233 0403 00       		.byte	0
 1234 0404 04       		.uleb128 0x4
 1235 0405 FB080000 		.4byte	.LASF63
 1236 0409 06       		.byte	0x6
 1237 040a 6701     		.2byte	0x167
 1238 040c 8C030000 		.4byte	0x38c
 1239 0410 0F       		.uleb128 0xf
 1240 0411 32       		.byte	0x32
 1241 0412 06       		.byte	0x6
 1242 0413 6D01     		.2byte	0x16d
 1243 0415 5B040000 		.4byte	0x45b
 1244 0419 0E       		.uleb128 0xe
 1245 041a 41070000 		.4byte	.LASF52
 1246 041e 06       		.byte	0x6
 1247 041f 7201     		.2byte	0x172
 1248 0421 5B040000 		.4byte	0x45b
 1249 0425 00       		.byte	0
 1250 0426 0E       		.uleb128 0xe
 1251 0427 49070000 		.4byte	.LASF53
 1252 042b 06       		.byte	0x6
 1253 042c 7701     		.2byte	0x177
 1254 042e 5B040000 		.4byte	0x45b
 1255 0432 0A       		.byte	0xa
 1256 0433 0E       		.uleb128 0xe
 1257 0434 51070000 		.4byte	.LASF54
 1258 0438 06       		.byte	0x6
 1259 0439 7C01     		.2byte	0x17c
 1260 043b 5B040000 		.4byte	0x45b
 1261 043f 14       		.byte	0x14
 1262 0440 0E       		.uleb128 0xe
 1263 0441 59070000 		.4byte	.LASF55
 1264 0445 06       		.byte	0x6
 1265 0446 8101     		.2byte	0x181
 1266 0448 5B040000 		.4byte	0x45b
 1267 044c 1E       		.byte	0x1e
 1268 044d 0E       		.uleb128 0xe
 1269 044e 61070000 		.4byte	.LASF56
 1270 0452 06       		.byte	0x6
 1271 0453 8601     		.2byte	0x186
 1272 0455 5B040000 		.4byte	0x45b
 1273 0459 28       		.byte	0x28
 1274 045a 00       		.byte	0
 1275 045b 0C       		.uleb128 0xc
 1276 045c 04040000 		.4byte	0x404
 1277 0460 6B040000 		.4byte	0x46b
 1278 0464 0D       		.uleb128 0xd
 1279 0465 C7000000 		.4byte	0xc7
ARM GAS  C:\Users\MICHAE~1.MAC\AppData\Local\Temp\ccOp1ZUS.s 			page 51


 1280 0469 00       		.byte	0
 1281 046a 00       		.byte	0
 1282 046b 04       		.uleb128 0x4
 1283 046c 86050000 		.4byte	.LASF64
 1284 0470 06       		.byte	0x6
 1285 0471 8701     		.2byte	0x187
 1286 0473 10040000 		.4byte	0x410
 1287 0477 0F       		.uleb128 0xf
 1288 0478 B4       		.byte	0xb4
 1289 0479 06       		.byte	0x6
 1290 047a 8D01     		.2byte	0x18d
 1291 047c 5E050000 		.4byte	0x55e
 1292 0480 0E       		.uleb128 0xe
 1293 0481 14060000 		.4byte	.LASF65
 1294 0485 06       		.byte	0x6
 1295 0486 9401     		.2byte	0x194
 1296 0488 77000000 		.4byte	0x77
 1297 048c 00       		.byte	0
 1298 048d 0E       		.uleb128 0xe
 1299 048e 46090000 		.4byte	.LASF66
 1300 0492 06       		.byte	0x6
 1301 0493 9901     		.2byte	0x199
 1302 0495 77000000 		.4byte	0x77
 1303 0499 02       		.byte	0x2
 1304 049a 0E       		.uleb128 0xe
 1305 049b C0000000 		.4byte	.LASF67
 1306 049f 06       		.byte	0x6
 1307 04a0 9E01     		.2byte	0x19e
 1308 04a2 77000000 		.4byte	0x77
 1309 04a6 04       		.byte	0x4
 1310 04a7 0E       		.uleb128 0xe
 1311 04a8 38070000 		.4byte	.LASF68
 1312 04ac 06       		.byte	0x6
 1313 04ad A401     		.2byte	0x1a4
 1314 04af 77000000 		.4byte	0x77
 1315 04b3 06       		.byte	0x6
 1316 04b4 0E       		.uleb128 0xe
 1317 04b5 B4000000 		.4byte	.LASF69
 1318 04b9 06       		.byte	0x6
 1319 04ba A901     		.2byte	0x1a9
 1320 04bc 77000000 		.4byte	0x77
 1321 04c0 08       		.byte	0x8
 1322 04c1 0E       		.uleb128 0xe
 1323 04c2 79040000 		.4byte	.LASF70
 1324 04c6 06       		.byte	0x6
 1325 04c7 AE01     		.2byte	0x1ae
 1326 04c9 B0000000 		.4byte	0xb0
 1327 04cd 0C       		.byte	0xc
 1328 04ce 0E       		.uleb128 0xe
 1329 04cf 15070000 		.4byte	.LASF71
 1330 04d3 06       		.byte	0x6
 1331 04d4 B401     		.2byte	0x1b4
 1332 04d6 5E050000 		.4byte	0x55e
 1333 04da 10       		.byte	0x10
 1334 04db 0E       		.uleb128 0xe
 1335 04dc 9B070000 		.4byte	.LASF72
 1336 04e0 06       		.byte	0x6
ARM GAS  C:\Users\MICHAE~1.MAC\AppData\Local\Temp\ccOp1ZUS.s 			page 52


 1337 04e1 BB01     		.2byte	0x1bb
 1338 04e3 5E050000 		.4byte	0x55e
 1339 04e7 14       		.byte	0x14
 1340 04e8 0E       		.uleb128 0xe
 1341 04e9 81060000 		.4byte	.LASF73
 1342 04ed 06       		.byte	0x6
 1343 04ee CB01     		.2byte	0x1cb
 1344 04f0 6E050000 		.4byte	0x56e
 1345 04f4 18       		.byte	0x18
 1346 04f5 0E       		.uleb128 0xe
 1347 04f6 0D050000 		.4byte	.LASF74
 1348 04fa 06       		.byte	0x6
 1349 04fb D101     		.2byte	0x1d1
 1350 04fd 77000000 		.4byte	0x77
 1351 0501 1E       		.byte	0x1e
 1352 0502 0E       		.uleb128 0xe
 1353 0503 01030000 		.4byte	.LASF75
 1354 0507 06       		.byte	0x6
 1355 0508 D601     		.2byte	0x1d6
 1356 050a 6B000000 		.4byte	0x6b
 1357 050e 20       		.byte	0x20
 1358 050f 0E       		.uleb128 0xe
 1359 0510 E4040000 		.4byte	.LASF76
 1360 0514 06       		.byte	0x6
 1361 0515 DB01     		.2byte	0x1db
 1362 0517 80030000 		.4byte	0x380
 1363 051b 22       		.byte	0x22
 1364 051c 0E       		.uleb128 0xe
 1365 051d 3B020000 		.4byte	.LASF77
 1366 0521 06       		.byte	0x6
 1367 0522 E001     		.2byte	0x1e0
 1368 0524 6B040000 		.4byte	0x46b
 1369 0528 7C       		.byte	0x7c
 1370 0529 0E       		.uleb128 0xe
 1371 052a 89000000 		.4byte	.LASF78
 1372 052e 06       		.byte	0x6
 1373 052f E501     		.2byte	0x1e5
 1374 0531 6B000000 		.4byte	0x6b
 1375 0535 AE       		.byte	0xae
 1376 0536 0E       		.uleb128 0xe
 1377 0537 83020000 		.4byte	.LASF79
 1378 053b 06       		.byte	0x6
 1379 053c EA01     		.2byte	0x1ea
 1380 053e 6B000000 		.4byte	0x6b
 1381 0542 AF       		.byte	0xaf
 1382 0543 0E       		.uleb128 0xe
 1383 0544 01060000 		.4byte	.LASF80
 1384 0548 06       		.byte	0x6
 1385 0549 EF01     		.2byte	0x1ef
 1386 054b 77000000 		.4byte	0x77
 1387 054f B0       		.byte	0xb0
 1388 0550 0E       		.uleb128 0xe
 1389 0551 ED040000 		.4byte	.LASF81
 1390 0555 06       		.byte	0x6
 1391 0556 F401     		.2byte	0x1f4
 1392 0558 E4030000 		.4byte	0x3e4
 1393 055c B2       		.byte	0xb2
ARM GAS  C:\Users\MICHAE~1.MAC\AppData\Local\Temp\ccOp1ZUS.s 			page 53


 1394 055d 00       		.byte	0
 1395 055e 0C       		.uleb128 0xc
 1396 055f 83000000 		.4byte	0x83
 1397 0563 6E050000 		.4byte	0x56e
 1398 0567 0D       		.uleb128 0xd
 1399 0568 C7000000 		.4byte	0xc7
 1400 056c 00       		.byte	0
 1401 056d 00       		.byte	0
 1402 056e 0C       		.uleb128 0xc
 1403 056f 6B000000 		.4byte	0x6b
 1404 0573 7E050000 		.4byte	0x57e
 1405 0577 0D       		.uleb128 0xd
 1406 0578 C7000000 		.4byte	0xc7
 1407 057c 04       		.byte	0x4
 1408 057d 00       		.byte	0
 1409 057e 04       		.uleb128 0x4
 1410 057f 63040000 		.4byte	.LASF82
 1411 0583 06       		.byte	0x6
 1412 0584 F501     		.2byte	0x1f5
 1413 0586 77040000 		.4byte	0x477
 1414 058a 0F       		.uleb128 0xf
 1415 058b 20       		.byte	0x20
 1416 058c 06       		.byte	0x6
 1417 058d 5C02     		.2byte	0x25c
 1418 058f 16060000 		.4byte	0x616
 1419 0593 0E       		.uleb128 0xe
 1420 0594 9E080000 		.4byte	.LASF83
 1421 0598 06       		.byte	0x6
 1422 0599 6502     		.2byte	0x265
 1423 059b 16060000 		.4byte	0x616
 1424 059f 00       		.byte	0
 1425 05a0 0E       		.uleb128 0xe
 1426 05a1 51080000 		.4byte	.LASF84
 1427 05a5 06       		.byte	0x6
 1428 05a6 6C02     		.2byte	0x26c
 1429 05a8 CE000000 		.4byte	0xce
 1430 05ac 04       		.byte	0x4
 1431 05ad 0E       		.uleb128 0xe
 1432 05ae 1D060000 		.4byte	.LASF85
 1433 05b2 06       		.byte	0x6
 1434 05b3 7202     		.2byte	0x272
 1435 05b5 1D060000 		.4byte	0x61d
 1436 05b9 08       		.byte	0x8
 1437 05ba 0E       		.uleb128 0xe
 1438 05bb 76050000 		.4byte	.LASF86
 1439 05bf 06       		.byte	0x6
 1440 05c0 7802     		.2byte	0x278
 1441 05c2 CE000000 		.4byte	0xce
 1442 05c6 0C       		.byte	0xc
 1443 05c7 0E       		.uleb128 0xe
 1444 05c8 C9070000 		.4byte	.LASF87
 1445 05cc 06       		.byte	0x6
 1446 05cd 7F02     		.2byte	0x27f
 1447 05cf 23060000 		.4byte	0x623
 1448 05d3 10       		.byte	0x10
 1449 05d4 0E       		.uleb128 0xe
 1450 05d5 44080000 		.4byte	.LASF88
ARM GAS  C:\Users\MICHAE~1.MAC\AppData\Local\Temp\ccOp1ZUS.s 			page 54


 1451 05d9 06       		.byte	0x6
 1452 05da 8402     		.2byte	0x284
 1453 05dc 83000000 		.4byte	0x83
 1454 05e0 14       		.byte	0x14
 1455 05e1 0E       		.uleb128 0xe
 1456 05e2 DE030000 		.4byte	.LASF89
 1457 05e6 06       		.byte	0x6
 1458 05e7 8B02     		.2byte	0x28b
 1459 05e9 77000000 		.4byte	0x77
 1460 05ed 18       		.byte	0x18
 1461 05ee 0E       		.uleb128 0xe
 1462 05ef CC020000 		.4byte	.LASF90
 1463 05f3 06       		.byte	0x6
 1464 05f4 9202     		.2byte	0x292
 1465 05f6 6B000000 		.4byte	0x6b
 1466 05fa 1A       		.byte	0x1a
 1467 05fb 0E       		.uleb128 0xe
 1468 05fc 7A070000 		.4byte	.LASF91
 1469 0600 06       		.byte	0x6
 1470 0601 9C02     		.2byte	0x29c
 1471 0603 6B000000 		.4byte	0x6b
 1472 0607 1B       		.byte	0x1b
 1473 0608 0E       		.uleb128 0xe
 1474 0609 B2020000 		.4byte	.LASF92
 1475 060d 06       		.byte	0x6
 1476 060e A402     		.2byte	0x2a4
 1477 0610 29060000 		.4byte	0x629
 1478 0614 1C       		.byte	0x1c
 1479 0615 00       		.byte	0
 1480 0616 11       		.uleb128 0x11
 1481 0617 04       		.byte	0x4
 1482 0618 1C060000 		.4byte	0x61c
 1483 061c 12       		.uleb128 0x12
 1484 061d 11       		.uleb128 0x11
 1485 061e 04       		.byte	0x4
 1486 061f 04040000 		.4byte	0x404
 1487 0623 11       		.uleb128 0x11
 1488 0624 04       		.byte	0x4
 1489 0625 6B000000 		.4byte	0x6b
 1490 0629 11       		.uleb128 0x11
 1491 062a 04       		.byte	0x4
 1492 062b 45010000 		.4byte	0x145
 1493 062f 04       		.uleb128 0x4
 1494 0630 11000000 		.4byte	.LASF93
 1495 0634 06       		.byte	0x6
 1496 0635 A502     		.2byte	0x2a5
 1497 0637 8A050000 		.4byte	0x58a
 1498 063b 0F       		.uleb128 0xf
 1499 063c A0       		.byte	0xa0
 1500 063d 06       		.byte	0x6
 1501 063e AB02     		.2byte	0x2ab
 1502 0640 52060000 		.4byte	0x652
 1503 0644 0E       		.uleb128 0xe
 1504 0645 78090000 		.4byte	.LASF94
 1505 0649 06       		.byte	0x6
 1506 064a B002     		.2byte	0x2b0
 1507 064c 52060000 		.4byte	0x652
ARM GAS  C:\Users\MICHAE~1.MAC\AppData\Local\Temp\ccOp1ZUS.s 			page 55


 1508 0650 00       		.byte	0
 1509 0651 00       		.byte	0
 1510 0652 0C       		.uleb128 0xc
 1511 0653 2F060000 		.4byte	0x62f
 1512 0657 62060000 		.4byte	0x662
 1513 065b 0D       		.uleb128 0xd
 1514 065c C7000000 		.4byte	0xc7
 1515 0660 04       		.byte	0x4
 1516 0661 00       		.byte	0
 1517 0662 04       		.uleb128 0x4
 1518 0663 69060000 		.4byte	.LASF95
 1519 0667 06       		.byte	0x6
 1520 0668 B102     		.2byte	0x2b1
 1521 066a 3B060000 		.4byte	0x63b
 1522 066e 0F       		.uleb128 0xf
 1523 066f 0C       		.byte	0xc
 1524 0670 06       		.byte	0x6
 1525 0671 E602     		.2byte	0x2e6
 1526 0673 9F060000 		.4byte	0x69f
 1527 0677 0E       		.uleb128 0xe
 1528 0678 5D080000 		.4byte	.LASF96
 1529 067c 06       		.byte	0x6
 1530 067d EB02     		.2byte	0x2eb
 1531 067f 77000000 		.4byte	0x77
 1532 0683 00       		.byte	0
 1533 0684 0E       		.uleb128 0xe
 1534 0685 C1020000 		.4byte	.LASF97
 1535 0689 06       		.byte	0x6
 1536 068a F102     		.2byte	0x2f1
 1537 068c 9F060000 		.4byte	0x69f
 1538 0690 02       		.byte	0x2
 1539 0691 0E       		.uleb128 0xe
 1540 0692 5E060000 		.4byte	.LASF98
 1541 0696 06       		.byte	0x6
 1542 0697 F602     		.2byte	0x2f6
 1543 0699 AF060000 		.4byte	0x6af
 1544 069d 06       		.byte	0x6
 1545 069e 00       		.byte	0
 1546 069f 0C       		.uleb128 0xc
 1547 06a0 77000000 		.4byte	0x77
 1548 06a4 AF060000 		.4byte	0x6af
 1549 06a8 0D       		.uleb128 0xd
 1550 06a9 C7000000 		.4byte	0xc7
 1551 06ad 01       		.byte	0x1
 1552 06ae 00       		.byte	0
 1553 06af 0C       		.uleb128 0xc
 1554 06b0 77000000 		.4byte	0x77
 1555 06b4 BF060000 		.4byte	0x6bf
 1556 06b8 0D       		.uleb128 0xd
 1557 06b9 C7000000 		.4byte	0xc7
 1558 06bd 02       		.byte	0x2
 1559 06be 00       		.byte	0
 1560 06bf 04       		.uleb128 0x4
 1561 06c0 2C000000 		.4byte	.LASF99
 1562 06c4 06       		.byte	0x6
 1563 06c5 F702     		.2byte	0x2f7
 1564 06c7 6E060000 		.4byte	0x66e
ARM GAS  C:\Users\MICHAE~1.MAC\AppData\Local\Temp\ccOp1ZUS.s 			page 56


 1565 06cb 0F       		.uleb128 0xf
 1566 06cc 0C       		.byte	0xc
 1567 06cd 06       		.byte	0x6
 1568 06ce FC02     		.2byte	0x2fc
 1569 06d0 E2060000 		.4byte	0x6e2
 1570 06d4 0E       		.uleb128 0xe
 1571 06d5 F2020000 		.4byte	.LASF100
 1572 06d9 06       		.byte	0x6
 1573 06da 0103     		.2byte	0x301
 1574 06dc E2060000 		.4byte	0x6e2
 1575 06e0 00       		.byte	0
 1576 06e1 00       		.byte	0
 1577 06e2 0C       		.uleb128 0xc
 1578 06e3 BF060000 		.4byte	0x6bf
 1579 06e7 F2060000 		.4byte	0x6f2
 1580 06eb 0D       		.uleb128 0xd
 1581 06ec C7000000 		.4byte	0xc7
 1582 06f0 00       		.byte	0
 1583 06f1 00       		.byte	0
 1584 06f2 04       		.uleb128 0x4
 1585 06f3 93020000 		.4byte	.LASF101
 1586 06f7 06       		.byte	0x6
 1587 06f8 0203     		.2byte	0x302
 1588 06fa CB060000 		.4byte	0x6cb
 1589 06fe 13       		.uleb128 0x13
 1590 06ff 04       		.byte	0x4
 1591 0700 06       		.byte	0x6
 1592 0701 0703     		.2byte	0x307
 1593 0703 20070000 		.4byte	0x720
 1594 0707 14       		.uleb128 0x14
 1595 0708 70747200 		.ascii	"ptr\000"
 1596 070c 06       		.byte	0x6
 1597 070d 0C03     		.2byte	0x30c
 1598 070f CE000000 		.4byte	0xce
 1599 0713 15       		.uleb128 0x15
 1600 0714 78020000 		.4byte	.LASF102
 1601 0718 06       		.byte	0x6
 1602 0719 1103     		.2byte	0x311
 1603 071b 20070000 		.4byte	0x720
 1604 071f 00       		.byte	0
 1605 0720 11       		.uleb128 0x11
 1606 0721 04       		.byte	0x4
 1607 0722 F2060000 		.4byte	0x6f2
 1608 0726 04       		.uleb128 0x4
 1609 0727 97030000 		.4byte	.LASF103
 1610 072b 06       		.byte	0x6
 1611 072c 1203     		.2byte	0x312
 1612 072e FE060000 		.4byte	0x6fe
 1613 0732 16       		.uleb128 0x16
 1614 0733 1B010000 		.4byte	.LASF108
 1615 0737 01       		.byte	0x1
 1616 0738 9001     		.2byte	0x190
 1617 073a 00000000 		.4byte	.LFB1
 1618 073e 58000000 		.4byte	.LFE1-.LFB1
 1619 0742 01       		.uleb128 0x1
 1620 0743 9C       		.byte	0x9c
 1621 0744 92070000 		.4byte	0x792
ARM GAS  C:\Users\MICHAE~1.MAC\AppData\Local\Temp\ccOp1ZUS.s 			page 57


 1622 0748 17       		.uleb128 0x17
 1623 0749 78000000 		.4byte	.LASF104
 1624 074d 01       		.byte	0x1
 1625 074e 9201     		.2byte	0x192
 1626 0750 83000000 		.4byte	0x83
 1627 0754 00000000 		.4byte	.LLST0
 1628 0758 17       		.uleb128 0x17
 1629 0759 F0080000 		.4byte	.LASF105
 1630 075d 01       		.byte	0x1
 1631 075e 9301     		.2byte	0x193
 1632 0760 CB010000 		.4byte	0x1cb
 1633 0764 4D000000 		.4byte	.LLST1
 1634 0768 17       		.uleb128 0x17
 1635 0769 EE050000 		.4byte	.LASF106
 1636 076d 01       		.byte	0x1
 1637 076e 9401     		.2byte	0x194
 1638 0770 92070000 		.4byte	0x792
 1639 0774 60000000 		.4byte	.LLST2
 1640 0778 17       		.uleb128 0x17
 1641 0779 37080000 		.4byte	.LASF107
 1642 077d 01       		.byte	0x1
 1643 077e 9501     		.2byte	0x195
 1644 0780 98070000 		.4byte	0x798
 1645 0784 73000000 		.4byte	.LLST3
 1646 0788 18       		.uleb128 0x18
 1647 0789 42000000 		.4byte	.LVL8
 1648 078d 380C0000 		.4byte	0xc38
 1649 0791 00       		.byte	0
 1650 0792 11       		.uleb128 0x11
 1651 0793 04       		.byte	0x4
 1652 0794 7F020000 		.4byte	0x27f
 1653 0798 11       		.uleb128 0x11
 1654 0799 04       		.byte	0x4
 1655 079a 9E070000 		.4byte	0x79e
 1656 079e 19       		.uleb128 0x19
 1657 079f 2F060000 		.4byte	0x62f
 1658 07a3 16       		.uleb128 0x16
 1659 07a4 5A000000 		.4byte	.LASF109
 1660 07a8 01       		.byte	0x1
 1661 07a9 3505     		.2byte	0x535
 1662 07ab 00000000 		.4byte	.LFB5
 1663 07af 32000000 		.4byte	.LFE5-.LFB5
 1664 07b3 01       		.uleb128 0x1
 1665 07b4 9C       		.byte	0x9c
 1666 07b5 27080000 		.4byte	0x827
 1667 07b9 1A       		.uleb128 0x1a
 1668 07ba EE050000 		.4byte	.LASF106
 1669 07be 01       		.byte	0x1
 1670 07bf 3505     		.2byte	0x535
 1671 07c1 92070000 		.4byte	0x792
 1672 07c5 86000000 		.4byte	.LLST4
 1673 07c9 1A       		.uleb128 0x1a
 1674 07ca 00000000 		.4byte	.LASF110
 1675 07ce 01       		.byte	0x1
 1676 07cf 3605     		.2byte	0x536
 1677 07d1 29060000 		.4byte	0x629
 1678 07d5 B2000000 		.4byte	.LLST5
ARM GAS  C:\Users\MICHAE~1.MAC\AppData\Local\Temp\ccOp1ZUS.s 			page 58


 1679 07d9 1A       		.uleb128 0x1a
 1680 07da DA040000 		.4byte	.LASF111
 1681 07de 01       		.byte	0x1
 1682 07df 3705     		.2byte	0x537
 1683 07e1 83000000 		.4byte	0x83
 1684 07e5 DE000000 		.4byte	.LLST6
 1685 07e9 1B       		.uleb128 0x1b
 1686 07ea 6F070000 		.4byte	.LASF112
 1687 07ee 01       		.byte	0x1
 1688 07ef 3905     		.2byte	0x539
 1689 07f1 89010000 		.4byte	0x189
 1690 07f5 02       		.uleb128 0x2
 1691 07f6 91       		.byte	0x91
 1692 07f7 70       		.sleb128 -16
 1693 07f8 17       		.uleb128 0x17
 1694 07f9 99000000 		.4byte	.LASF113
 1695 07fd 01       		.byte	0x1
 1696 07fe 3A05     		.2byte	0x53a
 1697 0800 27080000 		.4byte	0x827
 1698 0804 0A010000 		.4byte	.LLST7
 1699 0808 1C       		.uleb128 0x1c
 1700 0809 16000000 		.4byte	.LVL19
 1701 080d 430C0000 		.4byte	0xc43
 1702 0811 1D       		.uleb128 0x1d
 1703 0812 01       		.uleb128 0x1
 1704 0813 50       		.byte	0x50
 1705 0814 03       		.uleb128 0x3
 1706 0815 F3       		.byte	0xf3
 1707 0816 01       		.uleb128 0x1
 1708 0817 51       		.byte	0x51
 1709 0818 1D       		.uleb128 0x1d
 1710 0819 01       		.uleb128 0x1
 1711 081a 51       		.byte	0x51
 1712 081b 02       		.uleb128 0x2
 1713 081c 7D       		.byte	0x7d
 1714 081d 00       		.sleb128 0
 1715 081e 1D       		.uleb128 0x1d
 1716 081f 01       		.uleb128 0x1
 1717 0820 53       		.byte	0x53
 1718 0821 03       		.uleb128 0x3
 1719 0822 F3       		.byte	0xf3
 1720 0823 01       		.uleb128 0x1
 1721 0824 52       		.byte	0x52
 1722 0825 00       		.byte	0
 1723 0826 00       		.byte	0
 1724 0827 11       		.uleb128 0x11
 1725 0828 04       		.byte	0x4
 1726 0829 89010000 		.4byte	0x189
 1727 082d 16       		.uleb128 0x16
 1728 082e 98060000 		.4byte	.LASF114
 1729 0832 01       		.byte	0x1
 1730 0833 5E05     		.2byte	0x55e
 1731 0835 00000000 		.4byte	.LFB6
 1732 0839 16000000 		.4byte	.LFE6-.LFB6
 1733 083d 01       		.uleb128 0x1
 1734 083e 9C       		.byte	0x9c
 1735 083f 72080000 		.4byte	0x872
ARM GAS  C:\Users\MICHAE~1.MAC\AppData\Local\Temp\ccOp1ZUS.s 			page 59


 1736 0843 1A       		.uleb128 0x1a
 1737 0844 EE050000 		.4byte	.LASF106
 1738 0848 01       		.byte	0x1
 1739 0849 5F05     		.2byte	0x55f
 1740 084b 92070000 		.4byte	0x792
 1741 084f 2A010000 		.4byte	.LLST8
 1742 0853 1E       		.uleb128 0x1e
 1743 0854 F9000000 		.4byte	.LASF115
 1744 0858 01       		.byte	0x1
 1745 0859 6005     		.2byte	0x560
 1746 085b 1D060000 		.4byte	0x61d
 1747 085f 01       		.uleb128 0x1
 1748 0860 51       		.byte	0x51
 1749 0861 17       		.uleb128 0x17
 1750 0862 CF000000 		.4byte	.LASF116
 1751 0866 01       		.byte	0x1
 1752 0867 6205     		.2byte	0x562
 1753 0869 8F000000 		.4byte	0x8f
 1754 086d 4B010000 		.4byte	.LLST9
 1755 0871 00       		.byte	0
 1756 0872 1F       		.uleb128 0x1f
 1757 0873 EA070000 		.4byte	.LASF122
 1758 0877 01       		.byte	0x1
 1759 0878 F803     		.2byte	0x3f8
 1760 087a 83000000 		.4byte	0x83
 1761 087e 00000000 		.4byte	.LFB2
 1762 0882 90000000 		.4byte	.LFE2-.LFB2
 1763 0886 01       		.uleb128 0x1
 1764 0887 9C       		.byte	0x9c
 1765 0888 A9090000 		.4byte	0x9a9
 1766 088c 1A       		.uleb128 0x1a
 1767 088d 37080000 		.4byte	.LASF107
 1768 0891 01       		.byte	0x1
 1769 0892 F803     		.2byte	0x3f8
 1770 0894 98070000 		.4byte	0x798
 1771 0898 7A010000 		.4byte	.LLST10
 1772 089c 17       		.uleb128 0x17
 1773 089d 43020000 		.4byte	.LASF117
 1774 08a1 01       		.byte	0x1
 1775 08a2 FA03     		.2byte	0x3fa
 1776 08a4 83000000 		.4byte	0x83
 1777 08a8 A6010000 		.4byte	.LLST11
 1778 08ac 17       		.uleb128 0x17
 1779 08ad F0080000 		.4byte	.LASF105
 1780 08b1 01       		.byte	0x1
 1781 08b2 0004     		.2byte	0x400
 1782 08b4 83000000 		.4byte	0x83
 1783 08b8 DD010000 		.4byte	.LLST12
 1784 08bc 17       		.uleb128 0x17
 1785 08bd 69070000 		.4byte	.LASF118
 1786 08c1 01       		.byte	0x1
 1787 08c2 0104     		.2byte	0x401
 1788 08c4 83000000 		.4byte	0x83
 1789 08c8 FD010000 		.4byte	.LLST13
 1790 08cc 17       		.uleb128 0x17
 1791 08cd 89010000 		.4byte	.LASF119
 1792 08d1 01       		.byte	0x1
ARM GAS  C:\Users\MICHAE~1.MAC\AppData\Local\Temp\ccOp1ZUS.s 			page 60


 1793 08d2 0204     		.2byte	0x402
 1794 08d4 1D060000 		.4byte	0x61d
 1795 08d8 1C020000 		.4byte	.LLST14
 1796 08dc 17       		.uleb128 0x17
 1797 08dd EE050000 		.4byte	.LASF106
 1798 08e1 01       		.byte	0x1
 1799 08e2 0304     		.2byte	0x403
 1800 08e4 92070000 		.4byte	0x792
 1801 08e8 2F020000 		.4byte	.LLST15
 1802 08ec 17       		.uleb128 0x17
 1803 08ed 00000000 		.4byte	.LASF110
 1804 08f1 01       		.byte	0x1
 1805 08f2 0704     		.2byte	0x407
 1806 08f4 29060000 		.4byte	0x629
 1807 08f8 42020000 		.4byte	.LLST16
 1808 08fc 17       		.uleb128 0x17
 1809 08fd 7F000000 		.4byte	.LASF120
 1810 0901 01       		.byte	0x1
 1811 0902 0E04     		.2byte	0x40e
 1812 0904 26070000 		.4byte	0x726
 1813 0908 55020000 		.4byte	.LLST17
 1814 090c 17       		.uleb128 0x17
 1815 090d 2C080000 		.4byte	.LASF121
 1816 0911 01       		.byte	0x1
 1817 0912 1104     		.2byte	0x411
 1818 0914 83000000 		.4byte	0x83
 1819 0918 73020000 		.4byte	.LLST18
 1820 091c 20       		.uleb128 0x20
 1821 091d 40000000 		.4byte	.LVL37
 1822 0921 4E0C0000 		.4byte	0xc4e
 1823 0925 3D090000 		.4byte	0x93d
 1824 0929 1D       		.uleb128 0x1d
 1825 092a 01       		.uleb128 0x1
 1826 092b 50       		.byte	0x50
 1827 092c 02       		.uleb128 0x2
 1828 092d 79       		.byte	0x79
 1829 092e 00       		.sleb128 0
 1830 092f 1D       		.uleb128 0x1d
 1831 0930 01       		.uleb128 0x1
 1832 0931 51       		.byte	0x51
 1833 0932 02       		.uleb128 0x2
 1834 0933 74       		.byte	0x74
 1835 0934 00       		.sleb128 0
 1836 0935 1D       		.uleb128 0x1d
 1837 0936 01       		.uleb128 0x1
 1838 0937 52       		.byte	0x52
 1839 0938 03       		.uleb128 0x3
 1840 0939 7D       		.byte	0x7d
 1841 093a 00       		.sleb128 0
 1842 093b 06       		.byte	0x6
 1843 093c 00       		.byte	0
 1844 093d 20       		.uleb128 0x20
 1845 093e 4A000000 		.4byte	.LVL38
 1846 0942 590C0000 		.4byte	0xc59
 1847 0946 51090000 		.4byte	0x951
 1848 094a 1D       		.uleb128 0x1d
 1849 094b 01       		.uleb128 0x1
ARM GAS  C:\Users\MICHAE~1.MAC\AppData\Local\Temp\ccOp1ZUS.s 			page 61


 1850 094c 52       		.byte	0x52
 1851 094d 02       		.uleb128 0x2
 1852 094e 77       		.byte	0x77
 1853 094f 00       		.sleb128 0
 1854 0950 00       		.byte	0
 1855 0951 20       		.uleb128 0x20
 1856 0952 54000000 		.4byte	.LVL39
 1857 0956 A3070000 		.4byte	0x7a3
 1858 095a 71090000 		.4byte	0x971
 1859 095e 1D       		.uleb128 0x1d
 1860 095f 01       		.uleb128 0x1
 1861 0960 50       		.byte	0x50
 1862 0961 02       		.uleb128 0x2
 1863 0962 76       		.byte	0x76
 1864 0963 00       		.sleb128 0
 1865 0964 1D       		.uleb128 0x1d
 1866 0965 01       		.uleb128 0x1
 1867 0966 51       		.byte	0x51
 1868 0967 02       		.uleb128 0x2
 1869 0968 77       		.byte	0x77
 1870 0969 00       		.sleb128 0
 1871 096a 1D       		.uleb128 0x1d
 1872 096b 01       		.uleb128 0x1
 1873 096c 52       		.byte	0x52
 1874 096d 02       		.uleb128 0x2
 1875 096e 75       		.byte	0x75
 1876 096f 00       		.sleb128 0
 1877 0970 00       		.byte	0
 1878 0971 20       		.uleb128 0x20
 1879 0972 60000000 		.4byte	.LVL41
 1880 0976 640C0000 		.4byte	0xc64
 1881 097a 92090000 		.4byte	0x992
 1882 097e 1D       		.uleb128 0x1d
 1883 097f 01       		.uleb128 0x1
 1884 0980 50       		.byte	0x50
 1885 0981 02       		.uleb128 0x2
 1886 0982 76       		.byte	0x76
 1887 0983 00       		.sleb128 0
 1888 0984 1D       		.uleb128 0x1d
 1889 0985 01       		.uleb128 0x1
 1890 0986 51       		.byte	0x51
 1891 0987 02       		.uleb128 0x2
 1892 0988 74       		.byte	0x74
 1893 0989 00       		.sleb128 0
 1894 098a 1D       		.uleb128 0x1d
 1895 098b 01       		.uleb128 0x1
 1896 098c 52       		.byte	0x52
 1897 098d 03       		.uleb128 0x3
 1898 098e 7D       		.byte	0x7d
 1899 098f 00       		.sleb128 0
 1900 0990 06       		.byte	0x6
 1901 0991 00       		.byte	0
 1902 0992 1C       		.uleb128 0x1c
 1903 0993 6A000000 		.4byte	.LVL44
 1904 0997 2D080000 		.4byte	0x82d
 1905 099b 1D       		.uleb128 0x1d
 1906 099c 01       		.uleb128 0x1
ARM GAS  C:\Users\MICHAE~1.MAC\AppData\Local\Temp\ccOp1ZUS.s 			page 62


 1907 099d 50       		.byte	0x50
 1908 099e 02       		.uleb128 0x2
 1909 099f 76       		.byte	0x76
 1910 09a0 00       		.sleb128 0
 1911 09a1 1D       		.uleb128 0x1d
 1912 09a2 01       		.uleb128 0x1
 1913 09a3 51       		.byte	0x51
 1914 09a4 02       		.uleb128 0x2
 1915 09a5 74       		.byte	0x74
 1916 09a6 00       		.sleb128 0
 1917 09a7 00       		.byte	0
 1918 09a8 00       		.byte	0
 1919 09a9 1F       		.uleb128 0x1f
 1920 09aa B8080000 		.4byte	.LASF123
 1921 09ae 01       		.byte	0x1
 1922 09af 7A04     		.2byte	0x47a
 1923 09b1 83000000 		.4byte	0x83
 1924 09b5 00000000 		.4byte	.LFB3
 1925 09b9 60000000 		.4byte	.LFE3-.LFB3
 1926 09bd 01       		.uleb128 0x1
 1927 09be 9C       		.byte	0x9c
 1928 09bf D10A0000 		.4byte	0xad1
 1929 09c3 1A       		.uleb128 0x1a
 1930 09c4 37080000 		.4byte	.LASF107
 1931 09c8 01       		.byte	0x1
 1932 09c9 7B04     		.2byte	0x47b
 1933 09cb 98070000 		.4byte	0x798
 1934 09cf 9C020000 		.4byte	.LLST19
 1935 09d3 1A       		.uleb128 0x1a
 1936 09d4 F9000000 		.4byte	.LASF115
 1937 09d8 01       		.byte	0x1
 1938 09d9 7C04     		.2byte	0x47c
 1939 09db 1D060000 		.4byte	0x61d
 1940 09df BD020000 		.4byte	.LLST20
 1941 09e3 1A       		.uleb128 0x1a
 1942 09e4 7F000000 		.4byte	.LASF120
 1943 09e8 01       		.byte	0x1
 1944 09e9 7D04     		.2byte	0x47d
 1945 09eb 26070000 		.4byte	0x726
 1946 09ef E8020000 		.4byte	.LLST21
 1947 09f3 1A       		.uleb128 0x1a
 1948 09f4 F4000000 		.4byte	.LASF124
 1949 09f8 01       		.byte	0x1
 1950 09f9 7E04     		.2byte	0x47e
 1951 09fb 83000000 		.4byte	0x83
 1952 09ff 32030000 		.4byte	.LLST22
 1953 0a03 17       		.uleb128 0x17
 1954 0a04 43020000 		.4byte	.LASF117
 1955 0a08 01       		.byte	0x1
 1956 0a09 8004     		.2byte	0x480
 1957 0a0b 83000000 		.4byte	0x83
 1958 0a0f 5E030000 		.4byte	.LLST23
 1959 0a13 17       		.uleb128 0x17
 1960 0a14 F0080000 		.4byte	.LASF105
 1961 0a18 01       		.byte	0x1
 1962 0a19 8104     		.2byte	0x481
 1963 0a1b 83000000 		.4byte	0x83
ARM GAS  C:\Users\MICHAE~1.MAC\AppData\Local\Temp\ccOp1ZUS.s 			page 63


 1964 0a1f 9F030000 		.4byte	.LLST24
 1965 0a23 17       		.uleb128 0x17
 1966 0a24 EE050000 		.4byte	.LASF106
 1967 0a28 01       		.byte	0x1
 1968 0a29 8204     		.2byte	0x482
 1969 0a2b 92070000 		.4byte	0x792
 1970 0a2f BD030000 		.4byte	.LLST25
 1971 0a33 17       		.uleb128 0x17
 1972 0a34 00000000 		.4byte	.LASF110
 1973 0a38 01       		.byte	0x1
 1974 0a39 8504     		.2byte	0x485
 1975 0a3b 29060000 		.4byte	0x629
 1976 0a3f D0030000 		.4byte	.LLST26
 1977 0a43 20       		.uleb128 0x20
 1978 0a44 1C000000 		.4byte	.LVL66
 1979 0a48 4E0C0000 		.4byte	0xc4e
 1980 0a4c 650A0000 		.4byte	0xa65
 1981 0a50 1D       		.uleb128 0x1d
 1982 0a51 01       		.uleb128 0x1
 1983 0a52 50       		.byte	0x50
 1984 0a53 03       		.uleb128 0x3
 1985 0a54 91       		.byte	0x91
 1986 0a55 64       		.sleb128 -28
 1987 0a56 06       		.byte	0x6
 1988 0a57 1D       		.uleb128 0x1d
 1989 0a58 01       		.uleb128 0x1
 1990 0a59 51       		.byte	0x51
 1991 0a5a 03       		.uleb128 0x3
 1992 0a5b 7D       		.byte	0x7d
 1993 0a5c 00       		.sleb128 0
 1994 0a5d 06       		.byte	0x6
 1995 0a5e 1D       		.uleb128 0x1d
 1996 0a5f 01       		.uleb128 0x1
 1997 0a60 52       		.byte	0x52
 1998 0a61 02       		.uleb128 0x2
 1999 0a62 77       		.byte	0x77
 2000 0a63 00       		.sleb128 0
 2001 0a64 00       		.byte	0
 2002 0a65 20       		.uleb128 0x20
 2003 0a66 2C000000 		.4byte	.LVL68
 2004 0a6a 590C0000 		.4byte	0xc59
 2005 0a6e 790A0000 		.4byte	0xa79
 2006 0a72 1D       		.uleb128 0x1d
 2007 0a73 01       		.uleb128 0x1
 2008 0a74 52       		.byte	0x52
 2009 0a75 02       		.uleb128 0x2
 2010 0a76 76       		.byte	0x76
 2011 0a77 00       		.sleb128 0
 2012 0a78 00       		.byte	0
 2013 0a79 20       		.uleb128 0x20
 2014 0a7a 3A000000 		.4byte	.LVL70
 2015 0a7e A3070000 		.4byte	0x7a3
 2016 0a82 980A0000 		.4byte	0xa98
 2017 0a86 1D       		.uleb128 0x1d
 2018 0a87 01       		.uleb128 0x1
 2019 0a88 50       		.byte	0x50
 2020 0a89 02       		.uleb128 0x2
ARM GAS  C:\Users\MICHAE~1.MAC\AppData\Local\Temp\ccOp1ZUS.s 			page 64


 2021 0a8a 75       		.byte	0x75
 2022 0a8b 00       		.sleb128 0
 2023 0a8c 1D       		.uleb128 0x1d
 2024 0a8d 01       		.uleb128 0x1
 2025 0a8e 51       		.byte	0x51
 2026 0a8f 02       		.uleb128 0x2
 2027 0a90 76       		.byte	0x76
 2028 0a91 00       		.sleb128 0
 2029 0a92 1D       		.uleb128 0x1d
 2030 0a93 01       		.uleb128 0x1
 2031 0a94 52       		.byte	0x52
 2032 0a95 01       		.uleb128 0x1
 2033 0a96 30       		.byte	0x30
 2034 0a97 00       		.byte	0
 2035 0a98 20       		.uleb128 0x20
 2036 0a99 48000000 		.4byte	.LVL72
 2037 0a9d 640C0000 		.4byte	0xc64
 2038 0aa1 B90A0000 		.4byte	0xab9
 2039 0aa5 1D       		.uleb128 0x1d
 2040 0aa6 01       		.uleb128 0x1
 2041 0aa7 50       		.byte	0x50
 2042 0aa8 02       		.uleb128 0x2
 2043 0aa9 75       		.byte	0x75
 2044 0aaa 00       		.sleb128 0
 2045 0aab 1D       		.uleb128 0x1d
 2046 0aac 01       		.uleb128 0x1
 2047 0aad 51       		.byte	0x51
 2048 0aae 03       		.uleb128 0x3
 2049 0aaf 7D       		.byte	0x7d
 2050 0ab0 00       		.sleb128 0
 2051 0ab1 06       		.byte	0x6
 2052 0ab2 1D       		.uleb128 0x1d
 2053 0ab3 01       		.uleb128 0x1
 2054 0ab4 52       		.byte	0x52
 2055 0ab5 02       		.uleb128 0x2
 2056 0ab6 77       		.byte	0x77
 2057 0ab7 00       		.sleb128 0
 2058 0ab8 00       		.byte	0
 2059 0ab9 1C       		.uleb128 0x1c
 2060 0aba 5A000000 		.4byte	.LVL76
 2061 0abe 2D080000 		.4byte	0x82d
 2062 0ac2 1D       		.uleb128 0x1d
 2063 0ac3 01       		.uleb128 0x1
 2064 0ac4 50       		.byte	0x50
 2065 0ac5 02       		.uleb128 0x2
 2066 0ac6 75       		.byte	0x75
 2067 0ac7 00       		.sleb128 0
 2068 0ac8 1D       		.uleb128 0x1d
 2069 0ac9 01       		.uleb128 0x1
 2070 0aca 51       		.byte	0x51
 2071 0acb 03       		.uleb128 0x3
 2072 0acc 7D       		.byte	0x7d
 2073 0acd 00       		.sleb128 0
 2074 0ace 06       		.byte	0x6
 2075 0acf 00       		.byte	0
 2076 0ad0 00       		.byte	0
 2077 0ad1 1F       		.uleb128 0x1f
ARM GAS  C:\Users\MICHAE~1.MAC\AppData\Local\Temp\ccOp1ZUS.s 			page 65


 2078 0ad2 D9000000 		.4byte	.LASF125
 2079 0ad6 01       		.byte	0x1
 2080 0ad7 A805     		.2byte	0x5a8
 2081 0ad9 83000000 		.4byte	0x83
 2082 0add 00000000 		.4byte	.LFB7
 2083 0ae1 64000000 		.4byte	.LFE7-.LFB7
 2084 0ae5 01       		.uleb128 0x1
 2085 0ae6 9C       		.byte	0x9c
 2086 0ae7 7A0B0000 		.4byte	0xb7a
 2087 0aeb 1A       		.uleb128 0x1a
 2088 0aec 68080000 		.4byte	.LASF126
 2089 0af0 01       		.byte	0x1
 2090 0af1 A805     		.2byte	0x5a8
 2091 0af3 83000000 		.4byte	0x83
 2092 0af7 E3030000 		.4byte	.LLST27
 2093 0afb 1A       		.uleb128 0x1a
 2094 0afc 37080000 		.4byte	.LASF107
 2095 0b00 01       		.byte	0x1
 2096 0b01 A805     		.2byte	0x5a8
 2097 0b03 98070000 		.4byte	0x798
 2098 0b07 01040000 		.4byte	.LLST28
 2099 0b0b 17       		.uleb128 0x17
 2100 0b0c 53000000 		.4byte	.LASF127
 2101 0b10 01       		.byte	0x1
 2102 0b11 AA05     		.2byte	0x5aa
 2103 0b13 83000000 		.4byte	0x83
 2104 0b17 22040000 		.4byte	.LLST29
 2105 0b1b 17       		.uleb128 0x17
 2106 0b1c F9050000 		.4byte	.LASF128
 2107 0b20 01       		.byte	0x1
 2108 0b21 AB05     		.2byte	0x5ab
 2109 0b23 83000000 		.4byte	0x83
 2110 0b27 6C040000 		.4byte	.LLST30
 2111 0b2b 17       		.uleb128 0x17
 2112 0b2c 93010000 		.4byte	.LASF129
 2113 0b30 01       		.byte	0x1
 2114 0b31 AC05     		.2byte	0x5ac
 2115 0b33 83000000 		.4byte	0x83
 2116 0b37 8B040000 		.4byte	.LLST31
 2117 0b3b 17       		.uleb128 0x17
 2118 0b3c 6E050000 		.4byte	.LASF130
 2119 0b40 01       		.byte	0x1
 2120 0b41 AD05     		.2byte	0x5ad
 2121 0b43 83000000 		.4byte	0x83
 2122 0b47 A9040000 		.4byte	.LLST32
 2123 0b4b 17       		.uleb128 0x17
 2124 0b4c 89010000 		.4byte	.LASF119
 2125 0b50 01       		.byte	0x1
 2126 0b51 AE05     		.2byte	0x5ae
 2127 0b53 1D060000 		.4byte	0x61d
 2128 0b57 C7040000 		.4byte	.LLST33
 2129 0b5b 17       		.uleb128 0x17
 2130 0b5c EE050000 		.4byte	.LASF106
 2131 0b60 01       		.byte	0x1
 2132 0b61 AF05     		.2byte	0x5af
 2133 0b63 92070000 		.4byte	0x792
 2134 0b67 DA040000 		.4byte	.LLST34
ARM GAS  C:\Users\MICHAE~1.MAC\AppData\Local\Temp\ccOp1ZUS.s 			page 66


 2135 0b6b 1B       		.uleb128 0x1b
 2136 0b6c 82070000 		.4byte	.LASF131
 2137 0b70 01       		.byte	0x1
 2138 0b71 B005     		.2byte	0x5b0
 2139 0b73 23060000 		.4byte	0x623
 2140 0b77 01       		.uleb128 0x1
 2141 0b78 53       		.byte	0x53
 2142 0b79 00       		.byte	0
 2143 0b7a 16       		.uleb128 0x16
 2144 0b7b 18050000 		.4byte	.LASF132
 2145 0b7f 01       		.byte	0x1
 2146 0b80 DE04     		.2byte	0x4de
 2147 0b82 00000000 		.4byte	.LFB4
 2148 0b86 58000000 		.4byte	.LFE4-.LFB4
 2149 0b8a 01       		.uleb128 0x1
 2150 0b8b 9C       		.byte	0x9c
 2151 0b8c 1B0C0000 		.4byte	0xc1b
 2152 0b90 1A       		.uleb128 0x1a
 2153 0b91 6F090000 		.4byte	.LASF133
 2154 0b95 01       		.byte	0x1
 2155 0b96 DE04     		.2byte	0x4de
 2156 0b98 83000000 		.4byte	0x83
 2157 0b9c ED040000 		.4byte	.LLST35
 2158 0ba0 1A       		.uleb128 0x1a
 2159 0ba1 37080000 		.4byte	.LASF107
 2160 0ba5 01       		.byte	0x1
 2161 0ba6 DE04     		.2byte	0x4de
 2162 0ba8 98070000 		.4byte	0x798
 2163 0bac 2F050000 		.4byte	.LLST36
 2164 0bb0 17       		.uleb128 0x17
 2165 0bb1 3C050000 		.4byte	.LASF134
 2166 0bb5 01       		.byte	0x1
 2167 0bb6 E004     		.2byte	0x4e0
 2168 0bb8 83000000 		.4byte	0x83
 2169 0bbc 69050000 		.4byte	.LLST37
 2170 0bc0 17       		.uleb128 0x17
 2171 0bc1 A5050000 		.4byte	.LASF135
 2172 0bc5 01       		.byte	0x1
 2173 0bc6 E104     		.2byte	0x4e1
 2174 0bc8 83000000 		.4byte	0x83
 2175 0bcc 92050000 		.4byte	.LLST38
 2176 0bd0 17       		.uleb128 0x17
 2177 0bd1 1F080000 		.4byte	.LASF136
 2178 0bd5 01       		.byte	0x1
 2179 0bd6 E204     		.2byte	0x4e2
 2180 0bd8 83000000 		.4byte	0x83
 2181 0bdc EA050000 		.4byte	.LLST39
 2182 0be0 17       		.uleb128 0x17
 2183 0be1 F0080000 		.4byte	.LASF105
 2184 0be5 01       		.byte	0x1
 2185 0be6 E304     		.2byte	0x4e3
 2186 0be8 CB010000 		.4byte	0x1cb
 2187 0bec 1E060000 		.4byte	.LLST40
 2188 0bf0 20       		.uleb128 0x20
 2189 0bf1 16000000 		.4byte	.LVL111
 2190 0bf5 D10A0000 		.4byte	0xad1
 2191 0bf9 0B0C0000 		.4byte	0xc0b
ARM GAS  C:\Users\MICHAE~1.MAC\AppData\Local\Temp\ccOp1ZUS.s 			page 67


 2192 0bfd 1D       		.uleb128 0x1d
 2193 0bfe 01       		.uleb128 0x1
 2194 0bff 50       		.byte	0x50
 2195 0c00 02       		.uleb128 0x2
 2196 0c01 75       		.byte	0x75
 2197 0c02 00       		.sleb128 0
 2198 0c03 1D       		.uleb128 0x1d
 2199 0c04 01       		.uleb128 0x1
 2200 0c05 51       		.byte	0x51
 2201 0c06 03       		.uleb128 0x3
 2202 0c07 F3       		.byte	0xf3
 2203 0c08 01       		.uleb128 0x1
 2204 0c09 51       		.byte	0x51
 2205 0c0a 00       		.byte	0
 2206 0c0b 1C       		.uleb128 0x1c
 2207 0c0c 20000000 		.4byte	.LVL115
 2208 0c10 6F0C0000 		.4byte	0xc6f
 2209 0c14 1D       		.uleb128 0x1d
 2210 0c15 01       		.uleb128 0x1
 2211 0c16 50       		.byte	0x50
 2212 0c17 01       		.uleb128 0x1
 2213 0c18 30       		.byte	0x30
 2214 0c19 00       		.byte	0
 2215 0c1a 00       		.byte	0
 2216 0c1b 21       		.uleb128 0x21
 2217 0c1c D1050000 		.4byte	.LASF137
 2218 0c20 06       		.byte	0x6
 2219 0c21 5304     		.2byte	0x453
 2220 0c23 7E050000 		.4byte	0x57e
 2221 0c27 21       		.uleb128 0x21
 2222 0c28 20070000 		.4byte	.LASF138
 2223 0c2c 06       		.byte	0x6
 2224 0c2d 5404     		.2byte	0x454
 2225 0c2f 330C0000 		.4byte	0xc33
 2226 0c33 19       		.uleb128 0x19
 2227 0c34 62060000 		.4byte	0x662
 2228 0c38 22       		.uleb128 0x22
 2229 0c39 FD040000 		.4byte	.LASF139
 2230 0c3d FD040000 		.4byte	.LASF139
 2231 0c41 07       		.byte	0x7
 2232 0c42 19       		.byte	0x19
 2233 0c43 22       		.uleb128 0x22
 2234 0c44 51010000 		.4byte	.LASF140
 2235 0c48 51010000 		.4byte	.LASF140
 2236 0c4c 05       		.byte	0x5
 2237 0c4d B3       		.byte	0xb3
 2238 0c4e 22       		.uleb128 0x22
 2239 0c4f CA060000 		.4byte	.LASF141
 2240 0c53 CA060000 		.4byte	.LASF141
 2241 0c57 08       		.byte	0x8
 2242 0c58 85       		.byte	0x85
 2243 0c59 22       		.uleb128 0x22
 2244 0c5a 35040000 		.4byte	.LASF142
 2245 0c5e 35040000 		.4byte	.LASF142
 2246 0c62 05       		.byte	0x5
 2247 0c63 BC       		.byte	0xbc
 2248 0c64 22       		.uleb128 0x22
ARM GAS  C:\Users\MICHAE~1.MAC\AppData\Local\Temp\ccOp1ZUS.s 			page 68


 2249 0c65 6D010000 		.4byte	.LASF143
 2250 0c69 6D010000 		.4byte	.LASF143
 2251 0c6d 08       		.byte	0x8
 2252 0c6e 72       		.byte	0x72
 2253 0c6f 22       		.uleb128 0x22
 2254 0c70 C8000000 		.4byte	.LASF144
 2255 0c74 C8000000 		.4byte	.LASF144
 2256 0c78 09       		.byte	0x9
 2257 0c79 E7       		.byte	0xe7
 2258 0c7a 00       		.byte	0
 2259              		.section	.debug_abbrev,"",%progbits
 2260              	.Ldebug_abbrev0:
 2261 0000 01       		.uleb128 0x1
 2262 0001 11       		.uleb128 0x11
 2263 0002 01       		.byte	0x1
 2264 0003 25       		.uleb128 0x25
 2265 0004 0E       		.uleb128 0xe
 2266 0005 13       		.uleb128 0x13
 2267 0006 0B       		.uleb128 0xb
 2268 0007 03       		.uleb128 0x3
 2269 0008 0E       		.uleb128 0xe
 2270 0009 1B       		.uleb128 0x1b
 2271 000a 0E       		.uleb128 0xe
 2272 000b 55       		.uleb128 0x55
 2273 000c 17       		.uleb128 0x17
 2274 000d 11       		.uleb128 0x11
 2275 000e 01       		.uleb128 0x1
 2276 000f 10       		.uleb128 0x10
 2277 0010 17       		.uleb128 0x17
 2278 0011 00       		.byte	0
 2279 0012 00       		.byte	0
 2280 0013 02       		.uleb128 0x2
 2281 0014 24       		.uleb128 0x24
 2282 0015 00       		.byte	0
 2283 0016 0B       		.uleb128 0xb
 2284 0017 0B       		.uleb128 0xb
 2285 0018 3E       		.uleb128 0x3e
 2286 0019 0B       		.uleb128 0xb
 2287 001a 03       		.uleb128 0x3
 2288 001b 0E       		.uleb128 0xe
 2289 001c 00       		.byte	0
 2290 001d 00       		.byte	0
 2291 001e 03       		.uleb128 0x3
 2292 001f 24       		.uleb128 0x24
 2293 0020 00       		.byte	0
 2294 0021 0B       		.uleb128 0xb
 2295 0022 0B       		.uleb128 0xb
 2296 0023 3E       		.uleb128 0x3e
 2297 0024 0B       		.uleb128 0xb
 2298 0025 03       		.uleb128 0x3
 2299 0026 08       		.uleb128 0x8
 2300 0027 00       		.byte	0
 2301 0028 00       		.byte	0
 2302 0029 04       		.uleb128 0x4
 2303 002a 16       		.uleb128 0x16
 2304 002b 00       		.byte	0
 2305 002c 03       		.uleb128 0x3
ARM GAS  C:\Users\MICHAE~1.MAC\AppData\Local\Temp\ccOp1ZUS.s 			page 69


 2306 002d 0E       		.uleb128 0xe
 2307 002e 3A       		.uleb128 0x3a
 2308 002f 0B       		.uleb128 0xb
 2309 0030 3B       		.uleb128 0x3b
 2310 0031 05       		.uleb128 0x5
 2311 0032 49       		.uleb128 0x49
 2312 0033 13       		.uleb128 0x13
 2313 0034 00       		.byte	0
 2314 0035 00       		.byte	0
 2315 0036 05       		.uleb128 0x5
 2316 0037 35       		.uleb128 0x35
 2317 0038 00       		.byte	0
 2318 0039 49       		.uleb128 0x49
 2319 003a 13       		.uleb128 0x13
 2320 003b 00       		.byte	0
 2321 003c 00       		.byte	0
 2322 003d 06       		.uleb128 0x6
 2323 003e 16       		.uleb128 0x16
 2324 003f 00       		.byte	0
 2325 0040 03       		.uleb128 0x3
 2326 0041 0E       		.uleb128 0xe
 2327 0042 3A       		.uleb128 0x3a
 2328 0043 0B       		.uleb128 0xb
 2329 0044 3B       		.uleb128 0x3b
 2330 0045 0B       		.uleb128 0xb
 2331 0046 49       		.uleb128 0x49
 2332 0047 13       		.uleb128 0x13
 2333 0048 00       		.byte	0
 2334 0049 00       		.byte	0
 2335 004a 07       		.uleb128 0x7
 2336 004b 0F       		.uleb128 0xf
 2337 004c 00       		.byte	0
 2338 004d 0B       		.uleb128 0xb
 2339 004e 0B       		.uleb128 0xb
 2340 004f 00       		.byte	0
 2341 0050 00       		.byte	0
 2342 0051 08       		.uleb128 0x8
 2343 0052 13       		.uleb128 0x13
 2344 0053 01       		.byte	0x1
 2345 0054 0B       		.uleb128 0xb
 2346 0055 0B       		.uleb128 0xb
 2347 0056 3A       		.uleb128 0x3a
 2348 0057 0B       		.uleb128 0xb
 2349 0058 3B       		.uleb128 0x3b
 2350 0059 0B       		.uleb128 0xb
 2351 005a 01       		.uleb128 0x1
 2352 005b 13       		.uleb128 0x13
 2353 005c 00       		.byte	0
 2354 005d 00       		.byte	0
 2355 005e 09       		.uleb128 0x9
 2356 005f 0D       		.uleb128 0xd
 2357 0060 00       		.byte	0
 2358 0061 03       		.uleb128 0x3
 2359 0062 0E       		.uleb128 0xe
 2360 0063 3A       		.uleb128 0x3a
 2361 0064 0B       		.uleb128 0xb
 2362 0065 3B       		.uleb128 0x3b
ARM GAS  C:\Users\MICHAE~1.MAC\AppData\Local\Temp\ccOp1ZUS.s 			page 70


 2363 0066 0B       		.uleb128 0xb
 2364 0067 49       		.uleb128 0x49
 2365 0068 13       		.uleb128 0x13
 2366 0069 38       		.uleb128 0x38
 2367 006a 0B       		.uleb128 0xb
 2368 006b 00       		.byte	0
 2369 006c 00       		.byte	0
 2370 006d 0A       		.uleb128 0xa
 2371 006e 04       		.uleb128 0x4
 2372 006f 01       		.byte	0x1
 2373 0070 0B       		.uleb128 0xb
 2374 0071 0B       		.uleb128 0xb
 2375 0072 49       		.uleb128 0x49
 2376 0073 13       		.uleb128 0x13
 2377 0074 3A       		.uleb128 0x3a
 2378 0075 0B       		.uleb128 0xb
 2379 0076 3B       		.uleb128 0x3b
 2380 0077 0B       		.uleb128 0xb
 2381 0078 01       		.uleb128 0x1
 2382 0079 13       		.uleb128 0x13
 2383 007a 00       		.byte	0
 2384 007b 00       		.byte	0
 2385 007c 0B       		.uleb128 0xb
 2386 007d 28       		.uleb128 0x28
 2387 007e 00       		.byte	0
 2388 007f 03       		.uleb128 0x3
 2389 0080 0E       		.uleb128 0xe
 2390 0081 1C       		.uleb128 0x1c
 2391 0082 0B       		.uleb128 0xb
 2392 0083 00       		.byte	0
 2393 0084 00       		.byte	0
 2394 0085 0C       		.uleb128 0xc
 2395 0086 01       		.uleb128 0x1
 2396 0087 01       		.byte	0x1
 2397 0088 49       		.uleb128 0x49
 2398 0089 13       		.uleb128 0x13
 2399 008a 01       		.uleb128 0x1
 2400 008b 13       		.uleb128 0x13
 2401 008c 00       		.byte	0
 2402 008d 00       		.byte	0
 2403 008e 0D       		.uleb128 0xd
 2404 008f 21       		.uleb128 0x21
 2405 0090 00       		.byte	0
 2406 0091 49       		.uleb128 0x49
 2407 0092 13       		.uleb128 0x13
 2408 0093 2F       		.uleb128 0x2f
 2409 0094 0B       		.uleb128 0xb
 2410 0095 00       		.byte	0
 2411 0096 00       		.byte	0
 2412 0097 0E       		.uleb128 0xe
 2413 0098 0D       		.uleb128 0xd
 2414 0099 00       		.byte	0
 2415 009a 03       		.uleb128 0x3
 2416 009b 0E       		.uleb128 0xe
 2417 009c 3A       		.uleb128 0x3a
 2418 009d 0B       		.uleb128 0xb
 2419 009e 3B       		.uleb128 0x3b
ARM GAS  C:\Users\MICHAE~1.MAC\AppData\Local\Temp\ccOp1ZUS.s 			page 71


 2420 009f 05       		.uleb128 0x5
 2421 00a0 49       		.uleb128 0x49
 2422 00a1 13       		.uleb128 0x13
 2423 00a2 38       		.uleb128 0x38
 2424 00a3 0B       		.uleb128 0xb
 2425 00a4 00       		.byte	0
 2426 00a5 00       		.byte	0
 2427 00a6 0F       		.uleb128 0xf
 2428 00a7 13       		.uleb128 0x13
 2429 00a8 01       		.byte	0x1
 2430 00a9 0B       		.uleb128 0xb
 2431 00aa 0B       		.uleb128 0xb
 2432 00ab 3A       		.uleb128 0x3a
 2433 00ac 0B       		.uleb128 0xb
 2434 00ad 3B       		.uleb128 0x3b
 2435 00ae 05       		.uleb128 0x5
 2436 00af 01       		.uleb128 0x1
 2437 00b0 13       		.uleb128 0x13
 2438 00b1 00       		.byte	0
 2439 00b2 00       		.byte	0
 2440 00b3 10       		.uleb128 0x10
 2441 00b4 0D       		.uleb128 0xd
 2442 00b5 00       		.byte	0
 2443 00b6 03       		.uleb128 0x3
 2444 00b7 08       		.uleb128 0x8
 2445 00b8 3A       		.uleb128 0x3a
 2446 00b9 0B       		.uleb128 0xb
 2447 00ba 3B       		.uleb128 0x3b
 2448 00bb 05       		.uleb128 0x5
 2449 00bc 49       		.uleb128 0x49
 2450 00bd 13       		.uleb128 0x13
 2451 00be 38       		.uleb128 0x38
 2452 00bf 0B       		.uleb128 0xb
 2453 00c0 00       		.byte	0
 2454 00c1 00       		.byte	0
 2455 00c2 11       		.uleb128 0x11
 2456 00c3 0F       		.uleb128 0xf
 2457 00c4 00       		.byte	0
 2458 00c5 0B       		.uleb128 0xb
 2459 00c6 0B       		.uleb128 0xb
 2460 00c7 49       		.uleb128 0x49
 2461 00c8 13       		.uleb128 0x13
 2462 00c9 00       		.byte	0
 2463 00ca 00       		.byte	0
 2464 00cb 12       		.uleb128 0x12
 2465 00cc 26       		.uleb128 0x26
 2466 00cd 00       		.byte	0
 2467 00ce 00       		.byte	0
 2468 00cf 00       		.byte	0
 2469 00d0 13       		.uleb128 0x13
 2470 00d1 17       		.uleb128 0x17
 2471 00d2 01       		.byte	0x1
 2472 00d3 0B       		.uleb128 0xb
 2473 00d4 0B       		.uleb128 0xb
 2474 00d5 3A       		.uleb128 0x3a
 2475 00d6 0B       		.uleb128 0xb
 2476 00d7 3B       		.uleb128 0x3b
ARM GAS  C:\Users\MICHAE~1.MAC\AppData\Local\Temp\ccOp1ZUS.s 			page 72


 2477 00d8 05       		.uleb128 0x5
 2478 00d9 01       		.uleb128 0x1
 2479 00da 13       		.uleb128 0x13
 2480 00db 00       		.byte	0
 2481 00dc 00       		.byte	0
 2482 00dd 14       		.uleb128 0x14
 2483 00de 0D       		.uleb128 0xd
 2484 00df 00       		.byte	0
 2485 00e0 03       		.uleb128 0x3
 2486 00e1 08       		.uleb128 0x8
 2487 00e2 3A       		.uleb128 0x3a
 2488 00e3 0B       		.uleb128 0xb
 2489 00e4 3B       		.uleb128 0x3b
 2490 00e5 05       		.uleb128 0x5
 2491 00e6 49       		.uleb128 0x49
 2492 00e7 13       		.uleb128 0x13
 2493 00e8 00       		.byte	0
 2494 00e9 00       		.byte	0
 2495 00ea 15       		.uleb128 0x15
 2496 00eb 0D       		.uleb128 0xd
 2497 00ec 00       		.byte	0
 2498 00ed 03       		.uleb128 0x3
 2499 00ee 0E       		.uleb128 0xe
 2500 00ef 3A       		.uleb128 0x3a
 2501 00f0 0B       		.uleb128 0xb
 2502 00f1 3B       		.uleb128 0x3b
 2503 00f2 05       		.uleb128 0x5
 2504 00f3 49       		.uleb128 0x49
 2505 00f4 13       		.uleb128 0x13
 2506 00f5 00       		.byte	0
 2507 00f6 00       		.byte	0
 2508 00f7 16       		.uleb128 0x16
 2509 00f8 2E       		.uleb128 0x2e
 2510 00f9 01       		.byte	0x1
 2511 00fa 3F       		.uleb128 0x3f
 2512 00fb 19       		.uleb128 0x19
 2513 00fc 03       		.uleb128 0x3
 2514 00fd 0E       		.uleb128 0xe
 2515 00fe 3A       		.uleb128 0x3a
 2516 00ff 0B       		.uleb128 0xb
 2517 0100 3B       		.uleb128 0x3b
 2518 0101 05       		.uleb128 0x5
 2519 0102 27       		.uleb128 0x27
 2520 0103 19       		.uleb128 0x19
 2521 0104 11       		.uleb128 0x11
 2522 0105 01       		.uleb128 0x1
 2523 0106 12       		.uleb128 0x12
 2524 0107 06       		.uleb128 0x6
 2525 0108 40       		.uleb128 0x40
 2526 0109 18       		.uleb128 0x18
 2527 010a 9742     		.uleb128 0x2117
 2528 010c 19       		.uleb128 0x19
 2529 010d 01       		.uleb128 0x1
 2530 010e 13       		.uleb128 0x13
 2531 010f 00       		.byte	0
 2532 0110 00       		.byte	0
 2533 0111 17       		.uleb128 0x17
ARM GAS  C:\Users\MICHAE~1.MAC\AppData\Local\Temp\ccOp1ZUS.s 			page 73


 2534 0112 34       		.uleb128 0x34
 2535 0113 00       		.byte	0
 2536 0114 03       		.uleb128 0x3
 2537 0115 0E       		.uleb128 0xe
 2538 0116 3A       		.uleb128 0x3a
 2539 0117 0B       		.uleb128 0xb
 2540 0118 3B       		.uleb128 0x3b
 2541 0119 05       		.uleb128 0x5
 2542 011a 49       		.uleb128 0x49
 2543 011b 13       		.uleb128 0x13
 2544 011c 02       		.uleb128 0x2
 2545 011d 17       		.uleb128 0x17
 2546 011e 00       		.byte	0
 2547 011f 00       		.byte	0
 2548 0120 18       		.uleb128 0x18
 2549 0121 898201   		.uleb128 0x4109
 2550 0124 00       		.byte	0
 2551 0125 11       		.uleb128 0x11
 2552 0126 01       		.uleb128 0x1
 2553 0127 31       		.uleb128 0x31
 2554 0128 13       		.uleb128 0x13
 2555 0129 00       		.byte	0
 2556 012a 00       		.byte	0
 2557 012b 19       		.uleb128 0x19
 2558 012c 26       		.uleb128 0x26
 2559 012d 00       		.byte	0
 2560 012e 49       		.uleb128 0x49
 2561 012f 13       		.uleb128 0x13
 2562 0130 00       		.byte	0
 2563 0131 00       		.byte	0
 2564 0132 1A       		.uleb128 0x1a
 2565 0133 05       		.uleb128 0x5
 2566 0134 00       		.byte	0
 2567 0135 03       		.uleb128 0x3
 2568 0136 0E       		.uleb128 0xe
 2569 0137 3A       		.uleb128 0x3a
 2570 0138 0B       		.uleb128 0xb
 2571 0139 3B       		.uleb128 0x3b
 2572 013a 05       		.uleb128 0x5
 2573 013b 49       		.uleb128 0x49
 2574 013c 13       		.uleb128 0x13
 2575 013d 02       		.uleb128 0x2
 2576 013e 17       		.uleb128 0x17
 2577 013f 00       		.byte	0
 2578 0140 00       		.byte	0
 2579 0141 1B       		.uleb128 0x1b
 2580 0142 34       		.uleb128 0x34
 2581 0143 00       		.byte	0
 2582 0144 03       		.uleb128 0x3
 2583 0145 0E       		.uleb128 0xe
 2584 0146 3A       		.uleb128 0x3a
 2585 0147 0B       		.uleb128 0xb
 2586 0148 3B       		.uleb128 0x3b
 2587 0149 05       		.uleb128 0x5
 2588 014a 49       		.uleb128 0x49
 2589 014b 13       		.uleb128 0x13
 2590 014c 02       		.uleb128 0x2
ARM GAS  C:\Users\MICHAE~1.MAC\AppData\Local\Temp\ccOp1ZUS.s 			page 74


 2591 014d 18       		.uleb128 0x18
 2592 014e 00       		.byte	0
 2593 014f 00       		.byte	0
 2594 0150 1C       		.uleb128 0x1c
 2595 0151 898201   		.uleb128 0x4109
 2596 0154 01       		.byte	0x1
 2597 0155 11       		.uleb128 0x11
 2598 0156 01       		.uleb128 0x1
 2599 0157 31       		.uleb128 0x31
 2600 0158 13       		.uleb128 0x13
 2601 0159 00       		.byte	0
 2602 015a 00       		.byte	0
 2603 015b 1D       		.uleb128 0x1d
 2604 015c 8A8201   		.uleb128 0x410a
 2605 015f 00       		.byte	0
 2606 0160 02       		.uleb128 0x2
 2607 0161 18       		.uleb128 0x18
 2608 0162 9142     		.uleb128 0x2111
 2609 0164 18       		.uleb128 0x18
 2610 0165 00       		.byte	0
 2611 0166 00       		.byte	0
 2612 0167 1E       		.uleb128 0x1e
 2613 0168 05       		.uleb128 0x5
 2614 0169 00       		.byte	0
 2615 016a 03       		.uleb128 0x3
 2616 016b 0E       		.uleb128 0xe
 2617 016c 3A       		.uleb128 0x3a
 2618 016d 0B       		.uleb128 0xb
 2619 016e 3B       		.uleb128 0x3b
 2620 016f 05       		.uleb128 0x5
 2621 0170 49       		.uleb128 0x49
 2622 0171 13       		.uleb128 0x13
 2623 0172 02       		.uleb128 0x2
 2624 0173 18       		.uleb128 0x18
 2625 0174 00       		.byte	0
 2626 0175 00       		.byte	0
 2627 0176 1F       		.uleb128 0x1f
 2628 0177 2E       		.uleb128 0x2e
 2629 0178 01       		.byte	0x1
 2630 0179 3F       		.uleb128 0x3f
 2631 017a 19       		.uleb128 0x19
 2632 017b 03       		.uleb128 0x3
 2633 017c 0E       		.uleb128 0xe
 2634 017d 3A       		.uleb128 0x3a
 2635 017e 0B       		.uleb128 0xb
 2636 017f 3B       		.uleb128 0x3b
 2637 0180 05       		.uleb128 0x5
 2638 0181 27       		.uleb128 0x27
 2639 0182 19       		.uleb128 0x19
 2640 0183 49       		.uleb128 0x49
 2641 0184 13       		.uleb128 0x13
 2642 0185 11       		.uleb128 0x11
 2643 0186 01       		.uleb128 0x1
 2644 0187 12       		.uleb128 0x12
 2645 0188 06       		.uleb128 0x6
 2646 0189 40       		.uleb128 0x40
 2647 018a 18       		.uleb128 0x18
ARM GAS  C:\Users\MICHAE~1.MAC\AppData\Local\Temp\ccOp1ZUS.s 			page 75


 2648 018b 9742     		.uleb128 0x2117
 2649 018d 19       		.uleb128 0x19
 2650 018e 01       		.uleb128 0x1
 2651 018f 13       		.uleb128 0x13
 2652 0190 00       		.byte	0
 2653 0191 00       		.byte	0
 2654 0192 20       		.uleb128 0x20
 2655 0193 898201   		.uleb128 0x4109
 2656 0196 01       		.byte	0x1
 2657 0197 11       		.uleb128 0x11
 2658 0198 01       		.uleb128 0x1
 2659 0199 31       		.uleb128 0x31
 2660 019a 13       		.uleb128 0x13
 2661 019b 01       		.uleb128 0x1
 2662 019c 13       		.uleb128 0x13
 2663 019d 00       		.byte	0
 2664 019e 00       		.byte	0
 2665 019f 21       		.uleb128 0x21
 2666 01a0 34       		.uleb128 0x34
 2667 01a1 00       		.byte	0
 2668 01a2 03       		.uleb128 0x3
 2669 01a3 0E       		.uleb128 0xe
 2670 01a4 3A       		.uleb128 0x3a
 2671 01a5 0B       		.uleb128 0xb
 2672 01a6 3B       		.uleb128 0x3b
 2673 01a7 05       		.uleb128 0x5
 2674 01a8 49       		.uleb128 0x49
 2675 01a9 13       		.uleb128 0x13
 2676 01aa 3F       		.uleb128 0x3f
 2677 01ab 19       		.uleb128 0x19
 2678 01ac 3C       		.uleb128 0x3c
 2679 01ad 19       		.uleb128 0x19
 2680 01ae 00       		.byte	0
 2681 01af 00       		.byte	0
 2682 01b0 22       		.uleb128 0x22
 2683 01b1 2E       		.uleb128 0x2e
 2684 01b2 00       		.byte	0
 2685 01b3 3F       		.uleb128 0x3f
 2686 01b4 19       		.uleb128 0x19
 2687 01b5 3C       		.uleb128 0x3c
 2688 01b6 19       		.uleb128 0x19
 2689 01b7 6E       		.uleb128 0x6e
 2690 01b8 0E       		.uleb128 0xe
 2691 01b9 03       		.uleb128 0x3
 2692 01ba 0E       		.uleb128 0xe
 2693 01bb 3A       		.uleb128 0x3a
 2694 01bc 0B       		.uleb128 0xb
 2695 01bd 3B       		.uleb128 0x3b
 2696 01be 0B       		.uleb128 0xb
 2697 01bf 00       		.byte	0
 2698 01c0 00       		.byte	0
 2699 01c1 00       		.byte	0
 2700              		.section	.debug_loc,"",%progbits
 2701              	.Ldebug_loc0:
 2702              	.LLST0:
 2703 0000 02000000 		.4byte	.LVL0
 2704 0004 06000000 		.4byte	.LVL1
ARM GAS  C:\Users\MICHAE~1.MAC\AppData\Local\Temp\ccOp1ZUS.s 			page 76


 2705 0008 0200     		.2byte	0x2
 2706 000a 30       		.byte	0x30
 2707 000b 9F       		.byte	0x9f
 2708 000c 06000000 		.4byte	.LVL1
 2709 0010 22000000 		.4byte	.LVL3
 2710 0014 0100     		.2byte	0x1
 2711 0016 53       		.byte	0x53
 2712 0017 24000000 		.4byte	.LVL4
 2713 001b 46000000 		.4byte	.LVL10
 2714 001f 0100     		.2byte	0x1
 2715 0021 55       		.byte	0x55
 2716 0022 46000000 		.4byte	.LVL10
 2717 0026 48000000 		.4byte	.LVL11
 2718 002a 0100     		.2byte	0x1
 2719 002c 53       		.byte	0x53
 2720 002d 48000000 		.4byte	.LVL11
 2721 0031 4C000000 		.4byte	.LVL13
 2722 0035 0100     		.2byte	0x1
 2723 0037 55       		.byte	0x55
 2724 0038 4C000000 		.4byte	.LVL13
 2725 003c 58000000 		.4byte	.LFE1
 2726 0040 0300     		.2byte	0x3
 2727 0042 73       		.byte	0x73
 2728 0043 7F       		.sleb128 -1
 2729 0044 9F       		.byte	0x9f
 2730 0045 00000000 		.4byte	0
 2731 0049 00000000 		.4byte	0
 2732              	.LLST1:
 2733 004d 28000000 		.4byte	.LVL6
 2734 0051 3E000000 		.4byte	.LVL7
 2735 0055 0100     		.2byte	0x1
 2736 0057 52       		.byte	0x52
 2737 0058 00000000 		.4byte	0
 2738 005c 00000000 		.4byte	0
 2739              	.LLST2:
 2740 0060 26000000 		.4byte	.LVL5
 2741 0064 46000000 		.4byte	.LVL10
 2742 0068 0100     		.2byte	0x1
 2743 006a 56       		.byte	0x56
 2744 006b 00000000 		.4byte	0
 2745 006f 00000000 		.4byte	0
 2746              	.LLST3:
 2747 0073 24000000 		.4byte	.LVL4
 2748 0077 4C000000 		.4byte	.LVL12
 2749 007b 0100     		.2byte	0x1
 2750 007d 54       		.byte	0x54
 2751 007e 00000000 		.4byte	0
 2752 0082 00000000 		.4byte	0
 2753              	.LLST4:
 2754 0086 00000000 		.4byte	.LVL14
 2755 008a 08000000 		.4byte	.LVL15
 2756 008e 0100     		.2byte	0x1
 2757 0090 50       		.byte	0x50
 2758 0091 08000000 		.4byte	.LVL15
 2759 0095 30000000 		.4byte	.LVL21
 2760 0099 0100     		.2byte	0x1
 2761 009b 54       		.byte	0x54
ARM GAS  C:\Users\MICHAE~1.MAC\AppData\Local\Temp\ccOp1ZUS.s 			page 77


 2762 009c 30000000 		.4byte	.LVL21
 2763 00a0 32000000 		.4byte	.LFE5
 2764 00a4 0400     		.2byte	0x4
 2765 00a6 F3       		.byte	0xf3
 2766 00a7 01       		.uleb128 0x1
 2767 00a8 50       		.byte	0x50
 2768 00a9 9F       		.byte	0x9f
 2769 00aa 00000000 		.4byte	0
 2770 00ae 00000000 		.4byte	0
 2771              	.LLST5:
 2772 00b2 00000000 		.4byte	.LVL14
 2773 00b6 0E000000 		.4byte	.LVL18
 2774 00ba 0100     		.2byte	0x1
 2775 00bc 51       		.byte	0x51
 2776 00bd 0E000000 		.4byte	.LVL18
 2777 00c1 15000000 		.4byte	.LVL19-1
 2778 00c5 0100     		.2byte	0x1
 2779 00c7 50       		.byte	0x50
 2780 00c8 15000000 		.4byte	.LVL19-1
 2781 00cc 32000000 		.4byte	.LFE5
 2782 00d0 0400     		.2byte	0x4
 2783 00d2 F3       		.byte	0xf3
 2784 00d3 01       		.uleb128 0x1
 2785 00d4 51       		.byte	0x51
 2786 00d5 9F       		.byte	0x9f
 2787 00d6 00000000 		.4byte	0
 2788 00da 00000000 		.4byte	0
 2789              	.LLST6:
 2790 00de 00000000 		.4byte	.LVL14
 2791 00e2 0C000000 		.4byte	.LVL17
 2792 00e6 0100     		.2byte	0x1
 2793 00e8 52       		.byte	0x52
 2794 00e9 0C000000 		.4byte	.LVL17
 2795 00ed 15000000 		.4byte	.LVL19-1
 2796 00f1 0100     		.2byte	0x1
 2797 00f3 53       		.byte	0x53
 2798 00f4 15000000 		.4byte	.LVL19-1
 2799 00f8 32000000 		.4byte	.LFE5
 2800 00fc 0400     		.2byte	0x4
 2801 00fe F3       		.byte	0xf3
 2802 00ff 01       		.uleb128 0x1
 2803 0100 52       		.byte	0x52
 2804 0101 9F       		.byte	0x9f
 2805 0102 00000000 		.4byte	0
 2806 0106 00000000 		.4byte	0
 2807              	.LLST7:
 2808 010a 0A000000 		.4byte	.LVL16
 2809 010e 30000000 		.4byte	.LVL20
 2810 0112 0100     		.2byte	0x1
 2811 0114 5D       		.byte	0x5d
 2812 0115 30000000 		.4byte	.LVL20
 2813 0119 32000000 		.4byte	.LFE5
 2814 011d 0300     		.2byte	0x3
 2815 011f 91       		.byte	0x91
 2816 0120 70       		.sleb128 -16
 2817 0121 9F       		.byte	0x9f
 2818 0122 00000000 		.4byte	0
ARM GAS  C:\Users\MICHAE~1.MAC\AppData\Local\Temp\ccOp1ZUS.s 			page 78


 2819 0126 00000000 		.4byte	0
 2820              	.LLST8:
 2821 012a 00000000 		.4byte	.LVL22
 2822 012e 0E000000 		.4byte	.LVL25
 2823 0132 0100     		.2byte	0x1
 2824 0134 50       		.byte	0x50
 2825 0135 0E000000 		.4byte	.LVL25
 2826 0139 16000000 		.4byte	.LFE6
 2827 013d 0400     		.2byte	0x4
 2828 013f F3       		.byte	0xf3
 2829 0140 01       		.uleb128 0x1
 2830 0141 50       		.byte	0x50
 2831 0142 9F       		.byte	0x9f
 2832 0143 00000000 		.4byte	0
 2833 0147 00000000 		.4byte	0
 2834              	.LLST9:
 2835 014b 02000000 		.4byte	.LVL23
 2836 014f 08000000 		.4byte	.LVL24
 2837 0153 0200     		.2byte	0x2
 2838 0155 30       		.byte	0x30
 2839 0156 9F       		.byte	0x9f
 2840 0157 08000000 		.4byte	.LVL24
 2841 015b 14000000 		.4byte	.LVL26
 2842 015f 0100     		.2byte	0x1
 2843 0161 54       		.byte	0x54
 2844 0162 14000000 		.4byte	.LVL26
 2845 0166 16000000 		.4byte	.LFE6
 2846 016a 0600     		.2byte	0x6
 2847 016c 73       		.byte	0x73
 2848 016d 00       		.sleb128 0
 2849 016e 72       		.byte	0x72
 2850 016f 00       		.sleb128 0
 2851 0170 1C       		.byte	0x1c
 2852 0171 9F       		.byte	0x9f
 2853 0172 00000000 		.4byte	0
 2854 0176 00000000 		.4byte	0
 2855              	.LLST10:
 2856 017a 00000000 		.4byte	.LVL27
 2857 017e 36000000 		.4byte	.LVL36
 2858 0182 0100     		.2byte	0x1
 2859 0184 50       		.byte	0x50
 2860 0185 36000000 		.4byte	.LVL36
 2861 0189 86000000 		.4byte	.LVL56
 2862 018d 0100     		.2byte	0x1
 2863 018f 5A       		.byte	0x5a
 2864 0190 86000000 		.4byte	.LVL56
 2865 0194 90000000 		.4byte	.LFE2
 2866 0198 0400     		.2byte	0x4
 2867 019a F3       		.byte	0xf3
 2868 019b 01       		.uleb128 0x1
 2869 019c 50       		.byte	0x50
 2870 019d 9F       		.byte	0x9f
 2871 019e 00000000 		.4byte	0
 2872 01a2 00000000 		.4byte	0
 2873              	.LLST11:
 2874 01a6 0E000000 		.4byte	.LVL28
 2875 01aa 36000000 		.4byte	.LVL36
ARM GAS  C:\Users\MICHAE~1.MAC\AppData\Local\Temp\ccOp1ZUS.s 			page 79


 2876 01ae 0200     		.2byte	0x2
 2877 01b0 30       		.byte	0x30
 2878 01b1 9F       		.byte	0x9f
 2879 01b2 36000000 		.4byte	.LVL36
 2880 01b6 62000000 		.4byte	.LVL42
 2881 01ba 0200     		.2byte	0x2
 2882 01bc 91       		.byte	0x91
 2883 01bd 5C       		.sleb128 -36
 2884 01be 62000000 		.4byte	.LVL42
 2885 01c2 66000000 		.4byte	.LVL43
 2886 01c6 0100     		.2byte	0x1
 2887 01c8 50       		.byte	0x50
 2888 01c9 66000000 		.4byte	.LVL43
 2889 01cd 90000000 		.4byte	.LFE2
 2890 01d1 0200     		.2byte	0x2
 2891 01d3 91       		.byte	0x91
 2892 01d4 5C       		.sleb128 -36
 2893 01d5 00000000 		.4byte	0
 2894 01d9 00000000 		.4byte	0
 2895              	.LLST12:
 2896 01dd 2C000000 		.4byte	.LVL34
 2897 01e1 86000000 		.4byte	.LVL50
 2898 01e5 0200     		.2byte	0x2
 2899 01e7 7D       		.byte	0x7d
 2900 01e8 00       		.sleb128 0
 2901 01e9 86000000 		.4byte	.LVL50
 2902 01ed 90000000 		.4byte	.LFE2
 2903 01f1 0200     		.2byte	0x2
 2904 01f3 91       		.byte	0x91
 2905 01f4 58       		.sleb128 -40
 2906 01f5 00000000 		.4byte	0
 2907 01f9 00000000 		.4byte	0
 2908              	.LLST13:
 2909 01fd 2E000000 		.4byte	.LVL35
 2910 0201 36000000 		.4byte	.LVL36
 2911 0205 0200     		.2byte	0x2
 2912 0207 30       		.byte	0x30
 2913 0208 9F       		.byte	0x9f
 2914 0209 36000000 		.4byte	.LVL36
 2915 020d 86000000 		.4byte	.LVL52
 2916 0211 0100     		.2byte	0x1
 2917 0213 55       		.byte	0x55
 2918 0214 00000000 		.4byte	0
 2919 0218 00000000 		.4byte	0
 2920              	.LLST14:
 2921 021c 28000000 		.4byte	.LVL32
 2922 0220 86000000 		.4byte	.LVL51
 2923 0224 0100     		.2byte	0x1
 2924 0226 54       		.byte	0x54
 2925 0227 00000000 		.4byte	0
 2926 022b 00000000 		.4byte	0
 2927              	.LLST15:
 2928 022f 2A000000 		.4byte	.LVL33
 2929 0233 86000000 		.4byte	.LVL53
 2930 0237 0100     		.2byte	0x1
 2931 0239 56       		.byte	0x56
 2932 023a 00000000 		.4byte	0
ARM GAS  C:\Users\MICHAE~1.MAC\AppData\Local\Temp\ccOp1ZUS.s 			page 80


 2933 023e 00000000 		.4byte	0
 2934              	.LLST16:
 2935 0242 2E000000 		.4byte	.LVL35
 2936 0246 86000000 		.4byte	.LVL54
 2937 024a 0100     		.2byte	0x1
 2938 024c 57       		.byte	0x57
 2939 024d 00000000 		.4byte	0
 2940 0251 00000000 		.4byte	0
 2941              	.LLST17:
 2942 0255 22000000 		.4byte	.LVL30
 2943 0259 26000000 		.4byte	.LVL31
 2944 025d 0100     		.2byte	0x1
 2945 025f 52       		.byte	0x52
 2946 0260 36000000 		.4byte	.LVL36
 2947 0264 86000000 		.4byte	.LVL55
 2948 0268 0100     		.2byte	0x1
 2949 026a 59       		.byte	0x59
 2950 026b 00000000 		.4byte	0
 2951 026f 00000000 		.4byte	0
 2952              	.LLST18:
 2953 0273 1E000000 		.4byte	.LVL29
 2954 0277 72000000 		.4byte	.LVL46
 2955 027b 0100     		.2byte	0x1
 2956 027d 5B       		.byte	0x5b
 2957 027e 72000000 		.4byte	.LVL46
 2958 0282 74000000 		.4byte	.LVL47
 2959 0286 0100     		.2byte	0x1
 2960 0288 53       		.byte	0x53
 2961 0289 74000000 		.4byte	.LVL47
 2962 028d 86000000 		.4byte	.LVL57
 2963 0291 0100     		.2byte	0x1
 2964 0293 5B       		.byte	0x5b
 2965 0294 00000000 		.4byte	0
 2966 0298 00000000 		.4byte	0
 2967              	.LLST19:
 2968 029c 00000000 		.4byte	.LVL58
 2969 02a0 18000000 		.4byte	.LVL65
 2970 02a4 0100     		.2byte	0x1
 2971 02a6 50       		.byte	0x50
 2972 02a7 18000000 		.4byte	.LVL65
 2973 02ab 60000000 		.4byte	.LFE3
 2974 02af 0400     		.2byte	0x4
 2975 02b1 F3       		.byte	0xf3
 2976 02b2 01       		.uleb128 0x1
 2977 02b3 50       		.byte	0x50
 2978 02b4 9F       		.byte	0x9f
 2979 02b5 00000000 		.4byte	0
 2980 02b9 00000000 		.4byte	0
 2981              	.LLST20:
 2982 02bd 00000000 		.4byte	.LVL58
 2983 02c1 1B000000 		.4byte	.LVL66-1
 2984 02c5 0100     		.2byte	0x1
 2985 02c7 51       		.byte	0x51
 2986 02c8 1B000000 		.4byte	.LVL66-1
 2987 02cc 5E000000 		.4byte	.LVL77
 2988 02d0 0200     		.2byte	0x2
 2989 02d2 7D       		.byte	0x7d
ARM GAS  C:\Users\MICHAE~1.MAC\AppData\Local\Temp\ccOp1ZUS.s 			page 81


 2990 02d3 00       		.sleb128 0
 2991 02d4 5E000000 		.4byte	.LVL77
 2992 02d8 60000000 		.4byte	.LFE3
 2993 02dc 0200     		.2byte	0x2
 2994 02de 91       		.byte	0x91
 2995 02df 60       		.sleb128 -32
 2996 02e0 00000000 		.4byte	0
 2997 02e4 00000000 		.4byte	0
 2998              	.LLST21:
 2999 02e8 00000000 		.4byte	.LVL58
 3000 02ec 16000000 		.4byte	.LVL64
 3001 02f0 0100     		.2byte	0x1
 3002 02f2 52       		.byte	0x52
 3003 02f3 1C000000 		.4byte	.LVL66
 3004 02f7 28000000 		.4byte	.LVL67
 3005 02fb 0100     		.2byte	0x1
 3006 02fd 52       		.byte	0x52
 3007 02fe 2C000000 		.4byte	.LVL68
 3008 0302 32000000 		.4byte	.LVL69
 3009 0306 0100     		.2byte	0x1
 3010 0308 52       		.byte	0x52
 3011 0309 3A000000 		.4byte	.LVL70
 3012 030d 40000000 		.4byte	.LVL71
 3013 0311 0100     		.2byte	0x1
 3014 0313 52       		.byte	0x52
 3015 0314 4C000000 		.4byte	.LVL74
 3016 0318 59000000 		.4byte	.LVL76-1
 3017 031c 0100     		.2byte	0x1
 3018 031e 52       		.byte	0x52
 3019 031f 5A000000 		.4byte	.LVL76
 3020 0323 60000000 		.4byte	.LFE3
 3021 0327 0100     		.2byte	0x1
 3022 0329 52       		.byte	0x52
 3023 032a 00000000 		.4byte	0
 3024 032e 00000000 		.4byte	0
 3025              	.LLST22:
 3026 0332 00000000 		.4byte	.LVL58
 3027 0336 14000000 		.4byte	.LVL63
 3028 033a 0100     		.2byte	0x1
 3029 033c 53       		.byte	0x53
 3030 033d 14000000 		.4byte	.LVL63
 3031 0341 5E000000 		.4byte	.LVL78
 3032 0345 0100     		.2byte	0x1
 3033 0347 54       		.byte	0x54
 3034 0348 5E000000 		.4byte	.LVL78
 3035 034c 60000000 		.4byte	.LFE3
 3036 0350 0400     		.2byte	0x4
 3037 0352 F3       		.byte	0xf3
 3038 0353 01       		.uleb128 0x1
 3039 0354 53       		.byte	0x53
 3040 0355 9F       		.byte	0x9f
 3041 0356 00000000 		.4byte	0
 3042 035a 00000000 		.4byte	0
 3043              	.LLST23:
 3044 035e 0A000000 		.4byte	.LVL59
 3045 0362 4A000000 		.4byte	.LVL73
 3046 0366 0200     		.2byte	0x2
ARM GAS  C:\Users\MICHAE~1.MAC\AppData\Local\Temp\ccOp1ZUS.s 			page 82


 3047 0368 30       		.byte	0x30
 3048 0369 9F       		.byte	0x9f
 3049 036a 4A000000 		.4byte	.LVL73
 3050 036e 4C000000 		.4byte	.LVL74
 3051 0372 0100     		.2byte	0x1
 3052 0374 50       		.byte	0x50
 3053 0375 4C000000 		.4byte	.LVL74
 3054 0379 4E000000 		.4byte	.LVL75
 3055 037d 0200     		.2byte	0x2
 3056 037f 30       		.byte	0x30
 3057 0380 9F       		.byte	0x9f
 3058 0381 4E000000 		.4byte	.LVL75
 3059 0385 5E000000 		.4byte	.LVL81
 3060 0389 0100     		.2byte	0x1
 3061 038b 57       		.byte	0x57
 3062 038c 5E000000 		.4byte	.LVL81
 3063 0390 60000000 		.4byte	.LFE3
 3064 0394 0100     		.2byte	0x1
 3065 0396 50       		.byte	0x50
 3066 0397 00000000 		.4byte	0
 3067 039b 00000000 		.4byte	0
 3068              	.LLST24:
 3069 039f 0E000000 		.4byte	.LVL61
 3070 03a3 4A000000 		.4byte	.LVL73
 3071 03a7 0100     		.2byte	0x1
 3072 03a9 57       		.byte	0x57
 3073 03aa 4C000000 		.4byte	.LVL74
 3074 03ae 4E000000 		.4byte	.LVL75
 3075 03b2 0100     		.2byte	0x1
 3076 03b4 57       		.byte	0x57
 3077 03b5 00000000 		.4byte	0
 3078 03b9 00000000 		.4byte	0
 3079              	.LLST25:
 3080 03bd 10000000 		.4byte	.LVL62
 3081 03c1 5E000000 		.4byte	.LVL79
 3082 03c5 0100     		.2byte	0x1
 3083 03c7 55       		.byte	0x55
 3084 03c8 00000000 		.4byte	0
 3085 03cc 00000000 		.4byte	0
 3086              	.LLST26:
 3087 03d0 0C000000 		.4byte	.LVL60
 3088 03d4 5E000000 		.4byte	.LVL80
 3089 03d8 0100     		.2byte	0x1
 3090 03da 56       		.byte	0x56
 3091 03db 00000000 		.4byte	0
 3092 03df 00000000 		.4byte	0
 3093              	.LLST27:
 3094 03e3 00000000 		.4byte	.LVL82
 3095 03e7 44000000 		.4byte	.LVL94
 3096 03eb 0100     		.2byte	0x1
 3097 03ed 50       		.byte	0x50
 3098 03ee 44000000 		.4byte	.LVL94
 3099 03f2 64000000 		.4byte	.LFE7
 3100 03f6 0100     		.2byte	0x1
 3101 03f8 50       		.byte	0x50
 3102 03f9 00000000 		.4byte	0
 3103 03fd 00000000 		.4byte	0
ARM GAS  C:\Users\MICHAE~1.MAC\AppData\Local\Temp\ccOp1ZUS.s 			page 83


 3104              	.LLST28:
 3105 0401 00000000 		.4byte	.LVL82
 3106 0405 0C000000 		.4byte	.LVL87
 3107 0409 0100     		.2byte	0x1
 3108 040b 51       		.byte	0x51
 3109 040c 0C000000 		.4byte	.LVL87
 3110 0410 64000000 		.4byte	.LFE7
 3111 0414 0400     		.2byte	0x4
 3112 0416 F3       		.byte	0xf3
 3113 0417 01       		.uleb128 0x1
 3114 0418 51       		.byte	0x51
 3115 0419 9F       		.byte	0x9f
 3116 041a 00000000 		.4byte	0
 3117 041e 00000000 		.4byte	0
 3118              	.LLST29:
 3119 0422 04000000 		.4byte	.LVL83
 3120 0426 0E000000 		.4byte	.LVL88
 3121 042a 0100     		.2byte	0x1
 3122 042c 52       		.byte	0x52
 3123 042d 0E000000 		.4byte	.LVL88
 3124 0431 10000000 		.4byte	.LVL89
 3125 0435 0100     		.2byte	0x1
 3126 0437 54       		.byte	0x54
 3127 0438 10000000 		.4byte	.LVL89
 3128 043c 5A000000 		.4byte	.LVL102
 3129 0440 0100     		.2byte	0x1
 3130 0442 5C       		.byte	0x5c
 3131 0443 5A000000 		.4byte	.LVL102
 3132 0447 5E000000 		.4byte	.LVL103
 3133 044b 0100     		.2byte	0x1
 3134 044d 52       		.byte	0x52
 3135 044e 5E000000 		.4byte	.LVL103
 3136 0452 62000000 		.4byte	.LVL104
 3137 0456 0100     		.2byte	0x1
 3138 0458 54       		.byte	0x54
 3139 0459 62000000 		.4byte	.LVL104
 3140 045d 64000000 		.4byte	.LFE7
 3141 0461 0100     		.2byte	0x1
 3142 0463 5C       		.byte	0x5c
 3143 0464 00000000 		.4byte	0
 3144 0468 00000000 		.4byte	0
 3145              	.LLST30:
 3146 046c 0A000000 		.4byte	.LVL86
 3147 0470 0E000000 		.4byte	.LVL88
 3148 0474 0200     		.2byte	0x2
 3149 0476 31       		.byte	0x31
 3150 0477 9F       		.byte	0x9f
 3151 0478 0E000000 		.4byte	.LVL88
 3152 047c 64000000 		.4byte	.LFE7
 3153 0480 0100     		.2byte	0x1
 3154 0482 51       		.byte	0x51
 3155 0483 00000000 		.4byte	0
 3156 0487 00000000 		.4byte	0
 3157              	.LLST31:
 3158 048b 2E000000 		.4byte	.LVL93
 3159 048f 4C000000 		.4byte	.LVL96
 3160 0493 0100     		.2byte	0x1
ARM GAS  C:\Users\MICHAE~1.MAC\AppData\Local\Temp\ccOp1ZUS.s 			page 84


 3161 0495 52       		.byte	0x52
 3162 0496 4E000000 		.4byte	.LVL97
 3163 049a 50000000 		.4byte	.LVL98
 3164 049e 0100     		.2byte	0x1
 3165 04a0 52       		.byte	0x52
 3166 04a1 00000000 		.4byte	0
 3167 04a5 00000000 		.4byte	0
 3168              	.LLST32:
 3169 04a9 22000000 		.4byte	.LVL90
 3170 04ad 2A000000 		.4byte	.LVL91
 3171 04b1 0100     		.2byte	0x1
 3172 04b3 52       		.byte	0x52
 3173 04b4 2C000000 		.4byte	.LVL92
 3174 04b8 2E000000 		.4byte	.LVL93
 3175 04bc 0100     		.2byte	0x1
 3176 04be 52       		.byte	0x52
 3177 04bf 00000000 		.4byte	0
 3178 04c3 00000000 		.4byte	0
 3179              	.LLST33:
 3180 04c7 06000000 		.4byte	.LVL84
 3181 04cb 62000000 		.4byte	.LVL105
 3182 04cf 0100     		.2byte	0x1
 3183 04d1 55       		.byte	0x55
 3184 04d2 00000000 		.4byte	0
 3185 04d6 00000000 		.4byte	0
 3186              	.LLST34:
 3187 04da 08000000 		.4byte	.LVL85
 3188 04de 62000000 		.4byte	.LVL106
 3189 04e2 0100     		.2byte	0x1
 3190 04e4 57       		.byte	0x57
 3191 04e5 00000000 		.4byte	0
 3192 04e9 00000000 		.4byte	0
 3193              	.LLST35:
 3194 04ed 00000000 		.4byte	.LVL107
 3195 04f1 12000000 		.4byte	.LVL110
 3196 04f5 0100     		.2byte	0x1
 3197 04f7 50       		.byte	0x50
 3198 04f8 12000000 		.4byte	.LVL110
 3199 04fc 1A000000 		.4byte	.LVL113
 3200 0500 0100     		.2byte	0x1
 3201 0502 54       		.byte	0x54
 3202 0503 1A000000 		.4byte	.LVL113
 3203 0507 1C000000 		.4byte	.LVL114
 3204 050b 0100     		.2byte	0x1
 3205 050d 50       		.byte	0x50
 3206 050e 1C000000 		.4byte	.LVL114
 3207 0512 2C000000 		.4byte	.LVL117
 3208 0516 0100     		.2byte	0x1
 3209 0518 54       		.byte	0x54
 3210 0519 2C000000 		.4byte	.LVL117
 3211 051d 58000000 		.4byte	.LFE4
 3212 0521 0400     		.2byte	0x4
 3213 0523 F3       		.byte	0xf3
 3214 0524 01       		.uleb128 0x1
 3215 0525 50       		.byte	0x50
 3216 0526 9F       		.byte	0x9f
 3217 0527 00000000 		.4byte	0
ARM GAS  C:\Users\MICHAE~1.MAC\AppData\Local\Temp\ccOp1ZUS.s 			page 85


 3218 052b 00000000 		.4byte	0
 3219              	.LLST36:
 3220 052f 00000000 		.4byte	.LVL107
 3221 0533 15000000 		.4byte	.LVL111-1
 3222 0537 0100     		.2byte	0x1
 3223 0539 51       		.byte	0x51
 3224 053a 15000000 		.4byte	.LVL111-1
 3225 053e 1A000000 		.4byte	.LVL113
 3226 0542 0400     		.2byte	0x4
 3227 0544 F3       		.byte	0xf3
 3228 0545 01       		.uleb128 0x1
 3229 0546 51       		.byte	0x51
 3230 0547 9F       		.byte	0x9f
 3231 0548 1A000000 		.4byte	.LVL113
 3232 054c 1F000000 		.4byte	.LVL115-1
 3233 0550 0100     		.2byte	0x1
 3234 0552 51       		.byte	0x51
 3235 0553 1F000000 		.4byte	.LVL115-1
 3236 0557 58000000 		.4byte	.LFE4
 3237 055b 0400     		.2byte	0x4
 3238 055d F3       		.byte	0xf3
 3239 055e 01       		.uleb128 0x1
 3240 055f 51       		.byte	0x51
 3241 0560 9F       		.byte	0x9f
 3242 0561 00000000 		.4byte	0
 3243 0565 00000000 		.4byte	0
 3244              	.LLST37:
 3245 0569 0C000000 		.4byte	.LVL109
 3246 056d 18000000 		.4byte	.LVL112
 3247 0571 0100     		.2byte	0x1
 3248 0573 55       		.byte	0x55
 3249 0574 18000000 		.4byte	.LVL112
 3250 0578 1A000000 		.4byte	.LVL113
 3251 057c 0100     		.2byte	0x1
 3252 057e 50       		.byte	0x50
 3253 057f 1A000000 		.4byte	.LVL113
 3254 0583 52000000 		.4byte	.LVL126
 3255 0587 0100     		.2byte	0x1
 3256 0589 55       		.byte	0x55
 3257 058a 00000000 		.4byte	0
 3258 058e 00000000 		.4byte	0
 3259              	.LLST38:
 3260 0592 28000000 		.4byte	.LVL116
 3261 0596 36000000 		.4byte	.LVL119
 3262 059a 0100     		.2byte	0x1
 3263 059c 53       		.byte	0x53
 3264 059d 36000000 		.4byte	.LVL119
 3265 05a1 38000000 		.4byte	.LVL120
 3266 05a5 0300     		.2byte	0x3
 3267 05a7 73       		.byte	0x73
 3268 05a8 7C       		.sleb128 -4
 3269 05a9 9F       		.byte	0x9f
 3270 05aa 38000000 		.4byte	.LVL120
 3271 05ae 44000000 		.4byte	.LVL121
 3272 05b2 0600     		.2byte	0x6
 3273 05b4 F3       		.byte	0xf3
 3274 05b5 01       		.uleb128 0x1
ARM GAS  C:\Users\MICHAE~1.MAC\AppData\Local\Temp\ccOp1ZUS.s 			page 86


 3275 05b6 50       		.byte	0x50
 3276 05b7 35       		.byte	0x35
 3277 05b8 25       		.byte	0x25
 3278 05b9 9F       		.byte	0x9f
 3279 05ba 44000000 		.4byte	.LVL121
 3280 05be 46000000 		.4byte	.LVL122
 3281 05c2 0100     		.2byte	0x1
 3282 05c4 53       		.byte	0x53
 3283 05c5 46000000 		.4byte	.LVL122
 3284 05c9 48000000 		.4byte	.LVL123
 3285 05cd 0300     		.2byte	0x3
 3286 05cf 73       		.byte	0x73
 3287 05d0 7C       		.sleb128 -4
 3288 05d1 9F       		.byte	0x9f
 3289 05d2 48000000 		.4byte	.LVL123
 3290 05d6 58000000 		.4byte	.LFE4
 3291 05da 0600     		.2byte	0x6
 3292 05dc F3       		.byte	0xf3
 3293 05dd 01       		.uleb128 0x1
 3294 05de 50       		.byte	0x50
 3295 05df 35       		.byte	0x35
 3296 05e0 25       		.byte	0x25
 3297 05e1 9F       		.byte	0x9f
 3298 05e2 00000000 		.4byte	0
 3299 05e6 00000000 		.4byte	0
 3300              	.LLST39:
 3301 05ea 30000000 		.4byte	.LVL118
 3302 05ee 50000000 		.4byte	.LVL124
 3303 05f2 0100     		.2byte	0x1
 3304 05f4 52       		.byte	0x52
 3305 05f5 50000000 		.4byte	.LVL124
 3306 05f9 52000000 		.4byte	.LVL125
 3307 05fd 0500     		.2byte	0x5
 3308 05ff 31       		.byte	0x31
 3309 0600 74       		.byte	0x74
 3310 0601 00       		.sleb128 0
 3311 0602 24       		.byte	0x24
 3312 0603 9F       		.byte	0x9f
 3313 0604 52000000 		.4byte	.LVL125
 3314 0608 58000000 		.4byte	.LFE4
 3315 060c 0800     		.2byte	0x8
 3316 060e 31       		.byte	0x31
 3317 060f F3       		.byte	0xf3
 3318 0610 01       		.uleb128 0x1
 3319 0611 50       		.byte	0x50
 3320 0612 4F       		.byte	0x4f
 3321 0613 1A       		.byte	0x1a
 3322 0614 24       		.byte	0x24
 3323 0615 9F       		.byte	0x9f
 3324 0616 00000000 		.4byte	0
 3325 061a 00000000 		.4byte	0
 3326              	.LLST40:
 3327 061e 06000000 		.4byte	.LVL108
 3328 0622 15000000 		.4byte	.LVL111-1
 3329 0626 0100     		.2byte	0x1
 3330 0628 52       		.byte	0x52
 3331 0629 1A000000 		.4byte	.LVL113
ARM GAS  C:\Users\MICHAE~1.MAC\AppData\Local\Temp\ccOp1ZUS.s 			page 87


 3332 062d 1F000000 		.4byte	.LVL115-1
 3333 0631 0100     		.2byte	0x1
 3334 0633 52       		.byte	0x52
 3335 0634 00000000 		.4byte	0
 3336 0638 00000000 		.4byte	0
 3337              		.section	.debug_aranges,"",%progbits
 3338 0000 4C000000 		.4byte	0x4c
 3339 0004 0200     		.2byte	0x2
 3340 0006 00000000 		.4byte	.Ldebug_info0
 3341 000a 04       		.byte	0x4
 3342 000b 00       		.byte	0
 3343 000c 0000     		.2byte	0
 3344 000e 0000     		.2byte	0
 3345 0010 00000000 		.4byte	.LFB1
 3346 0014 58000000 		.4byte	.LFE1-.LFB1
 3347 0018 00000000 		.4byte	.LFB5
 3348 001c 32000000 		.4byte	.LFE5-.LFB5
 3349 0020 00000000 		.4byte	.LFB6
 3350 0024 16000000 		.4byte	.LFE6-.LFB6
 3351 0028 00000000 		.4byte	.LFB2
 3352 002c 90000000 		.4byte	.LFE2-.LFB2
 3353 0030 00000000 		.4byte	.LFB3
 3354 0034 60000000 		.4byte	.LFE3-.LFB3
 3355 0038 00000000 		.4byte	.LFB7
 3356 003c 64000000 		.4byte	.LFE7-.LFB7
 3357 0040 00000000 		.4byte	.LFB4
 3358 0044 58000000 		.4byte	.LFE4-.LFB4
 3359 0048 00000000 		.4byte	0
 3360 004c 00000000 		.4byte	0
 3361              		.section	.debug_ranges,"",%progbits
 3362              	.Ldebug_ranges0:
 3363 0000 00000000 		.4byte	.LFB1
 3364 0004 58000000 		.4byte	.LFE1
 3365 0008 00000000 		.4byte	.LFB5
 3366 000c 32000000 		.4byte	.LFE5
 3367 0010 00000000 		.4byte	.LFB6
 3368 0014 16000000 		.4byte	.LFE6
 3369 0018 00000000 		.4byte	.LFB2
 3370 001c 90000000 		.4byte	.LFE2
 3371 0020 00000000 		.4byte	.LFB3
 3372 0024 60000000 		.4byte	.LFE3
 3373 0028 00000000 		.4byte	.LFB7
 3374 002c 64000000 		.4byte	.LFE7
 3375 0030 00000000 		.4byte	.LFB4
 3376 0034 58000000 		.4byte	.LFE4
 3377 0038 00000000 		.4byte	0
 3378 003c 00000000 		.4byte	0
 3379              		.section	.debug_line,"",%progbits
 3380              	.Ldebug_line0:
 3381 0000 42030000 		.section	.debug_str,"MS",%progbits,1
 3381      0200C001 
 3381      00000201 
 3381      FB0E0D00 
 3381      01010101 
 3382              	.LASF110:
 3383 0000 7074724E 		.ascii	"ptrNoiseEnvelope\000"
 3383      6F697365 
ARM GAS  C:\Users\MICHAE~1.MAC\AppData\Local\Temp\ccOp1ZUS.s 			page 88


 3383      456E7665 
 3383      6C6F7065 
 3383      00
 3384              	.LASF93:
 3385 0011 43617053 		.ascii	"CapSense_1_FLASH_WD_STRUCT\000"
 3385      656E7365 
 3385      5F315F46 
 3385      4C415348 
 3385      5F57445F 
 3386              	.LASF99:
 3387 002c 43617053 		.ascii	"CapSense_1_REGULAR_FLTR_CHANNEL_STRUCT\000"
 3387      656E7365 
 3387      5F315F52 
 3387      4547554C 
 3387      41525F46 
 3388              	.LASF127:
 3389 0053 736E7343 		.ascii	"snsCnt\000"
 3389      6E7400
 3390              	.LASF109:
 3391 005a 43617053 		.ascii	"CapSense_1_DpUpdateThresholds\000"
 3391      656E7365 
 3391      5F315F44 
 3391      70557064 
 3391      61746554 
 3392              	.LASF104:
 3393 0078 77646774 		.ascii	"wdgtId\000"
 3393      496400
 3394              	.LASF120:
 3395 007f 666C7472 		.ascii	"fltrHistV\000"
 3395      48697374 
 3395      5600
 3396              	.LASF78:
 3397 0089 736E7254 		.ascii	"snrTestWidgetId\000"
 3397      65737457 
 3397      69646765 
 3397      74496400 
 3398              	.LASF113:
 3399 0099 70747254 		.ascii	"ptrThresholds\000"
 3399      68726573 
 3399      686F6C64 
 3399      7300
 3400              	.LASF8:
 3401 00a7 756E7369 		.ascii	"unsigned int\000"
 3401      676E6564 
 3401      20696E74 
 3401      00
 3402              	.LASF69:
 3403 00b4 7363616E 		.ascii	"scanCounter\000"
 3403      436F756E 
 3403      74657200 
 3404              	.LASF67:
 3405 00c0 6877436C 		.ascii	"hwClock\000"
 3405      6F636B00 
 3406              	.LASF144:
 3407 00c8 43794861 		.ascii	"CyHalt\000"
 3407      6C7400
 3408              	.LASF116:
ARM GAS  C:\Users\MICHAE~1.MAC\AppData\Local\Temp\ccOp1ZUS.s 			page 89


 3409 00cf 64696666 		.ascii	"diffValue\000"
 3409      56616C75 
 3409      6500
 3410              	.LASF125:
 3411 00d9 43617053 		.ascii	"CapSense_1_DpProcessButton\000"
 3411      656E7365 
 3411      5F315F44 
 3411      7050726F 
 3411      63657373 
 3412              	.LASF124:
 3413 00f4 6D6F6465 		.ascii	"mode\000"
 3413      00
 3414              	.LASF115:
 3415 00f9 63757253 		.ascii	"curSnsPtr\000"
 3415      6E735074 
 3415      7200
 3416              	.LASF41:
 3417 0103 43617053 		.ascii	"CapSense_1_WD_TYPE_ENUM\000"
 3417      656E7365 
 3417      5F315F57 
 3417      445F5459 
 3417      50455F45 
 3418              	.LASF108:
 3419 011b 43617053 		.ascii	"CapSense_1_DpInitialize\000"
 3419      656E7365 
 3419      5F315F44 
 3419      70496E69 
 3419      7469616C 
 3420              	.LASF57:
 3421 0133 43617053 		.ascii	"CapSense_1_RAM_WD_LIST_STRUCT\000"
 3421      656E7365 
 3421      5F315F52 
 3421      414D5F57 
 3421      445F4C49 
 3422              	.LASF140:
 3423 0151 536D6172 		.ascii	"SmartSense_UpdateThresholds\000"
 3423      7453656E 
 3423      73655F55 
 3423      70646174 
 3423      65546872 
 3424              	.LASF143:
 3425 016d 43617053 		.ascii	"CapSense_1_FtUpdateBaseline\000"
 3425      656E7365 
 3425      5F315F46 
 3425      74557064 
 3425      61746542 
 3426              	.LASF119:
 3427 0189 70747253 		.ascii	"ptrSnsTmp\000"
 3427      6E73546D 
 3427      7000
 3428              	.LASF129:
 3429 0193 6E657753 		.ascii	"newStatus\000"
 3429      74617475 
 3429      7300
 3430              	.LASF13:
 3431 019d 666C6F61 		.ascii	"float\000"
 3431      7400
ARM GAS  C:\Users\MICHAE~1.MAC\AppData\Local\Temp\ccOp1ZUS.s 			page 90


 3432              	.LASF145:
 3433 01a3 474E5520 		.ascii	"GNU C11 5.4.1 20160609 (release) [ARM/embedded-5-br"
 3433      43313120 
 3433      352E342E 
 3433      31203230 
 3433      31363036 
 3434 01d6 616E6368 		.ascii	"anch revision 237715] -mcpu=cortex-m0plus -mthumb -"
 3434      20726576 
 3434      6973696F 
 3434      6E203233 
 3434      37373135 
 3435 0209 67202D4F 		.ascii	"g -Og -ffunction-sections -ffat-lto-objects\000"
 3435      67202D66 
 3435      66756E63 
 3435      74696F6E 
 3435      2D736563 
 3436              	.LASF12:
 3437 0235 696E7433 		.ascii	"int32\000"
 3437      3200
 3438              	.LASF77:
 3439 023b 736E734C 		.ascii	"snsList\000"
 3439      69737400 
 3440              	.LASF117:
 3441 0243 72657375 		.ascii	"result\000"
 3441      6C7400
 3442              	.LASF34:
 3443 024a 43617053 		.ascii	"CapSense_1_WD_BUTTON_E\000"
 3443      656E7365 
 3443      5F315F57 
 3443      445F4255 
 3443      54544F4E 
 3444              	.LASF7:
 3445 0261 6C6F6E67 		.ascii	"long long unsigned int\000"
 3445      206C6F6E 
 3445      6720756E 
 3445      7369676E 
 3445      65642069 
 3446              	.LASF102:
 3447 0278 70747252 		.ascii	"ptrRegular\000"
 3447      6567756C 
 3447      617200
 3448              	.LASF79:
 3449 0283 736E7254 		.ascii	"snrTestSensorId\000"
 3449      65737453 
 3449      656E736F 
 3449      72496400 
 3450              	.LASF101:
 3451 0293 43617053 		.ascii	"CapSense_1_REGULAR_FLTR_STRUCT\000"
 3451      656E7365 
 3451      5F315F52 
 3451      4547554C 
 3451      41525F46 
 3452              	.LASF92:
 3453 02b2 70747232 		.ascii	"ptr2NoiseEnvlp\000"
 3453      4E6F6973 
 3453      65456E76 
 3453      6C7000
ARM GAS  C:\Users\MICHAE~1.MAC\AppData\Local\Temp\ccOp1ZUS.s 			page 91


 3454              	.LASF97:
 3455 02c1 6D656448 		.ascii	"medHistory\000"
 3455      6973746F 
 3455      727900
 3456              	.LASF90:
 3457 02cc 77646774 		.ascii	"wdgtType\000"
 3457      54797065 
 3457      00
 3458              	.LASF20:
 3459 02d5 43617053 		.ascii	"CapSense_1_LOW_BSLN_RST_TYPE\000"
 3459      656E7365 
 3459      5F315F4C 
 3459      4F575F42 
 3459      534C4E5F 
 3460              	.LASF100:
 3461 02f2 72656775 		.ascii	"regularChannel\000"
 3461      6C617243 
 3461      68616E6E 
 3461      656C00
 3462              	.LASF75:
 3463 0301 6D6F6443 		.ascii	"modCsdClk\000"
 3463      7364436C 
 3463      6B00
 3464              	.LASF16:
 3465 030b 73697A65 		.ascii	"size_t\000"
 3465      5F7400
 3466              	.LASF146:
 3467 0312 47656E65 		.ascii	"Generated_Source\\PSoC4\\CapSense_1_Processing.c\000"
 3467      72617465 
 3467      645F536F 
 3467      75726365 
 3467      5C50536F 
 3468              	.LASF49:
 3469 0341 73696750 		.ascii	"sigPFC\000"
 3469      464300
 3470              	.LASF32:
 3471 0348 68797374 		.ascii	"hysteresis\000"
 3471      65726573 
 3471      697300
 3472              	.LASF147:
 3473 0353 433A5C55 		.ascii	"C:\\Users\\michael.machate\\Desktop\\Cypress_Firstt"
 3473      73657273 
 3473      5C6D6963 
 3473      6861656C 
 3473      2E6D6163 
 3474 0382 65737473 		.ascii	"ests\\FirstTest.cydsn\000"
 3474      5C466972 
 3474      73745465 
 3474      73742E63 
 3474      7964736E 
 3475              	.LASF103:
 3476 0397 43617053 		.ascii	"CapSense_1_PTR_FILTER_VARIANT\000"
 3476      656E7365 
 3476      5F315F50 
 3476      54525F46 
 3476      494C5445 
 3477              	.LASF37:
ARM GAS  C:\Users\MICHAE~1.MAC\AppData\Local\Temp\ccOp1ZUS.s 			page 92


 3478 03b5 43617053 		.ascii	"CapSense_1_WD_MATRIX_BUTTON_E\000"
 3478      656E7365 
 3478      5F315F57 
 3478      445F4D41 
 3478      54524958 
 3479              	.LASF44:
 3480 03d3 6C6F7742 		.ascii	"lowBslnRst\000"
 3480      736C6E52 
 3480      737400
 3481              	.LASF89:
 3482 03de 746F7461 		.ascii	"totalNumSns\000"
 3482      6C4E756D 
 3482      536E7300 
 3483              	.LASF28:
 3484 03ea 534D4152 		.ascii	"SMARTSENSE_CSD_NOISE_ENVELOPE_STRUCT\000"
 3484      5453454E 
 3484      53455F43 
 3484      53445F4E 
 3484      4F495345 
 3485              	.LASF38:
 3486 040f 43617053 		.ascii	"CapSense_1_WD_TOUCHPAD_E\000"
 3486      656E7365 
 3486      5F315F57 
 3486      445F544F 
 3486      55434850 
 3487              	.LASF30:
 3488 0428 6E6F6973 		.ascii	"noiseTh\000"
 3488      65546800 
 3489              	.LASF15:
 3490 0430 63686172 		.ascii	"char\000"
 3490      00
 3491              	.LASF142:
 3492 0435 536D6172 		.ascii	"SmartSense_RunNoiseEnvelope\000"
 3492      7453656E 
 3492      73655F52 
 3492      756E4E6F 
 3492      69736545 
 3493              	.LASF10:
 3494 0451 75696E74 		.ascii	"uint16\000"
 3494      313600
 3495              	.LASF42:
 3496 0458 7265736F 		.ascii	"resolution\000"
 3496      6C757469 
 3496      6F6E00
 3497              	.LASF82:
 3498 0463 43617053 		.ascii	"CapSense_1_RAM_STRUCT\000"
 3498      656E7365 
 3498      5F315F52 
 3498      414D5F53 
 3498      54525543 
 3499              	.LASF70:
 3500 0479 73746174 		.ascii	"status\000"
 3500      757300
 3501              	.LASF36:
 3502 0480 43617053 		.ascii	"CapSense_1_WD_RADIAL_SLIDER_E\000"
 3502      656E7365 
 3502      5F315F57 
ARM GAS  C:\Users\MICHAE~1.MAC\AppData\Local\Temp\ccOp1ZUS.s 			page 93


 3502      445F5241 
 3502      4449414C 
 3503              	.LASF62:
 3504 049e 69646163 		.ascii	"idacComp\000"
 3504      436F6D70 
 3504      00
 3505              	.LASF6:
 3506 04a7 6C6F6E67 		.ascii	"long long int\000"
 3506      206C6F6E 
 3506      6720696E 
 3506      7400
 3507              	.LASF19:
 3508 04b5 43617053 		.ascii	"CapSense_1_THRESHOLD_TYPE\000"
 3508      656E7365 
 3508      5F315F54 
 3508      48524553 
 3508      484F4C44 
 3509              	.LASF43:
 3510 04cf 6F6E4465 		.ascii	"onDebounce\000"
 3510      626F756E 
 3510      636500
 3511              	.LASF111:
 3512 04da 73746172 		.ascii	"startFlag\000"
 3512      74466C61 
 3512      6700
 3513              	.LASF76:
 3514 04e4 77646774 		.ascii	"wdgtList\000"
 3514      4C697374 
 3514      00
 3515              	.LASF81:
 3516 04ed 736E7254 		.ascii	"snrTestRawCount\000"
 3516      65737452 
 3516      6177436F 
 3516      756E7400 
 3517              	.LASF139:
 3518 04fd 6D656D73 		.ascii	"memset\000"
 3518      657400
 3519              	.LASF31:
 3520 0504 6E4E6F69 		.ascii	"nNoiseTh\000"
 3520      73655468 
 3520      00
 3521              	.LASF74:
 3522 050d 63736430 		.ascii	"csd0Config\000"
 3522      436F6E66 
 3522      696700
 3523              	.LASF132:
 3524 0518 43617053 		.ascii	"CapSense_1_DpProcessCsdWidgetStatus\000"
 3524      656E7365 
 3524      5F315F44 
 3524      7050726F 
 3524      63657373 
 3525              	.LASF134:
 3526 053c 73656E73 		.ascii	"sensorStatus\000"
 3526      6F725374 
 3526      61747573 
 3526      00
 3527              	.LASF50:
ARM GAS  C:\Users\MICHAE~1.MAC\AppData\Local\Temp\ccOp1ZUS.s 			page 94


 3528 0549 43617053 		.ascii	"CapSense_1_RAM_WD_BASE_STRUCT\000"
 3528      656E7365 
 3528      5F315F52 
 3528      414D5F57 
 3528      445F4241 
 3529              	.LASF11:
 3530 0567 75696E74 		.ascii	"uint32\000"
 3530      333200
 3531              	.LASF130:
 3532 056e 746F7563 		.ascii	"touchTh\000"
 3532      68546800 
 3533              	.LASF86:
 3534 0576 70747232 		.ascii	"ptr2FltrHistory\000"
 3534      466C7472 
 3534      48697374 
 3534      6F727900 
 3535              	.LASF64:
 3536 0586 43617053 		.ascii	"CapSense_1_RAM_SNS_LIST_STRUCT\000"
 3536      656E7365 
 3536      5F315F52 
 3536      414D5F53 
 3536      4E535F4C 
 3537              	.LASF135:
 3538 05a5 77645374 		.ascii	"wdStatusIndex\000"
 3538      61747573 
 3538      496E6465 
 3538      7800
 3539              	.LASF35:
 3540 05b3 43617053 		.ascii	"CapSense_1_WD_LINEAR_SLIDER_E\000"
 3540      656E7365 
 3540      5F315F57 
 3540      445F4C49 
 3540      4E454152 
 3541              	.LASF137:
 3542 05d1 43617053 		.ascii	"CapSense_1_dsRam\000"
 3542      656E7365 
 3542      5F315F64 
 3542      7352616D 
 3542      00
 3543              	.LASF17:
 3544 05e2 6C6F6E67 		.ascii	"long double\000"
 3544      20646F75 
 3544      626C6500 
 3545              	.LASF106:
 3546 05ee 70747252 		.ascii	"ptrRamWdgt\000"
 3546      616D5764 
 3546      677400
 3547              	.LASF128:
 3548 05f9 736E734D 		.ascii	"snsMask\000"
 3548      61736B00 
 3549              	.LASF80:
 3550 0601 736E7254 		.ascii	"snrTestScanCounter\000"
 3550      65737453 
 3550      63616E43 
 3550      6F756E74 
 3550      657200
 3551              	.LASF65:
ARM GAS  C:\Users\MICHAE~1.MAC\AppData\Local\Temp\ccOp1ZUS.s 			page 95


 3552 0614 636F6E66 		.ascii	"configId\000"
 3552      69674964 
 3552      00
 3553              	.LASF85:
 3554 061d 70747232 		.ascii	"ptr2SnsRam\000"
 3554      536E7352 
 3554      616D00
 3555              	.LASF39:
 3556 0628 43617053 		.ascii	"CapSense_1_WD_PROXIMITY_E\000"
 3556      656E7365 
 3556      5F315F57 
 3556      445F5052 
 3556      4F58494D 
 3557              	.LASF40:
 3558 0642 43617053 		.ascii	"CapSense_1_WD_ENCODERDIAL_E\000"
 3558      656E7365 
 3558      5F315F57 
 3558      445F454E 
 3558      434F4445 
 3559              	.LASF98:
 3560 065e 61766748 		.ascii	"avgHistory\000"
 3560      6973746F 
 3560      727900
 3561              	.LASF95:
 3562 0669 43617053 		.ascii	"CapSense_1_FLASH_STRUCT\000"
 3562      656E7365 
 3562      5F315F46 
 3562      4C415348 
 3562      5F535452 
 3563              	.LASF73:
 3564 0681 736E7353 		.ascii	"snsStatus\000"
 3564      74617475 
 3564      7300
 3565              	.LASF47:
 3566 068b 736E7343 		.ascii	"snsClkSource\000"
 3566      6C6B536F 
 3566      75726365 
 3566      00
 3567              	.LASF114:
 3568 0698 43617053 		.ascii	"CapSense_1_DpUpdateDifferences\000"
 3568      656E7365 
 3568      5F315F44 
 3568      70557064 
 3568      61746544 
 3569              	.LASF2:
 3570 06b7 73686F72 		.ascii	"short int\000"
 3570      7420696E 
 3570      7400
 3571              	.LASF4:
 3572 06c1 6C6F6E67 		.ascii	"long int\000"
 3572      20696E74 
 3572      00
 3573              	.LASF141:
 3574 06ca 43617053 		.ascii	"CapSense_1_FtRunEnabledFiltersInternal\000"
 3574      656E7365 
 3574      5F315F46 
 3574      7452756E 
ARM GAS  C:\Users\MICHAE~1.MAC\AppData\Local\Temp\ccOp1ZUS.s 			page 96


 3574      456E6162 
 3575              	.LASF33:
 3576 06f1 534D4152 		.ascii	"SMARTSENSE_UPDATE_THRESHOLDS_STRUCT\000"
 3576      5453454E 
 3576      53455F55 
 3576      50444154 
 3576      455F5448 
 3577              	.LASF71:
 3578 0715 77646774 		.ascii	"wdgtEnable\000"
 3578      456E6162 
 3578      6C6500
 3579              	.LASF138:
 3580 0720 43617053 		.ascii	"CapSense_1_dsFlash\000"
 3580      656E7365 
 3580      5F315F64 
 3580      73466C61 
 3580      736800
 3581              	.LASF60:
 3582 0733 64696666 		.ascii	"diff\000"
 3582      00
 3583              	.LASF68:
 3584 0738 74756E65 		.ascii	"tunerCmd\000"
 3584      72436D64 
 3584      00
 3585              	.LASF52:
 3586 0741 62757474 		.ascii	"button0\000"
 3586      6F6E3000 
 3587              	.LASF53:
 3588 0749 62757474 		.ascii	"button1\000"
 3588      6F6E3100 
 3589              	.LASF54:
 3590 0751 62757474 		.ascii	"button2\000"
 3590      6F6E3200 
 3591              	.LASF55:
 3592 0759 62757474 		.ascii	"button3\000"
 3592      6F6E3300 
 3593              	.LASF56:
 3594 0761 62757474 		.ascii	"button4\000"
 3594      6F6E3400 
 3595              	.LASF118:
 3596 0769 736E7349 		.ascii	"snsId\000"
 3596      6400
 3597              	.LASF112:
 3598 076f 74687265 		.ascii	"thresholds\000"
 3598      73686F6C 
 3598      647300
 3599              	.LASF91:
 3600 077a 6E756D43 		.ascii	"numCols\000"
 3600      6F6C7300 
 3601              	.LASF131:
 3602 0782 70747244 		.ascii	"ptrDebounceCnt\000"
 3602      65626F75 
 3602      6E636543 
 3602      6E7400
 3603              	.LASF48:
 3604 0791 66696E67 		.ascii	"fingerCap\000"
 3604      65724361 
ARM GAS  C:\Users\MICHAE~1.MAC\AppData\Local\Temp\ccOp1ZUS.s 			page 97


 3604      7000
 3605              	.LASF72:
 3606 079b 77646774 		.ascii	"wdgtStatus\000"
 3606      53746174 
 3606      757300
 3607              	.LASF18:
 3608 07a6 73697A65 		.ascii	"sizetype\000"
 3608      74797065 
 3608      00
 3609              	.LASF5:
 3610 07af 6C6F6E67 		.ascii	"long unsigned int\000"
 3610      20756E73 
 3610      69676E65 
 3610      6420696E 
 3610      7400
 3611              	.LASF45:
 3612 07c1 69646163 		.ascii	"idacMod\000"
 3612      4D6F6400 
 3613              	.LASF87:
 3614 07c9 70747232 		.ascii	"ptr2DebounceArr\000"
 3614      4465626F 
 3614      756E6365 
 3614      41727200 
 3615              	.LASF29:
 3616 07d9 66696E67 		.ascii	"fingerTh\000"
 3616      65725468 
 3616      00
 3617              	.LASF59:
 3618 07e2 62736C6E 		.ascii	"bslnExt\000"
 3618      45787400 
 3619              	.LASF122:
 3620 07ea 43617053 		.ascii	"CapSense_1_DpProcessCsdWidgetRawCounts\000"
 3620      656E7365 
 3620      5F315F44 
 3620      7050726F 
 3620      63657373 
 3621              	.LASF1:
 3622 0811 756E7369 		.ascii	"unsigned char\000"
 3622      676E6564 
 3622      20636861 
 3622      7200
 3623              	.LASF136:
 3624 081f 77645374 		.ascii	"wdStatusMask\000"
 3624      61747573 
 3624      4D61736B 
 3624      00
 3625              	.LASF121:
 3626 082c 69735072 		.ascii	"isProxWdgt\000"
 3626      6F785764 
 3626      677400
 3627              	.LASF107:
 3628 0837 70747246 		.ascii	"ptrFlashWdgt\000"
 3628      6C617368 
 3628      57646774 
 3628      00
 3629              	.LASF88:
 3630 0844 73746174 		.ascii	"staticConfig\000"
ARM GAS  C:\Users\MICHAE~1.MAC\AppData\Local\Temp\ccOp1ZUS.s 			page 98


 3630      6963436F 
 3630      6E666967 
 3630      00
 3631              	.LASF84:
 3632 0851 70747232 		.ascii	"ptr2WdgtRam\000"
 3632      57646774 
 3632      52616D00 
 3633              	.LASF96:
 3634 085d 69697248 		.ascii	"iirHistory\000"
 3634      6973746F 
 3634      727900
 3635              	.LASF126:
 3636 0868 63757272 		.ascii	"currStatus\000"
 3636      53746174 
 3636      757300
 3637              	.LASF46:
 3638 0873 736E7343 		.ascii	"snsClk\000"
 3638      6C6B00
 3639              	.LASF0:
 3640 087a 7369676E 		.ascii	"signed char\000"
 3640      65642063 
 3640      68617200 
 3641              	.LASF58:
 3642 0886 62736C6E 		.ascii	"bsln\000"
 3642      00
 3643              	.LASF3:
 3644 088b 73686F72 		.ascii	"short unsigned int\000"
 3644      7420756E 
 3644      7369676E 
 3644      65642069 
 3644      6E7400
 3645              	.LASF83:
 3646 089e 70747232 		.ascii	"ptr2SnsFlash\000"
 3646      536E7346 
 3646      6C617368 
 3646      00
 3647              	.LASF9:
 3648 08ab 75696E74 		.ascii	"uint8\000"
 3648      3800
 3649              	.LASF14:
 3650 08b1 646F7562 		.ascii	"double\000"
 3650      6C6500
 3651              	.LASF123:
 3652 08b8 43617053 		.ascii	"CapSense_1_DpProcessCsdSensorRawCountsExt\000"
 3652      656E7365 
 3652      5F315F44 
 3652      7050726F 
 3652      63657373 
 3653              	.LASF61:
 3654 08e2 6E656742 		.ascii	"negBslnRstCnt\000"
 3654      736C6E52 
 3654      7374436E 
 3654      7400
 3655              	.LASF105:
 3656 08f0 77696467 		.ascii	"widgetType\000"
 3656      65745479 
 3656      706500
ARM GAS  C:\Users\MICHAE~1.MAC\AppData\Local\Temp\ccOp1ZUS.s 			page 99


 3657              	.LASF63:
 3658 08fb 43617053 		.ascii	"CapSense_1_RAM_SNS_STRUCT\000"
 3658      656E7365 
 3658      5F315F52 
 3658      414D5F53 
 3658      4E535F53 
 3659              	.LASF21:
 3660 0915 70617261 		.ascii	"param0\000"
 3660      6D3000
 3661              	.LASF22:
 3662 091c 70617261 		.ascii	"param1\000"
 3662      6D3100
 3663              	.LASF23:
 3664 0923 70617261 		.ascii	"param2\000"
 3664      6D3200
 3665              	.LASF24:
 3666 092a 70617261 		.ascii	"param3\000"
 3666      6D3300
 3667              	.LASF25:
 3668 0931 70617261 		.ascii	"param4\000"
 3668      6D3400
 3669              	.LASF26:
 3670 0938 70617261 		.ascii	"param5\000"
 3670      6D3500
 3671              	.LASF27:
 3672 093f 70617261 		.ascii	"param6\000"
 3672      6D3600
 3673              	.LASF66:
 3674 0946 64657669 		.ascii	"deviceId\000"
 3674      63654964 
 3674      00
 3675              	.LASF51:
 3676 094f 43617053 		.ascii	"CapSense_1_RAM_WD_BUTTON_STRUCT\000"
 3676      656E7365 
 3676      5F315F52 
 3676      414D5F57 
 3676      445F4255 
 3677              	.LASF133:
 3678 096f 77696467 		.ascii	"widgetId\000"
 3678      65744964 
 3678      00
 3679              	.LASF94:
 3680 0978 77646774 		.ascii	"wdgtArray\000"
 3680      41727261 
 3680      7900
 3681              		.ident	"GCC: (GNU Tools for ARM Embedded Processors) 5.4.1 20160609 (release) [ARM/embedded-5-bran
