ARM GAS  C:\Users\MICHAE~1.MAC\AppData\Local\Temp\ccEkVQ2o.s 			page 1


   1              		.syntax unified
   2              		.cpu cortex-m0plus
   3              		.fpu softvfp
   4              		.eabi_attribute 20, 1
   5              		.eabi_attribute 21, 1
   6              		.eabi_attribute 23, 3
   7              		.eabi_attribute 24, 1
   8              		.eabi_attribute 25, 1
   9              		.eabi_attribute 26, 1
  10              		.eabi_attribute 30, 1
  11              		.eabi_attribute 34, 0
  12              		.eabi_attribute 18, 4
  13              		.thumb
  14              		.syntax unified
  15              		.file	"CapSense_1_Control.c"
  16              		.text
  17              	.Ltext0:
  18              		.cfi_sections	.debug_frame
  19              		.section	.text.CapSense_1_Initialize,"ax",%progbits
  20              		.align	2
  21              		.global	CapSense_1_Initialize
  22              		.code	16
  23              		.thumb_func
  24              		.type	CapSense_1_Initialize, %function
  25              	CapSense_1_Initialize:
  26              	.LFB2:
  27              		.file 1 "Generated_Source\\PSoC4\\CapSense_1_Control.c"
   1:Generated_Source\PSoC4/CapSense_1_Control.c **** /***************************************************************************//**
   2:Generated_Source\PSoC4/CapSense_1_Control.c **** * \file CapSense_1_Control.c
   3:Generated_Source\PSoC4/CapSense_1_Control.c **** * \version 5.20
   4:Generated_Source\PSoC4/CapSense_1_Control.c **** *
   5:Generated_Source\PSoC4/CapSense_1_Control.c **** * \brief
   6:Generated_Source\PSoC4/CapSense_1_Control.c **** *   This file provides the source code to the Control module API of the
   7:Generated_Source\PSoC4/CapSense_1_Control.c **** *   Component.
   8:Generated_Source\PSoC4/CapSense_1_Control.c **** *
   9:Generated_Source\PSoC4/CapSense_1_Control.c **** * \see CapSense_1 v5.20 Datasheet
  10:Generated_Source\PSoC4/CapSense_1_Control.c **** *
  11:Generated_Source\PSoC4/CapSense_1_Control.c **** *//*****************************************************************************
  12:Generated_Source\PSoC4/CapSense_1_Control.c **** * Copyright (2016-2018), Cypress Semiconductor Corporation.
  13:Generated_Source\PSoC4/CapSense_1_Control.c **** ********************************************************************************
  14:Generated_Source\PSoC4/CapSense_1_Control.c **** * This software is owned by Cypress Semiconductor Corporation (Cypress) and is
  15:Generated_Source\PSoC4/CapSense_1_Control.c **** * protected by and subject to worldwide patent protection (United States and
  16:Generated_Source\PSoC4/CapSense_1_Control.c **** * foreign), United States copyright laws and international treaty provisions.
  17:Generated_Source\PSoC4/CapSense_1_Control.c **** * Cypress hereby grants to licensee a personal, non-exclusive, non-transferable
  18:Generated_Source\PSoC4/CapSense_1_Control.c **** * license to copy, use, modify, create derivative works of, and compile the
  19:Generated_Source\PSoC4/CapSense_1_Control.c **** * Cypress Source Code and derivative works for the sole purpose of creating
  20:Generated_Source\PSoC4/CapSense_1_Control.c **** * custom software in support of licensee product to be used only in conjunction
  21:Generated_Source\PSoC4/CapSense_1_Control.c **** * with a Cypress integrated circuit as specified in the applicable agreement.
  22:Generated_Source\PSoC4/CapSense_1_Control.c **** * Any reproduction, modification, translation, compilation, or representation of
  23:Generated_Source\PSoC4/CapSense_1_Control.c **** * this software except as specified above is prohibited without the express
  24:Generated_Source\PSoC4/CapSense_1_Control.c **** * written permission of Cypress.
  25:Generated_Source\PSoC4/CapSense_1_Control.c **** *
  26:Generated_Source\PSoC4/CapSense_1_Control.c **** * Disclaimer: CYPRESS MAKES NO WARRANTY OF ANY KIND, EXPRESS OR IMPLIED, WITH
  27:Generated_Source\PSoC4/CapSense_1_Control.c **** * REGARD TO THIS MATERIAL, INCLUDING, BUT NOT LIMITED TO, THE IMPLIED
  28:Generated_Source\PSoC4/CapSense_1_Control.c **** * WARRANTIES OF MERCHANTABILITY AND FITNESS FOR A PARTICULAR PURPOSE.
  29:Generated_Source\PSoC4/CapSense_1_Control.c **** * Cypress reserves the right to make changes without further notice to the
  30:Generated_Source\PSoC4/CapSense_1_Control.c **** * materials described herein. Cypress does not assume any liability arising out
ARM GAS  C:\Users\MICHAE~1.MAC\AppData\Local\Temp\ccEkVQ2o.s 			page 2


  31:Generated_Source\PSoC4/CapSense_1_Control.c **** * of the application or use of any product or circuit described herein. Cypress
  32:Generated_Source\PSoC4/CapSense_1_Control.c **** * does not authorize its products for use as critical components in life-support
  33:Generated_Source\PSoC4/CapSense_1_Control.c **** * systems where a malfunction or failure may reasonably be expected to result in
  34:Generated_Source\PSoC4/CapSense_1_Control.c **** * significant injury to the user. The inclusion of Cypress' product in a life-
  35:Generated_Source\PSoC4/CapSense_1_Control.c **** * support systems application implies that the manufacturer assumes all risk of
  36:Generated_Source\PSoC4/CapSense_1_Control.c **** * such use and in doing so indemnifies Cypress against all charges. Use may be
  37:Generated_Source\PSoC4/CapSense_1_Control.c **** * limited by and subject to the applicable Cypress software license agreement.
  38:Generated_Source\PSoC4/CapSense_1_Control.c **** *******************************************************************************/
  39:Generated_Source\PSoC4/CapSense_1_Control.c **** 
  40:Generated_Source\PSoC4/CapSense_1_Control.c **** #include "cytypes.h"
  41:Generated_Source\PSoC4/CapSense_1_Control.c **** #include "CyLib.h"
  42:Generated_Source\PSoC4/CapSense_1_Control.c **** #include "cyPm.h"
  43:Generated_Source\PSoC4/CapSense_1_Control.c **** #include "CapSense_1_Configuration.h"
  44:Generated_Source\PSoC4/CapSense_1_Control.c **** #include "CapSense_1_Structure.h"
  45:Generated_Source\PSoC4/CapSense_1_Control.c **** #include "CapSense_1_Control.h"
  46:Generated_Source\PSoC4/CapSense_1_Control.c **** #include "CapSense_1_Processing.h"
  47:Generated_Source\PSoC4/CapSense_1_Control.c **** #include "CapSense_1_Filter.h"
  48:Generated_Source\PSoC4/CapSense_1_Control.c **** #include "CapSense_1_Sensing.h"
  49:Generated_Source\PSoC4/CapSense_1_Control.c **** #include "CapSense_1_Tuner.h"
  50:Generated_Source\PSoC4/CapSense_1_Control.c **** 
  51:Generated_Source\PSoC4/CapSense_1_Control.c **** #if (CapSense_1_ENABLE == CapSense_1_SELF_TEST_EN)
  52:Generated_Source\PSoC4/CapSense_1_Control.c ****     #include "CapSense_1_SelfTest.h"
  53:Generated_Source\PSoC4/CapSense_1_Control.c **** #endif
  54:Generated_Source\PSoC4/CapSense_1_Control.c **** 
  55:Generated_Source\PSoC4/CapSense_1_Control.c **** #if (0u != CapSense_1_ADC_EN)
  56:Generated_Source\PSoC4/CapSense_1_Control.c ****     #include "CapSense_1_Adc.h"
  57:Generated_Source\PSoC4/CapSense_1_Control.c **** #endif /* (0u != CapSense_1_ADC_EN) */
  58:Generated_Source\PSoC4/CapSense_1_Control.c **** 
  59:Generated_Source\PSoC4/CapSense_1_Control.c **** #if ((CapSense_1_ENABLE == CapSense_1_GES_GLOBAL_EN) || \
  60:Generated_Source\PSoC4/CapSense_1_Control.c ****      (CapSense_1_ENABLE == CapSense_1_BALLISTIC_MULTIPLIER_EN))
  61:Generated_Source\PSoC4/CapSense_1_Control.c ****     #include "CapSense_1_Gesture.h"
  62:Generated_Source\PSoC4/CapSense_1_Control.c **** #endif /* (CapSense_1_ENABLE == CapSense_1_GES_GLOBAL_EN) */
  63:Generated_Source\PSoC4/CapSense_1_Control.c **** 
  64:Generated_Source\PSoC4/CapSense_1_Control.c **** /**************************************************************************************************
  65:Generated_Source\PSoC4/CapSense_1_Control.c **** * Local definition
  66:Generated_Source\PSoC4/CapSense_1_Control.c **** ***************************************************************************************************
  67:Generated_Source\PSoC4/CapSense_1_Control.c **** #define CapSense_1_INIT_DONE   (1u)
  68:Generated_Source\PSoC4/CapSense_1_Control.c **** #define CapSense_1_INIT_NEEDED (0u)
  69:Generated_Source\PSoC4/CapSense_1_Control.c **** 
  70:Generated_Source\PSoC4/CapSense_1_Control.c **** /**************************************************************************************************
  71:Generated_Source\PSoC4/CapSense_1_Control.c **** * Local variables
  72:Generated_Source\PSoC4/CapSense_1_Control.c **** ***************************************************************************************************
  73:Generated_Source\PSoC4/CapSense_1_Control.c **** static uint8 CapSense_1_InitVar = CapSense_1_INIT_NEEDED;
  74:Generated_Source\PSoC4/CapSense_1_Control.c **** 
  75:Generated_Source\PSoC4/CapSense_1_Control.c **** /*******************************************************************************
  76:Generated_Source\PSoC4/CapSense_1_Control.c **** * Function Name: CapSense_1_Start
  77:Generated_Source\PSoC4/CapSense_1_Control.c **** ****************************************************************************//**
  78:Generated_Source\PSoC4/CapSense_1_Control.c **** *
  79:Generated_Source\PSoC4/CapSense_1_Control.c **** * \brief
  80:Generated_Source\PSoC4/CapSense_1_Control.c **** *  Initializes the Component hardware and firmware modules. This function is
  81:Generated_Source\PSoC4/CapSense_1_Control.c **** *  called by the application program prior to calling any other function of the
  82:Generated_Source\PSoC4/CapSense_1_Control.c **** *  Component.
  83:Generated_Source\PSoC4/CapSense_1_Control.c **** *
  84:Generated_Source\PSoC4/CapSense_1_Control.c **** * \details
  85:Generated_Source\PSoC4/CapSense_1_Control.c **** *  This function initializes the Component hardware and firmware modules and
  86:Generated_Source\PSoC4/CapSense_1_Control.c **** *  is called by the application program prior to calling any other API
  87:Generated_Source\PSoC4/CapSense_1_Control.c **** *  of the Component. When this function is called, the following tasks are
ARM GAS  C:\Users\MICHAE~1.MAC\AppData\Local\Temp\ccEkVQ2o.s 			page 3


  88:Generated_Source\PSoC4/CapSense_1_Control.c **** *  executed as part of the initialization process:
  89:Generated_Source\PSoC4/CapSense_1_Control.c **** *    1. Initialize the registers of the \ref group_structures variable
  90:Generated_Source\PSoC4/CapSense_1_Control.c **** *       CapSense_1_dsRam based on the user selection in the Component
  91:Generated_Source\PSoC4/CapSense_1_Control.c **** *       configuration wizard.
  92:Generated_Source\PSoC4/CapSense_1_Control.c **** *    2. Configure the hardware to perform capacitive sensing.
  93:Generated_Source\PSoC4/CapSense_1_Control.c **** *    \if SECTION_C_HIGH_LEVEL
  94:Generated_Source\PSoC4/CapSense_1_Control.c **** *    3. If SmartSense Auto-tuning is selected for the CSD Tuning mode in the
  95:Generated_Source\PSoC4/CapSense_1_Control.c **** *       Basic tab, the auto-tuning algorithm is executed to set the optimal
  96:Generated_Source\PSoC4/CapSense_1_Control.c **** *       values for the hardware parameters of the widgets/sensors.
  97:Generated_Source\PSoC4/CapSense_1_Control.c **** *    \endif
  98:Generated_Source\PSoC4/CapSense_1_Control.c **** *    4. Calibrate the sensors and find the optimal values for IDACs of each
  99:Generated_Source\PSoC4/CapSense_1_Control.c **** *       widget / sensor, if the Enable IDAC auto-calibration is enabled in the
 100:Generated_Source\PSoC4/CapSense_1_Control.c **** *       CSD Setting or CSX Setting tabs.
 101:Generated_Source\PSoC4/CapSense_1_Control.c **** *    5. Perform scanning for all the sensors and initialize the baseline history.
 102:Generated_Source\PSoC4/CapSense_1_Control.c **** *    6. If the firmware filters are enabled in the Advanced General tab, the
 103:Generated_Source\PSoC4/CapSense_1_Control.c **** *       filter histories are also initialized.
 104:Generated_Source\PSoC4/CapSense_1_Control.c **** 
 105:Generated_Source\PSoC4/CapSense_1_Control.c **** *  Any next call of this API repeats an initialization process except for
 106:Generated_Source\PSoC4/CapSense_1_Control.c **** *  data structure initialization. Therefore, it is possible to change the
 107:Generated_Source\PSoC4/CapSense_1_Control.c **** *  Component configuration from the application program by writing registers to the
 108:Generated_Source\PSoC4/CapSense_1_Control.c **** *  data structure and calling this function again. This is also
 109:Generated_Source\PSoC4/CapSense_1_Control.c **** *  done inside the CapSense_1_RunTuner() function when a restart command
 110:Generated_Source\PSoC4/CapSense_1_Control.c **** *  is received.
 111:Generated_Source\PSoC4/CapSense_1_Control.c **** *
 112:Generated_Source\PSoC4/CapSense_1_Control.c **** *  When the Component operation is stopped by the CapSense_1_Stop()
 113:Generated_Source\PSoC4/CapSense_1_Control.c **** *  function, the CapSense_1_Start() function repeats an initialization
 114:Generated_Source\PSoC4/CapSense_1_Control.c **** *  process including data structure initialization.
 115:Generated_Source\PSoC4/CapSense_1_Control.c **** *
 116:Generated_Source\PSoC4/CapSense_1_Control.c **** * \return
 117:Generated_Source\PSoC4/CapSense_1_Control.c **** *  Returns the status of the initialization process. If CYRET_SUCCESS is not
 118:Generated_Source\PSoC4/CapSense_1_Control.c **** *  received, some of the initialization fails and the Component may not operate
 119:Generated_Source\PSoC4/CapSense_1_Control.c **** *  as expected.
 120:Generated_Source\PSoC4/CapSense_1_Control.c **** *
 121:Generated_Source\PSoC4/CapSense_1_Control.c **** *******************************************************************************/
 122:Generated_Source\PSoC4/CapSense_1_Control.c **** cystatus CapSense_1_Start(void)
 123:Generated_Source\PSoC4/CapSense_1_Control.c **** {
 124:Generated_Source\PSoC4/CapSense_1_Control.c ****     cystatus result;
 125:Generated_Source\PSoC4/CapSense_1_Control.c **** 
 126:Generated_Source\PSoC4/CapSense_1_Control.c ****     /* Initialize CapSense_1 modules */
 127:Generated_Source\PSoC4/CapSense_1_Control.c ****     result = CapSense_1_Initialize();
 128:Generated_Source\PSoC4/CapSense_1_Control.c **** 
 129:Generated_Source\PSoC4/CapSense_1_Control.c ****     #if (CapSense_1_CSD_AUTOTUNE != CapSense_1_CSD_SS_DIS)
 130:Generated_Source\PSoC4/CapSense_1_Control.c ****         if (CYRET_SUCCESS == result)
 131:Generated_Source\PSoC4/CapSense_1_Control.c ****         {
 132:Generated_Source\PSoC4/CapSense_1_Control.c ****             result = CapSense_1_SsAutoTune();
 133:Generated_Source\PSoC4/CapSense_1_Control.c ****         }
 134:Generated_Source\PSoC4/CapSense_1_Control.c ****     #endif /* #if (CapSense_1_CSD_AUTOTUNE != CapSense_1_CSD_SS_DIS) */
 135:Generated_Source\PSoC4/CapSense_1_Control.c **** 
 136:Generated_Source\PSoC4/CapSense_1_Control.c ****     #if (CapSense_1_ANY_NONSS_AUTOCAL)
 137:Generated_Source\PSoC4/CapSense_1_Control.c ****         if (CYRET_SUCCESS == result)
 138:Generated_Source\PSoC4/CapSense_1_Control.c ****         {
 139:Generated_Source\PSoC4/CapSense_1_Control.c ****             result = CapSense_1_CalibrateAllWidgets();
 140:Generated_Source\PSoC4/CapSense_1_Control.c ****         }
 141:Generated_Source\PSoC4/CapSense_1_Control.c ****     #endif
 142:Generated_Source\PSoC4/CapSense_1_Control.c **** 
 143:Generated_Source\PSoC4/CapSense_1_Control.c ****     if (CYRET_SUCCESS == result)
 144:Generated_Source\PSoC4/CapSense_1_Control.c ****     {
ARM GAS  C:\Users\MICHAE~1.MAC\AppData\Local\Temp\ccEkVQ2o.s 			page 4


 145:Generated_Source\PSoC4/CapSense_1_Control.c ****         result = CapSense_1_ScanAllWidgets();
 146:Generated_Source\PSoC4/CapSense_1_Control.c ****     }
 147:Generated_Source\PSoC4/CapSense_1_Control.c **** 
 148:Generated_Source\PSoC4/CapSense_1_Control.c ****     if (CYRET_SUCCESS == result)
 149:Generated_Source\PSoC4/CapSense_1_Control.c ****     {
 150:Generated_Source\PSoC4/CapSense_1_Control.c ****         /* Wait for scan to finish. */
 151:Generated_Source\PSoC4/CapSense_1_Control.c ****         while(CapSense_1_NOT_BUSY != CapSense_1_IsBusy())
 152:Generated_Source\PSoC4/CapSense_1_Control.c ****         {
 153:Generated_Source\PSoC4/CapSense_1_Control.c ****         }
 154:Generated_Source\PSoC4/CapSense_1_Control.c ****     }
 155:Generated_Source\PSoC4/CapSense_1_Control.c **** 
 156:Generated_Source\PSoC4/CapSense_1_Control.c ****     CapSense_1_FtInitialize();
 157:Generated_Source\PSoC4/CapSense_1_Control.c ****     CapSense_1_InitializeAllBaselines();
 158:Generated_Source\PSoC4/CapSense_1_Control.c **** 
 159:Generated_Source\PSoC4/CapSense_1_Control.c ****     #if(CapSense_1_ENABLE == CapSense_1_GES_GLOBAL_EN)
 160:Generated_Source\PSoC4/CapSense_1_Control.c ****         if (CYRET_SUCCESS == result)
 161:Generated_Source\PSoC4/CapSense_1_Control.c ****         {
 162:Generated_Source\PSoC4/CapSense_1_Control.c ****             CapSense_1_InitializeGestures();
 163:Generated_Source\PSoC4/CapSense_1_Control.c ****         }
 164:Generated_Source\PSoC4/CapSense_1_Control.c ****     #endif /* (CapSense_1_ENABLE == CapSense_1_GES_GLOBAL_EN) */
 165:Generated_Source\PSoC4/CapSense_1_Control.c **** 
 166:Generated_Source\PSoC4/CapSense_1_Control.c ****     #if (0u != CapSense_1_BALLISTIC_MULTIPLIER_EN)
 167:Generated_Source\PSoC4/CapSense_1_Control.c ****         if (CYRET_SUCCESS == result)
 168:Generated_Source\PSoC4/CapSense_1_Control.c ****         {
 169:Generated_Source\PSoC4/CapSense_1_Control.c ****             CapSense_1_InitializeBallisticMultiplier();
 170:Generated_Source\PSoC4/CapSense_1_Control.c ****         }
 171:Generated_Source\PSoC4/CapSense_1_Control.c ****     #endif /* (0u != CapSense_1_BALLISTIC_MULTIPLIER_EN) */
 172:Generated_Source\PSoC4/CapSense_1_Control.c **** 
 173:Generated_Source\PSoC4/CapSense_1_Control.c ****     #if (0u != CapSense_1_ADC_EN)
 174:Generated_Source\PSoC4/CapSense_1_Control.c ****         CapSense_1_AdcInitialize();
 175:Generated_Source\PSoC4/CapSense_1_Control.c ****     #endif /* (0u != CapSense_1_ADC_EN) */
 176:Generated_Source\PSoC4/CapSense_1_Control.c **** 
 177:Generated_Source\PSoC4/CapSense_1_Control.c ****     return result;
 178:Generated_Source\PSoC4/CapSense_1_Control.c **** }
 179:Generated_Source\PSoC4/CapSense_1_Control.c **** 
 180:Generated_Source\PSoC4/CapSense_1_Control.c **** /*******************************************************************************
 181:Generated_Source\PSoC4/CapSense_1_Control.c **** * Function Name: CapSense_1_Initialize
 182:Generated_Source\PSoC4/CapSense_1_Control.c **** ****************************************************************************//**
 183:Generated_Source\PSoC4/CapSense_1_Control.c **** *
 184:Generated_Source\PSoC4/CapSense_1_Control.c **** * \brief
 185:Generated_Source\PSoC4/CapSense_1_Control.c **** *  This function initializes the CapSense_1 Component.
 186:Generated_Source\PSoC4/CapSense_1_Control.c **** *
 187:Generated_Source\PSoC4/CapSense_1_Control.c **** * \details
 188:Generated_Source\PSoC4/CapSense_1_Control.c **** *  This API initializes all sub-modules of the CapSense_1 Component:
 189:Generated_Source\PSoC4/CapSense_1_Control.c **** *   - Data Structure - set the default Component parameters defined in the Customizer.
 190:Generated_Source\PSoC4/CapSense_1_Control.c **** *   - Data Processing - resets all widget statuses.
 191:Generated_Source\PSoC4/CapSense_1_Control.c **** *   - Tuner - resets tuning state.
 192:Generated_Source\PSoC4/CapSense_1_Control.c **** *   - Sensing - prepares CSD HW for operation.
 193:Generated_Source\PSoC4/CapSense_1_Control.c **** *
 194:Generated_Source\PSoC4/CapSense_1_Control.c **** *  Note that Data Structure module is initialized only once after the reset or
 195:Generated_Source\PSoC4/CapSense_1_Control.c **** *  CapSense_1_Stop() API is called. The repeated calls of Initialize API
 196:Generated_Source\PSoC4/CapSense_1_Control.c **** *  will not re-initialize Data Structure. This is done to preserve Component
 197:Generated_Source\PSoC4/CapSense_1_Control.c **** *  parameters that user may set in runtime.
 198:Generated_Source\PSoC4/CapSense_1_Control.c **** *
 199:Generated_Source\PSoC4/CapSense_1_Control.c **** * \return
 200:Generated_Source\PSoC4/CapSense_1_Control.c **** *  Return CYRET_SUCCESS if the initialization was successful.
 201:Generated_Source\PSoC4/CapSense_1_Control.c **** *
ARM GAS  C:\Users\MICHAE~1.MAC\AppData\Local\Temp\ccEkVQ2o.s 			page 5


 202:Generated_Source\PSoC4/CapSense_1_Control.c **** *******************************************************************************/
 203:Generated_Source\PSoC4/CapSense_1_Control.c **** cystatus CapSense_1_Initialize(void)
 204:Generated_Source\PSoC4/CapSense_1_Control.c **** {
  28              		.loc 1 204 0
  29              		.cfi_startproc
  30              		@ args = 0, pretend = 0, frame = 0
  31              		@ frame_needed = 0, uses_anonymous_args = 0
  32 0000 10B5     		push	{r4, lr}
  33              		.cfi_def_cfa_offset 8
  34              		.cfi_offset 4, -8
  35              		.cfi_offset 14, -4
 205:Generated_Source\PSoC4/CapSense_1_Control.c ****     cystatus result;
 206:Generated_Source\PSoC4/CapSense_1_Control.c **** 
 207:Generated_Source\PSoC4/CapSense_1_Control.c ****     /* The Data Structure and Tuner are initialized only once */
 208:Generated_Source\PSoC4/CapSense_1_Control.c ****     if (CapSense_1_INIT_NEEDED == CapSense_1_InitVar)
  36              		.loc 1 208 0
  37 0002 084B     		ldr	r3, .L3
  38 0004 1B78     		ldrb	r3, [r3]
  39 0006 002B     		cmp	r3, #0
  40 0008 06D1     		bne	.L2
 209:Generated_Source\PSoC4/CapSense_1_Control.c ****     {
 210:Generated_Source\PSoC4/CapSense_1_Control.c ****         CapSense_1_DsInitialize();
  41              		.loc 1 210 0
  42 000a FFF7FEFF 		bl	CapSense_1_DsInitialize
  43              	.LVL0:
 211:Generated_Source\PSoC4/CapSense_1_Control.c ****         CapSense_1_TuInitialize();
  44              		.loc 1 211 0
  45 000e FFF7FEFF 		bl	CapSense_1_TuInitialize
  46              	.LVL1:
 212:Generated_Source\PSoC4/CapSense_1_Control.c ****         CapSense_1_InitVar = CapSense_1_INIT_DONE;
  47              		.loc 1 212 0
  48 0012 0122     		movs	r2, #1
  49 0014 034B     		ldr	r3, .L3
  50 0016 1A70     		strb	r2, [r3]
  51              	.L2:
 213:Generated_Source\PSoC4/CapSense_1_Control.c ****     }
 214:Generated_Source\PSoC4/CapSense_1_Control.c **** 
 215:Generated_Source\PSoC4/CapSense_1_Control.c ****     CapSense_1_DpInitialize();
  52              		.loc 1 215 0
  53 0018 FFF7FEFF 		bl	CapSense_1_DpInitialize
  54              	.LVL2:
 216:Generated_Source\PSoC4/CapSense_1_Control.c **** 
 217:Generated_Source\PSoC4/CapSense_1_Control.c ****     result = CapSense_1_SsInitialize();
  55              		.loc 1 217 0
  56 001c FFF7FEFF 		bl	CapSense_1_SsInitialize
  57              	.LVL3:
 218:Generated_Source\PSoC4/CapSense_1_Control.c **** 
 219:Generated_Source\PSoC4/CapSense_1_Control.c ****     return result;
 220:Generated_Source\PSoC4/CapSense_1_Control.c **** }
  58              		.loc 1 220 0
  59              		@ sp needed
  60 0020 10BD     		pop	{r4, pc}
  61              	.L4:
  62 0022 C046     		.align	2
  63              	.L3:
  64 0024 00000000 		.word	.LANCHOR0
  65              		.cfi_endproc
ARM GAS  C:\Users\MICHAE~1.MAC\AppData\Local\Temp\ccEkVQ2o.s 			page 6


  66              	.LFE2:
  67              		.size	CapSense_1_Initialize, .-CapSense_1_Initialize
  68              		.section	.text.CapSense_1_Start,"ax",%progbits
  69              		.align	2
  70              		.global	CapSense_1_Start
  71              		.code	16
  72              		.thumb_func
  73              		.type	CapSense_1_Start, %function
  74              	CapSense_1_Start:
  75              	.LFB1:
 123:Generated_Source\PSoC4/CapSense_1_Control.c ****     cystatus result;
  76              		.loc 1 123 0
  77              		.cfi_startproc
  78              		@ args = 0, pretend = 0, frame = 0
  79              		@ frame_needed = 0, uses_anonymous_args = 0
  80 0000 10B5     		push	{r4, lr}
  81              		.cfi_def_cfa_offset 8
  82              		.cfi_offset 4, -8
  83              		.cfi_offset 14, -4
 127:Generated_Source\PSoC4/CapSense_1_Control.c **** 
  84              		.loc 1 127 0
  85 0002 FFF7FEFF 		bl	CapSense_1_Initialize
  86              	.LVL4:
  87 0006 041E     		subs	r4, r0, #0
  88              	.LVL5:
 137:Generated_Source\PSoC4/CapSense_1_Control.c ****         {
  89              		.loc 1 137 0
  90 0008 02D1     		bne	.L6
 139:Generated_Source\PSoC4/CapSense_1_Control.c ****         }
  91              		.loc 1 139 0
  92 000a FFF7FEFF 		bl	CapSense_1_CalibrateAllWidgets
  93              	.LVL6:
  94 000e 0400     		movs	r4, r0
  95              	.LVL7:
  96              	.L6:
 143:Generated_Source\PSoC4/CapSense_1_Control.c ****     {
  97              		.loc 1 143 0
  98 0010 002C     		cmp	r4, #0
  99 0012 02D1     		bne	.L7
 145:Generated_Source\PSoC4/CapSense_1_Control.c ****     }
 100              		.loc 1 145 0
 101 0014 FFF7FEFF 		bl	CapSense_1_ScanAllWidgets
 102              	.LVL8:
 103 0018 0400     		movs	r4, r0
 104              	.LVL9:
 105              	.L7:
 148:Generated_Source\PSoC4/CapSense_1_Control.c ****     {
 106              		.loc 1 148 0
 107 001a 002C     		cmp	r4, #0
 108 001c 03D1     		bne	.L8
 109              	.LVL10:
 110              	.L9:
 151:Generated_Source\PSoC4/CapSense_1_Control.c ****         {
 111              		.loc 1 151 0 discriminator 1
 112 001e FFF7FEFF 		bl	CapSense_1_IsBusy
 113              	.LVL11:
 114 0022 0028     		cmp	r0, #0
ARM GAS  C:\Users\MICHAE~1.MAC\AppData\Local\Temp\ccEkVQ2o.s 			page 7


 115 0024 FBD1     		bne	.L9
 116              	.L8:
 156:Generated_Source\PSoC4/CapSense_1_Control.c ****     CapSense_1_InitializeAllBaselines();
 117              		.loc 1 156 0
 118 0026 FFF7FEFF 		bl	CapSense_1_FtInitialize
 119              	.LVL12:
 157:Generated_Source\PSoC4/CapSense_1_Control.c **** 
 120              		.loc 1 157 0
 121 002a FFF7FEFF 		bl	CapSense_1_InitializeAllBaselines
 122              	.LVL13:
 178:Generated_Source\PSoC4/CapSense_1_Control.c **** 
 123              		.loc 1 178 0
 124 002e 2000     		movs	r0, r4
 125              		@ sp needed
 126              	.LVL14:
 127 0030 10BD     		pop	{r4, pc}
 128              		.cfi_endproc
 129              	.LFE1:
 130              		.size	CapSense_1_Start, .-CapSense_1_Start
 131 0032 C046     		.section	.text.CapSense_1_Stop,"ax",%progbits
 132              		.align	2
 133              		.global	CapSense_1_Stop
 134              		.code	16
 135              		.thumb_func
 136              		.type	CapSense_1_Stop, %function
 137              	CapSense_1_Stop:
 138              	.LFB3:
 221:Generated_Source\PSoC4/CapSense_1_Control.c **** 
 222:Generated_Source\PSoC4/CapSense_1_Control.c **** /*******************************************************************************
 223:Generated_Source\PSoC4/CapSense_1_Control.c **** * Function Name: CapSense_1_Stop
 224:Generated_Source\PSoC4/CapSense_1_Control.c **** ****************************************************************************//**
 225:Generated_Source\PSoC4/CapSense_1_Control.c **** *
 226:Generated_Source\PSoC4/CapSense_1_Control.c **** * \brief
 227:Generated_Source\PSoC4/CapSense_1_Control.c **** *  Stops the Component operation.
 228:Generated_Source\PSoC4/CapSense_1_Control.c **** *
 229:Generated_Source\PSoC4/CapSense_1_Control.c **** * \details
 230:Generated_Source\PSoC4/CapSense_1_Control.c **** *  This function stops the Component operation, no sensor scanning can be
 231:Generated_Source\PSoC4/CapSense_1_Control.c **** *  executed when the Component is stopped. Once stopped, the hardware block may
 232:Generated_Source\PSoC4/CapSense_1_Control.c **** *  be reconfigured by the application program for any other special usage. The
 233:Generated_Source\PSoC4/CapSense_1_Control.c **** *  Component operation can be resumed by calling the CapSense_1_Resume()
 234:Generated_Source\PSoC4/CapSense_1_Control.c **** *  function or the Component can be reset by calling the
 235:Generated_Source\PSoC4/CapSense_1_Control.c **** *  CapSense_1_Start() function.
 236:Generated_Source\PSoC4/CapSense_1_Control.c **** *
 237:Generated_Source\PSoC4/CapSense_1_Control.c **** *  This function is called when no scanning is in progress.
 238:Generated_Source\PSoC4/CapSense_1_Control.c **** *  I.e. CapSense_1_IsBusy() returns a non-busy status.
 239:Generated_Source\PSoC4/CapSense_1_Control.c **** *
 240:Generated_Source\PSoC4/CapSense_1_Control.c **** * \return
 241:Generated_Source\PSoC4/CapSense_1_Control.c **** *  Returns the status of the stop process. If CYRET_SUCCESS is not received,
 242:Generated_Source\PSoC4/CapSense_1_Control.c **** *  the stop process fails and retries may be required.
 243:Generated_Source\PSoC4/CapSense_1_Control.c **** *
 244:Generated_Source\PSoC4/CapSense_1_Control.c **** *******************************************************************************/
 245:Generated_Source\PSoC4/CapSense_1_Control.c **** cystatus CapSense_1_Stop(void)
 246:Generated_Source\PSoC4/CapSense_1_Control.c **** {
 139              		.loc 1 246 0
 140              		.cfi_startproc
 141              		@ args = 0, pretend = 0, frame = 0
 142              		@ frame_needed = 0, uses_anonymous_args = 0
ARM GAS  C:\Users\MICHAE~1.MAC\AppData\Local\Temp\ccEkVQ2o.s 			page 8


 143              		@ link register save eliminated.
 144              	.LVL15:
 247:Generated_Source\PSoC4/CapSense_1_Control.c ****     cystatus result = CYRET_SUCCESS;
 248:Generated_Source\PSoC4/CapSense_1_Control.c **** 
 249:Generated_Source\PSoC4/CapSense_1_Control.c ****     #if (CapSense_1_ENABLE == CapSense_1_ADC_EN)
 250:Generated_Source\PSoC4/CapSense_1_Control.c ****         /* Release CSD resources */
 251:Generated_Source\PSoC4/CapSense_1_Control.c ****         result = CapSense_1_SsReleaseResources();
 252:Generated_Source\PSoC4/CapSense_1_Control.c **** 
 253:Generated_Source\PSoC4/CapSense_1_Control.c ****         /* Release ADC resources */
 254:Generated_Source\PSoC4/CapSense_1_Control.c ****         CapSense_1_AdcStop();
 255:Generated_Source\PSoC4/CapSense_1_Control.c ****     #endif /* (CapSense_1_ENABLE == CapSense_1_ADC_EN) */
 256:Generated_Source\PSoC4/CapSense_1_Control.c **** 
 257:Generated_Source\PSoC4/CapSense_1_Control.c ****     CapSense_1_InitVar = CapSense_1_INIT_NEEDED;
 145              		.loc 1 257 0
 146 0000 0022     		movs	r2, #0
 147 0002 024B     		ldr	r3, .L11
 148 0004 1A70     		strb	r2, [r3]
 258:Generated_Source\PSoC4/CapSense_1_Control.c **** 
 259:Generated_Source\PSoC4/CapSense_1_Control.c ****     return result;
 260:Generated_Source\PSoC4/CapSense_1_Control.c **** }
 149              		.loc 1 260 0
 150 0006 0020     		movs	r0, #0
 151              		@ sp needed
 152 0008 7047     		bx	lr
 153              	.L12:
 154 000a C046     		.align	2
 155              	.L11:
 156 000c 00000000 		.word	.LANCHOR0
 157              		.cfi_endproc
 158              	.LFE3:
 159              		.size	CapSense_1_Stop, .-CapSense_1_Stop
 160              		.section	.text.CapSense_1_Resume,"ax",%progbits
 161              		.align	2
 162              		.global	CapSense_1_Resume
 163              		.code	16
 164              		.thumb_func
 165              		.type	CapSense_1_Resume, %function
 166              	CapSense_1_Resume:
 167              	.LFB4:
 261:Generated_Source\PSoC4/CapSense_1_Control.c **** 
 262:Generated_Source\PSoC4/CapSense_1_Control.c **** /*******************************************************************************
 263:Generated_Source\PSoC4/CapSense_1_Control.c **** * Function Name: CapSense_1_Resume
 264:Generated_Source\PSoC4/CapSense_1_Control.c **** ****************************************************************************//**
 265:Generated_Source\PSoC4/CapSense_1_Control.c **** *
 266:Generated_Source\PSoC4/CapSense_1_Control.c **** * \brief
 267:Generated_Source\PSoC4/CapSense_1_Control.c **** *  Resumes the Component operation if the CapSense_1_Stop() function was
 268:Generated_Source\PSoC4/CapSense_1_Control.c **** *  called previously.
 269:Generated_Source\PSoC4/CapSense_1_Control.c **** *
 270:Generated_Source\PSoC4/CapSense_1_Control.c **** * \details
 271:Generated_Source\PSoC4/CapSense_1_Control.c **** *  This function resumes the Component operation if the operation is stopped
 272:Generated_Source\PSoC4/CapSense_1_Control.c **** *  previously by the CapSense_1_Stop() function. The following tasks are
 273:Generated_Source\PSoC4/CapSense_1_Control.c **** *  executed as part of the operation resume process:
 274:Generated_Source\PSoC4/CapSense_1_Control.c **** *    1. Reset all the Widgets/Sensors statuses.
 275:Generated_Source\PSoC4/CapSense_1_Control.c **** *    2. Configure the hardware to perform capacitive sensing.
 276:Generated_Source\PSoC4/CapSense_1_Control.c **** *
 277:Generated_Source\PSoC4/CapSense_1_Control.c **** * \return
 278:Generated_Source\PSoC4/CapSense_1_Control.c **** *  Returns the status of the resume process. If CYRET_SUCCESS is not received,
ARM GAS  C:\Users\MICHAE~1.MAC\AppData\Local\Temp\ccEkVQ2o.s 			page 9


 279:Generated_Source\PSoC4/CapSense_1_Control.c **** *  the resume process fails and retries may be required.
 280:Generated_Source\PSoC4/CapSense_1_Control.c **** *
 281:Generated_Source\PSoC4/CapSense_1_Control.c **** *******************************************************************************/
 282:Generated_Source\PSoC4/CapSense_1_Control.c **** cystatus CapSense_1_Resume(void)
 283:Generated_Source\PSoC4/CapSense_1_Control.c **** {
 168              		.loc 1 283 0
 169              		.cfi_startproc
 170              		@ args = 0, pretend = 0, frame = 0
 171              		@ frame_needed = 0, uses_anonymous_args = 0
 172 0000 10B5     		push	{r4, lr}
 173              		.cfi_def_cfa_offset 8
 174              		.cfi_offset 4, -8
 175              		.cfi_offset 14, -4
 284:Generated_Source\PSoC4/CapSense_1_Control.c ****     cystatus result;
 285:Generated_Source\PSoC4/CapSense_1_Control.c **** 
 286:Generated_Source\PSoC4/CapSense_1_Control.c ****     /* The Tuner are initialized only once in order not to break communication */
 287:Generated_Source\PSoC4/CapSense_1_Control.c ****     if (CapSense_1_INIT_NEEDED == CapSense_1_InitVar)
 176              		.loc 1 287 0
 177 0002 074B     		ldr	r3, .L15
 178 0004 1B78     		ldrb	r3, [r3]
 179 0006 002B     		cmp	r3, #0
 180 0008 04D1     		bne	.L14
 288:Generated_Source\PSoC4/CapSense_1_Control.c ****     {
 289:Generated_Source\PSoC4/CapSense_1_Control.c ****         CapSense_1_TuInitialize();
 181              		.loc 1 289 0
 182 000a FFF7FEFF 		bl	CapSense_1_TuInitialize
 183              	.LVL16:
 290:Generated_Source\PSoC4/CapSense_1_Control.c ****         CapSense_1_InitVar = CapSense_1_INIT_DONE;
 184              		.loc 1 290 0
 185 000e 0122     		movs	r2, #1
 186 0010 034B     		ldr	r3, .L15
 187 0012 1A70     		strb	r2, [r3]
 188              	.L14:
 291:Generated_Source\PSoC4/CapSense_1_Control.c ****     }
 292:Generated_Source\PSoC4/CapSense_1_Control.c ****     CapSense_1_DpInitialize();
 189              		.loc 1 292 0
 190 0014 FFF7FEFF 		bl	CapSense_1_DpInitialize
 191              	.LVL17:
 293:Generated_Source\PSoC4/CapSense_1_Control.c **** 
 294:Generated_Source\PSoC4/CapSense_1_Control.c ****     result = CapSense_1_SsInitialize();
 192              		.loc 1 294 0
 193 0018 FFF7FEFF 		bl	CapSense_1_SsInitialize
 194              	.LVL18:
 295:Generated_Source\PSoC4/CapSense_1_Control.c **** 
 296:Generated_Source\PSoC4/CapSense_1_Control.c ****     return result;
 297:Generated_Source\PSoC4/CapSense_1_Control.c **** }
 195              		.loc 1 297 0
 196              		@ sp needed
 197 001c 10BD     		pop	{r4, pc}
 198              	.L16:
 199 001e C046     		.align	2
 200              	.L15:
 201 0020 00000000 		.word	.LANCHOR0
 202              		.cfi_endproc
 203              	.LFE4:
 204              		.size	CapSense_1_Resume, .-CapSense_1_Resume
 205              		.section	.text.CapSense_1_ProcessAllWidgets,"ax",%progbits
ARM GAS  C:\Users\MICHAE~1.MAC\AppData\Local\Temp\ccEkVQ2o.s 			page 10


 206              		.align	2
 207              		.global	CapSense_1_ProcessAllWidgets
 208              		.code	16
 209              		.thumb_func
 210              		.type	CapSense_1_ProcessAllWidgets, %function
 211              	CapSense_1_ProcessAllWidgets:
 212              	.LFB5:
 298:Generated_Source\PSoC4/CapSense_1_Control.c **** 
 299:Generated_Source\PSoC4/CapSense_1_Control.c **** /*******************************************************************************
 300:Generated_Source\PSoC4/CapSense_1_Control.c **** * Function Name: CapSense_1_ProcessAllWidgets
 301:Generated_Source\PSoC4/CapSense_1_Control.c **** ****************************************************************************//**
 302:Generated_Source\PSoC4/CapSense_1_Control.c **** *
 303:Generated_Source\PSoC4/CapSense_1_Control.c **** * \brief
 304:Generated_Source\PSoC4/CapSense_1_Control.c **** *  Performs full data processing of all enabled widgets.
 305:Generated_Source\PSoC4/CapSense_1_Control.c **** *
 306:Generated_Source\PSoC4/CapSense_1_Control.c **** * \details
 307:Generated_Source\PSoC4/CapSense_1_Control.c **** *  This function performs all data processes for all enabled widgets in the
 308:Generated_Source\PSoC4/CapSense_1_Control.c **** *  Component. The following tasks are executed as part of processing all the
 309:Generated_Source\PSoC4/CapSense_1_Control.c **** *  widgets:
 310:Generated_Source\PSoC4/CapSense_1_Control.c **** *    1. Apply raw count filters to the raw counts, if they are enabled in the
 311:Generated_Source\PSoC4/CapSense_1_Control.c **** *       customizer.
 312:Generated_Source\PSoC4/CapSense_1_Control.c **** *    2. Update the thresholds if the SmartSense Full Auto-Tuning is enabled in
 313:Generated_Source\PSoC4/CapSense_1_Control.c **** *       the customizer.
 314:Generated_Source\PSoC4/CapSense_1_Control.c **** *    3. Update the baselines and difference counts for all the sensors.
 315:Generated_Source\PSoC4/CapSense_1_Control.c **** *    4. Update the sensor and widget status (on/off), update the centroid for
 316:Generated_Source\PSoC4/CapSense_1_Control.c **** *       the sliders and the X/Y position for the touchpads.
 317:Generated_Source\PSoC4/CapSense_1_Control.c **** *
 318:Generated_Source\PSoC4/CapSense_1_Control.c **** *  This function is called by an application program only after all the enabled
 319:Generated_Source\PSoC4/CapSense_1_Control.c **** *  widgets (and sensors) in the Component is scanned. Calling this function
 320:Generated_Source\PSoC4/CapSense_1_Control.c **** *  multiple times without sensor scanning causes unexpected behavior.
 321:Generated_Source\PSoC4/CapSense_1_Control.c **** *
 322:Generated_Source\PSoC4/CapSense_1_Control.c **** *  The disabled widgets are not processed by this function. To disable/enable
 323:Generated_Source\PSoC4/CapSense_1_Control.c **** *  a widget, set the appropriate values in the
 324:Generated_Source\PSoC4/CapSense_1_Control.c **** *  CapSense_1_WDGT_ENABLE<RegisterNumber>_PARAM_ID register using the
 325:Generated_Source\PSoC4/CapSense_1_Control.c **** *  CapSense_1_SetParam() function.
 326:Generated_Source\PSoC4/CapSense_1_Control.c **** *
 327:Generated_Source\PSoC4/CapSense_1_Control.c **** *  If the Ballistic multiplier filter is enabled the Timestamp must be
 328:Generated_Source\PSoC4/CapSense_1_Control.c **** *  updated before calling this function using the
 329:Generated_Source\PSoC4/CapSense_1_Control.c **** *  CapSense_1_IncrementGestureTimestamp() function.
 330:Generated_Source\PSoC4/CapSense_1_Control.c **** *
 331:Generated_Source\PSoC4/CapSense_1_Control.c **** *  If the Self-test library is enabled, this function executes the baseline duplication
 332:Generated_Source\PSoC4/CapSense_1_Control.c **** *  test. Refer to CapSense_1_CheckBaselineDuplication() for details.
 333:Generated_Source\PSoC4/CapSense_1_Control.c **** *
 334:Generated_Source\PSoC4/CapSense_1_Control.c **** *  If the ballistic multiplier filter is enabled, make sure the timestamp is
 335:Generated_Source\PSoC4/CapSense_1_Control.c **** *  updated before calling this function. Use one of the following functions to update
 336:Generated_Source\PSoC4/CapSense_1_Control.c **** *  the timestamp:
 337:Generated_Source\PSoC4/CapSense_1_Control.c **** *  - CapSense_1_IncrementGestureTimestamp().
 338:Generated_Source\PSoC4/CapSense_1_Control.c **** *  - CapSense_1_SetGestureTimestamp().
 339:Generated_Source\PSoC4/CapSense_1_Control.c **** *
 340:Generated_Source\PSoC4/CapSense_1_Control.c **** * \return
 341:Generated_Source\PSoC4/CapSense_1_Control.c **** *  Returns the status of the processing operation. If CYRET_SUCCESS is not received,
 342:Generated_Source\PSoC4/CapSense_1_Control.c **** *  the processing fails and retries may be required.
 343:Generated_Source\PSoC4/CapSense_1_Control.c **** *
 344:Generated_Source\PSoC4/CapSense_1_Control.c **** *******************************************************************************/
 345:Generated_Source\PSoC4/CapSense_1_Control.c **** cystatus CapSense_1_ProcessAllWidgets(void)
 346:Generated_Source\PSoC4/CapSense_1_Control.c **** {
 213              		.loc 1 346 0
ARM GAS  C:\Users\MICHAE~1.MAC\AppData\Local\Temp\ccEkVQ2o.s 			page 11


 214              		.cfi_startproc
 215              		@ args = 0, pretend = 0, frame = 0
 216              		@ frame_needed = 0, uses_anonymous_args = 0
 217 0000 70B5     		push	{r4, r5, r6, lr}
 218              		.cfi_def_cfa_offset 16
 219              		.cfi_offset 4, -16
 220              		.cfi_offset 5, -12
 221              		.cfi_offset 6, -8
 222              		.cfi_offset 14, -4
 223              	.LVL19:
 347:Generated_Source\PSoC4/CapSense_1_Control.c ****     uint32 wdgtId;
 348:Generated_Source\PSoC4/CapSense_1_Control.c ****     cystatus result = CYRET_SUCCESS;
 349:Generated_Source\PSoC4/CapSense_1_Control.c ****     CapSense_1_FLASH_WD_STRUCT const *ptrFlashWdgt;
 350:Generated_Source\PSoC4/CapSense_1_Control.c **** 
 351:Generated_Source\PSoC4/CapSense_1_Control.c ****     ptrFlashWdgt = CapSense_1_dsFlash.wdgtArray;
 224              		.loc 1 351 0
 225 0002 0E4E     		ldr	r6, .L21
 348:Generated_Source\PSoC4/CapSense_1_Control.c ****     CapSense_1_FLASH_WD_STRUCT const *ptrFlashWdgt;
 226              		.loc 1 348 0
 227 0004 0024     		movs	r4, #0
 352:Generated_Source\PSoC4/CapSense_1_Control.c **** 
 353:Generated_Source\PSoC4/CapSense_1_Control.c ****     for (wdgtId = 0u; wdgtId < CapSense_1_TOTAL_WIDGETS; wdgtId++)
 228              		.loc 1 353 0
 229 0006 0025     		movs	r5, #0
 230 0008 13E0     		b	.L18
 231              	.LVL20:
 232              	.L20:
 354:Generated_Source\PSoC4/CapSense_1_Control.c ****     {
 355:Generated_Source\PSoC4/CapSense_1_Control.c ****         if (0uL != CapSense_1_GET_WIDGET_EN_STATUS(wdgtId))
 233              		.loc 1 355 0
 234 000a 6B09     		lsrs	r3, r5, #5
 235 000c 0433     		adds	r3, r3, #4
 236 000e 9B00     		lsls	r3, r3, #2
 237 0010 0B4A     		ldr	r2, .L21+4
 238 0012 9B58     		ldr	r3, [r3, r2]
 239 0014 1F22     		movs	r2, #31
 240 0016 2A40     		ands	r2, r5
 241 0018 D340     		lsrs	r3, r3, r2
 242 001a DB07     		lsls	r3, r3, #31
 243 001c 07D5     		bpl	.L19
 356:Generated_Source\PSoC4/CapSense_1_Control.c ****         {
 357:Generated_Source\PSoC4/CapSense_1_Control.c ****             switch(CapSense_1_GET_SENSE_METHOD(ptrFlashWdgt))
 358:Generated_Source\PSoC4/CapSense_1_Control.c ****             {
 359:Generated_Source\PSoC4/CapSense_1_Control.c ****             #if (0u != CapSense_1_TOTAL_CSD_WIDGETS)
 360:Generated_Source\PSoC4/CapSense_1_Control.c ****                 case CapSense_1_SENSE_METHOD_CSD_E:
 361:Generated_Source\PSoC4/CapSense_1_Control.c ****                     result = CapSense_1_DpProcessCsdWidgetRawCounts(ptrFlashWdgt);
 244              		.loc 1 361 0
 245 001e 3000     		movs	r0, r6
 246 0020 FFF7FEFF 		bl	CapSense_1_DpProcessCsdWidgetRawCounts
 247              	.LVL21:
 248 0024 0400     		movs	r4, r0
 249              	.LVL22:
 362:Generated_Source\PSoC4/CapSense_1_Control.c ****                     CapSense_1_DpProcessCsdWidgetStatus(wdgtId, ptrFlashWdgt);
 250              		.loc 1 362 0
 251 0026 3100     		movs	r1, r6
 252 0028 2800     		movs	r0, r5
 253              	.LVL23:
ARM GAS  C:\Users\MICHAE~1.MAC\AppData\Local\Temp\ccEkVQ2o.s 			page 12


 254 002a FFF7FEFF 		bl	CapSense_1_DpProcessCsdWidgetStatus
 255              	.LVL24:
 256              	.L19:
 363:Generated_Source\PSoC4/CapSense_1_Control.c ****                     break;
 364:Generated_Source\PSoC4/CapSense_1_Control.c ****             #endif /* #if (0u != CapSense_1_TOTAL_CSD_WIDGETS) */
 365:Generated_Source\PSoC4/CapSense_1_Control.c **** 
 366:Generated_Source\PSoC4/CapSense_1_Control.c ****             #if (0u != CapSense_1_TOTAL_CSX_WIDGETS)
 367:Generated_Source\PSoC4/CapSense_1_Control.c ****                 case CapSense_1_SENSE_METHOD_CSX_E:
 368:Generated_Source\PSoC4/CapSense_1_Control.c ****                     result = CapSense_1_DpProcessCsxWidgetRawCounts(ptrFlashWdgt);
 369:Generated_Source\PSoC4/CapSense_1_Control.c ****                     CapSense_1_DpProcessCsxWidgetStatus(wdgtId, ptrFlashWdgt);
 370:Generated_Source\PSoC4/CapSense_1_Control.c ****                     break;
 371:Generated_Source\PSoC4/CapSense_1_Control.c ****             #endif /* #if (0u != CapSense_1_TOTAL_CSX_WIDGETS) */
 372:Generated_Source\PSoC4/CapSense_1_Control.c **** 
 373:Generated_Source\PSoC4/CapSense_1_Control.c ****             #if (0u != CapSense_1_TOTAL_ISX_WIDGETS)
 374:Generated_Source\PSoC4/CapSense_1_Control.c ****                 case CapSense_1_SENSE_METHOD_ISX_E:
 375:Generated_Source\PSoC4/CapSense_1_Control.c ****                     result = CapSense_1_DpProcessIsxWidgetRawCounts(ptrFlashWdgt);
 376:Generated_Source\PSoC4/CapSense_1_Control.c ****                     CapSense_1_DpProcessIsxWidgetStatus(wdgtId, ptrFlashWdgt);
 377:Generated_Source\PSoC4/CapSense_1_Control.c ****                     break;
 378:Generated_Source\PSoC4/CapSense_1_Control.c ****             #endif /* #if (0u != CapSense_1_TOTAL_ISX_WIDGETS) */
 379:Generated_Source\PSoC4/CapSense_1_Control.c **** 
 380:Generated_Source\PSoC4/CapSense_1_Control.c ****             default:
 381:Generated_Source\PSoC4/CapSense_1_Control.c ****                 CYASSERT(0u);
 382:Generated_Source\PSoC4/CapSense_1_Control.c ****                 break;
 383:Generated_Source\PSoC4/CapSense_1_Control.c ****             }
 384:Generated_Source\PSoC4/CapSense_1_Control.c **** 
 385:Generated_Source\PSoC4/CapSense_1_Control.c ****             #if (CapSense_1_ENABLE == CapSense_1_TST_BSLN_DUPLICATION_EN)
 386:Generated_Source\PSoC4/CapSense_1_Control.c ****                 if (CYRET_SUCCESS != result)
 387:Generated_Source\PSoC4/CapSense_1_Control.c ****                 {
 388:Generated_Source\PSoC4/CapSense_1_Control.c ****                     CapSense_1_UpdateTestResultBaselineDuplication(wdgtId, result);
 389:Generated_Source\PSoC4/CapSense_1_Control.c ****                     result = CYRET_BAD_DATA;
 390:Generated_Source\PSoC4/CapSense_1_Control.c ****                 }
 391:Generated_Source\PSoC4/CapSense_1_Control.c ****             #endif /* (CapSense_1_ENABLE == CapSense_1_TST_BSLN_DUPLICATION_EN) */
 392:Generated_Source\PSoC4/CapSense_1_Control.c **** 
 393:Generated_Source\PSoC4/CapSense_1_Control.c ****         }
 394:Generated_Source\PSoC4/CapSense_1_Control.c ****         ptrFlashWdgt++;
 257              		.loc 1 394 0 discriminator 2
 258 002e 1C36     		adds	r6, r6, #28
 259              	.LVL25:
 353:Generated_Source\PSoC4/CapSense_1_Control.c ****     {
 260              		.loc 1 353 0 discriminator 2
 261 0030 0135     		adds	r5, r5, #1
 262              	.LVL26:
 263              	.L18:
 353:Generated_Source\PSoC4/CapSense_1_Control.c ****     {
 264              		.loc 1 353 0 is_stmt 0 discriminator 1
 265 0032 092D     		cmp	r5, #9
 266 0034 E9D9     		bls	.L20
 395:Generated_Source\PSoC4/CapSense_1_Control.c ****     }
 396:Generated_Source\PSoC4/CapSense_1_Control.c ****     return result;
 397:Generated_Source\PSoC4/CapSense_1_Control.c **** }
 267              		.loc 1 397 0 is_stmt 1
 268 0036 2000     		movs	r0, r4
 269              		@ sp needed
 270              	.LVL27:
 271              	.LVL28:
 272              	.LVL29:
 273 0038 70BD     		pop	{r4, r5, r6, pc}
ARM GAS  C:\Users\MICHAE~1.MAC\AppData\Local\Temp\ccEkVQ2o.s 			page 13


 274              	.L22:
 275 003a C046     		.align	2
 276              	.L21:
 277 003c 00000000 		.word	CapSense_1_dsFlash
 278 0040 00000000 		.word	CapSense_1_dsRam
 279              		.cfi_endproc
 280              	.LFE5:
 281              		.size	CapSense_1_ProcessAllWidgets, .-CapSense_1_ProcessAllWidgets
 282              		.section	.text.CapSense_1_ProcessWidget,"ax",%progbits
 283              		.align	2
 284              		.global	CapSense_1_ProcessWidget
 285              		.code	16
 286              		.thumb_func
 287              		.type	CapSense_1_ProcessWidget, %function
 288              	CapSense_1_ProcessWidget:
 289              	.LFB6:
 398:Generated_Source\PSoC4/CapSense_1_Control.c **** 
 399:Generated_Source\PSoC4/CapSense_1_Control.c **** /*******************************************************************************
 400:Generated_Source\PSoC4/CapSense_1_Control.c **** * Function Name: CapSense_1_ProcessWidget
 401:Generated_Source\PSoC4/CapSense_1_Control.c **** ****************************************************************************//**
 402:Generated_Source\PSoC4/CapSense_1_Control.c **** *
 403:Generated_Source\PSoC4/CapSense_1_Control.c **** * \brief
 404:Generated_Source\PSoC4/CapSense_1_Control.c **** *  Performs full data processing of the specified widget if it is enabled.
 405:Generated_Source\PSoC4/CapSense_1_Control.c **** *
 406:Generated_Source\PSoC4/CapSense_1_Control.c **** * \details
 407:Generated_Source\PSoC4/CapSense_1_Control.c **** *  This function performs exactly the same tasks as
 408:Generated_Source\PSoC4/CapSense_1_Control.c **** *  CapSense_1_ProcessAllWidgets(), but only for a specified widget. This
 409:Generated_Source\PSoC4/CapSense_1_Control.c **** *  function can be used along with the CapSense_1_SetupWidget() and
 410:Generated_Source\PSoC4/CapSense_1_Control.c **** *  CapSense_1_Scan() functions to scan and process data for a specific
 411:Generated_Source\PSoC4/CapSense_1_Control.c **** *  widget. This function is called only after all the sensors in the
 412:Generated_Source\PSoC4/CapSense_1_Control.c **** *  widgets are scanned. A disabled widget is not processed by this function.
 413:Generated_Source\PSoC4/CapSense_1_Control.c **** *
 414:Generated_Source\PSoC4/CapSense_1_Control.c **** *  A pipeline scan method (i.e. during scanning of a widget perform processing
 415:Generated_Source\PSoC4/CapSense_1_Control.c **** *  of the previously scanned widget) can be implemented using this function and
 416:Generated_Source\PSoC4/CapSense_1_Control.c **** *  it may reduce the total execution time, increase the refresh rate and
 417:Generated_Source\PSoC4/CapSense_1_Control.c **** *  decrease the average power consumption.
 418:Generated_Source\PSoC4/CapSense_1_Control.c **** *
 419:Generated_Source\PSoC4/CapSense_1_Control.c **** *  If the Ballistic multiplier filter is enabled the Timestamp must be
 420:Generated_Source\PSoC4/CapSense_1_Control.c **** *  updated before calling this function using the
 421:Generated_Source\PSoC4/CapSense_1_Control.c **** *  CapSense_1_IncrementGestureTimestamp() function.
 422:Generated_Source\PSoC4/CapSense_1_Control.c **** *
 423:Generated_Source\PSoC4/CapSense_1_Control.c **** *  If the Self-test library is enabled, this function executes the baseline duplication
 424:Generated_Source\PSoC4/CapSense_1_Control.c **** *  test. Refer to CapSense_1_CheckBaselineDuplication() for details.
 425:Generated_Source\PSoC4/CapSense_1_Control.c **** *
 426:Generated_Source\PSoC4/CapSense_1_Control.c **** *  If the specified widget has enabled ballistic multiplier filter, make sure
 427:Generated_Source\PSoC4/CapSense_1_Control.c **** *  the timestamp is updated before calling this function. Use one of the following
 428:Generated_Source\PSoC4/CapSense_1_Control.c **** *  functions to update the timestamp:
 429:Generated_Source\PSoC4/CapSense_1_Control.c **** *  - CapSense_1_IncrementGestureTimestamp().
 430:Generated_Source\PSoC4/CapSense_1_Control.c **** *  - CapSense_1_SetGestureTimestamp().
 431:Generated_Source\PSoC4/CapSense_1_Control.c **** *
 432:Generated_Source\PSoC4/CapSense_1_Control.c **** * \param widgetId
 433:Generated_Source\PSoC4/CapSense_1_Control.c **** *  Specifies the ID number of the widget to be processed.
 434:Generated_Source\PSoC4/CapSense_1_Control.c **** *  A macro for the widget ID can be found in the
 435:Generated_Source\PSoC4/CapSense_1_Control.c **** *  CapSense_1 Configuration header file defined as
 436:Generated_Source\PSoC4/CapSense_1_Control.c **** *  CapSense_1_<WidgetName>_WDGT_ID
 437:Generated_Source\PSoC4/CapSense_1_Control.c **** *
 438:Generated_Source\PSoC4/CapSense_1_Control.c **** * \return
ARM GAS  C:\Users\MICHAE~1.MAC\AppData\Local\Temp\ccEkVQ2o.s 			page 14


 439:Generated_Source\PSoC4/CapSense_1_Control.c **** *  Returns the status of the widget processing:
 440:Generated_Source\PSoC4/CapSense_1_Control.c **** *  - CYRET_SUCCESS - The operation is successfully completed.
 441:Generated_Source\PSoC4/CapSense_1_Control.c **** *  - CYRET_BAD_PARAM - The input parameter is invalid.
 442:Generated_Source\PSoC4/CapSense_1_Control.c **** *  - CYRET_INVALID_STATE - The specified widget is disabled.
 443:Generated_Source\PSoC4/CapSense_1_Control.c **** *  - CYRET_BAD_DATA - The processing is failed.
 444:Generated_Source\PSoC4/CapSense_1_Control.c **** *
 445:Generated_Source\PSoC4/CapSense_1_Control.c **** *******************************************************************************/
 446:Generated_Source\PSoC4/CapSense_1_Control.c **** cystatus CapSense_1_ProcessWidget(uint32 widgetId)
 447:Generated_Source\PSoC4/CapSense_1_Control.c **** {
 290              		.loc 1 447 0
 291              		.cfi_startproc
 292              		@ args = 0, pretend = 0, frame = 0
 293              		@ frame_needed = 0, uses_anonymous_args = 0
 294              	.LVL30:
 295 0000 70B5     		push	{r4, r5, r6, lr}
 296              		.cfi_def_cfa_offset 16
 297              		.cfi_offset 4, -16
 298              		.cfi_offset 5, -12
 299              		.cfi_offset 6, -8
 300              		.cfi_offset 14, -4
 301 0002 0500     		movs	r5, r0
 302              	.LVL31:
 448:Generated_Source\PSoC4/CapSense_1_Control.c ****     cystatus result = CYRET_SUCCESS;
 449:Generated_Source\PSoC4/CapSense_1_Control.c ****     CapSense_1_FLASH_WD_STRUCT const *ptrFlashWdgt;
 450:Generated_Source\PSoC4/CapSense_1_Control.c **** 
 451:Generated_Source\PSoC4/CapSense_1_Control.c ****     if (widgetId >= CapSense_1_TOTAL_WIDGETS)
 303              		.loc 1 451 0
 304 0004 0928     		cmp	r0, #9
 305 0006 01D8     		bhi	.L27
 448:Generated_Source\PSoC4/CapSense_1_Control.c ****     cystatus result = CYRET_SUCCESS;
 306              		.loc 1 448 0
 307 0008 0024     		movs	r4, #0
 308 000a 00E0     		b	.L24
 309              	.L27:
 452:Generated_Source\PSoC4/CapSense_1_Control.c ****     {
 453:Generated_Source\PSoC4/CapSense_1_Control.c ****         result = CYRET_BAD_PARAM;
 310              		.loc 1 453 0
 311 000c 0124     		movs	r4, #1
 312              	.L24:
 313              	.LVL32:
 454:Generated_Source\PSoC4/CapSense_1_Control.c ****     }
 455:Generated_Source\PSoC4/CapSense_1_Control.c **** 
 456:Generated_Source\PSoC4/CapSense_1_Control.c ****     if ((CYRET_SUCCESS == result) && (0uL == CapSense_1_GET_WIDGET_EN_STATUS(widgetId)))
 314              		.loc 1 456 0
 315 000e 002C     		cmp	r4, #0
 316 0010 0AD1     		bne	.L25
 317              		.loc 1 456 0 is_stmt 0 discriminator 1
 318 0012 6B09     		lsrs	r3, r5, #5
 319 0014 0433     		adds	r3, r3, #4
 320 0016 9B00     		lsls	r3, r3, #2
 321 0018 0C4A     		ldr	r2, .L29
 322 001a 9B58     		ldr	r3, [r3, r2]
 323 001c 1F22     		movs	r2, #31
 324 001e 2A40     		ands	r2, r5
 325 0020 D340     		lsrs	r3, r3, r2
 326 0022 DB07     		lsls	r3, r3, #31
 327 0024 00D4     		bmi	.L25
ARM GAS  C:\Users\MICHAE~1.MAC\AppData\Local\Temp\ccEkVQ2o.s 			page 15


 457:Generated_Source\PSoC4/CapSense_1_Control.c ****     {
 458:Generated_Source\PSoC4/CapSense_1_Control.c ****         result = CYRET_INVALID_STATE;
 328              		.loc 1 458 0 is_stmt 1
 329 0026 1134     		adds	r4, r4, #17
 330              	.LVL33:
 331              	.L25:
 459:Generated_Source\PSoC4/CapSense_1_Control.c ****     }
 460:Generated_Source\PSoC4/CapSense_1_Control.c **** 
 461:Generated_Source\PSoC4/CapSense_1_Control.c ****     if (CYRET_SUCCESS == result)
 332              		.loc 1 461 0
 333 0028 002C     		cmp	r4, #0
 334 002a 0CD1     		bne	.L26
 462:Generated_Source\PSoC4/CapSense_1_Control.c ****     {
 463:Generated_Source\PSoC4/CapSense_1_Control.c ****         ptrFlashWdgt = &CapSense_1_dsFlash.wdgtArray[widgetId];
 335              		.loc 1 463 0
 336 002c EB00     		lsls	r3, r5, #3
 337 002e 5B1B     		subs	r3, r3, r5
 338 0030 9E00     		lsls	r6, r3, #2
 339 0032 074B     		ldr	r3, .L29+4
 340 0034 F618     		adds	r6, r6, r3
 341              	.LVL34:
 464:Generated_Source\PSoC4/CapSense_1_Control.c **** 
 465:Generated_Source\PSoC4/CapSense_1_Control.c ****         switch(CapSense_1_GET_SENSE_METHOD(ptrFlashWdgt))
 466:Generated_Source\PSoC4/CapSense_1_Control.c ****         {
 467:Generated_Source\PSoC4/CapSense_1_Control.c ****         #if (0u != CapSense_1_TOTAL_CSD_WIDGETS)
 468:Generated_Source\PSoC4/CapSense_1_Control.c ****             case CapSense_1_SENSE_METHOD_CSD_E:
 469:Generated_Source\PSoC4/CapSense_1_Control.c ****                 result = CapSense_1_DpProcessCsdWidgetRawCounts(ptrFlashWdgt);
 342              		.loc 1 469 0
 343 0036 3000     		movs	r0, r6
 344              	.LVL35:
 345 0038 FFF7FEFF 		bl	CapSense_1_DpProcessCsdWidgetRawCounts
 346              	.LVL36:
 347 003c 0400     		movs	r4, r0
 348              	.LVL37:
 470:Generated_Source\PSoC4/CapSense_1_Control.c ****                 CapSense_1_DpProcessCsdWidgetStatus(widgetId, ptrFlashWdgt);
 349              		.loc 1 470 0
 350 003e 3100     		movs	r1, r6
 351 0040 2800     		movs	r0, r5
 352              	.LVL38:
 353 0042 FFF7FEFF 		bl	CapSense_1_DpProcessCsdWidgetStatus
 354              	.LVL39:
 355              	.L26:
 471:Generated_Source\PSoC4/CapSense_1_Control.c ****                 break;
 472:Generated_Source\PSoC4/CapSense_1_Control.c ****         #endif /* #if (0u != CapSense_1_TOTAL_CSD_WIDGETS) */
 473:Generated_Source\PSoC4/CapSense_1_Control.c **** 
 474:Generated_Source\PSoC4/CapSense_1_Control.c ****         #if (0u != CapSense_1_TOTAL_CSX_WIDGETS)
 475:Generated_Source\PSoC4/CapSense_1_Control.c ****             case CapSense_1_SENSE_METHOD_CSX_E:
 476:Generated_Source\PSoC4/CapSense_1_Control.c ****                 result = CapSense_1_DpProcessCsxWidgetRawCounts(ptrFlashWdgt);
 477:Generated_Source\PSoC4/CapSense_1_Control.c ****                 CapSense_1_DpProcessCsxWidgetStatus(widgetId, ptrFlashWdgt);
 478:Generated_Source\PSoC4/CapSense_1_Control.c ****                 break;
 479:Generated_Source\PSoC4/CapSense_1_Control.c ****         #endif /* #if (0u != CapSense_1_TOTAL_CSX_WIDGETS) */
 480:Generated_Source\PSoC4/CapSense_1_Control.c **** 
 481:Generated_Source\PSoC4/CapSense_1_Control.c ****         #if (0u != CapSense_1_TOTAL_ISX_WIDGETS)
 482:Generated_Source\PSoC4/CapSense_1_Control.c ****             case CapSense_1_SENSE_METHOD_ISX_E:
 483:Generated_Source\PSoC4/CapSense_1_Control.c ****                 result = CapSense_1_DpProcessIsxWidgetRawCounts(ptrFlashWdgt);
 484:Generated_Source\PSoC4/CapSense_1_Control.c ****                 CapSense_1_DpProcessIsxWidgetStatus(widgetId, ptrFlashWdgt);
 485:Generated_Source\PSoC4/CapSense_1_Control.c ****                 break;
ARM GAS  C:\Users\MICHAE~1.MAC\AppData\Local\Temp\ccEkVQ2o.s 			page 16


 486:Generated_Source\PSoC4/CapSense_1_Control.c ****         #endif /* #if (0u != CapSense_1_TOTAL_ISX_WIDGETS) */
 487:Generated_Source\PSoC4/CapSense_1_Control.c **** 
 488:Generated_Source\PSoC4/CapSense_1_Control.c ****         default:
 489:Generated_Source\PSoC4/CapSense_1_Control.c ****             CYASSERT(0u);
 490:Generated_Source\PSoC4/CapSense_1_Control.c ****             break;
 491:Generated_Source\PSoC4/CapSense_1_Control.c ****         }
 492:Generated_Source\PSoC4/CapSense_1_Control.c **** 
 493:Generated_Source\PSoC4/CapSense_1_Control.c ****         #if (CapSense_1_ENABLE == CapSense_1_TST_BSLN_DUPLICATION_EN)
 494:Generated_Source\PSoC4/CapSense_1_Control.c ****             if (CYRET_SUCCESS != result)
 495:Generated_Source\PSoC4/CapSense_1_Control.c ****             {
 496:Generated_Source\PSoC4/CapSense_1_Control.c ****                 CapSense_1_UpdateTestResultBaselineDuplication(widgetId, result);
 497:Generated_Source\PSoC4/CapSense_1_Control.c ****                 result = CYRET_BAD_DATA;
 498:Generated_Source\PSoC4/CapSense_1_Control.c ****             }
 499:Generated_Source\PSoC4/CapSense_1_Control.c ****         #endif /* (CapSense_1_ENABLE == CapSense_1_TST_BSLN_DUPLICATION_EN) */
 500:Generated_Source\PSoC4/CapSense_1_Control.c ****     }
 501:Generated_Source\PSoC4/CapSense_1_Control.c ****     return result;
 502:Generated_Source\PSoC4/CapSense_1_Control.c **** }
 356              		.loc 1 502 0
 357 0046 2000     		movs	r0, r4
 358              		@ sp needed
 359              	.LVL40:
 360              	.LVL41:
 361 0048 70BD     		pop	{r4, r5, r6, pc}
 362              	.L30:
 363 004a C046     		.align	2
 364              	.L29:
 365 004c 00000000 		.word	CapSense_1_dsRam
 366 0050 00000000 		.word	CapSense_1_dsFlash
 367              		.cfi_endproc
 368              	.LFE6:
 369              		.size	CapSense_1_ProcessWidget, .-CapSense_1_ProcessWidget
 370              		.section	.text.CapSense_1_ProcessWidgetExt,"ax",%progbits
 371              		.align	2
 372              		.global	CapSense_1_ProcessWidgetExt
 373              		.code	16
 374              		.thumb_func
 375              		.type	CapSense_1_ProcessWidgetExt, %function
 376              	CapSense_1_ProcessWidgetExt:
 377              	.LFB7:
 503:Generated_Source\PSoC4/CapSense_1_Control.c **** 
 504:Generated_Source\PSoC4/CapSense_1_Control.c **** 
 505:Generated_Source\PSoC4/CapSense_1_Control.c **** /*******************************************************************************
 506:Generated_Source\PSoC4/CapSense_1_Control.c **** * Function Name: CapSense_1_ProcessWidgetExt
 507:Generated_Source\PSoC4/CapSense_1_Control.c **** ****************************************************************************//**
 508:Generated_Source\PSoC4/CapSense_1_Control.c **** *
 509:Generated_Source\PSoC4/CapSense_1_Control.c **** * \brief
 510:Generated_Source\PSoC4/CapSense_1_Control.c **** *  Performs customized data processing on the selected widget.
 511:Generated_Source\PSoC4/CapSense_1_Control.c **** *
 512:Generated_Source\PSoC4/CapSense_1_Control.c **** * \details
 513:Generated_Source\PSoC4/CapSense_1_Control.c **** *  This function performs data processes for the specified widget specified by
 514:Generated_Source\PSoC4/CapSense_1_Control.c **** *  the mode parameter. The execution order of the requested operations is from
 515:Generated_Source\PSoC4/CapSense_1_Control.c **** *  LSB to MSB of the mode parameter. For a different order, this API
 516:Generated_Source\PSoC4/CapSense_1_Control.c **** *  can be called multiple times with the required mode parameter.
 517:Generated_Source\PSoC4/CapSense_1_Control.c **** *
 518:Generated_Source\PSoC4/CapSense_1_Control.c **** *  This function can be used with any of the available scan functions. This
 519:Generated_Source\PSoC4/CapSense_1_Control.c **** *  function is called only after all the sensors in the specified widget are
 520:Generated_Source\PSoC4/CapSense_1_Control.c **** *  scanned. Calling this function multiple times with the same mode without
ARM GAS  C:\Users\MICHAE~1.MAC\AppData\Local\Temp\ccEkVQ2o.s 			page 17


 521:Generated_Source\PSoC4/CapSense_1_Control.c **** *  sensor scanning causes unexpected behavior. This function ignores the value
 522:Generated_Source\PSoC4/CapSense_1_Control.c **** *  of the wdgtEnable register.
 523:Generated_Source\PSoC4/CapSense_1_Control.c **** *  \if SECTION_C_LOW_LEVEL
 524:Generated_Source\PSoC4/CapSense_1_Control.c **** *  The CapSense_1_PROCESS_CALC_NOISE and
 525:Generated_Source\PSoC4/CapSense_1_Control.c **** *  CapSense_1_PROCESS_THRESHOLDS flags are supported by the CSD sensing
 526:Generated_Source\PSoC4/CapSense_1_Control.c **** *  method only when Auto-tuning mode is enabled.
 527:Generated_Source\PSoC4/CapSense_1_Control.c **** *  \endif
 528:Generated_Source\PSoC4/CapSense_1_Control.c **** *  The pipeline scan method (i.e. during scanning of a widget, processing
 529:Generated_Source\PSoC4/CapSense_1_Control.c **** *  of a previously scanned widget is performed) can be implemented using this
 530:Generated_Source\PSoC4/CapSense_1_Control.c **** *  function and it may reduce the total scan/process time, increase the refresh
 531:Generated_Source\PSoC4/CapSense_1_Control.c **** *  rate and decrease the power consumption.
 532:Generated_Source\PSoC4/CapSense_1_Control.c **** *
 533:Generated_Source\PSoC4/CapSense_1_Control.c **** *  If the Ballistic multiplier filter is enabled the Timestamp must be
 534:Generated_Source\PSoC4/CapSense_1_Control.c **** *  updated before calling this function using the
 535:Generated_Source\PSoC4/CapSense_1_Control.c **** *  CapSense_1_IncrementGestureTimestamp() function.
 536:Generated_Source\PSoC4/CapSense_1_Control.c **** *
 537:Generated_Source\PSoC4/CapSense_1_Control.c **** *  If the Self-test library is enabled, this function executes the baseline duplication
 538:Generated_Source\PSoC4/CapSense_1_Control.c **** *  test. Refer to CapSense_1_CheckBaselineDuplication() for details.
 539:Generated_Source\PSoC4/CapSense_1_Control.c **** *
 540:Generated_Source\PSoC4/CapSense_1_Control.c **** *  If the specified widget has enabled ballistic multiplier filter, make sure
 541:Generated_Source\PSoC4/CapSense_1_Control.c **** *  the timestamp is updated before calling this function. Use one of the following
 542:Generated_Source\PSoC4/CapSense_1_Control.c **** *  functions to update the timestamp:
 543:Generated_Source\PSoC4/CapSense_1_Control.c **** *  - CapSense_1_IncrementGestureTimestamp().
 544:Generated_Source\PSoC4/CapSense_1_Control.c **** *  - CapSense_1_SetGestureTimestamp().
 545:Generated_Source\PSoC4/CapSense_1_Control.c **** *
 546:Generated_Source\PSoC4/CapSense_1_Control.c **** * \param widgetId
 547:Generated_Source\PSoC4/CapSense_1_Control.c **** *  Specifies the ID number of the widget to be processed.
 548:Generated_Source\PSoC4/CapSense_1_Control.c **** *  A macro for the widget ID can be found in the CapSense_1 Configuration header
 549:Generated_Source\PSoC4/CapSense_1_Control.c **** *  file defined as CapSense_1_<WidgetName>_WDGT_ID.
 550:Generated_Source\PSoC4/CapSense_1_Control.c **** 
 551:Generated_Source\PSoC4/CapSense_1_Control.c **** * \param mode
 552:Generated_Source\PSoC4/CapSense_1_Control.c **** *  Specifies the type of widget processing to be executed for the
 553:Generated_Source\PSoC4/CapSense_1_Control.c **** *  specified widget:
 554:Generated_Source\PSoC4/CapSense_1_Control.c **** *    1. Bits [31..6] - Reserved.
 555:Generated_Source\PSoC4/CapSense_1_Control.c **** *    2. Bits [5..0] - CapSense_1_PROCESS_ALL - Execute all the tasks.
 556:Generated_Source\PSoC4/CapSense_1_Control.c **** *    3. Bit [5] - CapSense_1_PROCESS_STATUS - Update the status (on/off,
 557:Generated_Source\PSoC4/CapSense_1_Control.c **** *       centroid position).
 558:Generated_Source\PSoC4/CapSense_1_Control.c **** *    \if SECTION_C_LOW_LEVEL
 559:Generated_Source\PSoC4/CapSense_1_Control.c **** *    4. Bit [4] - CapSense_1_PROCESS_THRESHOLDS - Update the thresholds
 560:Generated_Source\PSoC4/CapSense_1_Control.c **** *       (only in CSD auto-tuning mode).
 561:Generated_Source\PSoC4/CapSense_1_Control.c **** *    5. Bit [3] - CapSense_1_PROCESS_CALC_NOISE - Calculate the noise (only in
 562:Generated_Source\PSoC4/CapSense_1_Control.c **** *       CSD auto-tuning mode).
 563:Generated_Source\PSoC4/CapSense_1_Control.c **** *    \endif
 564:Generated_Source\PSoC4/CapSense_1_Control.c **** *    6. Bit [2] - CapSense_1_PROCESS_DIFFCOUNTS - Update the difference counts.
 565:Generated_Source\PSoC4/CapSense_1_Control.c **** *    7. Bit [1] - CapSense_1_PROCESS_BASELINE - Update the baselines.
 566:Generated_Source\PSoC4/CapSense_1_Control.c **** *    8. Bit [0] - CapSense_1_PROCESS_FILTER - Run the firmware filters.
 567:Generated_Source\PSoC4/CapSense_1_Control.c **** *
 568:Generated_Source\PSoC4/CapSense_1_Control.c **** * \return
 569:Generated_Source\PSoC4/CapSense_1_Control.c **** *  Returns the status of the widget processing operation:
 570:Generated_Source\PSoC4/CapSense_1_Control.c **** *  - CYRET_SUCCESS - The processing is successfully performed.
 571:Generated_Source\PSoC4/CapSense_1_Control.c **** *  - CYRET_BAD_PARAM - The input parameter is invalid.
 572:Generated_Source\PSoC4/CapSense_1_Control.c **** *  - CYRET_BAD_DATA - The processing is failed.
 573:Generated_Source\PSoC4/CapSense_1_Control.c **** *
 574:Generated_Source\PSoC4/CapSense_1_Control.c **** *******************************************************************************/
 575:Generated_Source\PSoC4/CapSense_1_Control.c **** cystatus CapSense_1_ProcessWidgetExt(uint32 widgetId, uint32 mode)
 576:Generated_Source\PSoC4/CapSense_1_Control.c **** {
 378              		.loc 1 576 0
ARM GAS  C:\Users\MICHAE~1.MAC\AppData\Local\Temp\ccEkVQ2o.s 			page 18


 379              		.cfi_startproc
 380              		@ args = 0, pretend = 0, frame = 8
 381              		@ frame_needed = 0, uses_anonymous_args = 0
 382              	.LVL42:
 383 0000 F0B5     		push	{r4, r5, r6, r7, lr}
 384              		.cfi_def_cfa_offset 20
 385              		.cfi_offset 4, -20
 386              		.cfi_offset 5, -16
 387              		.cfi_offset 6, -12
 388              		.cfi_offset 7, -8
 389              		.cfi_offset 14, -4
 390 0002 4F46     		mov	r7, r9
 391 0004 4646     		mov	r6, r8
 392 0006 C0B4     		push	{r6, r7}
 393              		.cfi_def_cfa_offset 28
 394              		.cfi_offset 8, -28
 395              		.cfi_offset 9, -24
 396 0008 83B0     		sub	sp, sp, #12
 397              		.cfi_def_cfa_offset 40
 398 000a 8046     		mov	r8, r0
 399 000c 0191     		str	r1, [sp, #4]
 400              	.LVL43:
 577:Generated_Source\PSoC4/CapSense_1_Control.c ****     uint32 snsCount;
 578:Generated_Source\PSoC4/CapSense_1_Control.c ****     cystatus result = CYRET_BAD_PARAM;
 579:Generated_Source\PSoC4/CapSense_1_Control.c ****     CapSense_1_FLASH_WD_STRUCT const *ptrFlashWdgt;
 580:Generated_Source\PSoC4/CapSense_1_Control.c ****     CapSense_1_PTR_FILTER_VARIANT fltrHistV;
 581:Generated_Source\PSoC4/CapSense_1_Control.c ****     CapSense_1_RAM_SNS_STRUCT *ptrSnsTmp;
 582:Generated_Source\PSoC4/CapSense_1_Control.c **** 
 583:Generated_Source\PSoC4/CapSense_1_Control.c ****     #if (0u != CapSense_1_TOTAL_CSD_WIDGETS)
 584:Generated_Source\PSoC4/CapSense_1_Control.c ****         uint32 isProxWdgt;
 585:Generated_Source\PSoC4/CapSense_1_Control.c ****     #endif
 586:Generated_Source\PSoC4/CapSense_1_Control.c **** 
 587:Generated_Source\PSoC4/CapSense_1_Control.c ****     if (widgetId < CapSense_1_TOTAL_WIDGETS)
 401              		.loc 1 587 0
 402 000e 0928     		cmp	r0, #9
 403 0010 2AD8     		bhi	.L37
 588:Generated_Source\PSoC4/CapSense_1_Control.c ****     {
 589:Generated_Source\PSoC4/CapSense_1_Control.c ****         ptrFlashWdgt = &CapSense_1_dsFlash.wdgtArray[widgetId];
 404              		.loc 1 589 0
 405 0012 C300     		lsls	r3, r0, #3
 406 0014 1B1A     		subs	r3, r3, r0
 407 0016 9A00     		lsls	r2, r3, #2
 408 0018 174B     		ldr	r3, .L39
 409 001a 9146     		mov	r9, r2
 410 001c 9944     		add	r9, r9, r3
 411              	.LVL44:
 590:Generated_Source\PSoC4/CapSense_1_Control.c ****         snsCount = CapSense_1_GET_SNS_CNT_BY_PTR(ptrFlashWdgt);
 412              		.loc 1 590 0
 413 001e 4B46     		mov	r3, r9
 414 0020 1B8B     		ldrh	r3, [r3, #24]
 415              	.LVL45:
 591:Generated_Source\PSoC4/CapSense_1_Control.c ****         ptrSnsTmp = ptrFlashWdgt->ptr2SnsRam;
 416              		.loc 1 591 0
 417 0022 4A46     		mov	r2, r9
 418 0024 9468     		ldr	r4, [r2, #8]
 419              	.LVL46:
 592:Generated_Source\PSoC4/CapSense_1_Control.c ****         fltrHistV.ptr = ptrFlashWdgt->ptr2FltrHistory;
ARM GAS  C:\Users\MICHAE~1.MAC\AppData\Local\Temp\ccEkVQ2o.s 			page 19


 420              		.loc 1 592 0
 421 0026 D568     		ldr	r5, [r2, #12]
 422              	.LVL47:
 593:Generated_Source\PSoC4/CapSense_1_Control.c **** 
 594:Generated_Source\PSoC4/CapSense_1_Control.c ****         switch(CapSense_1_GET_SENSE_METHOD(ptrFlashWdgt))
 595:Generated_Source\PSoC4/CapSense_1_Control.c ****         {
 596:Generated_Source\PSoC4/CapSense_1_Control.c ****         #if (0u != CapSense_1_TOTAL_CSD_WIDGETS)
 597:Generated_Source\PSoC4/CapSense_1_Control.c ****             case CapSense_1_SENSE_METHOD_CSD_E:
 598:Generated_Source\PSoC4/CapSense_1_Control.c ****             {
 599:Generated_Source\PSoC4/CapSense_1_Control.c ****                 /* Determine if widget is type of proximity.
 600:Generated_Source\PSoC4/CapSense_1_Control.c ****                  * The Proximity widgets use different filters and
 601:Generated_Source\PSoC4/CapSense_1_Control.c ****                  * therefore have different filter history object structure */
 602:Generated_Source\PSoC4/CapSense_1_Control.c ****                 isProxWdgt = (CapSense_1_GET_WIDGET_TYPE(ptrFlashWdgt) == CapSense_1_WD_PROXIMITY_E
 423              		.loc 1 602 0
 424 0028 927E     		ldrb	r2, [r2, #26]
 425 002a 062A     		cmp	r2, #6
 426 002c 01D1     		bne	.L38
 427 002e 0127     		movs	r7, #1
 428 0030 00E0     		b	.L33
 429              	.L38:
 430 0032 0027     		movs	r7, #0
 431              	.L33:
 432              	.LVL48:
 578:Generated_Source\PSoC4/CapSense_1_Control.c ****     CapSense_1_FLASH_WD_STRUCT const *ptrFlashWdgt;
 433              		.loc 1 578 0 discriminator 4
 434 0034 0122     		movs	r2, #1
 435 0036 0092     		str	r2, [sp]
 603:Generated_Source\PSoC4/CapSense_1_Control.c **** 
 604:Generated_Source\PSoC4/CapSense_1_Control.c ****                 /* Run the desired processing for the all CSD widget sensors */
 605:Generated_Source\PSoC4/CapSense_1_Control.c ****                 for (;snsCount-- > 0u;)
 436              		.loc 1 605 0 discriminator 4
 437 0038 0BE0     		b	.L34
 438              	.LVL49:
 439              	.L36:
 606:Generated_Source\PSoC4/CapSense_1_Control.c ****                 {
 607:Generated_Source\PSoC4/CapSense_1_Control.c ****                     result = CapSense_1_DpProcessCsdSensorRawCountsExt(ptrFlashWdgt, ptrSnsTmp, flt
 440              		.loc 1 607 0
 441 003a 019B     		ldr	r3, [sp, #4]
 442 003c 2A00     		movs	r2, r5
 443 003e 2100     		movs	r1, r4
 444 0040 4846     		mov	r0, r9
 445 0042 FFF7FEFF 		bl	CapSense_1_DpProcessCsdSensorRawCountsExt
 446              	.LVL50:
 447 0046 0090     		str	r0, [sp]
 448              	.LVL51:
 608:Generated_Source\PSoC4/CapSense_1_Control.c **** 
 609:Generated_Source\PSoC4/CapSense_1_Control.c ****                     #if (CapSense_1_ENABLE == CapSense_1_TST_BSLN_DUPLICATION_EN)
 610:Generated_Source\PSoC4/CapSense_1_Control.c ****                         if (CYRET_SUCCESS != result)
 611:Generated_Source\PSoC4/CapSense_1_Control.c ****                         {
 612:Generated_Source\PSoC4/CapSense_1_Control.c ****                             result = (result | CapSense_1_TST_LSBYTE) & snsCount;
 613:Generated_Source\PSoC4/CapSense_1_Control.c ****                         }
 614:Generated_Source\PSoC4/CapSense_1_Control.c ****                     #endif /* (CapSense_1_ENABLE == CapSense_1_TST_BSLN_DUPLICATION_EN) */
 615:Generated_Source\PSoC4/CapSense_1_Control.c **** 
 616:Generated_Source\PSoC4/CapSense_1_Control.c ****                     /* Move to the next sensor and filter history objects */
 617:Generated_Source\PSoC4/CapSense_1_Control.c ****                     ptrSnsTmp++;
 449              		.loc 1 617 0
 450 0048 1834     		adds	r4, r4, #24
ARM GAS  C:\Users\MICHAE~1.MAC\AppData\Local\Temp\ccEkVQ2o.s 			page 20


 451              	.LVL52:
 618:Generated_Source\PSoC4/CapSense_1_Control.c ****                     CapSense_1_INC_FLTR_OBJ_VARIANT(isProxWdgt, fltrHistV);
 452              		.loc 1 618 0
 453 004a 002F     		cmp	r7, #0
 454 004c 00D1     		bne	.L35
 455              		.loc 1 618 0 is_stmt 0 discriminator 1
 456 004e 2435     		adds	r5, r5, #36
 457              	.LVL53:
 458              	.L35:
 459 0050 3300     		movs	r3, r6
 460              	.LVL54:
 461              	.L34:
 605:Generated_Source\PSoC4/CapSense_1_Control.c ****                 {
 462              		.loc 1 605 0 is_stmt 1
 463 0052 5E1E     		subs	r6, r3, #1
 464              	.LVL55:
 465 0054 002B     		cmp	r3, #0
 466 0056 F0D1     		bne	.L36
 619:Generated_Source\PSoC4/CapSense_1_Control.c ****                 }
 620:Generated_Source\PSoC4/CapSense_1_Control.c **** 
 621:Generated_Source\PSoC4/CapSense_1_Control.c ****                 if (0u != (mode & CapSense_1_PROCESS_STATUS))
 467              		.loc 1 621 0
 468 0058 019B     		ldr	r3, [sp, #4]
 469 005a 9B06     		lsls	r3, r3, #26
 470 005c 06D5     		bpl	.L32
 622:Generated_Source\PSoC4/CapSense_1_Control.c ****                 {
 623:Generated_Source\PSoC4/CapSense_1_Control.c ****                     CapSense_1_DpProcessCsdWidgetStatus(widgetId, ptrFlashWdgt);
 471              		.loc 1 623 0
 472 005e 4946     		mov	r1, r9
 473 0060 4046     		mov	r0, r8
 474 0062 FFF7FEFF 		bl	CapSense_1_DpProcessCsdWidgetStatus
 475              	.LVL56:
 476 0066 01E0     		b	.L32
 477              	.LVL57:
 478              	.L37:
 578:Generated_Source\PSoC4/CapSense_1_Control.c ****     CapSense_1_FLASH_WD_STRUCT const *ptrFlashWdgt;
 479              		.loc 1 578 0
 480 0068 0123     		movs	r3, #1
 481 006a 0093     		str	r3, [sp]
 482              	.LVL58:
 483              	.L32:
 624:Generated_Source\PSoC4/CapSense_1_Control.c ****                 }
 625:Generated_Source\PSoC4/CapSense_1_Control.c ****                 break;
 626:Generated_Source\PSoC4/CapSense_1_Control.c ****             }
 627:Generated_Source\PSoC4/CapSense_1_Control.c ****         #endif /* #if (0u != CapSense_1_TOTAL_CSD_WIDGETS) */
 628:Generated_Source\PSoC4/CapSense_1_Control.c **** 
 629:Generated_Source\PSoC4/CapSense_1_Control.c ****         #if (0u != CapSense_1_TOTAL_CSX_WIDGETS)
 630:Generated_Source\PSoC4/CapSense_1_Control.c ****             case CapSense_1_SENSE_METHOD_CSX_E:
 631:Generated_Source\PSoC4/CapSense_1_Control.c **** 
 632:Generated_Source\PSoC4/CapSense_1_Control.c ****                 #if (0u != CapSense_1_CSX_MULTIPHASE_TX_EN)
 633:Generated_Source\PSoC4/CapSense_1_Control.c ****                     if ((0u != (mode & CapSense_1_PROCESS_DECONVOLUTION)) &&
 634:Generated_Source\PSoC4/CapSense_1_Control.c ****                         (0u != (ptrFlashWdgt->staticConfig & CapSense_1_MULTIPHASE_TX_MASK)))
 635:Generated_Source\PSoC4/CapSense_1_Control.c ****                     {
 636:Generated_Source\PSoC4/CapSense_1_Control.c ****                         CapSense_1_DpDeconvolution(ptrFlashWdgt);
 637:Generated_Source\PSoC4/CapSense_1_Control.c ****                     }
 638:Generated_Source\PSoC4/CapSense_1_Control.c ****                 #endif /* #if (0u != CapSense_1_CSX_MULTIPHASE_TX_EN) */
 639:Generated_Source\PSoC4/CapSense_1_Control.c **** 
ARM GAS  C:\Users\MICHAE~1.MAC\AppData\Local\Temp\ccEkVQ2o.s 			page 21


 640:Generated_Source\PSoC4/CapSense_1_Control.c ****                 /* Run the desired processing for the all CSX widget sensors */
 641:Generated_Source\PSoC4/CapSense_1_Control.c ****                 for (;snsCount-- > 0u;)
 642:Generated_Source\PSoC4/CapSense_1_Control.c ****                 {
 643:Generated_Source\PSoC4/CapSense_1_Control.c ****                     result = CapSense_1_DpProcessCsxSensorRawCountsExt(ptrFlashWdgt, ptrSnsTmp, flt
 644:Generated_Source\PSoC4/CapSense_1_Control.c **** 
 645:Generated_Source\PSoC4/CapSense_1_Control.c ****                     #if (CapSense_1_ENABLE == CapSense_1_TST_BSLN_DUPLICATION_EN)
 646:Generated_Source\PSoC4/CapSense_1_Control.c ****                         if (CYRET_SUCCESS != result)
 647:Generated_Source\PSoC4/CapSense_1_Control.c ****                         {
 648:Generated_Source\PSoC4/CapSense_1_Control.c ****                             result = (result | CapSense_1_TST_LSBYTE) & snsCount;
 649:Generated_Source\PSoC4/CapSense_1_Control.c ****                         }
 650:Generated_Source\PSoC4/CapSense_1_Control.c ****                     #endif /* (CapSense_1_ENABLE == CapSense_1_TST_BSLN_DUPLICATION_EN) */
 651:Generated_Source\PSoC4/CapSense_1_Control.c **** 
 652:Generated_Source\PSoC4/CapSense_1_Control.c ****                     /* Move to the next sensor and filter history objects */
 653:Generated_Source\PSoC4/CapSense_1_Control.c ****                     ptrSnsTmp++;
 654:Generated_Source\PSoC4/CapSense_1_Control.c ****                     CapSense_1_INC_REG_FLTR_OBJ(fltrHistV);
 655:Generated_Source\PSoC4/CapSense_1_Control.c ****                 }
 656:Generated_Source\PSoC4/CapSense_1_Control.c **** 
 657:Generated_Source\PSoC4/CapSense_1_Control.c ****                 if (0u != (mode & CapSense_1_PROCESS_STATUS))
 658:Generated_Source\PSoC4/CapSense_1_Control.c ****                 {
 659:Generated_Source\PSoC4/CapSense_1_Control.c ****                     CapSense_1_DpProcessCsxWidgetStatus(widgetId, ptrFlashWdgt);
 660:Generated_Source\PSoC4/CapSense_1_Control.c ****                 }
 661:Generated_Source\PSoC4/CapSense_1_Control.c ****                 break;
 662:Generated_Source\PSoC4/CapSense_1_Control.c ****         #endif /* #if (0u != CapSense_1_TOTAL_CSX_WIDGETS) */
 663:Generated_Source\PSoC4/CapSense_1_Control.c **** 
 664:Generated_Source\PSoC4/CapSense_1_Control.c ****         #if (0u != CapSense_1_TOTAL_ISX_WIDGETS)
 665:Generated_Source\PSoC4/CapSense_1_Control.c ****             case CapSense_1_SENSE_METHOD_ISX_E:
 666:Generated_Source\PSoC4/CapSense_1_Control.c ****                 /* Run the desired processing for the all ISX widget sensors */
 667:Generated_Source\PSoC4/CapSense_1_Control.c ****                 for (;snsCount-- > 0u;)
 668:Generated_Source\PSoC4/CapSense_1_Control.c ****                 {
 669:Generated_Source\PSoC4/CapSense_1_Control.c ****                     result = CapSense_1_DpProcessIsxSensorRawCountsExt(ptrFlashWdgt, ptrSnsTmp, flt
 670:Generated_Source\PSoC4/CapSense_1_Control.c **** 
 671:Generated_Source\PSoC4/CapSense_1_Control.c ****                     #if (CapSense_1_ENABLE == CapSense_1_TST_BSLN_DUPLICATION_EN)
 672:Generated_Source\PSoC4/CapSense_1_Control.c ****                         if (CYRET_SUCCESS != result)
 673:Generated_Source\PSoC4/CapSense_1_Control.c ****                         {
 674:Generated_Source\PSoC4/CapSense_1_Control.c ****                             result = (result | CapSense_1_TST_LSBYTE) & snsCount;
 675:Generated_Source\PSoC4/CapSense_1_Control.c ****                         }
 676:Generated_Source\PSoC4/CapSense_1_Control.c ****                     #endif /* (CapSense_1_ENABLE == CapSense_1_TST_BSLN_DUPLICATION_EN) */
 677:Generated_Source\PSoC4/CapSense_1_Control.c **** 
 678:Generated_Source\PSoC4/CapSense_1_Control.c ****                     /* Move to the next sensor and filter history objects */
 679:Generated_Source\PSoC4/CapSense_1_Control.c ****                     ptrSnsTmp++;
 680:Generated_Source\PSoC4/CapSense_1_Control.c ****                     CapSense_1_INC_REG_FLTR_OBJ(fltrHistV);
 681:Generated_Source\PSoC4/CapSense_1_Control.c ****                 }
 682:Generated_Source\PSoC4/CapSense_1_Control.c **** 
 683:Generated_Source\PSoC4/CapSense_1_Control.c ****                 if (0u != (mode & CapSense_1_PROCESS_STATUS))
 684:Generated_Source\PSoC4/CapSense_1_Control.c ****                 {
 685:Generated_Source\PSoC4/CapSense_1_Control.c ****                     CapSense_1_DpProcessIsxWidgetStatus(widgetId, ptrFlashWdgt);
 686:Generated_Source\PSoC4/CapSense_1_Control.c ****                 }
 687:Generated_Source\PSoC4/CapSense_1_Control.c ****                 break;
 688:Generated_Source\PSoC4/CapSense_1_Control.c ****         #endif /* #if (0u != CapSense_1_TOTAL_ISX_WIDGETS) */
 689:Generated_Source\PSoC4/CapSense_1_Control.c **** 
 690:Generated_Source\PSoC4/CapSense_1_Control.c ****         default:
 691:Generated_Source\PSoC4/CapSense_1_Control.c ****             CYASSERT(0u);
 692:Generated_Source\PSoC4/CapSense_1_Control.c ****             break;
 693:Generated_Source\PSoC4/CapSense_1_Control.c ****         }
 694:Generated_Source\PSoC4/CapSense_1_Control.c **** 
 695:Generated_Source\PSoC4/CapSense_1_Control.c ****         #if (CapSense_1_ENABLE == CapSense_1_TST_BSLN_DUPLICATION_EN)
 696:Generated_Source\PSoC4/CapSense_1_Control.c ****             if (CYRET_SUCCESS != result)
ARM GAS  C:\Users\MICHAE~1.MAC\AppData\Local\Temp\ccEkVQ2o.s 			page 22


 697:Generated_Source\PSoC4/CapSense_1_Control.c ****             {
 698:Generated_Source\PSoC4/CapSense_1_Control.c ****                 CapSense_1_UpdateTestResultBaselineDuplication(widgetId, snsCount);
 699:Generated_Source\PSoC4/CapSense_1_Control.c ****                 result = CYRET_BAD_DATA;
 700:Generated_Source\PSoC4/CapSense_1_Control.c ****             }
 701:Generated_Source\PSoC4/CapSense_1_Control.c ****         #endif /* (CapSense_1_ENABLE == CapSense_1_TST_BSLN_DUPLICATION_EN) */
 702:Generated_Source\PSoC4/CapSense_1_Control.c **** 
 703:Generated_Source\PSoC4/CapSense_1_Control.c ****     }
 704:Generated_Source\PSoC4/CapSense_1_Control.c ****     return result;
 705:Generated_Source\PSoC4/CapSense_1_Control.c **** }
 484              		.loc 1 705 0
 485 006c 0098     		ldr	r0, [sp]
 486 006e 03B0     		add	sp, sp, #12
 487              	.LVL59:
 488              		@ sp needed
 489              	.LVL60:
 490              	.LVL61:
 491 0070 0CBC     		pop	{r2, r3}
 492 0072 9046     		mov	r8, r2
 493 0074 9946     		mov	r9, r3
 494 0076 F0BD     		pop	{r4, r5, r6, r7, pc}
 495              	.L40:
 496              		.align	2
 497              	.L39:
 498 0078 00000000 		.word	CapSense_1_dsFlash
 499              		.cfi_endproc
 500              	.LFE7:
 501              		.size	CapSense_1_ProcessWidgetExt, .-CapSense_1_ProcessWidgetExt
 502              		.section	.text.CapSense_1_ProcessSensorExt,"ax",%progbits
 503              		.align	2
 504              		.global	CapSense_1_ProcessSensorExt
 505              		.code	16
 506              		.thumb_func
 507              		.type	CapSense_1_ProcessSensorExt, %function
 508              	CapSense_1_ProcessSensorExt:
 509              	.LFB8:
 706:Generated_Source\PSoC4/CapSense_1_Control.c **** 
 707:Generated_Source\PSoC4/CapSense_1_Control.c **** /*******************************************************************************
 708:Generated_Source\PSoC4/CapSense_1_Control.c **** * Function Name: CapSense_1_ProcessSensorExt
 709:Generated_Source\PSoC4/CapSense_1_Control.c **** ****************************************************************************//**
 710:Generated_Source\PSoC4/CapSense_1_Control.c **** *
 711:Generated_Source\PSoC4/CapSense_1_Control.c **** * \brief
 712:Generated_Source\PSoC4/CapSense_1_Control.c **** *  Performs customized data processing on the selected widget's sensor.
 713:Generated_Source\PSoC4/CapSense_1_Control.c **** *
 714:Generated_Source\PSoC4/CapSense_1_Control.c **** * \details
 715:Generated_Source\PSoC4/CapSense_1_Control.c **** *  This function performs data processes for the specified sensor specified by
 716:Generated_Source\PSoC4/CapSense_1_Control.c **** *  the mode parameter. The execution order of the requested operations is from
 717:Generated_Source\PSoC4/CapSense_1_Control.c **** *  LSB to MSB of the mode parameter. For a different order, this
 718:Generated_Source\PSoC4/CapSense_1_Control.c **** *  function can be called multiple times with the required mode parameter.
 719:Generated_Source\PSoC4/CapSense_1_Control.c **** *
 720:Generated_Source\PSoC4/CapSense_1_Control.c **** *  This function can be used with any of the available scan functions. This
 721:Generated_Source\PSoC4/CapSense_1_Control.c **** *  function is called only after a specified sensor in the widget is
 722:Generated_Source\PSoC4/CapSense_1_Control.c **** *  scanned. Calling this function multiple times with the same mode without
 723:Generated_Source\PSoC4/CapSense_1_Control.c **** *  sensor scanning causes unexpected behavior. This function ignores the value
 724:Generated_Source\PSoC4/CapSense_1_Control.c **** *  of the wdgtEnable register.
 725:Generated_Source\PSoC4/CapSense_1_Control.c **** *
 726:Generated_Source\PSoC4/CapSense_1_Control.c **** *  \if SECTION_C_LOW_LEVEL
 727:Generated_Source\PSoC4/CapSense_1_Control.c **** *  The CapSense_1_PROCESS_CALC_NOISE and
ARM GAS  C:\Users\MICHAE~1.MAC\AppData\Local\Temp\ccEkVQ2o.s 			page 23


 728:Generated_Source\PSoC4/CapSense_1_Control.c **** *  CapSense_1_PROCESS_THRESHOLDS flags are supported by the CSD sensing
 729:Generated_Source\PSoC4/CapSense_1_Control.c **** *  method only when Auto-tuning mode is enabled.
 730:Generated_Source\PSoC4/CapSense_1_Control.c **** *  \endif
 731:Generated_Source\PSoC4/CapSense_1_Control.c **** *
 732:Generated_Source\PSoC4/CapSense_1_Control.c **** *  The pipeline scan method (i.e. during scanning of a sensor, processing
 733:Generated_Source\PSoC4/CapSense_1_Control.c **** *  of a previously scanned sensor is performed) can be implemented using this
 734:Generated_Source\PSoC4/CapSense_1_Control.c **** *  function and it may reduce the total scan/process time, increase the refresh
 735:Generated_Source\PSoC4/CapSense_1_Control.c **** *  rate and decrease the power consumption.
 736:Generated_Source\PSoC4/CapSense_1_Control.c **** *
 737:Generated_Source\PSoC4/CapSense_1_Control.c **** *  If the Self-test library is enabled, this function executes the baseline duplication
 738:Generated_Source\PSoC4/CapSense_1_Control.c **** *  test. Refer to CapSense_1_CheckBaselineDuplication() for details.
 739:Generated_Source\PSoC4/CapSense_1_Control.c **** *
 740:Generated_Source\PSoC4/CapSense_1_Control.c **** * \param widgetId
 741:Generated_Source\PSoC4/CapSense_1_Control.c **** *  Specifies the ID number of the widget to process one of its sensors.
 742:Generated_Source\PSoC4/CapSense_1_Control.c **** *  A macro for the widget ID can be found in the
 743:Generated_Source\PSoC4/CapSense_1_Control.c **** *  CapSense_1 Configuration header file defined as
 744:Generated_Source\PSoC4/CapSense_1_Control.c **** *  CapSense_1_<WidgetName>_WDGT_ID.
 745:Generated_Source\PSoC4/CapSense_1_Control.c **** *
 746:Generated_Source\PSoC4/CapSense_1_Control.c **** * \param sensorId
 747:Generated_Source\PSoC4/CapSense_1_Control.c **** *  Specifies the ID number of the sensor within the widget to process it.
 748:Generated_Source\PSoC4/CapSense_1_Control.c **** *  A macro for the sensor ID within a specified widget can be found in the
 749:Generated_Source\PSoC4/CapSense_1_Control.c **** *  CapSense_1 Configuration header file defined as
 750:Generated_Source\PSoC4/CapSense_1_Control.c **** *  CapSense_1_<WidgetName>_SNS<SensorNumber>_ID.
 751:Generated_Source\PSoC4/CapSense_1_Control.c **** *
 752:Generated_Source\PSoC4/CapSense_1_Control.c **** * \param mode
 753:Generated_Source\PSoC4/CapSense_1_Control.c **** *  Specifies the type of the sensor processing that needs to be executed for the
 754:Generated_Source\PSoC4/CapSense_1_Control.c **** *  specified sensor:
 755:Generated_Source\PSoC4/CapSense_1_Control.c **** *    1. Bits [31..5] - Reserved.
 756:Generated_Source\PSoC4/CapSense_1_Control.c **** *    2. Bits [4..0] - CapSense_1_PROCESS_ALL - Executes all the tasks.
 757:Generated_Source\PSoC4/CapSense_1_Control.c **** *    \if SECTION_C_LOW_LEVEL
 758:Generated_Source\PSoC4/CapSense_1_Control.c **** *    3. Bit [4] - CapSense_1_PROCESS_THRESHOLDS - Updates the thresholds (only
 759:Generated_Source\PSoC4/CapSense_1_Control.c **** *       in auto-tuning mode).
 760:Generated_Source\PSoC4/CapSense_1_Control.c **** *    4. Bit [3] - CapSense_1_PROCESS_CALC_NOISE - Calculates the noise (only
 761:Generated_Source\PSoC4/CapSense_1_Control.c **** *       in auto-tuning mode).
 762:Generated_Source\PSoC4/CapSense_1_Control.c **** *    \endif
 763:Generated_Source\PSoC4/CapSense_1_Control.c **** *    5. Bit [2] - CapSense_1_PROCESS_DIFFCOUNTS - Updates the difference count.
 764:Generated_Source\PSoC4/CapSense_1_Control.c **** *    6. Bit [1] - CapSense_1_PROCESS_BASELINE - Updates the baseline.
 765:Generated_Source\PSoC4/CapSense_1_Control.c **** *    7. Bit [0] - CapSense_1_PROCESS_FILTER - Runs the firmware filters.
 766:Generated_Source\PSoC4/CapSense_1_Control.c **** *
 767:Generated_Source\PSoC4/CapSense_1_Control.c **** * \return
 768:Generated_Source\PSoC4/CapSense_1_Control.c **** *  Returns the status of the sensor process operation:
 769:Generated_Source\PSoC4/CapSense_1_Control.c **** *  - CYRET_SUCCESS - The processing is successfully performed.
 770:Generated_Source\PSoC4/CapSense_1_Control.c **** *  - CYRET_BAD_PARAM - The input parameter is invalid.
 771:Generated_Source\PSoC4/CapSense_1_Control.c **** *  - CYRET_BAD_DATA - The processing is failed.
 772:Generated_Source\PSoC4/CapSense_1_Control.c **** *
 773:Generated_Source\PSoC4/CapSense_1_Control.c **** *******************************************************************************/
 774:Generated_Source\PSoC4/CapSense_1_Control.c **** cystatus CapSense_1_ProcessSensorExt(uint32 widgetId, uint32 sensorId, uint32 mode)
 775:Generated_Source\PSoC4/CapSense_1_Control.c **** {
 510              		.loc 1 775 0
 511              		.cfi_startproc
 512              		@ args = 0, pretend = 0, frame = 8
 513              		@ frame_needed = 0, uses_anonymous_args = 0
 514              	.LVL62:
 515 0000 F0B5     		push	{r4, r5, r6, r7, lr}
 516              		.cfi_def_cfa_offset 20
 517              		.cfi_offset 4, -20
 518              		.cfi_offset 5, -16
ARM GAS  C:\Users\MICHAE~1.MAC\AppData\Local\Temp\ccEkVQ2o.s 			page 24


 519              		.cfi_offset 6, -12
 520              		.cfi_offset 7, -8
 521              		.cfi_offset 14, -4
 522 0002 4746     		mov	r7, r8
 523 0004 80B4     		push	{r7}
 524              		.cfi_def_cfa_offset 24
 525              		.cfi_offset 8, -24
 526 0006 82B0     		sub	sp, sp, #8
 527              		.cfi_def_cfa_offset 32
 528              	.LVL63:
 776:Generated_Source\PSoC4/CapSense_1_Control.c ****     cystatus result = CYRET_BAD_PARAM;
 777:Generated_Source\PSoC4/CapSense_1_Control.c ****     CapSense_1_FLASH_WD_STRUCT const *ptrFlashWdgt;
 778:Generated_Source\PSoC4/CapSense_1_Control.c ****     CapSense_1_PTR_FILTER_VARIANT fltrHistV;
 779:Generated_Source\PSoC4/CapSense_1_Control.c ****     CapSense_1_RAM_SNS_STRUCT *ptrSnsTmp;
 780:Generated_Source\PSoC4/CapSense_1_Control.c **** 
 781:Generated_Source\PSoC4/CapSense_1_Control.c ****     if ((widgetId < CapSense_1_TOTAL_WIDGETS) && (sensorId < CapSense_1_GET_SENSOR_COUNT(widgetId))
 529              		.loc 1 781 0
 530 0008 0928     		cmp	r0, #9
 531 000a 22D8     		bhi	.L44
 532              		.loc 1 781 0 is_stmt 0 discriminator 1
 533 000c C500     		lsls	r5, r0, #3
 534 000e 2D1A     		subs	r5, r5, r0
 535 0010 AC00     		lsls	r4, r5, #2
 536 0012 2500     		movs	r5, r4
 537 0014 124B     		ldr	r3, .L46
 538 0016 1C19     		adds	r4, r3, r4
 539 0018 238B     		ldrh	r3, [r4, #24]
 540 001a 8B42     		cmp	r3, r1
 541 001c 1BD9     		bls	.L45
 542              	.LVL64:
 782:Generated_Source\PSoC4/CapSense_1_Control.c ****     {
 783:Generated_Source\PSoC4/CapSense_1_Control.c ****         result = CYRET_SUCCESS;
 784:Generated_Source\PSoC4/CapSense_1_Control.c **** 
 785:Generated_Source\PSoC4/CapSense_1_Control.c ****         ptrFlashWdgt = &CapSense_1_dsFlash.wdgtArray[widgetId];
 543              		.loc 1 785 0 is_stmt 1
 544 001e 104C     		ldr	r4, .L46
 545 0020 2D19     		adds	r5, r5, r4
 546              	.LVL65:
 786:Generated_Source\PSoC4/CapSense_1_Control.c ****         fltrHistV.ptr = ptrFlashWdgt->ptr2FltrHistory;
 547              		.loc 1 786 0
 548 0022 EE68     		ldr	r6, [r5, #12]
 549 0024 B446     		mov	ip, r6
 550 0026 0196     		str	r6, [sp, #4]
 551              	.LVL66:
 787:Generated_Source\PSoC4/CapSense_1_Control.c ****         ptrSnsTmp = ptrFlashWdgt->ptr2SnsRam;
 788:Generated_Source\PSoC4/CapSense_1_Control.c ****         ptrSnsTmp += sensorId;
 552              		.loc 1 788 0
 553 0028 4F00     		lsls	r7, r1, #1
 554 002a 7F18     		adds	r7, r7, r1
 555 002c FE00     		lsls	r6, r7, #3
 556 002e AF68     		ldr	r7, [r5, #8]
 557 0030 B846     		mov	r8, r7
 558 0032 4644     		add	r6, r6, r8
 559              	.LVL67:
 789:Generated_Source\PSoC4/CapSense_1_Control.c **** 
 790:Generated_Source\PSoC4/CapSense_1_Control.c ****         switch(CapSense_1_GET_SENSE_METHOD(ptrFlashWdgt))
 791:Generated_Source\PSoC4/CapSense_1_Control.c ****         {
ARM GAS  C:\Users\MICHAE~1.MAC\AppData\Local\Temp\ccEkVQ2o.s 			page 25


 792:Generated_Source\PSoC4/CapSense_1_Control.c ****         #if (0u != CapSense_1_TOTAL_CSD_WIDGETS)
 793:Generated_Source\PSoC4/CapSense_1_Control.c ****             case CapSense_1_SENSE_METHOD_CSD_E:
 794:Generated_Source\PSoC4/CapSense_1_Control.c ****                 if (CapSense_1_WD_PROXIMITY_E == (CapSense_1_WD_TYPE_ENUM)ptrFlashWdgt->wdgtType)
 560              		.loc 1 794 0
 561 0034 AB7E     		ldrb	r3, [r5, #26]
 562 0036 062B     		cmp	r3, #6
 563 0038 04D0     		beq	.L43
 795:Generated_Source\PSoC4/CapSense_1_Control.c ****                 {
 796:Generated_Source\PSoC4/CapSense_1_Control.c ****                     #if (0u != CapSense_1_PROX_RC_ALP_FILTER_EN)
 797:Generated_Source\PSoC4/CapSense_1_Control.c ****                         fltrHistV.ptr = &fltrHistV.ptrAlp[sensorId];
 798:Generated_Source\PSoC4/CapSense_1_Control.c ****                     #elif (0u != CapSense_1_PROX_RC_FILTER_EN)
 799:Generated_Source\PSoC4/CapSense_1_Control.c ****                         fltrHistV.ptr = &fltrHistV.ptrProx[sensorId];
 800:Generated_Source\PSoC4/CapSense_1_Control.c ****                     #endif
 801:Generated_Source\PSoC4/CapSense_1_Control.c ****                 }
 802:Generated_Source\PSoC4/CapSense_1_Control.c ****                 else
 803:Generated_Source\PSoC4/CapSense_1_Control.c ****                 {
 804:Generated_Source\PSoC4/CapSense_1_Control.c ****                     #if (0u != CapSense_1_REGULAR_RC_ALP_FILTER_EN)
 805:Generated_Source\PSoC4/CapSense_1_Control.c ****                         fltrHistV.ptr = &fltrHistV.ptrAlp[sensorId];
 806:Generated_Source\PSoC4/CapSense_1_Control.c ****                     #elif (0u != CapSense_1_REGULAR_RC_FILTER_EN)
 807:Generated_Source\PSoC4/CapSense_1_Control.c ****                         fltrHistV.ptr = &fltrHistV.ptrRegular[sensorId];
 564              		.loc 1 807 0
 565 003a CC00     		lsls	r4, r1, #3
 566 003c 6418     		adds	r4, r4, r1
 567 003e A300     		lsls	r3, r4, #2
 568 0040 6344     		add	r3, r3, ip
 569 0042 0193     		str	r3, [sp, #4]
 570              	.L43:
 808:Generated_Source\PSoC4/CapSense_1_Control.c ****                     #endif
 809:Generated_Source\PSoC4/CapSense_1_Control.c ****                 }
 810:Generated_Source\PSoC4/CapSense_1_Control.c **** 
 811:Generated_Source\PSoC4/CapSense_1_Control.c ****                 result = CapSense_1_DpProcessCsdSensorRawCountsExt(ptrFlashWdgt, ptrSnsTmp, fltrHis
 571              		.loc 1 811 0
 572 0044 1300     		movs	r3, r2
 573 0046 019A     		ldr	r2, [sp, #4]
 574              	.LVL68:
 575 0048 3100     		movs	r1, r6
 576              	.LVL69:
 577 004a 2800     		movs	r0, r5
 578              	.LVL70:
 579 004c FFF7FEFF 		bl	CapSense_1_DpProcessCsdSensorRawCountsExt
 580              	.LVL71:
 812:Generated_Source\PSoC4/CapSense_1_Control.c ****                 break;
 581              		.loc 1 812 0
 582 0050 02E0     		b	.L42
 583              	.LVL72:
 584              	.L44:
 776:Generated_Source\PSoC4/CapSense_1_Control.c ****     CapSense_1_FLASH_WD_STRUCT const *ptrFlashWdgt;
 585              		.loc 1 776 0
 586 0052 0120     		movs	r0, #1
 587              	.LVL73:
 588 0054 00E0     		b	.L42
 589              	.LVL74:
 590              	.L45:
 591 0056 0120     		movs	r0, #1
 592              	.LVL75:
 593              	.L42:
 813:Generated_Source\PSoC4/CapSense_1_Control.c ****         #endif /* #if (0u != CapSense_1_TOTAL_CSD_WIDGETS) */
ARM GAS  C:\Users\MICHAE~1.MAC\AppData\Local\Temp\ccEkVQ2o.s 			page 26


 814:Generated_Source\PSoC4/CapSense_1_Control.c **** 
 815:Generated_Source\PSoC4/CapSense_1_Control.c ****         #if (0u != CapSense_1_TOTAL_CSX_WIDGETS)
 816:Generated_Source\PSoC4/CapSense_1_Control.c ****             case CapSense_1_SENSE_METHOD_CSX_E:
 817:Generated_Source\PSoC4/CapSense_1_Control.c ****                 #if (0u != CapSense_1_REGULAR_RC_ALP_FILTER_EN)
 818:Generated_Source\PSoC4/CapSense_1_Control.c ****                     fltrHistV.ptr = &fltrHistV.ptrAlp[sensorId];
 819:Generated_Source\PSoC4/CapSense_1_Control.c ****                 #elif (0u != CapSense_1_REGULAR_RC_FILTER_EN)
 820:Generated_Source\PSoC4/CapSense_1_Control.c ****                     fltrHistV.ptr = &fltrHistV.ptrRegular[sensorId];
 821:Generated_Source\PSoC4/CapSense_1_Control.c ****                 #endif
 822:Generated_Source\PSoC4/CapSense_1_Control.c **** 
 823:Generated_Source\PSoC4/CapSense_1_Control.c ****                 result = CapSense_1_DpProcessCsxSensorRawCountsExt(ptrFlashWdgt, ptrSnsTmp, fltrHis
 824:Generated_Source\PSoC4/CapSense_1_Control.c ****                 break;
 825:Generated_Source\PSoC4/CapSense_1_Control.c ****         #endif /* #if (0u != CapSense_1_TOTAL_CSX_WIDGETS) */
 826:Generated_Source\PSoC4/CapSense_1_Control.c **** 
 827:Generated_Source\PSoC4/CapSense_1_Control.c ****         #if (0u != CapSense_1_TOTAL_ISX_WIDGETS)
 828:Generated_Source\PSoC4/CapSense_1_Control.c ****             case CapSense_1_SENSE_METHOD_ISX_E:
 829:Generated_Source\PSoC4/CapSense_1_Control.c ****                 if (CapSense_1_WD_PROXIMITY_E == (CapSense_1_WD_TYPE_ENUM)ptrFlashWdgt->wdgtType)
 830:Generated_Source\PSoC4/CapSense_1_Control.c ****                 {
 831:Generated_Source\PSoC4/CapSense_1_Control.c ****                     #if (0u != CapSense_1_PROX_RC_FILTER_EN)
 832:Generated_Source\PSoC4/CapSense_1_Control.c ****                         fltrHistV.ptr = &fltrHistV.ptrProx[sensorId];
 833:Generated_Source\PSoC4/CapSense_1_Control.c ****                     #endif /* #if (0u != CapSense_1_PROX_RC_FILTER_EN) */
 834:Generated_Source\PSoC4/CapSense_1_Control.c ****                 }
 835:Generated_Source\PSoC4/CapSense_1_Control.c ****                 else
 836:Generated_Source\PSoC4/CapSense_1_Control.c ****                 {
 837:Generated_Source\PSoC4/CapSense_1_Control.c ****                     #if (0u != CapSense_1_REGULAR_RC_FILTER_EN)
 838:Generated_Source\PSoC4/CapSense_1_Control.c ****                         fltrHistV.ptr = &fltrHistV.ptrRegular[sensorId];
 839:Generated_Source\PSoC4/CapSense_1_Control.c ****                     #endif /* #if (0u != CapSense_1_REGULAR_RC_FILTER_EN) */
 840:Generated_Source\PSoC4/CapSense_1_Control.c ****                 }
 841:Generated_Source\PSoC4/CapSense_1_Control.c **** 
 842:Generated_Source\PSoC4/CapSense_1_Control.c ****                 result = CapSense_1_DpProcessIsxSensorRawCountsExt(ptrFlashWdgt, ptrSnsTmp, fltrHis
 843:Generated_Source\PSoC4/CapSense_1_Control.c ****                 break;
 844:Generated_Source\PSoC4/CapSense_1_Control.c ****         #endif /* #if (0u != CapSense_1_TOTAL_ISX_WIDGETS) */
 845:Generated_Source\PSoC4/CapSense_1_Control.c **** 
 846:Generated_Source\PSoC4/CapSense_1_Control.c ****         default:
 847:Generated_Source\PSoC4/CapSense_1_Control.c ****             CYASSERT(0u);
 848:Generated_Source\PSoC4/CapSense_1_Control.c ****             break;
 849:Generated_Source\PSoC4/CapSense_1_Control.c ****         }
 850:Generated_Source\PSoC4/CapSense_1_Control.c **** 
 851:Generated_Source\PSoC4/CapSense_1_Control.c ****         #if (CapSense_1_ENABLE == CapSense_1_TST_BSLN_DUPLICATION_EN)
 852:Generated_Source\PSoC4/CapSense_1_Control.c ****             if (CYRET_SUCCESS != result)
 853:Generated_Source\PSoC4/CapSense_1_Control.c ****             {
 854:Generated_Source\PSoC4/CapSense_1_Control.c ****                 CapSense_1_UpdateTestResultBaselineDuplication(widgetId, sensorId);
 855:Generated_Source\PSoC4/CapSense_1_Control.c ****                 result = CYRET_BAD_DATA;
 856:Generated_Source\PSoC4/CapSense_1_Control.c ****             }
 857:Generated_Source\PSoC4/CapSense_1_Control.c ****         #endif /* (CapSense_1_ENABLE == CapSense_1_TST_BSLN_DUPLICATION_EN) */
 858:Generated_Source\PSoC4/CapSense_1_Control.c **** 
 859:Generated_Source\PSoC4/CapSense_1_Control.c ****     }
 860:Generated_Source\PSoC4/CapSense_1_Control.c ****     return result;
 861:Generated_Source\PSoC4/CapSense_1_Control.c **** }
 594              		.loc 1 861 0
 595 0058 02B0     		add	sp, sp, #8
 596              		@ sp needed
 597 005a 04BC     		pop	{r2}
 598 005c 9046     		mov	r8, r2
 599 005e F0BD     		pop	{r4, r5, r6, r7, pc}
 600              	.L47:
 601              		.align	2
 602              	.L46:
ARM GAS  C:\Users\MICHAE~1.MAC\AppData\Local\Temp\ccEkVQ2o.s 			page 27


 603 0060 00000000 		.word	CapSense_1_dsFlash
 604              		.cfi_endproc
 605              	.LFE8:
 606              		.size	CapSense_1_ProcessSensorExt, .-CapSense_1_ProcessSensorExt
 607              		.section	.text.CapSense_1_Sleep,"ax",%progbits
 608              		.align	2
 609              		.global	CapSense_1_Sleep
 610              		.code	16
 611              		.thumb_func
 612              		.type	CapSense_1_Sleep, %function
 613              	CapSense_1_Sleep:
 614              	.LFB9:
 862:Generated_Source\PSoC4/CapSense_1_Control.c **** 
 863:Generated_Source\PSoC4/CapSense_1_Control.c **** /*******************************************************************************
 864:Generated_Source\PSoC4/CapSense_1_Control.c **** * Function Name: CapSense_1_Sleep
 865:Generated_Source\PSoC4/CapSense_1_Control.c **** ****************************************************************************//**
 866:Generated_Source\PSoC4/CapSense_1_Control.c **** *
 867:Generated_Source\PSoC4/CapSense_1_Control.c **** * \brief
 868:Generated_Source\PSoC4/CapSense_1_Control.c **** *  Prepares the Component for deep sleep.
 869:Generated_Source\PSoC4/CapSense_1_Control.c **** *
 870:Generated_Source\PSoC4/CapSense_1_Control.c **** * \details
 871:Generated_Source\PSoC4/CapSense_1_Control.c **** *  Currently this function is empty and exists as a place for future updates,
 872:Generated_Source\PSoC4/CapSense_1_Control.c **** *  this function will be used to prepare the Component to enter deep sleep.
 873:Generated_Source\PSoC4/CapSense_1_Control.c **** *
 874:Generated_Source\PSoC4/CapSense_1_Control.c **** *******************************************************************************/
 875:Generated_Source\PSoC4/CapSense_1_Control.c **** void CapSense_1_Sleep(void)
 876:Generated_Source\PSoC4/CapSense_1_Control.c **** {
 615              		.loc 1 876 0
 616              		.cfi_startproc
 617              		@ args = 0, pretend = 0, frame = 0
 618              		@ frame_needed = 0, uses_anonymous_args = 0
 619              		@ link register save eliminated.
 877:Generated_Source\PSoC4/CapSense_1_Control.c **** }
 620              		.loc 1 877 0
 621              		@ sp needed
 622 0000 7047     		bx	lr
 623              		.cfi_endproc
 624              	.LFE9:
 625              		.size	CapSense_1_Sleep, .-CapSense_1_Sleep
 626 0002 C046     		.section	.text.CapSense_1_Wakeup,"ax",%progbits
 627              		.align	2
 628              		.global	CapSense_1_Wakeup
 629              		.code	16
 630              		.thumb_func
 631              		.type	CapSense_1_Wakeup, %function
 632              	CapSense_1_Wakeup:
 633              	.LFB10:
 878:Generated_Source\PSoC4/CapSense_1_Control.c **** 
 879:Generated_Source\PSoC4/CapSense_1_Control.c **** 
 880:Generated_Source\PSoC4/CapSense_1_Control.c **** /*******************************************************************************
 881:Generated_Source\PSoC4/CapSense_1_Control.c **** * Function Name: CapSense_1_Wakeup
 882:Generated_Source\PSoC4/CapSense_1_Control.c **** ****************************************************************************//**
 883:Generated_Source\PSoC4/CapSense_1_Control.c **** *
 884:Generated_Source\PSoC4/CapSense_1_Control.c **** * \brief
 885:Generated_Source\PSoC4/CapSense_1_Control.c **** *  Resumes the Component after deep sleep power mode.
 886:Generated_Source\PSoC4/CapSense_1_Control.c **** *
 887:Generated_Source\PSoC4/CapSense_1_Control.c **** * \details
ARM GAS  C:\Users\MICHAE~1.MAC\AppData\Local\Temp\ccEkVQ2o.s 			page 28


 888:Generated_Source\PSoC4/CapSense_1_Control.c **** *  Resumes the Component after deep sleep power mode. This function is used to
 889:Generated_Source\PSoC4/CapSense_1_Control.c **** *  resume the Component after exiting deep sleep.
 890:Generated_Source\PSoC4/CapSense_1_Control.c **** *
 891:Generated_Source\PSoC4/CapSense_1_Control.c **** *******************************************************************************/
 892:Generated_Source\PSoC4/CapSense_1_Control.c **** void CapSense_1_Wakeup(void)
 893:Generated_Source\PSoC4/CapSense_1_Control.c **** {
 634              		.loc 1 893 0
 635              		.cfi_startproc
 636              		@ args = 0, pretend = 0, frame = 0
 637              		@ frame_needed = 0, uses_anonymous_args = 0
 638              		@ link register save eliminated.
 894:Generated_Source\PSoC4/CapSense_1_Control.c ****     #if(CapSense_1_ENABLE == CapSense_1_CSDV2)
 895:Generated_Source\PSoC4/CapSense_1_Control.c ****         #if(CapSense_1_BLOCK_ANALOG_WAKEUP_DELAY_US > 0uL)
 896:Generated_Source\PSoC4/CapSense_1_Control.c ****             CyDelayUs(CapSense_1_BLOCK_ANALOG_WAKEUP_DELAY_US);
 897:Generated_Source\PSoC4/CapSense_1_Control.c ****         #endif /* (CapSense_1_BLOCK_ANALOG_WAKEUP_DELAY_US > 0uL) */
 898:Generated_Source\PSoC4/CapSense_1_Control.c ****     #endif /* (CapSense_1_ENABLE == CapSense_1_CSDV2) */
 899:Generated_Source\PSoC4/CapSense_1_Control.c **** }
 639              		.loc 1 899 0
 640              		@ sp needed
 641 0000 7047     		bx	lr
 642              		.cfi_endproc
 643              	.LFE10:
 644              		.size	CapSense_1_Wakeup, .-CapSense_1_Wakeup
 645 0002 C046     		.bss
 646              		.set	.LANCHOR0,. + 0
 647              		.type	CapSense_1_InitVar, %object
 648              		.size	CapSense_1_InitVar, 1
 649              	CapSense_1_InitVar:
 650 0000 00       		.space	1
 651              		.text
 652              	.Letext0:
 653              		.file 2 "Generated_Source\\PSoC4\\cytypes.h"
 654              		.file 3 "Generated_Source\\PSoC4\\CapSense_1_Configuration.h"
 655              		.file 4 "Generated_Source\\PSoC4\\CapSense_1_Structure.h"
 656              		.file 5 "Generated_Source\\PSoC4\\CapSense_1_Tuner.h"
 657              		.file 6 "Generated_Source\\PSoC4\\CapSense_1_Processing.h"
 658              		.file 7 "Generated_Source\\PSoC4\\CapSense_1_Sensing.h"
 659              		.file 8 "Generated_Source\\PSoC4\\CapSense_1_Filter.h"