ARM GAS  C:\Users\MICHAE~1.MAC\AppData\Local\Temp\cc682toO.s 			page 1


   1              		.syntax unified
   2              		.cpu cortex-m0plus
   3              		.fpu softvfp
   4              		.eabi_attribute 20, 1
   5              		.eabi_attribute 21, 1
   6              		.eabi_attribute 23, 3
   7              		.eabi_attribute 24, 1
   8              		.eabi_attribute 25, 1
   9              		.eabi_attribute 26, 1
  10              		.eabi_attribute 30, 1
  11              		.eabi_attribute 34, 0
  12              		.eabi_attribute 18, 4
  13              		.thumb
  14              		.syntax unified
  15              		.file	"CapSense_1_Processing.c"
  16              		.text
  17              	.Ltext0:
  18              		.cfi_sections	.debug_frame
  19              		.section	.text.CapSense_1_DpInitialize,"ax",%progbits
  20              		.align	2
  21              		.global	CapSense_1_DpInitialize
  22              		.code	16
  23              		.thumb_func
  24              		.type	CapSense_1_DpInitialize, %function
  25              	CapSense_1_DpInitialize:
  26              	.LFB1:
  27              		.file 1 "Generated_Source\\PSoC4\\CapSense_1_Processing.c"
   1:Generated_Source\PSoC4/CapSense_1_Processing.c **** /***************************************************************************//**
   2:Generated_Source\PSoC4/CapSense_1_Processing.c **** * \file CapSense_1_Processing.c
   3:Generated_Source\PSoC4/CapSense_1_Processing.c **** * \version 5.20
   4:Generated_Source\PSoC4/CapSense_1_Processing.c **** *
   5:Generated_Source\PSoC4/CapSense_1_Processing.c **** * \brief
   6:Generated_Source\PSoC4/CapSense_1_Processing.c **** *   This file provides the source code for the Data Processing module APIs
   7:Generated_Source\PSoC4/CapSense_1_Processing.c **** *   of the Component. The Data Processing module is responsible for the
   8:Generated_Source\PSoC4/CapSense_1_Processing.c **** *   low level raw counts processing provided by the sensing module, maintaining
   9:Generated_Source\PSoC4/CapSense_1_Processing.c **** *   baseline and difference values and performing high-level widget processing
  10:Generated_Source\PSoC4/CapSense_1_Processing.c **** *   like updating button status or calculating slider position.
  11:Generated_Source\PSoC4/CapSense_1_Processing.c **** *
  12:Generated_Source\PSoC4/CapSense_1_Processing.c **** * \see CapSense_1 v5.20 Datasheet
  13:Generated_Source\PSoC4/CapSense_1_Processing.c **** *
  14:Generated_Source\PSoC4/CapSense_1_Processing.c **** *//*****************************************************************************
  15:Generated_Source\PSoC4/CapSense_1_Processing.c **** * Copyright (2016-2018), Cypress Semiconductor Corporation.
  16:Generated_Source\PSoC4/CapSense_1_Processing.c **** ********************************************************************************
  17:Generated_Source\PSoC4/CapSense_1_Processing.c **** * This software is owned by Cypress Semiconductor Corporation (Cypress) and is
  18:Generated_Source\PSoC4/CapSense_1_Processing.c **** * protected by and subject to worldwide patent protection (United States and
  19:Generated_Source\PSoC4/CapSense_1_Processing.c **** * foreign), United States copyright laws and international treaty provisions.
  20:Generated_Source\PSoC4/CapSense_1_Processing.c **** * Cypress hereby grants to licensee a personal, non-exclusive, non-transferable
  21:Generated_Source\PSoC4/CapSense_1_Processing.c **** * license to copy, use, modify, create derivative works of, and compile the
  22:Generated_Source\PSoC4/CapSense_1_Processing.c **** * Cypress Source Code and derivative works for the sole purpose of creating
  23:Generated_Source\PSoC4/CapSense_1_Processing.c **** * custom software in support of licensee product to be used only in conjunction
  24:Generated_Source\PSoC4/CapSense_1_Processing.c **** * with a Cypress integrated circuit as specified in the applicable agreement.
  25:Generated_Source\PSoC4/CapSense_1_Processing.c **** * Any reproduction, modification, translation, compilation, or representation of
  26:Generated_Source\PSoC4/CapSense_1_Processing.c **** * this software except as specified above is prohibited without the express
  27:Generated_Source\PSoC4/CapSense_1_Processing.c **** * written permission of Cypress.
  28:Generated_Source\PSoC4/CapSense_1_Processing.c **** *
  29:Generated_Source\PSoC4/CapSense_1_Processing.c **** * Disclaimer: CYPRESS MAKES NO WARRANTY OF ANY KIND, EXPRESS OR IMPLIED, WITH
  30:Generated_Source\PSoC4/CapSense_1_Processing.c **** * REGARD TO THIS MATERIAL, INCLUDING, BUT NOT LIMITED TO, THE IMPLIED
ARM GAS  C:\Users\MICHAE~1.MAC\AppData\Local\Temp\cc682toO.s 			page 2


  31:Generated_Source\PSoC4/CapSense_1_Processing.c **** * WARRANTIES OF MERCHANTABILITY AND FITNESS FOR A PARTICULAR PURPOSE.
  32:Generated_Source\PSoC4/CapSense_1_Processing.c **** * Cypress reserves the right to make changes without further notice to the
  33:Generated_Source\PSoC4/CapSense_1_Processing.c **** * materials described herein. Cypress does not assume any liability arising out
  34:Generated_Source\PSoC4/CapSense_1_Processing.c **** * of the application or use of any product or circuit described herein. Cypress
  35:Generated_Source\PSoC4/CapSense_1_Processing.c **** * does not authorize its products for use as critical components in life-support
  36:Generated_Source\PSoC4/CapSense_1_Processing.c **** * systems where a malfunction or failure may reasonably be expected to result in
  37:Generated_Source\PSoC4/CapSense_1_Processing.c **** * significant injury to the user. The inclusion of Cypress' product in a life-
  38:Generated_Source\PSoC4/CapSense_1_Processing.c **** * support systems application implies that the manufacturer assumes all risk of
  39:Generated_Source\PSoC4/CapSense_1_Processing.c **** * such use and in doing so indemnifies Cypress against all charges. Use may be
  40:Generated_Source\PSoC4/CapSense_1_Processing.c **** * limited by and subject to the applicable Cypress software license agreement.
  41:Generated_Source\PSoC4/CapSense_1_Processing.c **** *******************************************************************************/
  42:Generated_Source\PSoC4/CapSense_1_Processing.c **** 
  43:Generated_Source\PSoC4/CapSense_1_Processing.c **** #include "CyLib.h"
  44:Generated_Source\PSoC4/CapSense_1_Processing.c **** #include "cytypes.h"
  45:Generated_Source\PSoC4/CapSense_1_Processing.c **** #include "CapSense_1_Configuration.h"
  46:Generated_Source\PSoC4/CapSense_1_Processing.c **** #include "CapSense_1_Processing.h"
  47:Generated_Source\PSoC4/CapSense_1_Processing.c **** #include "CapSense_1_Filter.h"
  48:Generated_Source\PSoC4/CapSense_1_Processing.c **** 
  49:Generated_Source\PSoC4/CapSense_1_Processing.c **** #if (0u != CapSense_1_CENTROID_EN)
  50:Generated_Source\PSoC4/CapSense_1_Processing.c ****     #include "CapSense_1_Centroid_LL.h"
  51:Generated_Source\PSoC4/CapSense_1_Processing.c **** #endif /* (0 != CapSense_1_CENTROID_EN) */
  52:Generated_Source\PSoC4/CapSense_1_Processing.c **** 
  53:Generated_Source\PSoC4/CapSense_1_Processing.c **** #if (0 != (CapSense_1_CSD_AUTOTUNE & CapSense_1_CSD_SS_TH_EN))
  54:Generated_Source\PSoC4/CapSense_1_Processing.c ****     #include "CapSense_1_SmartSense_LL.h"
  55:Generated_Source\PSoC4/CapSense_1_Processing.c **** #endif /* (0 != (CapSense_1_CSD_AUTOTUNE & CapSense_1_CSD_SS_TH_EN)) */
  56:Generated_Source\PSoC4/CapSense_1_Processing.c **** 
  57:Generated_Source\PSoC4/CapSense_1_Processing.c **** #if (CapSense_1_ENABLE == CapSense_1_SELF_TEST_EN)
  58:Generated_Source\PSoC4/CapSense_1_Processing.c ****     #include "CapSense_1_SelfTest.h"
  59:Generated_Source\PSoC4/CapSense_1_Processing.c **** #endif
  60:Generated_Source\PSoC4/CapSense_1_Processing.c **** 
  61:Generated_Source\PSoC4/CapSense_1_Processing.c **** #if (CapSense_1_ENABLE == CapSense_1_CENTROID_5X5_CSD_EN)
  62:Generated_Source\PSoC4/CapSense_1_Processing.c ****     #include "CapSense_1_AdvancedCentroid_LL.h"
  63:Generated_Source\PSoC4/CapSense_1_Processing.c **** #endif
  64:Generated_Source\PSoC4/CapSense_1_Processing.c **** 
  65:Generated_Source\PSoC4/CapSense_1_Processing.c **** #if (CapSense_1_ENABLE == CapSense_1_POS_ADAPTIVE_IIR_FILTER_EN)
  66:Generated_Source\PSoC4/CapSense_1_Processing.c ****     #include "CapSense_1_AdaptiveFilter_LL.h"
  67:Generated_Source\PSoC4/CapSense_1_Processing.c **** #endif
  68:Generated_Source\PSoC4/CapSense_1_Processing.c **** 
  69:Generated_Source\PSoC4/CapSense_1_Processing.c **** #if(CapSense_1_ENABLE == CapSense_1_BALLISTIC_MULTIPLIER_EN)
  70:Generated_Source\PSoC4/CapSense_1_Processing.c ****     #include "CapSense_1_Gesture.h"
  71:Generated_Source\PSoC4/CapSense_1_Processing.c **** #endif
  72:Generated_Source\PSoC4/CapSense_1_Processing.c **** 
  73:Generated_Source\PSoC4/CapSense_1_Processing.c **** /**************************************************************************************************
  74:Generated_Source\PSoC4/CapSense_1_Processing.c **** * Local definition
  75:Generated_Source\PSoC4/CapSense_1_Processing.c **** ***************************************************************************************************
  76:Generated_Source\PSoC4/CapSense_1_Processing.c **** 
  77:Generated_Source\PSoC4/CapSense_1_Processing.c **** /* UINT32 constant with all odd bits set. It is used by the processing function of the Proximity wi
  78:Generated_Source\PSoC4/CapSense_1_Processing.c **** *  determine type of the status bit: odd bits report proximity status; even bits report touch statu
  79:Generated_Source\PSoC4/CapSense_1_Processing.c **** */
  80:Generated_Source\PSoC4/CapSense_1_Processing.c **** #define UINT32_ODD_BITS_CONST       (0x55555555u)
  81:Generated_Source\PSoC4/CapSense_1_Processing.c **** 
  82:Generated_Source\PSoC4/CapSense_1_Processing.c **** /* Default value for the Off Debounce counter when the Off Debounce is disabled */
  83:Generated_Source\PSoC4/CapSense_1_Processing.c **** #define DEFAULT_OFF_DEBOUNCE_VALUE  (1u)
  84:Generated_Source\PSoC4/CapSense_1_Processing.c **** #define PERCENTAGE_100              (100u)
  85:Generated_Source\PSoC4/CapSense_1_Processing.c **** #define TEMP_BUFFER_MSB_SHIFT       (16)
  86:Generated_Source\PSoC4/CapSense_1_Processing.c **** 
  87:Generated_Source\PSoC4/CapSense_1_Processing.c **** /**************************************************************************************************
ARM GAS  C:\Users\MICHAE~1.MAC\AppData\Local\Temp\cc682toO.s 			page 3


  88:Generated_Source\PSoC4/CapSense_1_Processing.c **** * Local variables
  89:Generated_Source\PSoC4/CapSense_1_Processing.c **** ***************************************************************************************************
  90:Generated_Source\PSoC4/CapSense_1_Processing.c **** #if (0u != CapSense_1_CSX_MULTIPHASE_TX_EN)
  91:Generated_Source\PSoC4/CapSense_1_Processing.c ****     static uint16 deconvRowData[CapSense_1_CSX_MAX_TX_PHASE_LENGTH];
  92:Generated_Source\PSoC4/CapSense_1_Processing.c **** #endif
  93:Generated_Source\PSoC4/CapSense_1_Processing.c **** 
  94:Generated_Source\PSoC4/CapSense_1_Processing.c **** 
  95:Generated_Source\PSoC4/CapSense_1_Processing.c **** /**************************************************************************************************
  96:Generated_Source\PSoC4/CapSense_1_Processing.c **** * Static Function Prototypes
  97:Generated_Source\PSoC4/CapSense_1_Processing.c **** ***************************************************************************************************
  98:Generated_Source\PSoC4/CapSense_1_Processing.c **** /**
  99:Generated_Source\PSoC4/CapSense_1_Processing.c **** * \cond SECTION_C_INTERNAL
 100:Generated_Source\PSoC4/CapSense_1_Processing.c **** * \addtogroup group_c_internal
 101:Generated_Source\PSoC4/CapSense_1_Processing.c **** * \{
 102:Generated_Source\PSoC4/CapSense_1_Processing.c **** */
 103:Generated_Source\PSoC4/CapSense_1_Processing.c **** #if (0u != CapSense_1_TOTAL_LINEAR_SLIDERS)
 104:Generated_Source\PSoC4/CapSense_1_Processing.c ****     static CY_INLINE void DpUpdateLinSlider(
 105:Generated_Source\PSoC4/CapSense_1_Processing.c ****                         const uint16 newPos[], uint32 numTouches,
 106:Generated_Source\PSoC4/CapSense_1_Processing.c ****                         CapSense_1_FLASH_WD_STRUCT const *ptrFlashWdgt,
 107:Generated_Source\PSoC4/CapSense_1_Processing.c ****                         CapSense_1_RAM_WD_SLIDER_STRUCT *ptrRamWdgt);
 108:Generated_Source\PSoC4/CapSense_1_Processing.c **** #endif /* #if (0u != CapSense_1_TOTAL_LINEAR_SLIDERS) */
 109:Generated_Source\PSoC4/CapSense_1_Processing.c **** 
 110:Generated_Source\PSoC4/CapSense_1_Processing.c **** #if (0u != CapSense_1_TOTAL_RADIAL_SLIDERS)
 111:Generated_Source\PSoC4/CapSense_1_Processing.c ****     static CY_INLINE void DpUpdateRadSlider(
 112:Generated_Source\PSoC4/CapSense_1_Processing.c ****                         const uint16 newPos[], uint32 numTouches,
 113:Generated_Source\PSoC4/CapSense_1_Processing.c ****                         CapSense_1_FLASH_WD_STRUCT const * ptrFlashWdgt,
 114:Generated_Source\PSoC4/CapSense_1_Processing.c ****                         CapSense_1_RAM_WD_SLIDER_STRUCT *ptrRamWdgt);
 115:Generated_Source\PSoC4/CapSense_1_Processing.c **** #endif /* #if (0u != CapSense_1_TOTAL_RADIAL_SLIDERS) */
 116:Generated_Source\PSoC4/CapSense_1_Processing.c **** 
 117:Generated_Source\PSoC4/CapSense_1_Processing.c **** #if (0u != CapSense_1_CSD_TOUCHPAD_WIDGET_EN)
 118:Generated_Source\PSoC4/CapSense_1_Processing.c ****     static CY_INLINE void CapSense_1_DpInitCsdTouchpad(CapSense_1_FLASH_WD_STRUCT const * ptrFlashW
 119:Generated_Source\PSoC4/CapSense_1_Processing.c **** #endif /* #if (0u != CapSense_1_CSD_TOUCHPAD_WIDGET_EN) */
 120:Generated_Source\PSoC4/CapSense_1_Processing.c **** 
 121:Generated_Source\PSoC4/CapSense_1_Processing.c **** #if (0u != CapSense_1_CSX_TOUCHPAD_WIDGET_EN)
 122:Generated_Source\PSoC4/CapSense_1_Processing.c ****     static CY_INLINE void CapSense_1_DpInitCsxTouchpad(CapSense_1_FLASH_WD_STRUCT const * ptrFlashW
 123:Generated_Source\PSoC4/CapSense_1_Processing.c **** #endif /* #if (0u != CapSense_1_CSX_TOUCHPAD_WIDGET_EN) */
 124:Generated_Source\PSoC4/CapSense_1_Processing.c **** 
 125:Generated_Source\PSoC4/CapSense_1_Processing.c **** #if (0u != CapSense_1_SLIDER_WIDGET_EN)
 126:Generated_Source\PSoC4/CapSense_1_Processing.c ****     static CY_INLINE void CapSense_1_DpInitSlider(CapSense_1_FLASH_WD_STRUCT const * ptrFlashWdgt);
 127:Generated_Source\PSoC4/CapSense_1_Processing.c **** #endif /* #if (0u != CapSense_1_SLIDER_WIDGET_EN) */
 128:Generated_Source\PSoC4/CapSense_1_Processing.c **** 
 129:Generated_Source\PSoC4/CapSense_1_Processing.c **** #if (0u != CapSense_1_CSD_MATRIX_WIDGET_EN)
 130:Generated_Source\PSoC4/CapSense_1_Processing.c ****     static CY_INLINE void CapSense_1_DpInitCsdMatrix(CapSense_1_FLASH_WD_STRUCT const * ptrFlashWdg
 131:Generated_Source\PSoC4/CapSense_1_Processing.c **** #endif /* #if (0u != CapSense_1_CSD_MATRIX_WIDGET_EN) */
 132:Generated_Source\PSoC4/CapSense_1_Processing.c **** 
 133:Generated_Source\PSoC4/CapSense_1_Processing.c **** /** \}
 134:Generated_Source\PSoC4/CapSense_1_Processing.c **** * \endcond */
 135:Generated_Source\PSoC4/CapSense_1_Processing.c **** 
 136:Generated_Source\PSoC4/CapSense_1_Processing.c **** #if (0u != CapSense_1_CSD_TOUCHPAD_WIDGET_EN)
 137:Generated_Source\PSoC4/CapSense_1_Processing.c **** /*******************************************************************************
 138:Generated_Source\PSoC4/CapSense_1_Processing.c **** * Function Name: CapSense_1_DpInitCsdTouchpad
 139:Generated_Source\PSoC4/CapSense_1_Processing.c **** ****************************************************************************//**
 140:Generated_Source\PSoC4/CapSense_1_Processing.c **** *
 141:Generated_Source\PSoC4/CapSense_1_Processing.c **** * \brief
 142:Generated_Source\PSoC4/CapSense_1_Processing.c **** *  Performs initialization of the CSD touchpad widget.
 143:Generated_Source\PSoC4/CapSense_1_Processing.c **** *   - Resets the position data to NONE
 144:Generated_Source\PSoC4/CapSense_1_Processing.c **** *   - Initializes the position filter history if enabled.
ARM GAS  C:\Users\MICHAE~1.MAC\AppData\Local\Temp\cc682toO.s 			page 4


 145:Generated_Source\PSoC4/CapSense_1_Processing.c **** *
 146:Generated_Source\PSoC4/CapSense_1_Processing.c **** * \details
 147:Generated_Source\PSoC4/CapSense_1_Processing.c **** *  The position data is always reset to the CapSense_1_TOUCHPAD_POS_NONE value.
 148:Generated_Source\PSoC4/CapSense_1_Processing.c **** *  The same happens to the position filter history data if enabled.
 149:Generated_Source\PSoC4/CapSense_1_Processing.c **** *
 150:Generated_Source\PSoC4/CapSense_1_Processing.c **** *******************************************************************************/
 151:Generated_Source\PSoC4/CapSense_1_Processing.c **** static CY_INLINE void CapSense_1_DpInitCsdTouchpad(CapSense_1_FLASH_WD_STRUCT const * ptrFlashWdgt)
 152:Generated_Source\PSoC4/CapSense_1_Processing.c **** {
 153:Generated_Source\PSoC4/CapSense_1_Processing.c ****     #if (CapSense_1_ENABLE == CapSense_1_CENTROID_5X5_CSD_EN)
 154:Generated_Source\PSoC4/CapSense_1_Processing.c ****         uint32 touchIndex;
 155:Generated_Source\PSoC4/CapSense_1_Processing.c ****     #endif
 156:Generated_Source\PSoC4/CapSense_1_Processing.c **** 
 157:Generated_Source\PSoC4/CapSense_1_Processing.c ****     CapSense_1_RAM_WD_CSD_TOUCHPAD_STRUCT *ptrWdTouchpad;
 158:Generated_Source\PSoC4/CapSense_1_Processing.c **** 
 159:Generated_Source\PSoC4/CapSense_1_Processing.c ****     #if (0u != CapSense_1_POSITION_FILTER_EN)
 160:Generated_Source\PSoC4/CapSense_1_Processing.c ****         CapSense_1_TOUCHPAD_POS_HISTORY_STRUCT *ptrHistory;
 161:Generated_Source\PSoC4/CapSense_1_Processing.c ****     #endif  /* #if (0u != CapSense_1_POSITION_FILTER_EN) */
 162:Generated_Source\PSoC4/CapSense_1_Processing.c **** 
 163:Generated_Source\PSoC4/CapSense_1_Processing.c ****     #if (0u != CapSense_1_POS_ADAPTIVE_IIR_FILTER_EN)
 164:Generated_Source\PSoC4/CapSense_1_Processing.c ****         ADAPTIVE_FILTER_CONTEXT_STRUCT adpContext;
 165:Generated_Source\PSoC4/CapSense_1_Processing.c ****     #endif /* (0u != CapSense_1_POS_ADAPTIVE_IIR_FILTER_EN) */
 166:Generated_Source\PSoC4/CapSense_1_Processing.c **** 
 167:Generated_Source\PSoC4/CapSense_1_Processing.c ****     ptrWdTouchpad = ptrFlashWdgt->ptr2WdgtRam;
 168:Generated_Source\PSoC4/CapSense_1_Processing.c **** 
 169:Generated_Source\PSoC4/CapSense_1_Processing.c ****     /* Reset position data */
 170:Generated_Source\PSoC4/CapSense_1_Processing.c ****     #if (CapSense_1_ENABLE == CapSense_1_CENTROID_5X5_CSD_EN)
 171:Generated_Source\PSoC4/CapSense_1_Processing.c ****         #if (CapSense_1_ENABLE == CapSense_1_CENTROID_3X3_CSD_EN)
 172:Generated_Source\PSoC4/CapSense_1_Processing.c ****             if (0u != (ptrFlashWdgt->staticConfig & CapSense_1_CENTROID_5X5_MASK))
 173:Generated_Source\PSoC4/CapSense_1_Processing.c ****             {
 174:Generated_Source\PSoC4/CapSense_1_Processing.c ****         #endif
 175:Generated_Source\PSoC4/CapSense_1_Processing.c **** 
 176:Generated_Source\PSoC4/CapSense_1_Processing.c ****         ptrWdTouchpad->position.touchNum = 0u;
 177:Generated_Source\PSoC4/CapSense_1_Processing.c **** 
 178:Generated_Source\PSoC4/CapSense_1_Processing.c ****         #if (0u != CapSense_1_POSITION_FILTER_EN)
 179:Generated_Source\PSoC4/CapSense_1_Processing.c ****             ptrHistory = ptrFlashWdgt->ptr2PosHistory;
 180:Generated_Source\PSoC4/CapSense_1_Processing.c ****         #endif /* (0u != CapSense_1_POSITION_FILTER_EN) */
 181:Generated_Source\PSoC4/CapSense_1_Processing.c **** 
 182:Generated_Source\PSoC4/CapSense_1_Processing.c ****         for (touchIndex = 0u; touchIndex < ADVANCED_CENTROID_MAX_TOUCHES; touchIndex++)
 183:Generated_Source\PSoC4/CapSense_1_Processing.c ****         {
 184:Generated_Source\PSoC4/CapSense_1_Processing.c ****             ptrWdTouchpad->position.pos[touchIndex].x = ADVANCED_CENTROID_POSITION_NONE;
 185:Generated_Source\PSoC4/CapSense_1_Processing.c ****             ptrWdTouchpad->position.pos[touchIndex].y = ADVANCED_CENTROID_POSITION_NONE;
 186:Generated_Source\PSoC4/CapSense_1_Processing.c ****             ptrWdTouchpad->position.pos[touchIndex].zX = ADVANCED_CENTROID_POSITION_NONE;
 187:Generated_Source\PSoC4/CapSense_1_Processing.c ****             ptrWdTouchpad->position.pos[touchIndex].zY = ADVANCED_CENTROID_POSITION_NONE;
 188:Generated_Source\PSoC4/CapSense_1_Processing.c **** 
 189:Generated_Source\PSoC4/CapSense_1_Processing.c ****             /* Clear position filter history data if available */
 190:Generated_Source\PSoC4/CapSense_1_Processing.c ****             #if (0u != CapSense_1_POSITION_FILTER_EN)
 191:Generated_Source\PSoC4/CapSense_1_Processing.c ****                 if (NULL != ptrHistory)
 192:Generated_Source\PSoC4/CapSense_1_Processing.c ****                 {
 193:Generated_Source\PSoC4/CapSense_1_Processing.c ****                     CapSense_1_InitPosFiltersDd(&ptrHistory[touchIndex], CapSense_1_TOUCHPAD_POS_NO
 194:Generated_Source\PSoC4/CapSense_1_Processing.c ****                     #if (0u != CapSense_1_POS_ADAPTIVE_IIR_FILTER_EN)
 195:Generated_Source\PSoC4/CapSense_1_Processing.c ****                         AdaptiveFilter_Initialize(&ptrWdTouchpad->aiirConfig, &adpContext);
 196:Generated_Source\PSoC4/CapSense_1_Processing.c ****                         ptrHistory[touchIndex].xPos.posAIIRCoeff = adpContext.coefficient;
 197:Generated_Source\PSoC4/CapSense_1_Processing.c ****                         ptrHistory[touchIndex].yPos.posAIIRCoeff = adpContext.coefficient;
 198:Generated_Source\PSoC4/CapSense_1_Processing.c ****                     #endif /* (0u != CapSense_1_POS_ADAPTIVE_IIR_FILTER_EN) */
 199:Generated_Source\PSoC4/CapSense_1_Processing.c ****                 }
 200:Generated_Source\PSoC4/CapSense_1_Processing.c ****             #endif /* (0u != CapSense_1_POSITION_FILTER_EN) */
 201:Generated_Source\PSoC4/CapSense_1_Processing.c ****         }
ARM GAS  C:\Users\MICHAE~1.MAC\AppData\Local\Temp\cc682toO.s 			page 5


 202:Generated_Source\PSoC4/CapSense_1_Processing.c **** 
 203:Generated_Source\PSoC4/CapSense_1_Processing.c ****         #if (CapSense_1_ENABLE == CapSense_1_CENTROID_3X3_CSD_EN)
 204:Generated_Source\PSoC4/CapSense_1_Processing.c ****             }
 205:Generated_Source\PSoC4/CapSense_1_Processing.c ****         #endif
 206:Generated_Source\PSoC4/CapSense_1_Processing.c ****     #endif
 207:Generated_Source\PSoC4/CapSense_1_Processing.c **** 
 208:Generated_Source\PSoC4/CapSense_1_Processing.c ****     #if (CapSense_1_ENABLE == CapSense_1_CENTROID_3X3_CSD_EN)
 209:Generated_Source\PSoC4/CapSense_1_Processing.c ****         if (0u != (ptrFlashWdgt->staticConfig & CapSense_1_CENTROID_3X3_MASK))
 210:Generated_Source\PSoC4/CapSense_1_Processing.c ****         {
 211:Generated_Source\PSoC4/CapSense_1_Processing.c ****             ptrWdTouchpad->posX = CapSense_1_TOUCHPAD_POS_NONE;
 212:Generated_Source\PSoC4/CapSense_1_Processing.c ****             ptrWdTouchpad->posY = CapSense_1_TOUCHPAD_POS_NONE;
 213:Generated_Source\PSoC4/CapSense_1_Processing.c **** 
 214:Generated_Source\PSoC4/CapSense_1_Processing.c ****             /* Clear position filter history data if available */
 215:Generated_Source\PSoC4/CapSense_1_Processing.c ****             #if (0u != CapSense_1_POSITION_FILTER_EN)
 216:Generated_Source\PSoC4/CapSense_1_Processing.c ****                 ptrHistory = ptrFlashWdgt->ptr2PosHistory;
 217:Generated_Source\PSoC4/CapSense_1_Processing.c ****                 CapSense_1_InitPosFiltersDd(ptrHistory, CapSense_1_TOUCHPAD_POS_NONE, CapSense_1_TO
 218:Generated_Source\PSoC4/CapSense_1_Processing.c **** 
 219:Generated_Source\PSoC4/CapSense_1_Processing.c ****                 #if (0u != CapSense_1_POS_ADAPTIVE_IIR_FILTER_EN)
 220:Generated_Source\PSoC4/CapSense_1_Processing.c ****                     if (NULL != ptrHistory)
 221:Generated_Source\PSoC4/CapSense_1_Processing.c ****                     {
 222:Generated_Source\PSoC4/CapSense_1_Processing.c ****                         AdaptiveFilter_Initialize(&ptrWdTouchpad->aiirConfig, &adpContext);
 223:Generated_Source\PSoC4/CapSense_1_Processing.c ****                         ptrHistory->xPos.posAIIRCoeff = adpContext.coefficient;
 224:Generated_Source\PSoC4/CapSense_1_Processing.c ****                         ptrHistory->yPos.posAIIRCoeff = adpContext.coefficient;
 225:Generated_Source\PSoC4/CapSense_1_Processing.c ****                     }
 226:Generated_Source\PSoC4/CapSense_1_Processing.c ****                 #endif /* (0u != CapSense_1_POS_ADAPTIVE_IIR_FILTER_EN) */
 227:Generated_Source\PSoC4/CapSense_1_Processing.c ****             #endif /* (0u != CapSense_1_POSITION_FILTER_EN) */
 228:Generated_Source\PSoC4/CapSense_1_Processing.c ****         }
 229:Generated_Source\PSoC4/CapSense_1_Processing.c ****     #endif
 230:Generated_Source\PSoC4/CapSense_1_Processing.c **** }
 231:Generated_Source\PSoC4/CapSense_1_Processing.c **** #endif /* #if (0u != CapSense_1_CSD_TOUCHPAD_WIDGET_EN) */
 232:Generated_Source\PSoC4/CapSense_1_Processing.c **** 
 233:Generated_Source\PSoC4/CapSense_1_Processing.c **** #if (0u != CapSense_1_CSX_TOUCHPAD_WIDGET_EN)
 234:Generated_Source\PSoC4/CapSense_1_Processing.c **** /*******************************************************************************
 235:Generated_Source\PSoC4/CapSense_1_Processing.c **** * Function Name: CapSense_1_DpInitCsxTouchpad
 236:Generated_Source\PSoC4/CapSense_1_Processing.c **** ****************************************************************************//**
 237:Generated_Source\PSoC4/CapSense_1_Processing.c **** *
 238:Generated_Source\PSoC4/CapSense_1_Processing.c **** * \brief
 239:Generated_Source\PSoC4/CapSense_1_Processing.c **** *  Performs initialization of the CSX touchpad widget i.e. Resets the position data to NONE.
 240:Generated_Source\PSoC4/CapSense_1_Processing.c **** *
 241:Generated_Source\PSoC4/CapSense_1_Processing.c **** * \details
 242:Generated_Source\PSoC4/CapSense_1_Processing.c **** *  The position data is always reset to the CapSense_1_TOUCHPAD_POS_NONE value.
 243:Generated_Source\PSoC4/CapSense_1_Processing.c **** *
 244:Generated_Source\PSoC4/CapSense_1_Processing.c **** *******************************************************************************/
 245:Generated_Source\PSoC4/CapSense_1_Processing.c **** static CY_INLINE void CapSense_1_DpInitCsxTouchpad(CapSense_1_FLASH_WD_STRUCT const * ptrFlashWdgt)
 246:Generated_Source\PSoC4/CapSense_1_Processing.c **** {
 247:Generated_Source\PSoC4/CapSense_1_Processing.c ****     CapSense_1_RAM_WD_CSX_TOUCHPAD_STRUCT *ptrWdTouchpad;
 248:Generated_Source\PSoC4/CapSense_1_Processing.c **** 
 249:Generated_Source\PSoC4/CapSense_1_Processing.c ****     #if (0u != CapSense_1_POSITION_FILTER_EN)
 250:Generated_Source\PSoC4/CapSense_1_Processing.c ****         uint32 touchIndex;
 251:Generated_Source\PSoC4/CapSense_1_Processing.c ****         CapSense_1_TOUCHPAD_POS_HISTORY_STRUCT *ptrHistory;
 252:Generated_Source\PSoC4/CapSense_1_Processing.c ****     #endif  /* #if (0u != CapSense_1_POSITION_FILTER_EN) */
 253:Generated_Source\PSoC4/CapSense_1_Processing.c **** 
 254:Generated_Source\PSoC4/CapSense_1_Processing.c ****     #if (0u != CapSense_1_POS_ADAPTIVE_IIR_FILTER_EN)
 255:Generated_Source\PSoC4/CapSense_1_Processing.c ****         ADAPTIVE_FILTER_CONTEXT_STRUCT adpContext;
 256:Generated_Source\PSoC4/CapSense_1_Processing.c ****     #endif /* (0u != CapSense_1_POS_ADAPTIVE_IIR_FILTER_EN) */
 257:Generated_Source\PSoC4/CapSense_1_Processing.c **** 
 258:Generated_Source\PSoC4/CapSense_1_Processing.c ****     ptrWdTouchpad = ptrFlashWdgt->ptr2WdgtRam;
ARM GAS  C:\Users\MICHAE~1.MAC\AppData\Local\Temp\cc682toO.s 			page 6


 259:Generated_Source\PSoC4/CapSense_1_Processing.c **** 
 260:Generated_Source\PSoC4/CapSense_1_Processing.c ****     #if (0u != CapSense_1_POSITION_FILTER_EN)
 261:Generated_Source\PSoC4/CapSense_1_Processing.c ****         ptrHistory = ptrFlashWdgt->ptr2PosHistory;
 262:Generated_Source\PSoC4/CapSense_1_Processing.c ****     #endif /* (0u != CapSense_1_POSITION_FILTER_EN) */
 263:Generated_Source\PSoC4/CapSense_1_Processing.c **** 
 264:Generated_Source\PSoC4/CapSense_1_Processing.c ****     /* Reset position data for finger */
 265:Generated_Source\PSoC4/CapSense_1_Processing.c ****     ptrWdTouchpad->touch[0u].x = CapSense_1_TOUCHPAD_POS_NONE;
 266:Generated_Source\PSoC4/CapSense_1_Processing.c ****     ptrWdTouchpad->touch[0u].y = CapSense_1_TOUCHPAD_POS_NONE;
 267:Generated_Source\PSoC4/CapSense_1_Processing.c ****     ptrWdTouchpad->touch[0u].z = LO8(CapSense_1_TOUCHPAD_POS_NONE);
 268:Generated_Source\PSoC4/CapSense_1_Processing.c **** 
 269:Generated_Source\PSoC4/CapSense_1_Processing.c ****     #if (CapSense_1_CSX_MAX_FINGERS > 1u)
 270:Generated_Source\PSoC4/CapSense_1_Processing.c ****         ptrWdTouchpad->touch[1u].x = CapSense_1_TOUCHPAD_POS_NONE;
 271:Generated_Source\PSoC4/CapSense_1_Processing.c ****         ptrWdTouchpad->touch[1u].y = CapSense_1_TOUCHPAD_POS_NONE;
 272:Generated_Source\PSoC4/CapSense_1_Processing.c ****         ptrWdTouchpad->touch[1u].z = LO8(CapSense_1_TOUCHPAD_POS_NONE);
 273:Generated_Source\PSoC4/CapSense_1_Processing.c ****     #endif /* #if (CapSense_1_CSX_MAX_FINGERS > 1u) */
 274:Generated_Source\PSoC4/CapSense_1_Processing.c **** 
 275:Generated_Source\PSoC4/CapSense_1_Processing.c ****     #if (CapSense_1_CSX_MAX_FINGERS > 2u)
 276:Generated_Source\PSoC4/CapSense_1_Processing.c ****         ptrWdTouchpad->touch[2u].x = CapSense_1_TOUCHPAD_POS_NONE;
 277:Generated_Source\PSoC4/CapSense_1_Processing.c ****         ptrWdTouchpad->touch[2u].y = CapSense_1_TOUCHPAD_POS_NONE;
 278:Generated_Source\PSoC4/CapSense_1_Processing.c ****         ptrWdTouchpad->touch[2u].z = LO8(CapSense_1_TOUCHPAD_POS_NONE);
 279:Generated_Source\PSoC4/CapSense_1_Processing.c ****     #endif /* #if (CapSense_1_CSX_MAX_FINGERS > 2u) */
 280:Generated_Source\PSoC4/CapSense_1_Processing.c **** 
 281:Generated_Source\PSoC4/CapSense_1_Processing.c ****     #if (0u != CapSense_1_POSITION_FILTER_EN)
 282:Generated_Source\PSoC4/CapSense_1_Processing.c ****         for (touchIndex = 0u; touchIndex < CapSense_1_CSX_MAX_FINGERS; touchIndex++)
 283:Generated_Source\PSoC4/CapSense_1_Processing.c ****         {
 284:Generated_Source\PSoC4/CapSense_1_Processing.c ****             if (NULL != ptrHistory)
 285:Generated_Source\PSoC4/CapSense_1_Processing.c ****             {
 286:Generated_Source\PSoC4/CapSense_1_Processing.c ****                 /* Clear position filter history data if available */
 287:Generated_Source\PSoC4/CapSense_1_Processing.c ****                 CapSense_1_InitPosFiltersDd(&ptrHistory[touchIndex], CapSense_1_TOUCHPAD_POS_NONE, 
 288:Generated_Source\PSoC4/CapSense_1_Processing.c ****                 #if (0u != CapSense_1_POS_ADAPTIVE_IIR_FILTER_EN)
 289:Generated_Source\PSoC4/CapSense_1_Processing.c ****                     AdaptiveFilter_Initialize(&ptrWdTouchpad->aiirConfig, &adpContext);
 290:Generated_Source\PSoC4/CapSense_1_Processing.c ****                     ptrHistory[touchIndex].xPos.posAIIRCoeff = adpContext.coefficient;
 291:Generated_Source\PSoC4/CapSense_1_Processing.c ****                     ptrHistory[touchIndex].yPos.posAIIRCoeff = adpContext.coefficient;
 292:Generated_Source\PSoC4/CapSense_1_Processing.c ****                 #endif /* (0u != CapSense_1_POS_ADAPTIVE_IIR_FILTER_EN) */
 293:Generated_Source\PSoC4/CapSense_1_Processing.c ****             }
 294:Generated_Source\PSoC4/CapSense_1_Processing.c ****         }
 295:Generated_Source\PSoC4/CapSense_1_Processing.c ****     #endif /* (0u != CapSense_1_POSITION_FILTER_EN) */
 296:Generated_Source\PSoC4/CapSense_1_Processing.c **** }
 297:Generated_Source\PSoC4/CapSense_1_Processing.c **** #endif /* #if (0u != CapSense_1_CSX_TOUCHPAD_WIDGET_EN) */
 298:Generated_Source\PSoC4/CapSense_1_Processing.c **** 
 299:Generated_Source\PSoC4/CapSense_1_Processing.c **** #if (0u != CapSense_1_SLIDER_WIDGET_EN)
 300:Generated_Source\PSoC4/CapSense_1_Processing.c **** /*******************************************************************************
 301:Generated_Source\PSoC4/CapSense_1_Processing.c **** * Function Name: CapSense_1_DpInitSlider
 302:Generated_Source\PSoC4/CapSense_1_Processing.c **** ****************************************************************************//**
 303:Generated_Source\PSoC4/CapSense_1_Processing.c **** *
 304:Generated_Source\PSoC4/CapSense_1_Processing.c **** * \brief
 305:Generated_Source\PSoC4/CapSense_1_Processing.c **** *  Performs initialization of the Radial and Linear Slider widget.
 306:Generated_Source\PSoC4/CapSense_1_Processing.c **** *   - Resets the position data to NONE
 307:Generated_Source\PSoC4/CapSense_1_Processing.c **** *   - Initializes the position filter history to NONE if enabled.
 308:Generated_Source\PSoC4/CapSense_1_Processing.c **** *
 309:Generated_Source\PSoC4/CapSense_1_Processing.c **** * \details
 310:Generated_Source\PSoC4/CapSense_1_Processing.c **** *  Position data is always reset to the CapSense_1_SLIDER_POS_NONE value.
 311:Generated_Source\PSoC4/CapSense_1_Processing.c **** *  The same happens to the position filter history data if enabled.
 312:Generated_Source\PSoC4/CapSense_1_Processing.c **** *
 313:Generated_Source\PSoC4/CapSense_1_Processing.c **** *******************************************************************************/
 314:Generated_Source\PSoC4/CapSense_1_Processing.c **** static CY_INLINE void CapSense_1_DpInitSlider(CapSense_1_FLASH_WD_STRUCT const * ptrFlashWdgt)
 315:Generated_Source\PSoC4/CapSense_1_Processing.c **** {
ARM GAS  C:\Users\MICHAE~1.MAC\AppData\Local\Temp\cc682toO.s 			page 7


 316:Generated_Source\PSoC4/CapSense_1_Processing.c ****     uint32 idx;
 317:Generated_Source\PSoC4/CapSense_1_Processing.c ****     CapSense_1_RAM_WD_SLIDER_STRUCT *ptrWdSlider;
 318:Generated_Source\PSoC4/CapSense_1_Processing.c **** 
 319:Generated_Source\PSoC4/CapSense_1_Processing.c ****     #if (0u != CapSense_1_POSITION_FILTER_EN)
 320:Generated_Source\PSoC4/CapSense_1_Processing.c ****         CapSense_1_SLIDER_POS_HISTORY_STRUCT *ptrHistory;
 321:Generated_Source\PSoC4/CapSense_1_Processing.c ****     #endif /* #if (0u != CapSense_1_POSITION_FILTER_EN) */
 322:Generated_Source\PSoC4/CapSense_1_Processing.c **** 
 323:Generated_Source\PSoC4/CapSense_1_Processing.c ****     #if (0u != CapSense_1_POS_ADAPTIVE_IIR_FILTER_EN)
 324:Generated_Source\PSoC4/CapSense_1_Processing.c ****         ADAPTIVE_FILTER_CONTEXT_STRUCT context;
 325:Generated_Source\PSoC4/CapSense_1_Processing.c ****     #endif /* (0u != CapSense_1_POS_ADAPTIVE_IIR_FILTER_EN) */
 326:Generated_Source\PSoC4/CapSense_1_Processing.c **** 
 327:Generated_Source\PSoC4/CapSense_1_Processing.c ****     ptrWdSlider = ptrFlashWdgt->ptr2WdgtRam;
 328:Generated_Source\PSoC4/CapSense_1_Processing.c **** 
 329:Generated_Source\PSoC4/CapSense_1_Processing.c ****     /* Reset slider position data to NONE */
 330:Generated_Source\PSoC4/CapSense_1_Processing.c ****     for (idx = 0u; idx < CapSense_1_NUM_CENTROIDS; idx++)
 331:Generated_Source\PSoC4/CapSense_1_Processing.c ****     {
 332:Generated_Source\PSoC4/CapSense_1_Processing.c ****         ptrWdSlider->position[idx] = CapSense_1_SLIDER_POS_NONE;
 333:Generated_Source\PSoC4/CapSense_1_Processing.c **** 
 334:Generated_Source\PSoC4/CapSense_1_Processing.c ****         #if (0u != CapSense_1_POSITION_FILTER_EN)
 335:Generated_Source\PSoC4/CapSense_1_Processing.c ****             ptrHistory = ptrFlashWdgt->ptr2PosHistory;
 336:Generated_Source\PSoC4/CapSense_1_Processing.c ****             if (NULL != ptrHistory)
 337:Generated_Source\PSoC4/CapSense_1_Processing.c ****             {
 338:Generated_Source\PSoC4/CapSense_1_Processing.c ****                 CapSense_1_InitPosFiltersSd(&ptrHistory[idx], CapSense_1_SLIDER_POS_NONE);
 339:Generated_Source\PSoC4/CapSense_1_Processing.c ****                 #if (0u != CapSense_1_POS_ADAPTIVE_IIR_FILTER_EN)
 340:Generated_Source\PSoC4/CapSense_1_Processing.c ****                     AdaptiveFilter_Initialize(&ptrWdSlider->aiirConfig, &context);
 341:Generated_Source\PSoC4/CapSense_1_Processing.c ****                     ptrHistory->posAIIRCoeff = context.coefficient;
 342:Generated_Source\PSoC4/CapSense_1_Processing.c ****                 #endif /* (0u != CapSense_1_POS_ADAPTIVE_IIR_FILTER_EN) */
 343:Generated_Source\PSoC4/CapSense_1_Processing.c ****             }
 344:Generated_Source\PSoC4/CapSense_1_Processing.c **** 
 345:Generated_Source\PSoC4/CapSense_1_Processing.c ****         #endif /* #if (0u != CapSense_1_POSITION_FILTER_EN) */
 346:Generated_Source\PSoC4/CapSense_1_Processing.c ****     }
 347:Generated_Source\PSoC4/CapSense_1_Processing.c **** }
 348:Generated_Source\PSoC4/CapSense_1_Processing.c **** #endif /* #if (0u != CapSense_1_SLIDER_WIDGET_EN) */
 349:Generated_Source\PSoC4/CapSense_1_Processing.c **** 
 350:Generated_Source\PSoC4/CapSense_1_Processing.c **** #if (0u != CapSense_1_CSD_MATRIX_WIDGET_EN)
 351:Generated_Source\PSoC4/CapSense_1_Processing.c **** /*******************************************************************************
 352:Generated_Source\PSoC4/CapSense_1_Processing.c **** * Function Name: CapSense_1_DpInitCsdMatrix
 353:Generated_Source\PSoC4/CapSense_1_Processing.c **** ****************************************************************************//**
 354:Generated_Source\PSoC4/CapSense_1_Processing.c **** *
 355:Generated_Source\PSoC4/CapSense_1_Processing.c **** * \brief
 356:Generated_Source\PSoC4/CapSense_1_Processing.c **** *  Performs initialization of the CSD Matrix Buttons widget.
 357:Generated_Source\PSoC4/CapSense_1_Processing.c **** *   - Resets the active button position data to NONE.
 358:Generated_Source\PSoC4/CapSense_1_Processing.c **** *
 359:Generated_Source\PSoC4/CapSense_1_Processing.c **** * \details
 360:Generated_Source\PSoC4/CapSense_1_Processing.c **** *  Position data is always reset to the CapSense_1_MATRIX_POS_NONE value.
 361:Generated_Source\PSoC4/CapSense_1_Processing.c **** *
 362:Generated_Source\PSoC4/CapSense_1_Processing.c **** *******************************************************************************/
 363:Generated_Source\PSoC4/CapSense_1_Processing.c **** static CY_INLINE void CapSense_1_DpInitCsdMatrix(CapSense_1_FLASH_WD_STRUCT const * ptrFlashWdgt)
 364:Generated_Source\PSoC4/CapSense_1_Processing.c **** {
 365:Generated_Source\PSoC4/CapSense_1_Processing.c ****     CapSense_1_RAM_WD_CSD_MATRIX_STRUCT *ptrRamWdgt;
 366:Generated_Source\PSoC4/CapSense_1_Processing.c **** 
 367:Generated_Source\PSoC4/CapSense_1_Processing.c ****     ptrRamWdgt = (CapSense_1_RAM_WD_CSD_MATRIX_STRUCT *)ptrFlashWdgt->ptr2WdgtRam;
 368:Generated_Source\PSoC4/CapSense_1_Processing.c **** 
 369:Generated_Source\PSoC4/CapSense_1_Processing.c ****     /* Reset sensor id, row and col registers in data structure */
 370:Generated_Source\PSoC4/CapSense_1_Processing.c ****     ptrRamWdgt->posRow   = CapSense_1_MATRIX_POS_NONE;
 371:Generated_Source\PSoC4/CapSense_1_Processing.c ****     ptrRamWdgt->posCol   = CapSense_1_MATRIX_POS_NONE;
 372:Generated_Source\PSoC4/CapSense_1_Processing.c ****     ptrRamWdgt->posSnsId = CapSense_1_MATRIX_POS_NONE;
ARM GAS  C:\Users\MICHAE~1.MAC\AppData\Local\Temp\cc682toO.s 			page 8


 373:Generated_Source\PSoC4/CapSense_1_Processing.c **** }
 374:Generated_Source\PSoC4/CapSense_1_Processing.c **** #endif /* #if (0u != CapSense_1_CSD_MATRIX_WIDGET_EN) */
 375:Generated_Source\PSoC4/CapSense_1_Processing.c **** 
 376:Generated_Source\PSoC4/CapSense_1_Processing.c **** /*******************************************************************************
 377:Generated_Source\PSoC4/CapSense_1_Processing.c **** * Function Name: CapSense_1_DpInitialize
 378:Generated_Source\PSoC4/CapSense_1_Processing.c **** ****************************************************************************//**
 379:Generated_Source\PSoC4/CapSense_1_Processing.c **** *
 380:Generated_Source\PSoC4/CapSense_1_Processing.c **** * \brief
 381:Generated_Source\PSoC4/CapSense_1_Processing.c **** *  Performs initialization of the data processing FW module:
 382:Generated_Source\PSoC4/CapSense_1_Processing.c **** *   - Resets the de-bounce counters of all the widgets
 383:Generated_Source\PSoC4/CapSense_1_Processing.c **** *   - Resets the position filter history for slider and touchpad widgets
 384:Generated_Source\PSoC4/CapSense_1_Processing.c **** *   - Clears widget and sensor statuses
 385:Generated_Source\PSoC4/CapSense_1_Processing.c **** *   - Enables all the widgets.
 386:Generated_Source\PSoC4/CapSense_1_Processing.c **** *
 387:Generated_Source\PSoC4/CapSense_1_Processing.c **** * \details
 388:Generated_Source\PSoC4/CapSense_1_Processing.c **** *  The Button and Matrix Button widgets have individual de-bounce counter per
 389:Generated_Source\PSoC4/CapSense_1_Processing.c **** *  sensor for the CSD widgets and per node for the CSX widgets.
 390:Generated_Source\PSoC4/CapSense_1_Processing.c **** *
 391:Generated_Source\PSoC4/CapSense_1_Processing.c **** *  The Slider and Touchpad widgets have a single de-bounce counter per widget.
 392:Generated_Source\PSoC4/CapSense_1_Processing.c **** *
 393:Generated_Source\PSoC4/CapSense_1_Processing.c **** *  The Proximity widget has two de-bounce counters per sensor. One for the
 394:Generated_Source\PSoC4/CapSense_1_Processing.c **** *  proximity event and second for the touch event.
 395:Generated_Source\PSoC4/CapSense_1_Processing.c **** *
 396:Generated_Source\PSoC4/CapSense_1_Processing.c **** *  All debounce counters during initialization are set to the value of the
 397:Generated_Source\PSoC4/CapSense_1_Processing.c **** *  onDebounce widget parameter.
 398:Generated_Source\PSoC4/CapSense_1_Processing.c **** *
 399:Generated_Source\PSoC4/CapSense_1_Processing.c **** *******************************************************************************/
 400:Generated_Source\PSoC4/CapSense_1_Processing.c **** void CapSense_1_DpInitialize(void)
 401:Generated_Source\PSoC4/CapSense_1_Processing.c **** {
  28              		.loc 1 401 0
  29              		.cfi_startproc
  30              		@ args = 0, pretend = 0, frame = 0
  31              		@ frame_needed = 0, uses_anonymous_args = 0
  32 0000 70B5     		push	{r4, r5, r6, lr}
  33              		.cfi_def_cfa_offset 16
  34              		.cfi_offset 4, -16
  35              		.cfi_offset 5, -12
  36              		.cfi_offset 6, -8
  37              		.cfi_offset 14, -4
  38              	.LVL0:
 402:Generated_Source\PSoC4/CapSense_1_Processing.c ****     uint32 wdgtId;
 403:Generated_Source\PSoC4/CapSense_1_Processing.c ****     CapSense_1_WD_TYPE_ENUM widgetType;
 404:Generated_Source\PSoC4/CapSense_1_Processing.c ****     CapSense_1_RAM_WD_BASE_STRUCT * ptrRamWdgt;
 405:Generated_Source\PSoC4/CapSense_1_Processing.c ****     CapSense_1_FLASH_WD_STRUCT const * ptrFlashWdgt;
 406:Generated_Source\PSoC4/CapSense_1_Processing.c **** 
 407:Generated_Source\PSoC4/CapSense_1_Processing.c ****     for (wdgtId = 0u; wdgtId < CapSense_1_WDGT_STATUS_WORDS; wdgtId++)
  39              		.loc 1 407 0
  40 0002 0023     		movs	r3, #0
  41 0004 09E0     		b	.L2
  42              	.LVL1:
  43              	.L3:
 408:Generated_Source\PSoC4/CapSense_1_Processing.c ****     {
 409:Generated_Source\PSoC4/CapSense_1_Processing.c ****         /* Clear widget status */
 410:Generated_Source\PSoC4/CapSense_1_Processing.c ****         CapSense_1_dsRam.wdgtStatus[wdgtId] = 0u;
  44              		.loc 1 410 0 discriminator 3
  45 0006 1249     		ldr	r1, .L8
  46 0008 1A1D     		adds	r2, r3, #4
ARM GAS  C:\Users\MICHAE~1.MAC\AppData\Local\Temp\cc682toO.s 			page 9


  47 000a 9200     		lsls	r2, r2, #2
  48 000c 8818     		adds	r0, r1, r2
  49 000e 0024     		movs	r4, #0
  50 0010 4460     		str	r4, [r0, #4]
 411:Generated_Source\PSoC4/CapSense_1_Processing.c **** 
 412:Generated_Source\PSoC4/CapSense_1_Processing.c ****         /* Enable all the widgets */
 413:Generated_Source\PSoC4/CapSense_1_Processing.c ****         CapSense_1_dsRam.wdgtEnable[wdgtId] = 0xFFFFFFFFLu;
  51              		.loc 1 413 0 discriminator 3
  52 0012 0120     		movs	r0, #1
  53 0014 4042     		rsbs	r0, r0, #0
  54 0016 5050     		str	r0, [r2, r1]
 407:Generated_Source\PSoC4/CapSense_1_Processing.c ****     {
  55              		.loc 1 407 0 discriminator 3
  56 0018 0133     		adds	r3, r3, #1
  57              	.LVL2:
  58              	.L2:
 407:Generated_Source\PSoC4/CapSense_1_Processing.c ****     {
  59              		.loc 1 407 0 is_stmt 0 discriminator 1
  60 001a 002B     		cmp	r3, #0
  61 001c F3D0     		beq	.L3
  62 001e 0D4C     		ldr	r4, .L8+4
  63 0020 0A23     		movs	r3, #10
  64              	.LVL3:
  65 0022 10E0     		b	.L4
  66              	.LVL4:
  67              	.L7:
 414:Generated_Source\PSoC4/CapSense_1_Processing.c **** 
 415:Generated_Source\PSoC4/CapSense_1_Processing.c ****         /* Set all the widgets to working state if the Self-Test is not enabled */
 416:Generated_Source\PSoC4/CapSense_1_Processing.c ****         #if (0u != CapSense_1_SELF_TEST_EN)
 417:Generated_Source\PSoC4/CapSense_1_Processing.c ****             CapSense_1_dsRam.wdgtWorking[wdgtId] = 0xFFFFFFFFLu;
 418:Generated_Source\PSoC4/CapSense_1_Processing.c ****         #endif /* #if (0u == CapSense_1_SELF_TEST_EN) */
 419:Generated_Source\PSoC4/CapSense_1_Processing.c ****     }
 420:Generated_Source\PSoC4/CapSense_1_Processing.c **** 
 421:Generated_Source\PSoC4/CapSense_1_Processing.c ****     ptrFlashWdgt = CapSense_1_dsFlash.wdgtArray;
 422:Generated_Source\PSoC4/CapSense_1_Processing.c **** 
 423:Generated_Source\PSoC4/CapSense_1_Processing.c ****     for (wdgtId = CapSense_1_TOTAL_WIDGETS; wdgtId-- > 0u; )
 424:Generated_Source\PSoC4/CapSense_1_Processing.c ****     {
 425:Generated_Source\PSoC4/CapSense_1_Processing.c ****         ptrRamWdgt = (CapSense_1_RAM_WD_BASE_STRUCT *)ptrFlashWdgt->ptr2WdgtRam;
  68              		.loc 1 425 0 is_stmt 1
  69 0024 6668     		ldr	r6, [r4, #4]
  70              	.LVL5:
 426:Generated_Source\PSoC4/CapSense_1_Processing.c ****         widgetType = (CapSense_1_WD_TYPE_ENUM)ptrFlashWdgt->wdgtType;
  71              		.loc 1 426 0
  72 0026 A27E     		ldrb	r2, [r4, #26]
  73              	.LVL6:
 427:Generated_Source\PSoC4/CapSense_1_Processing.c **** 
 428:Generated_Source\PSoC4/CapSense_1_Processing.c ****         /* Clear all sensor statuses */
 429:Generated_Source\PSoC4/CapSense_1_Processing.c ****         CapSense_1_dsRam.snsStatus[wdgtId] = 0u;
  74              		.loc 1 429 0
  75 0028 094B     		ldr	r3, .L8
  76 002a 5B19     		adds	r3, r3, r5
  77 002c 0021     		movs	r1, #0
  78 002e 1976     		strb	r1, [r3, #24]
 430:Generated_Source\PSoC4/CapSense_1_Processing.c **** 
 431:Generated_Source\PSoC4/CapSense_1_Processing.c ****         /* Reset de-bounce counters */
 432:Generated_Source\PSoC4/CapSense_1_Processing.c ****         switch (widgetType)
  79              		.loc 1 432 0
ARM GAS  C:\Users\MICHAE~1.MAC\AppData\Local\Temp\cc682toO.s 			page 10


  80 0030 012A     		cmp	r2, #1
  81 0032 06D1     		bne	.L5
 433:Generated_Source\PSoC4/CapSense_1_Processing.c ****         {
 434:Generated_Source\PSoC4/CapSense_1_Processing.c ****         #if (0u != CapSense_1_MATRIX_WIDGET_EN)
 435:Generated_Source\PSoC4/CapSense_1_Processing.c ****             case CapSense_1_WD_MATRIX_BUTTON_E:
 436:Generated_Source\PSoC4/CapSense_1_Processing.c ****                 #if (0u != CapSense_1_CSD_MATRIX_WIDGET_EN)
 437:Generated_Source\PSoC4/CapSense_1_Processing.c ****                     if (CapSense_1_SENSE_METHOD_CSD_E == CapSense_1_GET_SENSE_METHOD(ptrFlashWdgt))
 438:Generated_Source\PSoC4/CapSense_1_Processing.c ****                     {
 439:Generated_Source\PSoC4/CapSense_1_Processing.c ****                         CapSense_1_DpInitCsdMatrix(ptrFlashWdgt);
 440:Generated_Source\PSoC4/CapSense_1_Processing.c ****                     }
 441:Generated_Source\PSoC4/CapSense_1_Processing.c ****                 #endif /* #if (0u != CapSense_1_CSD_MATRIX_WIDGET_EN) */
 442:Generated_Source\PSoC4/CapSense_1_Processing.c **** 
 443:Generated_Source\PSoC4/CapSense_1_Processing.c ****                 if (NULL != ptrFlashWdgt->ptr2DebounceArr)
 444:Generated_Source\PSoC4/CapSense_1_Processing.c ****                 {
 445:Generated_Source\PSoC4/CapSense_1_Processing.c ****                     /* Initialize array of debounce counters */
 446:Generated_Source\PSoC4/CapSense_1_Processing.c ****                     (void)memset(ptrFlashWdgt->ptr2DebounceArr,
 447:Generated_Source\PSoC4/CapSense_1_Processing.c ****                                  (int32)ptrRamWdgt->onDebounce,
 448:Generated_Source\PSoC4/CapSense_1_Processing.c ****                                  (size_t)ptrFlashWdgt->totalNumSns);
 449:Generated_Source\PSoC4/CapSense_1_Processing.c ****                 }
 450:Generated_Source\PSoC4/CapSense_1_Processing.c ****                 break;
 451:Generated_Source\PSoC4/CapSense_1_Processing.c ****         #endif /* #if (0u != CapSense_1_MATRIX_WIDGET_EN) */
 452:Generated_Source\PSoC4/CapSense_1_Processing.c **** 
 453:Generated_Source\PSoC4/CapSense_1_Processing.c ****         #if (0u != CapSense_1_BUTTON_WIDGET_EN)
 454:Generated_Source\PSoC4/CapSense_1_Processing.c ****             case CapSense_1_WD_BUTTON_E:
 455:Generated_Source\PSoC4/CapSense_1_Processing.c ****                 if (NULL != ptrFlashWdgt->ptr2DebounceArr)
  82              		.loc 1 455 0
  83 0034 2069     		ldr	r0, [r4, #16]
  84 0036 0028     		cmp	r0, #0
  85 0038 03D0     		beq	.L5
 456:Generated_Source\PSoC4/CapSense_1_Processing.c ****                 {
 457:Generated_Source\PSoC4/CapSense_1_Processing.c ****                     /* Initialize array of debounce counters */
 458:Generated_Source\PSoC4/CapSense_1_Processing.c ****                     (void)memset(ptrFlashWdgt->ptr2DebounceArr,
 459:Generated_Source\PSoC4/CapSense_1_Processing.c ****                                  (int32)ptrRamWdgt->onDebounce,
  86              		.loc 1 459 0
  87 003a F179     		ldrb	r1, [r6, #7]
 460:Generated_Source\PSoC4/CapSense_1_Processing.c ****                                  (size_t)ptrFlashWdgt->totalNumSns);
  88              		.loc 1 460 0
  89 003c 228B     		ldrh	r2, [r4, #24]
  90              	.LVL7:
 458:Generated_Source\PSoC4/CapSense_1_Processing.c ****                                  (int32)ptrRamWdgt->onDebounce,
  91              		.loc 1 458 0
  92 003e FFF7FEFF 		bl	memset
  93              	.LVL8:
  94              	.L5:
 461:Generated_Source\PSoC4/CapSense_1_Processing.c ****                 }
 462:Generated_Source\PSoC4/CapSense_1_Processing.c ****                 break;
 463:Generated_Source\PSoC4/CapSense_1_Processing.c ****         #endif /* #if (0u != CapSense_1_BUTTON_WIDGET_EN) */
 464:Generated_Source\PSoC4/CapSense_1_Processing.c **** 
 465:Generated_Source\PSoC4/CapSense_1_Processing.c ****         #if (0u != CapSense_1_SLIDER_WIDGET_EN)
 466:Generated_Source\PSoC4/CapSense_1_Processing.c ****             case CapSense_1_WD_LINEAR_SLIDER_E:
 467:Generated_Source\PSoC4/CapSense_1_Processing.c ****             case CapSense_1_WD_RADIAL_SLIDER_E:
 468:Generated_Source\PSoC4/CapSense_1_Processing.c ****                 if (NULL != ptrFlashWdgt->ptr2DebounceArr)
 469:Generated_Source\PSoC4/CapSense_1_Processing.c ****                 {
 470:Generated_Source\PSoC4/CapSense_1_Processing.c ****                     /* Initialize single debounce counter of slider */
 471:Generated_Source\PSoC4/CapSense_1_Processing.c ****                     *(uint8 *)(ptrFlashWdgt->ptr2DebounceArr) = ptrRamWdgt->onDebounce;
 472:Generated_Source\PSoC4/CapSense_1_Processing.c ****                 }
 473:Generated_Source\PSoC4/CapSense_1_Processing.c **** 
ARM GAS  C:\Users\MICHAE~1.MAC\AppData\Local\Temp\cc682toO.s 			page 11


 474:Generated_Source\PSoC4/CapSense_1_Processing.c ****                 CapSense_1_DpInitSlider(ptrFlashWdgt);
 475:Generated_Source\PSoC4/CapSense_1_Processing.c **** 
 476:Generated_Source\PSoC4/CapSense_1_Processing.c ****                 break;
 477:Generated_Source\PSoC4/CapSense_1_Processing.c ****         #endif /* #if (0u != CapSense_1_SLIDER_WIDGET_EN) */
 478:Generated_Source\PSoC4/CapSense_1_Processing.c **** 
 479:Generated_Source\PSoC4/CapSense_1_Processing.c ****         #if (0u != CapSense_1_TOUCHPAD_WIDGET_EN)
 480:Generated_Source\PSoC4/CapSense_1_Processing.c ****             case CapSense_1_WD_TOUCHPAD_E:
 481:Generated_Source\PSoC4/CapSense_1_Processing.c ****                 if (NULL != ptrFlashWdgt->ptr2DebounceArr)
 482:Generated_Source\PSoC4/CapSense_1_Processing.c ****                 {
 483:Generated_Source\PSoC4/CapSense_1_Processing.c ****                     /* Initialize single debounce counter of touchpad */
 484:Generated_Source\PSoC4/CapSense_1_Processing.c ****                     *(uint8 *)(ptrFlashWdgt->ptr2DebounceArr) = ptrRamWdgt->onDebounce;
 485:Generated_Source\PSoC4/CapSense_1_Processing.c ****                 }
 486:Generated_Source\PSoC4/CapSense_1_Processing.c **** 
 487:Generated_Source\PSoC4/CapSense_1_Processing.c ****                 #if (0u != CapSense_1_CSD_TOUCHPAD_WIDGET_EN)
 488:Generated_Source\PSoC4/CapSense_1_Processing.c ****                     if (CapSense_1_SENSE_METHOD_CSD_E == CapSense_1_GET_SENSE_METHOD(ptrFlashWdgt))
 489:Generated_Source\PSoC4/CapSense_1_Processing.c ****                     {
 490:Generated_Source\PSoC4/CapSense_1_Processing.c ****                         CapSense_1_DpInitCsdTouchpad(ptrFlashWdgt);
 491:Generated_Source\PSoC4/CapSense_1_Processing.c ****                     }
 492:Generated_Source\PSoC4/CapSense_1_Processing.c ****                 #endif /* #if (0u != CapSense_1_CSD_TOUCHPAD_WIDGET_EN) */
 493:Generated_Source\PSoC4/CapSense_1_Processing.c **** 
 494:Generated_Source\PSoC4/CapSense_1_Processing.c ****                 #if (0u != CapSense_1_CSX_TOUCHPAD_WIDGET_EN)
 495:Generated_Source\PSoC4/CapSense_1_Processing.c ****                     if (CapSense_1_SENSE_METHOD_CSX_E == CapSense_1_GET_SENSE_METHOD(ptrFlashWdgt))
 496:Generated_Source\PSoC4/CapSense_1_Processing.c ****                     {
 497:Generated_Source\PSoC4/CapSense_1_Processing.c ****                         CapSense_1_DpInitCsxTouchpad(ptrFlashWdgt);
 498:Generated_Source\PSoC4/CapSense_1_Processing.c ****                     }
 499:Generated_Source\PSoC4/CapSense_1_Processing.c ****                 #endif /* #if (0u != CapSense_1_CSX_TOUCHPAD_WIDGET_EN) */
 500:Generated_Source\PSoC4/CapSense_1_Processing.c **** 
 501:Generated_Source\PSoC4/CapSense_1_Processing.c ****                 break;
 502:Generated_Source\PSoC4/CapSense_1_Processing.c ****         #endif /* #if (0u != CapSense_1_TOUCHPAD_WIDGET_EN) */
 503:Generated_Source\PSoC4/CapSense_1_Processing.c **** 
 504:Generated_Source\PSoC4/CapSense_1_Processing.c ****         #if (0u != CapSense_1_PROXIMITY_WIDGET_EN)
 505:Generated_Source\PSoC4/CapSense_1_Processing.c ****             case CapSense_1_WD_PROXIMITY_E:
 506:Generated_Source\PSoC4/CapSense_1_Processing.c ****                 if (NULL != ptrFlashWdgt->ptr2DebounceArr)
 507:Generated_Source\PSoC4/CapSense_1_Processing.c ****                 {
 508:Generated_Source\PSoC4/CapSense_1_Processing.c ****                     /* Proximity widgets have 2 de-bounce counters per sensor.
 509:Generated_Source\PSoC4/CapSense_1_Processing.c ****                      * Therefore the number of sensors is multiplied by 2.
 510:Generated_Source\PSoC4/CapSense_1_Processing.c ****                      */
 511:Generated_Source\PSoC4/CapSense_1_Processing.c ****                    (void)memset(ptrFlashWdgt->ptr2DebounceArr,
 512:Generated_Source\PSoC4/CapSense_1_Processing.c ****                                 (int32)ptrRamWdgt->onDebounce,
 513:Generated_Source\PSoC4/CapSense_1_Processing.c ****                                 (size_t)ptrFlashWdgt->totalNumSns * 2u);
 514:Generated_Source\PSoC4/CapSense_1_Processing.c ****                 }
 515:Generated_Source\PSoC4/CapSense_1_Processing.c ****                 break;
 516:Generated_Source\PSoC4/CapSense_1_Processing.c ****         #endif /* #if (0u != CapSense_1_PROXIMITY_WIDGET_EN) */
 517:Generated_Source\PSoC4/CapSense_1_Processing.c **** 
 518:Generated_Source\PSoC4/CapSense_1_Processing.c ****         #if (0u != CapSense_1_ENCODERDIAL_WIDGET_EN)
 519:Generated_Source\PSoC4/CapSense_1_Processing.c ****             case CapSense_1_WD_ENCODERDIAL_E:
 520:Generated_Source\PSoC4/CapSense_1_Processing.c ****                 if (NULL != ptrFlashWdgt->ptr2DebounceArr)
 521:Generated_Source\PSoC4/CapSense_1_Processing.c ****                 {
 522:Generated_Source\PSoC4/CapSense_1_Processing.c ****                     /* Proximity widgets have 2 de-bounce counters per sensor.
 523:Generated_Source\PSoC4/CapSense_1_Processing.c ****                      * Therefore the number of sensors is multiplied by 2.
 524:Generated_Source\PSoC4/CapSense_1_Processing.c ****                      */
 525:Generated_Source\PSoC4/CapSense_1_Processing.c ****                    (void)memset(ptrFlashWdgt->ptr2DebounceArr,
 526:Generated_Source\PSoC4/CapSense_1_Processing.c ****                                 (int32)ptrRamWdgt->onDebounce,
 527:Generated_Source\PSoC4/CapSense_1_Processing.c ****                                 (size_t)ptrFlashWdgt->totalNumSns);
 528:Generated_Source\PSoC4/CapSense_1_Processing.c ****                 }
 529:Generated_Source\PSoC4/CapSense_1_Processing.c ****                 break;
 530:Generated_Source\PSoC4/CapSense_1_Processing.c ****         #endif /* (0u != CapSense_1_ENCODERDIAL_WIDGET_EN) */
ARM GAS  C:\Users\MICHAE~1.MAC\AppData\Local\Temp\cc682toO.s 			page 12


 531:Generated_Source\PSoC4/CapSense_1_Processing.c ****             default:
 532:Generated_Source\PSoC4/CapSense_1_Processing.c ****                 break;
 533:Generated_Source\PSoC4/CapSense_1_Processing.c ****         }
 534:Generated_Source\PSoC4/CapSense_1_Processing.c **** 
 535:Generated_Source\PSoC4/CapSense_1_Processing.c ****         /* Move to next widget */
 536:Generated_Source\PSoC4/CapSense_1_Processing.c ****         ptrFlashWdgt++;
  95              		.loc 1 536 0
  96 0042 1C34     		adds	r4, r4, #28
  97              	.LVL9:
 423:Generated_Source\PSoC4/CapSense_1_Processing.c ****     {
  98              		.loc 1 423 0
  99 0044 2B00     		movs	r3, r5
 100              	.LVL10:
 101              	.L4:
 423:Generated_Source\PSoC4/CapSense_1_Processing.c ****     {
 102              		.loc 1 423 0 is_stmt 0 discriminator 1
 103 0046 5D1E     		subs	r5, r3, #1
 104              	.LVL11:
 105 0048 002B     		cmp	r3, #0
 106 004a EBD1     		bne	.L7
 537:Generated_Source\PSoC4/CapSense_1_Processing.c ****     }
 538:Generated_Source\PSoC4/CapSense_1_Processing.c **** }
 107              		.loc 1 538 0 is_stmt 1
 108              		@ sp needed
 109              	.LVL12:
 110              	.LVL13:
 111 004c 70BD     		pop	{r4, r5, r6, pc}
 112              	.L9:
 113 004e C046     		.align	2
 114              	.L8:
 115 0050 00000000 		.word	CapSense_1_dsRam
 116 0054 00000000 		.word	CapSense_1_dsFlash
 117              		.cfi_endproc
 118              	.LFE1:
 119              		.size	CapSense_1_DpInitialize, .-CapSense_1_DpInitialize
 120              		.section	.text.CapSense_1_DpUpdateDifferences,"ax",%progbits
 121              		.align	2
 122              		.global	CapSense_1_DpUpdateDifferences
 123              		.code	16
 124              		.thumb_func
 125              		.type	CapSense_1_DpUpdateDifferences, %function
 126              	CapSense_1_DpUpdateDifferences:
 127              	.LFB5:
 539:Generated_Source\PSoC4/CapSense_1_Processing.c **** 
 540:Generated_Source\PSoC4/CapSense_1_Processing.c **** #if (0u != CapSense_1_TOTAL_CSX_WIDGETS)
 541:Generated_Source\PSoC4/CapSense_1_Processing.c **** /*******************************************************************************
 542:Generated_Source\PSoC4/CapSense_1_Processing.c **** * Function Name: CapSense_1_DpProcessCsxWidgetRawCounts
 543:Generated_Source\PSoC4/CapSense_1_Processing.c **** ****************************************************************************//**
 544:Generated_Source\PSoC4/CapSense_1_Processing.c **** *
 545:Generated_Source\PSoC4/CapSense_1_Processing.c **** * \brief
 546:Generated_Source\PSoC4/CapSense_1_Processing.c **** *  Performs default processing of the CSX raw counts.
 547:Generated_Source\PSoC4/CapSense_1_Processing.c **** *
 548:Generated_Source\PSoC4/CapSense_1_Processing.c **** * \details
 549:Generated_Source\PSoC4/CapSense_1_Processing.c **** *  Performs default processing of the CSX raw counts:
 550:Generated_Source\PSoC4/CapSense_1_Processing.c **** *   - Run Filters
 551:Generated_Source\PSoC4/CapSense_1_Processing.c **** *   - Update Baselines
 552:Generated_Source\PSoC4/CapSense_1_Processing.c **** *   - Update Differences
ARM GAS  C:\Users\MICHAE~1.MAC\AppData\Local\Temp\cc682toO.s 			page 13


 553:Generated_Source\PSoC4/CapSense_1_Processing.c **** *   - Update Status.
 554:Generated_Source\PSoC4/CapSense_1_Processing.c **** *  The same process is applied to all the sensors of the specified widget.
 555:Generated_Source\PSoC4/CapSense_1_Processing.c **** *
 556:Generated_Source\PSoC4/CapSense_1_Processing.c **** * \param ptrFlashWdgt The pointer to the Flash widget structure.
 557:Generated_Source\PSoC4/CapSense_1_Processing.c **** *
 558:Generated_Source\PSoC4/CapSense_1_Processing.c **** * \return
 559:Generated_Source\PSoC4/CapSense_1_Processing.c **** *  Returns the status of the specified widget processing operation:
 560:Generated_Source\PSoC4/CapSense_1_Processing.c **** *  - CYRET_SUCCESS if operation was successfully completed;
 561:Generated_Source\PSoC4/CapSense_1_Processing.c **** *  - CapSense_1_PROCESS_BASELINE_FAILED if baseline processing of any
 562:Generated_Source\PSoC4/CapSense_1_Processing.c **** *    sensor of the specified widget failed. The result is concatenated with the index
 563:Generated_Source\PSoC4/CapSense_1_Processing.c **** *    of failed sensor.
 564:Generated_Source\PSoC4/CapSense_1_Processing.c **** *
 565:Generated_Source\PSoC4/CapSense_1_Processing.c **** *******************************************************************************/
 566:Generated_Source\PSoC4/CapSense_1_Processing.c **** uint32 CapSense_1_DpProcessCsxWidgetRawCounts(CapSense_1_FLASH_WD_STRUCT const *ptrFlashWdgt)
 567:Generated_Source\PSoC4/CapSense_1_Processing.c **** {
 568:Generated_Source\PSoC4/CapSense_1_Processing.c ****     uint32 result = CYRET_SUCCESS;
 569:Generated_Source\PSoC4/CapSense_1_Processing.c ****     uint32 widgetType;
 570:Generated_Source\PSoC4/CapSense_1_Processing.c ****     uint32 snsCount;
 571:Generated_Source\PSoC4/CapSense_1_Processing.c ****     CapSense_1_RAM_SNS_STRUCT *ptrSnsTmp;
 572:Generated_Source\PSoC4/CapSense_1_Processing.c ****     CapSense_1_RAM_WD_BASE_STRUCT *ptrRamWdgt;
 573:Generated_Source\PSoC4/CapSense_1_Processing.c **** 
 574:Generated_Source\PSoC4/CapSense_1_Processing.c ****     #if (CapSense_1_ENABLE == CapSense_1_RC_FILTER_EN)
 575:Generated_Source\PSoC4/CapSense_1_Processing.c ****         CapSense_1_PTR_FILTER_VARIANT fltrHistV;
 576:Generated_Source\PSoC4/CapSense_1_Processing.c **** 
 577:Generated_Source\PSoC4/CapSense_1_Processing.c ****         fltrHistV.ptr = ptrFlashWdgt->ptr2FltrHistory;
 578:Generated_Source\PSoC4/CapSense_1_Processing.c ****     #endif /* #if (CapSense_1_ENABLE == CapSense_1_RC_FILTER_EN) */
 579:Generated_Source\PSoC4/CapSense_1_Processing.c **** 
 580:Generated_Source\PSoC4/CapSense_1_Processing.c ****     ptrSnsTmp = ptrFlashWdgt->ptr2SnsRam;
 581:Generated_Source\PSoC4/CapSense_1_Processing.c ****     snsCount = ptrFlashWdgt->totalNumSns;
 582:Generated_Source\PSoC4/CapSense_1_Processing.c ****     ptrRamWdgt = (CapSense_1_RAM_WD_BASE_STRUCT *)ptrFlashWdgt->ptr2WdgtRam;
 583:Generated_Source\PSoC4/CapSense_1_Processing.c ****     widgetType = ptrFlashWdgt->wdgtType;
 584:Generated_Source\PSoC4/CapSense_1_Processing.c **** 
 585:Generated_Source\PSoC4/CapSense_1_Processing.c ****     /* Run deconvolution algorithm for the widgets with multiphase TX support */
 586:Generated_Source\PSoC4/CapSense_1_Processing.c ****     #if (0u != CapSense_1_CSX_MULTIPHASE_TX_EN)
 587:Generated_Source\PSoC4/CapSense_1_Processing.c ****         if (0u != (ptrFlashWdgt->staticConfig & CapSense_1_MULTIPHASE_TX_MASK))
 588:Generated_Source\PSoC4/CapSense_1_Processing.c ****         {
 589:Generated_Source\PSoC4/CapSense_1_Processing.c ****             CapSense_1_DpDeconvolution(ptrFlashWdgt);
 590:Generated_Source\PSoC4/CapSense_1_Processing.c ****         }
 591:Generated_Source\PSoC4/CapSense_1_Processing.c ****     #endif  /* #if (0u != CapSense_1_CSX_MULTIPHASE_TX_EN) */
 592:Generated_Source\PSoC4/CapSense_1_Processing.c **** 
 593:Generated_Source\PSoC4/CapSense_1_Processing.c ****     for (;snsCount-- > 0u;)
 594:Generated_Source\PSoC4/CapSense_1_Processing.c ****     {
 595:Generated_Source\PSoC4/CapSense_1_Processing.c ****         #if (CapSense_1_ENABLE == CapSense_1_RC_FILTER_EN)
 596:Generated_Source\PSoC4/CapSense_1_Processing.c ****             CapSense_1_FtRunEnabledFiltersInternal(fltrHistV, ptrSnsTmp, widgetType);
 597:Generated_Source\PSoC4/CapSense_1_Processing.c ****             #if (CapSense_1_ALP_FILTER_EN)
 598:Generated_Source\PSoC4/CapSense_1_Processing.c ****                 CapSense_1_ConfigRunALPInternal(fltrHistV, ptrRamWdgt, ptrSnsTmp, widgetType);
 599:Generated_Source\PSoC4/CapSense_1_Processing.c ****             #endif
 600:Generated_Source\PSoC4/CapSense_1_Processing.c ****         #endif /* #if (CapSense_1_ENABLE == CapSense_1_RC_FILTER_EN) */
 601:Generated_Source\PSoC4/CapSense_1_Processing.c **** 
 602:Generated_Source\PSoC4/CapSense_1_Processing.c ****         result = CapSense_1_FtUpdateBaseline(ptrRamWdgt, ptrSnsTmp, widgetType);
 603:Generated_Source\PSoC4/CapSense_1_Processing.c **** 
 604:Generated_Source\PSoC4/CapSense_1_Processing.c ****         #if (CapSense_1_ENABLE == CapSense_1_TST_BSLN_DUPLICATION_EN)
 605:Generated_Source\PSoC4/CapSense_1_Processing.c ****             if (CYRET_SUCCESS != result)
 606:Generated_Source\PSoC4/CapSense_1_Processing.c ****             {
 607:Generated_Source\PSoC4/CapSense_1_Processing.c ****                 result = snsCount | CapSense_1_PROCESS_BASELINE_FAILED;
 608:Generated_Source\PSoC4/CapSense_1_Processing.c ****             }
 609:Generated_Source\PSoC4/CapSense_1_Processing.c ****         #endif /* (CapSense_1_ENABLE == CapSense_1_TST_BSLN_DUPLICATION_EN) */
ARM GAS  C:\Users\MICHAE~1.MAC\AppData\Local\Temp\cc682toO.s 			page 14


 610:Generated_Source\PSoC4/CapSense_1_Processing.c **** 
 611:Generated_Source\PSoC4/CapSense_1_Processing.c ****         CapSense_1_DpUpdateDifferences(ptrRamWdgt, ptrSnsTmp);
 612:Generated_Source\PSoC4/CapSense_1_Processing.c **** 
 613:Generated_Source\PSoC4/CapSense_1_Processing.c ****         /* Move pointers to the next sensor and filter history objects */
 614:Generated_Source\PSoC4/CapSense_1_Processing.c ****         ptrSnsTmp++;
 615:Generated_Source\PSoC4/CapSense_1_Processing.c **** 
 616:Generated_Source\PSoC4/CapSense_1_Processing.c ****         #if (CapSense_1_ENABLE == CapSense_1_RC_FILTER_EN)
 617:Generated_Source\PSoC4/CapSense_1_Processing.c ****             CapSense_1_INC_REG_FLTR_OBJ(fltrHistV);
 618:Generated_Source\PSoC4/CapSense_1_Processing.c ****         #endif /* #if (CapSense_1_ENABLE == CapSense_1_RC_FILTER_EN) */
 619:Generated_Source\PSoC4/CapSense_1_Processing.c ****     }
 620:Generated_Source\PSoC4/CapSense_1_Processing.c ****     return result;
 621:Generated_Source\PSoC4/CapSense_1_Processing.c **** }
 622:Generated_Source\PSoC4/CapSense_1_Processing.c **** 
 623:Generated_Source\PSoC4/CapSense_1_Processing.c **** /*******************************************************************************
 624:Generated_Source\PSoC4/CapSense_1_Processing.c **** * Function Name: CapSense_1_DpProcessCsxSensorRawCountsExt
 625:Generated_Source\PSoC4/CapSense_1_Processing.c **** ****************************************************************************//**
 626:Generated_Source\PSoC4/CapSense_1_Processing.c **** *
 627:Generated_Source\PSoC4/CapSense_1_Processing.c **** * \brief
 628:Generated_Source\PSoC4/CapSense_1_Processing.c **** *   Performs customized processing of the CSX sensor raw counts.
 629:Generated_Source\PSoC4/CapSense_1_Processing.c **** *
 630:Generated_Source\PSoC4/CapSense_1_Processing.c **** * \details
 631:Generated_Source\PSoC4/CapSense_1_Processing.c **** *   Performs customized processing of the CSX sensor raw counts.
 632:Generated_Source\PSoC4/CapSense_1_Processing.c **** *
 633:Generated_Source\PSoC4/CapSense_1_Processing.c **** *   If all bits are set at once the default processing order will take place.
 634:Generated_Source\PSoC4/CapSense_1_Processing.c **** *   For the custom order this API can be called multiple times and execute one task at a time.
 635:Generated_Source\PSoC4/CapSense_1_Processing.c **** *
 636:Generated_Source\PSoC4/CapSense_1_Processing.c **** * \param ptrFlashWdgt The pointer to the Flash Widget Object.
 637:Generated_Source\PSoC4/CapSense_1_Processing.c **** * \param curSnsPtr    The pointer to the specific RAM Sensor Object.
 638:Generated_Source\PSoC4/CapSense_1_Processing.c **** * \param fltrHistV    The pointer to the Filter History Object in RAM associated with specific sens
 639:Generated_Source\PSoC4/CapSense_1_Processing.c **** * \param mode         The bit-mask with the data processing tasks to be executed.
 640:Generated_Source\PSoC4/CapSense_1_Processing.c **** *   The mode parameters can take the following values:
 641:Generated_Source\PSoC4/CapSense_1_Processing.c **** *    - CapSense_1_PROCESS_FILTER     (0x01) Run Firmware Filter
 642:Generated_Source\PSoC4/CapSense_1_Processing.c **** *    - CapSense_1_PROCESS_BASELINE   (0x02) Update Baselines
 643:Generated_Source\PSoC4/CapSense_1_Processing.c **** *    - CapSense_1_PROCESS_DIFFCOUNTS (0x04) Update Difference Counts
 644:Generated_Source\PSoC4/CapSense_1_Processing.c **** *    - CapSense_1_PROCESS_ALL               Execute all tasks
 645:Generated_Source\PSoC4/CapSense_1_Processing.c **** *
 646:Generated_Source\PSoC4/CapSense_1_Processing.c **** * \return
 647:Generated_Source\PSoC4/CapSense_1_Processing.c **** *  Returns the status of the specified sensor processing operation:
 648:Generated_Source\PSoC4/CapSense_1_Processing.c **** *  - CYRET_SUCCESS if operation was successfully completed;
 649:Generated_Source\PSoC4/CapSense_1_Processing.c **** *  - CapSense_1_PROCESS_BASELINE_FAILED if baseline processing of any
 650:Generated_Source\PSoC4/CapSense_1_Processing.c **** *    sensor of the specified widget failed. The result is concatenated with the index
 651:Generated_Source\PSoC4/CapSense_1_Processing.c **** *    of failed sensor.
 652:Generated_Source\PSoC4/CapSense_1_Processing.c **** *
 653:Generated_Source\PSoC4/CapSense_1_Processing.c **** *******************************************************************************/
 654:Generated_Source\PSoC4/CapSense_1_Processing.c **** uint32 CapSense_1_DpProcessCsxSensorRawCountsExt(
 655:Generated_Source\PSoC4/CapSense_1_Processing.c ****                 CapSense_1_FLASH_WD_STRUCT const *ptrFlashWdgt,
 656:Generated_Source\PSoC4/CapSense_1_Processing.c ****                 CapSense_1_RAM_SNS_STRUCT *curSnsPtr,
 657:Generated_Source\PSoC4/CapSense_1_Processing.c ****                 CapSense_1_PTR_FILTER_VARIANT fltrHistV,
 658:Generated_Source\PSoC4/CapSense_1_Processing.c ****                 uint32 mode)
 659:Generated_Source\PSoC4/CapSense_1_Processing.c **** {
 660:Generated_Source\PSoC4/CapSense_1_Processing.c ****     uint32  result = CYRET_SUCCESS;
 661:Generated_Source\PSoC4/CapSense_1_Processing.c ****     uint32  widgetType;
 662:Generated_Source\PSoC4/CapSense_1_Processing.c ****     CapSense_1_RAM_WD_BASE_STRUCT *ptrRamWdgt;
 663:Generated_Source\PSoC4/CapSense_1_Processing.c **** 
 664:Generated_Source\PSoC4/CapSense_1_Processing.c ****     widgetType = ptrFlashWdgt->wdgtType;
 665:Generated_Source\PSoC4/CapSense_1_Processing.c ****     ptrRamWdgt = (CapSense_1_RAM_WD_BASE_STRUCT *)ptrFlashWdgt->ptr2WdgtRam;
 666:Generated_Source\PSoC4/CapSense_1_Processing.c **** 
ARM GAS  C:\Users\MICHAE~1.MAC\AppData\Local\Temp\cc682toO.s 			page 15


 667:Generated_Source\PSoC4/CapSense_1_Processing.c ****     #if (CapSense_1_ENABLE == CapSense_1_RC_FILTER_EN)
 668:Generated_Source\PSoC4/CapSense_1_Processing.c ****         if (0u != (mode & CapSense_1_PROCESS_FILTER))
 669:Generated_Source\PSoC4/CapSense_1_Processing.c ****         {
 670:Generated_Source\PSoC4/CapSense_1_Processing.c ****             CapSense_1_FtRunEnabledFiltersInternal(fltrHistV, curSnsPtr, widgetType);
 671:Generated_Source\PSoC4/CapSense_1_Processing.c ****             #if (CapSense_1_ALP_FILTER_EN)
 672:Generated_Source\PSoC4/CapSense_1_Processing.c ****                 CapSense_1_ConfigRunALPInternal(fltrHistV, ptrRamWdgt, curSnsPtr, widgetType);
 673:Generated_Source\PSoC4/CapSense_1_Processing.c ****             #endif
 674:Generated_Source\PSoC4/CapSense_1_Processing.c ****         }
 675:Generated_Source\PSoC4/CapSense_1_Processing.c ****     #else
 676:Generated_Source\PSoC4/CapSense_1_Processing.c ****         (void)fltrHistV; /* This parameter is unused in such configurations */
 677:Generated_Source\PSoC4/CapSense_1_Processing.c ****     #endif /* #if (CapSense_1_ENABLE == CapSense_1_RC_FILTER_EN) */
 678:Generated_Source\PSoC4/CapSense_1_Processing.c **** 
 679:Generated_Source\PSoC4/CapSense_1_Processing.c ****     if (0u != (mode & CapSense_1_PROCESS_BASELINE))
 680:Generated_Source\PSoC4/CapSense_1_Processing.c ****     {
 681:Generated_Source\PSoC4/CapSense_1_Processing.c ****         result = CapSense_1_FtUpdateBaseline(ptrRamWdgt, curSnsPtr, widgetType);
 682:Generated_Source\PSoC4/CapSense_1_Processing.c ****     }
 683:Generated_Source\PSoC4/CapSense_1_Processing.c **** 
 684:Generated_Source\PSoC4/CapSense_1_Processing.c ****     if (0u != (mode & CapSense_1_PROCESS_DIFFCOUNTS))
 685:Generated_Source\PSoC4/CapSense_1_Processing.c ****     {
 686:Generated_Source\PSoC4/CapSense_1_Processing.c ****         CapSense_1_DpUpdateDifferences(ptrRamWdgt, curSnsPtr);
 687:Generated_Source\PSoC4/CapSense_1_Processing.c ****     }
 688:Generated_Source\PSoC4/CapSense_1_Processing.c ****     return result;
 689:Generated_Source\PSoC4/CapSense_1_Processing.c **** }
 690:Generated_Source\PSoC4/CapSense_1_Processing.c **** 
 691:Generated_Source\PSoC4/CapSense_1_Processing.c **** 
 692:Generated_Source\PSoC4/CapSense_1_Processing.c **** /*******************************************************************************
 693:Generated_Source\PSoC4/CapSense_1_Processing.c **** * Function Name: CapSense_1_DpProcessCsxWidgetStatus
 694:Generated_Source\PSoC4/CapSense_1_Processing.c **** ****************************************************************************//**
 695:Generated_Source\PSoC4/CapSense_1_Processing.c **** *
 696:Generated_Source\PSoC4/CapSense_1_Processing.c **** * \brief
 697:Generated_Source\PSoC4/CapSense_1_Processing.c **** *   Updates the status of the CSX widget in the Data Structure.
 698:Generated_Source\PSoC4/CapSense_1_Processing.c **** *
 699:Generated_Source\PSoC4/CapSense_1_Processing.c **** * \details
 700:Generated_Source\PSoC4/CapSense_1_Processing.c **** *  This API determines the type of widget and runs the appropriate function
 701:Generated_Source\PSoC4/CapSense_1_Processing.c **** *  that implements the status update algorithm for this type of widget.
 702:Generated_Source\PSoC4/CapSense_1_Processing.c **** *
 703:Generated_Source\PSoC4/CapSense_1_Processing.c **** *  When the widget-specific processing completes this API updates the snsStatus
 704:Generated_Source\PSoC4/CapSense_1_Processing.c **** *  and wdgtStatus registers in the data structure. The wdgtStatus register
 705:Generated_Source\PSoC4/CapSense_1_Processing.c **** *  is a bitmask were each bit corresponds to the specific widget identified by
 706:Generated_Source\PSoC4/CapSense_1_Processing.c **** *  the widget index. When the bit is set the widget is active (touched);
 707:Generated_Source\PSoC4/CapSense_1_Processing.c **** *
 708:Generated_Source\PSoC4/CapSense_1_Processing.c **** *  Depending on the type of widget the snsStatus register may contain either
 709:Generated_Source\PSoC4/CapSense_1_Processing.c **** *  status of each widget node (active/non-active) or in case of the CSX Touchpad
 710:Generated_Source\PSoC4/CapSense_1_Processing.c **** *  is contains the number of touches. In both cases 0 means that widget is not
 711:Generated_Source\PSoC4/CapSense_1_Processing.c **** *  active.
 712:Generated_Source\PSoC4/CapSense_1_Processing.c **** *
 713:Generated_Source\PSoC4/CapSense_1_Processing.c **** * \param widgetId     The widget ID number.
 714:Generated_Source\PSoC4/CapSense_1_Processing.c **** * \param ptrFlashWdgt The pointer to the Flash Widget Object.
 715:Generated_Source\PSoC4/CapSense_1_Processing.c **** *
 716:Generated_Source\PSoC4/CapSense_1_Processing.c **** *******************************************************************************/
 717:Generated_Source\PSoC4/CapSense_1_Processing.c **** void CapSense_1_DpProcessCsxWidgetStatus(uint32 widgetId, CapSense_1_FLASH_WD_STRUCT const *ptrFlas
 718:Generated_Source\PSoC4/CapSense_1_Processing.c **** {
 719:Generated_Source\PSoC4/CapSense_1_Processing.c ****     uint32 sensorStatus;
 720:Generated_Source\PSoC4/CapSense_1_Processing.c ****     uint32 wdStatusIndex;
 721:Generated_Source\PSoC4/CapSense_1_Processing.c ****     uint32 wdStatusMask;
 722:Generated_Source\PSoC4/CapSense_1_Processing.c ****     CapSense_1_WD_TYPE_ENUM widgetType;
 723:Generated_Source\PSoC4/CapSense_1_Processing.c **** 
ARM GAS  C:\Users\MICHAE~1.MAC\AppData\Local\Temp\cc682toO.s 			page 16


 724:Generated_Source\PSoC4/CapSense_1_Processing.c ****     widgetType = (CapSense_1_WD_TYPE_ENUM)ptrFlashWdgt->wdgtType;
 725:Generated_Source\PSoC4/CapSense_1_Processing.c ****     sensorStatus = CapSense_1_dsRam.snsStatus[widgetId];
 726:Generated_Source\PSoC4/CapSense_1_Processing.c **** 
 727:Generated_Source\PSoC4/CapSense_1_Processing.c ****     switch (widgetType)
 728:Generated_Source\PSoC4/CapSense_1_Processing.c ****     {
 729:Generated_Source\PSoC4/CapSense_1_Processing.c ****     #if (0u != CapSense_1_BUTTON_WIDGET_EN)
 730:Generated_Source\PSoC4/CapSense_1_Processing.c ****         case CapSense_1_WD_BUTTON_E:
 731:Generated_Source\PSoC4/CapSense_1_Processing.c ****             sensorStatus = CapSense_1_DpProcessButton(sensorStatus, ptrFlashWdgt);
 732:Generated_Source\PSoC4/CapSense_1_Processing.c ****             break;
 733:Generated_Source\PSoC4/CapSense_1_Processing.c ****     #endif /* #if (0u != CapSense_1_BUTTON_WIDGET_EN) */
 734:Generated_Source\PSoC4/CapSense_1_Processing.c **** 
 735:Generated_Source\PSoC4/CapSense_1_Processing.c ****     #if (0u != CapSense_1_CSX_MATRIX_WIDGET_EN)
 736:Generated_Source\PSoC4/CapSense_1_Processing.c ****         case CapSense_1_WD_MATRIX_BUTTON_E:
 737:Generated_Source\PSoC4/CapSense_1_Processing.c ****             sensorStatus = CapSense_1_DpProcessButton(sensorStatus, ptrFlashWdgt);
 738:Generated_Source\PSoC4/CapSense_1_Processing.c ****             break;
 739:Generated_Source\PSoC4/CapSense_1_Processing.c ****     #endif /* #if (0u != CapSense_1_CSX_MATRIX_WIDGET_EN) */
 740:Generated_Source\PSoC4/CapSense_1_Processing.c **** 
 741:Generated_Source\PSoC4/CapSense_1_Processing.c ****     #if (0u != CapSense_1_CSX_TOUCHPAD_WIDGET_EN)
 742:Generated_Source\PSoC4/CapSense_1_Processing.c ****         case CapSense_1_WD_TOUCHPAD_E:
 743:Generated_Source\PSoC4/CapSense_1_Processing.c ****             sensorStatus = CapSense_1_DpProcessCsxTouchpad(sensorStatus, ptrFlashWdgt);
 744:Generated_Source\PSoC4/CapSense_1_Processing.c ****             break;
 745:Generated_Source\PSoC4/CapSense_1_Processing.c ****     #endif /* #if (0u != CapSense_1_CSX_TOUCHPAD_WIDGET_EN) */
 746:Generated_Source\PSoC4/CapSense_1_Processing.c **** 
 747:Generated_Source\PSoC4/CapSense_1_Processing.c ****     default:
 748:Generated_Source\PSoC4/CapSense_1_Processing.c ****         CYASSERT(0u);
 749:Generated_Source\PSoC4/CapSense_1_Processing.c ****         break;
 750:Generated_Source\PSoC4/CapSense_1_Processing.c ****     }
 751:Generated_Source\PSoC4/CapSense_1_Processing.c **** 
 752:Generated_Source\PSoC4/CapSense_1_Processing.c ****     /* Update sensor status in the data structure */
 753:Generated_Source\PSoC4/CapSense_1_Processing.c ****     CapSense_1_dsRam.snsStatus[widgetId] = (CapSense_1_SNS_STS_TYPE)sensorStatus;
 754:Generated_Source\PSoC4/CapSense_1_Processing.c **** 
 755:Generated_Source\PSoC4/CapSense_1_Processing.c ****     /* The next two lines calculate index and bitmask of the widget status bit in the wdgtStatus ar
 756:Generated_Source\PSoC4/CapSense_1_Processing.c ****     wdStatusIndex = CapSense_1_GET_WDGT_STATUS_INDEX(widgetId);
 757:Generated_Source\PSoC4/CapSense_1_Processing.c ****     wdStatusMask = CapSense_1_GET_WDGT_STATUS_MASK(widgetId);
 758:Generated_Source\PSoC4/CapSense_1_Processing.c **** 
 759:Generated_Source\PSoC4/CapSense_1_Processing.c ****     /* Check if there are active sensors and update widget status accordingly */
 760:Generated_Source\PSoC4/CapSense_1_Processing.c ****     if (0u == sensorStatus)
 761:Generated_Source\PSoC4/CapSense_1_Processing.c ****     {
 762:Generated_Source\PSoC4/CapSense_1_Processing.c ****         CapSense_1_dsRam.wdgtStatus[wdStatusIndex] &= ~wdStatusMask;
 763:Generated_Source\PSoC4/CapSense_1_Processing.c ****     }
 764:Generated_Source\PSoC4/CapSense_1_Processing.c ****     else
 765:Generated_Source\PSoC4/CapSense_1_Processing.c ****     {
 766:Generated_Source\PSoC4/CapSense_1_Processing.c ****         CapSense_1_dsRam.wdgtStatus[wdStatusIndex] |= wdStatusMask;
 767:Generated_Source\PSoC4/CapSense_1_Processing.c ****     }
 768:Generated_Source\PSoC4/CapSense_1_Processing.c **** }
 769:Generated_Source\PSoC4/CapSense_1_Processing.c **** #endif /* #if CapSense_1_TOTAL_CSX_WIDGETS */
 770:Generated_Source\PSoC4/CapSense_1_Processing.c **** 
 771:Generated_Source\PSoC4/CapSense_1_Processing.c **** #if (0u != CapSense_1_TOTAL_ISX_WIDGETS)
 772:Generated_Source\PSoC4/CapSense_1_Processing.c **** /*******************************************************************************
 773:Generated_Source\PSoC4/CapSense_1_Processing.c **** * Function Name: CapSense_1_DpProcessIsxWidgetRawCounts
 774:Generated_Source\PSoC4/CapSense_1_Processing.c **** ****************************************************************************//**
 775:Generated_Source\PSoC4/CapSense_1_Processing.c **** *
 776:Generated_Source\PSoC4/CapSense_1_Processing.c **** * \brief
 777:Generated_Source\PSoC4/CapSense_1_Processing.c **** *  Performs default processing of the ISX raw counts.
 778:Generated_Source\PSoC4/CapSense_1_Processing.c **** *
 779:Generated_Source\PSoC4/CapSense_1_Processing.c **** * \details
 780:Generated_Source\PSoC4/CapSense_1_Processing.c **** *  Performs default processing of the ISX raw counts:
ARM GAS  C:\Users\MICHAE~1.MAC\AppData\Local\Temp\cc682toO.s 			page 17


 781:Generated_Source\PSoC4/CapSense_1_Processing.c **** *   - Run Filters
 782:Generated_Source\PSoC4/CapSense_1_Processing.c **** *   - Update Baselines
 783:Generated_Source\PSoC4/CapSense_1_Processing.c **** *   - Update Differences
 784:Generated_Source\PSoC4/CapSense_1_Processing.c **** *   - Update Status.
 785:Generated_Source\PSoC4/CapSense_1_Processing.c **** *  The same process is applied to all the sensors of the specified widget.
 786:Generated_Source\PSoC4/CapSense_1_Processing.c **** *
 787:Generated_Source\PSoC4/CapSense_1_Processing.c **** * \param ptrFlashWdgt The pointer to the Flash widget structure.
 788:Generated_Source\PSoC4/CapSense_1_Processing.c **** *
 789:Generated_Source\PSoC4/CapSense_1_Processing.c **** * \return
 790:Generated_Source\PSoC4/CapSense_1_Processing.c **** *  Returns the status of the specified widget processing operation:
 791:Generated_Source\PSoC4/CapSense_1_Processing.c **** *  - CYRET_SUCCESS if operation was successfully completed;
 792:Generated_Source\PSoC4/CapSense_1_Processing.c **** *  - CapSense_1_PROCESS_BASELINE_FAILED if baseline processing of any
 793:Generated_Source\PSoC4/CapSense_1_Processing.c **** *    sensor of the specified widget failed. The result is concatenated with the index
 794:Generated_Source\PSoC4/CapSense_1_Processing.c **** *    of failed sensor.
 795:Generated_Source\PSoC4/CapSense_1_Processing.c **** *
 796:Generated_Source\PSoC4/CapSense_1_Processing.c **** *******************************************************************************/
 797:Generated_Source\PSoC4/CapSense_1_Processing.c **** uint32 CapSense_1_DpProcessIsxWidgetRawCounts(CapSense_1_FLASH_WD_STRUCT const *ptrFlashWdgt)
 798:Generated_Source\PSoC4/CapSense_1_Processing.c **** {
 799:Generated_Source\PSoC4/CapSense_1_Processing.c ****     uint32 result = CYRET_SUCCESS;
 800:Generated_Source\PSoC4/CapSense_1_Processing.c ****     uint32 widgetType;
 801:Generated_Source\PSoC4/CapSense_1_Processing.c ****     uint32 snsCount;
 802:Generated_Source\PSoC4/CapSense_1_Processing.c ****     CapSense_1_RAM_SNS_STRUCT *ptrSns;
 803:Generated_Source\PSoC4/CapSense_1_Processing.c ****     CapSense_1_RAM_WD_BASE_STRUCT *ptrRamWdgt;
 804:Generated_Source\PSoC4/CapSense_1_Processing.c **** 
 805:Generated_Source\PSoC4/CapSense_1_Processing.c ****     #if (CapSense_1_ENABLE == CapSense_1_RC_FILTER_EN)
 806:Generated_Source\PSoC4/CapSense_1_Processing.c ****         CapSense_1_PTR_FILTER_VARIANT fltrHistV;
 807:Generated_Source\PSoC4/CapSense_1_Processing.c **** 
 808:Generated_Source\PSoC4/CapSense_1_Processing.c ****         fltrHistV.ptr = ptrFlashWdgt->ptr2FltrHistory;
 809:Generated_Source\PSoC4/CapSense_1_Processing.c ****     #endif /* #if (CapSense_1_ENABLE == CapSense_1_RC_FILTER_EN) */
 810:Generated_Source\PSoC4/CapSense_1_Processing.c **** 
 811:Generated_Source\PSoC4/CapSense_1_Processing.c ****     ptrSns = ptrFlashWdgt->ptr2SnsRam;
 812:Generated_Source\PSoC4/CapSense_1_Processing.c ****     snsCount = ptrFlashWdgt->totalNumSns;
 813:Generated_Source\PSoC4/CapSense_1_Processing.c ****     ptrRamWdgt = ptrFlashWdgt->ptr2WdgtRam;
 814:Generated_Source\PSoC4/CapSense_1_Processing.c ****     widgetType = ptrFlashWdgt->wdgtType;
 815:Generated_Source\PSoC4/CapSense_1_Processing.c **** 
 816:Generated_Source\PSoC4/CapSense_1_Processing.c ****     #if (0u != CapSense_1_ISX_SKIP_OVSMPL_SPECIFIC_NODES)
 817:Generated_Source\PSoC4/CapSense_1_Processing.c ****         if (0u != ptrSns->resolution)
 818:Generated_Source\PSoC4/CapSense_1_Processing.c ****     #endif
 819:Generated_Source\PSoC4/CapSense_1_Processing.c ****     {
 820:Generated_Source\PSoC4/CapSense_1_Processing.c ****         for(;snsCount-- > 0u;)
 821:Generated_Source\PSoC4/CapSense_1_Processing.c ****         {
 822:Generated_Source\PSoC4/CapSense_1_Processing.c ****             #if (CapSense_1_ENABLE == CapSense_1_RC_FILTER_EN)
 823:Generated_Source\PSoC4/CapSense_1_Processing.c ****                 CapSense_1_FtRunEnabledFiltersInternal(fltrHistV, ptrSns, widgetType);
 824:Generated_Source\PSoC4/CapSense_1_Processing.c ****             #endif /* #if (CapSense_1_ENABLE == CapSense_1_RC_FILTER_EN) */
 825:Generated_Source\PSoC4/CapSense_1_Processing.c **** 
 826:Generated_Source\PSoC4/CapSense_1_Processing.c ****             result = CapSense_1_FtUpdateBaseline(ptrRamWdgt, ptrSns, widgetType);
 827:Generated_Source\PSoC4/CapSense_1_Processing.c **** 
 828:Generated_Source\PSoC4/CapSense_1_Processing.c ****             #if (CapSense_1_ENABLE == CapSense_1_TST_BSLN_DUPLICATION_EN)
 829:Generated_Source\PSoC4/CapSense_1_Processing.c ****                 if (CYRET_SUCCESS != result)
 830:Generated_Source\PSoC4/CapSense_1_Processing.c ****                 {
 831:Generated_Source\PSoC4/CapSense_1_Processing.c ****                     result = CapSense_1_PROCESS_BASELINE_FAILED;
 832:Generated_Source\PSoC4/CapSense_1_Processing.c ****                 }
 833:Generated_Source\PSoC4/CapSense_1_Processing.c ****             #endif /* (CapSense_1_ENABLE == CapSense_1_TST_BSLN_DUPLICATION_EN) */
 834:Generated_Source\PSoC4/CapSense_1_Processing.c **** 
 835:Generated_Source\PSoC4/CapSense_1_Processing.c ****             CapSense_1_DpUpdateDifferences(ptrRamWdgt, ptrSns);
 836:Generated_Source\PSoC4/CapSense_1_Processing.c ****             ptrSns++;
 837:Generated_Source\PSoC4/CapSense_1_Processing.c ****         }
ARM GAS  C:\Users\MICHAE~1.MAC\AppData\Local\Temp\cc682toO.s 			page 18


 838:Generated_Source\PSoC4/CapSense_1_Processing.c ****     }
 839:Generated_Source\PSoC4/CapSense_1_Processing.c **** 
 840:Generated_Source\PSoC4/CapSense_1_Processing.c ****     #if (CapSense_1_ENABLE == CapSense_1_RC_FILTER_EN)
 841:Generated_Source\PSoC4/CapSense_1_Processing.c ****         CapSense_1_INC_FLTR_OBJ_VARIANT(0u, fltrHistV);
 842:Generated_Source\PSoC4/CapSense_1_Processing.c ****     #endif /* #if (CapSense_1_ENABLE == CapSense_1_RC_FILTER_EN) */
 843:Generated_Source\PSoC4/CapSense_1_Processing.c **** 
 844:Generated_Source\PSoC4/CapSense_1_Processing.c ****     return result;
 845:Generated_Source\PSoC4/CapSense_1_Processing.c **** }
 846:Generated_Source\PSoC4/CapSense_1_Processing.c **** 
 847:Generated_Source\PSoC4/CapSense_1_Processing.c **** /*******************************************************************************
 848:Generated_Source\PSoC4/CapSense_1_Processing.c **** * Function Name: CapSense_1_DpProcessIsxSensorRawCountsExt
 849:Generated_Source\PSoC4/CapSense_1_Processing.c **** ****************************************************************************//**
 850:Generated_Source\PSoC4/CapSense_1_Processing.c **** *
 851:Generated_Source\PSoC4/CapSense_1_Processing.c **** * \brief
 852:Generated_Source\PSoC4/CapSense_1_Processing.c **** *   Performs customized processing of the ISX sensor raw counts.
 853:Generated_Source\PSoC4/CapSense_1_Processing.c **** *
 854:Generated_Source\PSoC4/CapSense_1_Processing.c **** * \details
 855:Generated_Source\PSoC4/CapSense_1_Processing.c **** *   Performs customized processing of the ISX sensor raw counts.
 856:Generated_Source\PSoC4/CapSense_1_Processing.c **** *
 857:Generated_Source\PSoC4/CapSense_1_Processing.c **** *   If all bits are set at once the default processing order will take place.
 858:Generated_Source\PSoC4/CapSense_1_Processing.c **** *   For the custom order this API can be called multiple times and execute one task at a time.
 859:Generated_Source\PSoC4/CapSense_1_Processing.c **** *
 860:Generated_Source\PSoC4/CapSense_1_Processing.c **** * \param ptrFlashWdgt The pointer to the Flash Widget Object.
 861:Generated_Source\PSoC4/CapSense_1_Processing.c **** * \param ptrSns       The pointer to the specific RAM Sensor Object.
 862:Generated_Source\PSoC4/CapSense_1_Processing.c **** * \param fltrHistV    The pointer to the Filter History Object in RAM associated with specific sens
 863:Generated_Source\PSoC4/CapSense_1_Processing.c **** * \param mode         The bit-mask with the data processing tasks to be executed.
 864:Generated_Source\PSoC4/CapSense_1_Processing.c **** *   The mode parameters can take the following values:
 865:Generated_Source\PSoC4/CapSense_1_Processing.c **** *    - CapSense_1_PROCESS_FILTER     (0x01) Run Firmware Filter
 866:Generated_Source\PSoC4/CapSense_1_Processing.c **** *    - CapSense_1_PROCESS_BASELINE   (0x02) Update Baselines
 867:Generated_Source\PSoC4/CapSense_1_Processing.c **** *    - CapSense_1_PROCESS_DIFFCOUNTS (0x04) Update Difference Counts
 868:Generated_Source\PSoC4/CapSense_1_Processing.c **** *    - CapSense_1_PROCESS_ALL               Execute all tasks
 869:Generated_Source\PSoC4/CapSense_1_Processing.c **** *
 870:Generated_Source\PSoC4/CapSense_1_Processing.c **** * \return
 871:Generated_Source\PSoC4/CapSense_1_Processing.c **** *  Returns the status of the specified sensor processing operation:
 872:Generated_Source\PSoC4/CapSense_1_Processing.c **** *  - CYRET_SUCCESS if operation was successfully completed;
 873:Generated_Source\PSoC4/CapSense_1_Processing.c **** *  - CapSense_1_PROCESS_BASELINE_FAILED if baseline processing of any
 874:Generated_Source\PSoC4/CapSense_1_Processing.c **** *    sensor of the specified widget failed. The result is concatenated with the index
 875:Generated_Source\PSoC4/CapSense_1_Processing.c **** *    of failed sensor.
 876:Generated_Source\PSoC4/CapSense_1_Processing.c **** *
 877:Generated_Source\PSoC4/CapSense_1_Processing.c **** *******************************************************************************/
 878:Generated_Source\PSoC4/CapSense_1_Processing.c **** uint32 CapSense_1_DpProcessIsxSensorRawCountsExt(
 879:Generated_Source\PSoC4/CapSense_1_Processing.c ****                 CapSense_1_FLASH_WD_STRUCT const *ptrFlashWdgt,
 880:Generated_Source\PSoC4/CapSense_1_Processing.c ****                 CapSense_1_RAM_SNS_STRUCT *ptrSns,
 881:Generated_Source\PSoC4/CapSense_1_Processing.c ****                 CapSense_1_PTR_FILTER_VARIANT fltrHistV,
 882:Generated_Source\PSoC4/CapSense_1_Processing.c ****                 uint32 mode)
 883:Generated_Source\PSoC4/CapSense_1_Processing.c **** {
 884:Generated_Source\PSoC4/CapSense_1_Processing.c ****     uint32  result = CYRET_SUCCESS;
 885:Generated_Source\PSoC4/CapSense_1_Processing.c ****     uint32  widgetType;
 886:Generated_Source\PSoC4/CapSense_1_Processing.c ****     CapSense_1_RAM_WD_BASE_STRUCT *ptrRamWdgt;
 887:Generated_Source\PSoC4/CapSense_1_Processing.c **** 
 888:Generated_Source\PSoC4/CapSense_1_Processing.c ****     widgetType = ptrFlashWdgt->wdgtType;
 889:Generated_Source\PSoC4/CapSense_1_Processing.c ****     ptrRamWdgt = ptrFlashWdgt->ptr2WdgtRam;
 890:Generated_Source\PSoC4/CapSense_1_Processing.c **** 
 891:Generated_Source\PSoC4/CapSense_1_Processing.c ****     #if (CapSense_1_ENABLE == CapSense_1_RC_FILTER_EN)
 892:Generated_Source\PSoC4/CapSense_1_Processing.c ****         if (0u != (mode & CapSense_1_PROCESS_FILTER))
 893:Generated_Source\PSoC4/CapSense_1_Processing.c ****         {
 894:Generated_Source\PSoC4/CapSense_1_Processing.c ****             CapSense_1_FtRunEnabledFiltersInternal(fltrHistV, ptrSns, widgetType);
ARM GAS  C:\Users\MICHAE~1.MAC\AppData\Local\Temp\cc682toO.s 			page 19


 895:Generated_Source\PSoC4/CapSense_1_Processing.c ****         }
 896:Generated_Source\PSoC4/CapSense_1_Processing.c ****     #else
 897:Generated_Source\PSoC4/CapSense_1_Processing.c ****         (void)fltrHistV; /* This parameter is unused in such configurations */
 898:Generated_Source\PSoC4/CapSense_1_Processing.c ****     #endif /* #if (CapSense_1_ENABLE == CapSense_1_RC_FILTER_EN) */
 899:Generated_Source\PSoC4/CapSense_1_Processing.c **** 
 900:Generated_Source\PSoC4/CapSense_1_Processing.c ****     if (0u != (mode & CapSense_1_PROCESS_BASELINE))
 901:Generated_Source\PSoC4/CapSense_1_Processing.c ****     {
 902:Generated_Source\PSoC4/CapSense_1_Processing.c ****         result = CapSense_1_FtUpdateBaseline(ptrRamWdgt, ptrSns, widgetType);
 903:Generated_Source\PSoC4/CapSense_1_Processing.c ****     }
 904:Generated_Source\PSoC4/CapSense_1_Processing.c **** 
 905:Generated_Source\PSoC4/CapSense_1_Processing.c ****     if (0u != (mode & CapSense_1_PROCESS_DIFFCOUNTS))
 906:Generated_Source\PSoC4/CapSense_1_Processing.c ****     {
 907:Generated_Source\PSoC4/CapSense_1_Processing.c ****         CapSense_1_DpUpdateDifferences(ptrRamWdgt, ptrSns);
 908:Generated_Source\PSoC4/CapSense_1_Processing.c ****     }
 909:Generated_Source\PSoC4/CapSense_1_Processing.c ****     return result;
 910:Generated_Source\PSoC4/CapSense_1_Processing.c **** }
 911:Generated_Source\PSoC4/CapSense_1_Processing.c **** 
 912:Generated_Source\PSoC4/CapSense_1_Processing.c **** 
 913:Generated_Source\PSoC4/CapSense_1_Processing.c **** /*******************************************************************************
 914:Generated_Source\PSoC4/CapSense_1_Processing.c **** * Function Name: CapSense_1_DpProcessIsxWidgetStatus
 915:Generated_Source\PSoC4/CapSense_1_Processing.c **** ****************************************************************************//**
 916:Generated_Source\PSoC4/CapSense_1_Processing.c **** *
 917:Generated_Source\PSoC4/CapSense_1_Processing.c **** * \brief
 918:Generated_Source\PSoC4/CapSense_1_Processing.c **** *   Updates the status of the ISX widget in the Data Structure.
 919:Generated_Source\PSoC4/CapSense_1_Processing.c **** *
 920:Generated_Source\PSoC4/CapSense_1_Processing.c **** * \details
 921:Generated_Source\PSoC4/CapSense_1_Processing.c **** *  This API determines the type of widget and runs the appropriate function
 922:Generated_Source\PSoC4/CapSense_1_Processing.c **** *  that implements the status update algorithm for this type of widget.
 923:Generated_Source\PSoC4/CapSense_1_Processing.c **** *
 924:Generated_Source\PSoC4/CapSense_1_Processing.c **** *  When the widget-specific processing completes this API updates the snsStatus
 925:Generated_Source\PSoC4/CapSense_1_Processing.c **** *  and wdgtStatus registers in the data structure. The wdgtStatus register
 926:Generated_Source\PSoC4/CapSense_1_Processing.c **** *  is a bitmask were each bit corresponds to the specific widget identified by
 927:Generated_Source\PSoC4/CapSense_1_Processing.c **** *  the widget index. When the bit is set the widget is active (touched);
 928:Generated_Source\PSoC4/CapSense_1_Processing.c **** *
 929:Generated_Source\PSoC4/CapSense_1_Processing.c **** *  Depending on the type of widget the snsStatus register may contain either
 930:Generated_Source\PSoC4/CapSense_1_Processing.c **** *  status of each widget node (active/non-active) or in case of the ISX Touchpad
 931:Generated_Source\PSoC4/CapSense_1_Processing.c **** *  is contains the number of touches. In both cases 0 means that widget is not
 932:Generated_Source\PSoC4/CapSense_1_Processing.c **** *  active.
 933:Generated_Source\PSoC4/CapSense_1_Processing.c **** *
 934:Generated_Source\PSoC4/CapSense_1_Processing.c **** * \param wdgtId       The widget index number.
 935:Generated_Source\PSoC4/CapSense_1_Processing.c **** * \param ptrFlashWdgt The pointer to the Flash Widget Object.
 936:Generated_Source\PSoC4/CapSense_1_Processing.c **** *
 937:Generated_Source\PSoC4/CapSense_1_Processing.c **** *******************************************************************************/
 938:Generated_Source\PSoC4/CapSense_1_Processing.c **** void CapSense_1_DpProcessIsxWidgetStatus(uint32 wdgtId, CapSense_1_FLASH_WD_STRUCT const *ptrFlashW
 939:Generated_Source\PSoC4/CapSense_1_Processing.c **** {
 940:Generated_Source\PSoC4/CapSense_1_Processing.c ****     uint32 sensorStatus;
 941:Generated_Source\PSoC4/CapSense_1_Processing.c ****     uint32 wdStatusIndex;
 942:Generated_Source\PSoC4/CapSense_1_Processing.c ****     uint32 wdStatusMask;
 943:Generated_Source\PSoC4/CapSense_1_Processing.c ****     CapSense_1_WD_TYPE_ENUM widgetType;
 944:Generated_Source\PSoC4/CapSense_1_Processing.c **** 
 945:Generated_Source\PSoC4/CapSense_1_Processing.c ****     widgetType = (CapSense_1_WD_TYPE_ENUM)ptrFlashWdgt->wdgtType;
 946:Generated_Source\PSoC4/CapSense_1_Processing.c ****     sensorStatus = CapSense_1_dsRam.snsStatus[wdgtId];
 947:Generated_Source\PSoC4/CapSense_1_Processing.c **** 
 948:Generated_Source\PSoC4/CapSense_1_Processing.c ****     switch (widgetType)
 949:Generated_Source\PSoC4/CapSense_1_Processing.c ****     {
 950:Generated_Source\PSoC4/CapSense_1_Processing.c ****     #if (0u != CapSense_1_PROXIMITY_WIDGET_EN)
 951:Generated_Source\PSoC4/CapSense_1_Processing.c ****         case CapSense_1_WD_PROXIMITY_E:
ARM GAS  C:\Users\MICHAE~1.MAC\AppData\Local\Temp\cc682toO.s 			page 20


 952:Generated_Source\PSoC4/CapSense_1_Processing.c ****             sensorStatus = CapSense_1_DpProcessProximity(sensorStatus, ptrFlashWdgt);
 953:Generated_Source\PSoC4/CapSense_1_Processing.c ****             break;
 954:Generated_Source\PSoC4/CapSense_1_Processing.c ****     #endif /* #if (0u != CapSense_1_Proximity_WIDGET_EN) */
 955:Generated_Source\PSoC4/CapSense_1_Processing.c ****     #if (0u != CapSense_1_ENCODERDIAL_WIDGET_EN)
 956:Generated_Source\PSoC4/CapSense_1_Processing.c ****         case CapSense_1_WD_ENCODERDIAL_E:
 957:Generated_Source\PSoC4/CapSense_1_Processing.c ****             sensorStatus = CapSense_1_DpProcessEncoderDial(sensorStatus, ptrFlashWdgt);
 958:Generated_Source\PSoC4/CapSense_1_Processing.c ****             break;
 959:Generated_Source\PSoC4/CapSense_1_Processing.c ****     #endif /* #if (0u != CapSense_1_Proximity_WIDGET_EN) */
 960:Generated_Source\PSoC4/CapSense_1_Processing.c ****     #if (0u != CapSense_1_BUTTON_WIDGET_EN)
 961:Generated_Source\PSoC4/CapSense_1_Processing.c ****         case CapSense_1_WD_BUTTON_E:
 962:Generated_Source\PSoC4/CapSense_1_Processing.c ****             sensorStatus = CapSense_1_DpProcessButton(sensorStatus, ptrFlashWdgt);
 963:Generated_Source\PSoC4/CapSense_1_Processing.c ****             break;
 964:Generated_Source\PSoC4/CapSense_1_Processing.c ****     #endif /* #if (0u != CapSense_1_Proximity_WIDGET_EN) */
 965:Generated_Source\PSoC4/CapSense_1_Processing.c **** 
 966:Generated_Source\PSoC4/CapSense_1_Processing.c ****     default:
 967:Generated_Source\PSoC4/CapSense_1_Processing.c ****         CYASSERT(0u);
 968:Generated_Source\PSoC4/CapSense_1_Processing.c ****         break;
 969:Generated_Source\PSoC4/CapSense_1_Processing.c ****     }
 970:Generated_Source\PSoC4/CapSense_1_Processing.c **** 
 971:Generated_Source\PSoC4/CapSense_1_Processing.c ****     /* Update sensor status in the data structure */
 972:Generated_Source\PSoC4/CapSense_1_Processing.c ****     CapSense_1_dsRam.snsStatus[wdgtId] = (CapSense_1_SNS_STS_TYPE)sensorStatus;
 973:Generated_Source\PSoC4/CapSense_1_Processing.c **** 
 974:Generated_Source\PSoC4/CapSense_1_Processing.c ****     /* The next two lines calculate index and bitmask of the widget status bit in the wdgtStatus ar
 975:Generated_Source\PSoC4/CapSense_1_Processing.c ****     wdStatusIndex = CapSense_1_GET_WDGT_STATUS_INDEX(wdgtId);
 976:Generated_Source\PSoC4/CapSense_1_Processing.c ****     wdStatusMask = CapSense_1_GET_WDGT_STATUS_MASK(wdgtId);
 977:Generated_Source\PSoC4/CapSense_1_Processing.c **** 
 978:Generated_Source\PSoC4/CapSense_1_Processing.c ****     /* Check if there are active sensors and update widget status accordingly */
 979:Generated_Source\PSoC4/CapSense_1_Processing.c ****     if (0u == sensorStatus)
 980:Generated_Source\PSoC4/CapSense_1_Processing.c ****     {
 981:Generated_Source\PSoC4/CapSense_1_Processing.c ****         CapSense_1_dsRam.wdgtStatus[wdStatusIndex] &= ~wdStatusMask;
 982:Generated_Source\PSoC4/CapSense_1_Processing.c ****     }
 983:Generated_Source\PSoC4/CapSense_1_Processing.c ****     else
 984:Generated_Source\PSoC4/CapSense_1_Processing.c ****     {
 985:Generated_Source\PSoC4/CapSense_1_Processing.c ****         CapSense_1_dsRam.wdgtStatus[wdStatusIndex] |= wdStatusMask;
 986:Generated_Source\PSoC4/CapSense_1_Processing.c ****     }
 987:Generated_Source\PSoC4/CapSense_1_Processing.c **** }
 988:Generated_Source\PSoC4/CapSense_1_Processing.c **** #endif /* #if CapSense_1_TOTAL_ISX_WIDGETS */
 989:Generated_Source\PSoC4/CapSense_1_Processing.c **** 
 990:Generated_Source\PSoC4/CapSense_1_Processing.c **** #if (0u != CapSense_1_TOTAL_CSD_WIDGETS)
 991:Generated_Source\PSoC4/CapSense_1_Processing.c **** /*******************************************************************************
 992:Generated_Source\PSoC4/CapSense_1_Processing.c **** * Function Name: CapSense_1_DpProcessCsdWidgetRawCounts
 993:Generated_Source\PSoC4/CapSense_1_Processing.c **** ****************************************************************************//**
 994:Generated_Source\PSoC4/CapSense_1_Processing.c **** *
 995:Generated_Source\PSoC4/CapSense_1_Processing.c **** * \brief
 996:Generated_Source\PSoC4/CapSense_1_Processing.c **** *   Performs default processing for the CSD widget raw counts.
 997:Generated_Source\PSoC4/CapSense_1_Processing.c **** *
 998:Generated_Source\PSoC4/CapSense_1_Processing.c **** * \details
 999:Generated_Source\PSoC4/CapSense_1_Processing.c **** *   Performs default processing for the CSD widget raw counts:
1000:Generated_Source\PSoC4/CapSense_1_Processing.c **** *    - Run Filters
1001:Generated_Source\PSoC4/CapSense_1_Processing.c **** *    - Update Thresholds (FW Auto-tuning)
1002:Generated_Source\PSoC4/CapSense_1_Processing.c **** *    - Update Baselines
1003:Generated_Source\PSoC4/CapSense_1_Processing.c **** *    - Update Differences.
1004:Generated_Source\PSoC4/CapSense_1_Processing.c **** *   The process is applied to all widget's sensors.
1005:Generated_Source\PSoC4/CapSense_1_Processing.c **** *
1006:Generated_Source\PSoC4/CapSense_1_Processing.c **** * \param ptrFlashWdgt The pointer to the Flash Widget Object.
1007:Generated_Source\PSoC4/CapSense_1_Processing.c **** *
1008:Generated_Source\PSoC4/CapSense_1_Processing.c **** * \return
ARM GAS  C:\Users\MICHAE~1.MAC\AppData\Local\Temp\cc682toO.s 			page 21


1009:Generated_Source\PSoC4/CapSense_1_Processing.c **** *  Returns the status of the specified widget processing operation:
1010:Generated_Source\PSoC4/CapSense_1_Processing.c **** *  - CYRET_SUCCESS if operation was successfully completed;
1011:Generated_Source\PSoC4/CapSense_1_Processing.c **** *  - CapSense_1_PROCESS_BASELINE_FAILED if baseline processing of any
1012:Generated_Source\PSoC4/CapSense_1_Processing.c **** *    sensor of the specified widget failed. The result is concatenated with the index
1013:Generated_Source\PSoC4/CapSense_1_Processing.c **** *    of failed sensor.
1014:Generated_Source\PSoC4/CapSense_1_Processing.c **** *
1015:Generated_Source\PSoC4/CapSense_1_Processing.c **** *******************************************************************************/
1016:Generated_Source\PSoC4/CapSense_1_Processing.c **** uint32 CapSense_1_DpProcessCsdWidgetRawCounts(CapSense_1_FLASH_WD_STRUCT const *ptrFlashWdgt)
1017:Generated_Source\PSoC4/CapSense_1_Processing.c **** {
1018:Generated_Source\PSoC4/CapSense_1_Processing.c ****     uint32  result = CYRET_SUCCESS;
1019:Generated_Source\PSoC4/CapSense_1_Processing.c **** 
1020:Generated_Source\PSoC4/CapSense_1_Processing.c ****     #if (CapSense_1_ENABLE == CapSense_1_TST_BSLN_DUPLICATION_EN)
1021:Generated_Source\PSoC4/CapSense_1_Processing.c ****         uint32 bslnTstResult = CYRET_SUCCESS;
1022:Generated_Source\PSoC4/CapSense_1_Processing.c ****     #endif /* (CapSense_1_ENABLE == CapSense_1_TST_BSLN_DUPLICATION_EN) */
1023:Generated_Source\PSoC4/CapSense_1_Processing.c **** 
1024:Generated_Source\PSoC4/CapSense_1_Processing.c ****     uint32  widgetType;
1025:Generated_Source\PSoC4/CapSense_1_Processing.c ****     uint32  snsId;
1026:Generated_Source\PSoC4/CapSense_1_Processing.c ****     CapSense_1_RAM_SNS_STRUCT *ptrSnsTmp;
1027:Generated_Source\PSoC4/CapSense_1_Processing.c ****     CapSense_1_RAM_WD_BASE_STRUCT *ptrRamWdgt;
1028:Generated_Source\PSoC4/CapSense_1_Processing.c **** 
1029:Generated_Source\PSoC4/CapSense_1_Processing.c ****     #if (0u != (CapSense_1_CSD_AUTOTUNE & CapSense_1_CSD_SS_TH_EN))
1030:Generated_Source\PSoC4/CapSense_1_Processing.c ****         /* The noise envelope data is available only when Full CSD Auto-Tuning is enabled */
1031:Generated_Source\PSoC4/CapSense_1_Processing.c ****         SMARTSENSE_CSD_NOISE_ENVELOPE_STRUCT *ptrNoiseEnvelope;
1032:Generated_Source\PSoC4/CapSense_1_Processing.c ****         #if (CapSense_1_ENABLE == CapSense_1_PROXIMITY_WIDGET_EN)
1033:Generated_Source\PSoC4/CapSense_1_Processing.c ****             uint32  proximityThreshold;
1034:Generated_Source\PSoC4/CapSense_1_Processing.c ****         #endif /* (0 != CapSense_1_PROXIMITY_WIDGET_EN) */
1035:Generated_Source\PSoC4/CapSense_1_Processing.c ****     #endif /* #if (0u != (CapSense_1_CSD_AUTOTUNE & CapSense_1_CSD_SS_TH_EN)) */
1036:Generated_Source\PSoC4/CapSense_1_Processing.c **** 
1037:Generated_Source\PSoC4/CapSense_1_Processing.c ****     #if (CapSense_1_ENABLE == CapSense_1_RC_FILTER_EN)
1038:Generated_Source\PSoC4/CapSense_1_Processing.c ****         CapSense_1_PTR_FILTER_VARIANT fltrHistV;
1039:Generated_Source\PSoC4/CapSense_1_Processing.c **** 
1040:Generated_Source\PSoC4/CapSense_1_Processing.c ****         /* Determine if widget type is proximity */
1041:Generated_Source\PSoC4/CapSense_1_Processing.c ****         uint32 isProxWdgt = (CapSense_1_GET_WIDGET_TYPE(ptrFlashWdgt) == CapSense_1_WD_PROXIMITY_E)
1042:Generated_Source\PSoC4/CapSense_1_Processing.c **** 
1043:Generated_Source\PSoC4/CapSense_1_Processing.c ****         /* Get pointer to the filter history object */
1044:Generated_Source\PSoC4/CapSense_1_Processing.c ****         fltrHistV.ptr = ptrFlashWdgt->ptr2FltrHistory;
1045:Generated_Source\PSoC4/CapSense_1_Processing.c ****     #endif /* #if (CapSense_1_ENABLE == CapSense_1_RC_FILTER_EN) */
1046:Generated_Source\PSoC4/CapSense_1_Processing.c **** 
1047:Generated_Source\PSoC4/CapSense_1_Processing.c ****     ptrSnsTmp = ptrFlashWdgt->ptr2SnsRam;
1048:Generated_Source\PSoC4/CapSense_1_Processing.c ****     ptrRamWdgt = (CapSense_1_RAM_WD_BASE_STRUCT *)ptrFlashWdgt->ptr2WdgtRam;
1049:Generated_Source\PSoC4/CapSense_1_Processing.c ****     widgetType = ptrFlashWdgt->wdgtType;
1050:Generated_Source\PSoC4/CapSense_1_Processing.c **** 
1051:Generated_Source\PSoC4/CapSense_1_Processing.c ****     #if (0u != (CapSense_1_CSD_AUTOTUNE & CapSense_1_CSD_SS_TH_EN))
1052:Generated_Source\PSoC4/CapSense_1_Processing.c ****         ptrNoiseEnvelope = ptrFlashWdgt->ptr2NoiseEnvlp;
1053:Generated_Source\PSoC4/CapSense_1_Processing.c ****     #endif /* #if (0u != (CapSense_1_CSD_AUTOTUNE & CapSense_1_CSD_SS_TH_EN)) */
1054:Generated_Source\PSoC4/CapSense_1_Processing.c **** 
1055:Generated_Source\PSoC4/CapSense_1_Processing.c ****     /* Iterate through all widget's sensors */
1056:Generated_Source\PSoC4/CapSense_1_Processing.c ****     for(snsId = 0u; snsId < ptrFlashWdgt->totalNumSns; snsId++)
1057:Generated_Source\PSoC4/CapSense_1_Processing.c ****     {
1058:Generated_Source\PSoC4/CapSense_1_Processing.c ****         /* Run all enabled filter on specified widget's sensor */
1059:Generated_Source\PSoC4/CapSense_1_Processing.c ****         #if (CapSense_1_ENABLE == CapSense_1_RC_FILTER_EN)
1060:Generated_Source\PSoC4/CapSense_1_Processing.c ****             CapSense_1_FtRunEnabledFiltersInternal(fltrHistV, ptrSnsTmp, widgetType);
1061:Generated_Source\PSoC4/CapSense_1_Processing.c ****             #if (CapSense_1_ALP_FILTER_EN)
1062:Generated_Source\PSoC4/CapSense_1_Processing.c ****                 CapSense_1_ConfigRunALPInternal(fltrHistV, ptrRamWdgt, ptrSnsTmp, widgetType);
1063:Generated_Source\PSoC4/CapSense_1_Processing.c ****             #endif
1064:Generated_Source\PSoC4/CapSense_1_Processing.c ****         #endif /* #if (CapSense_1_ENABLE == CapSense_1_RC_FILTER_EN) */
1065:Generated_Source\PSoC4/CapSense_1_Processing.c **** 
ARM GAS  C:\Users\MICHAE~1.MAC\AppData\Local\Temp\cc682toO.s 			page 22


1066:Generated_Source\PSoC4/CapSense_1_Processing.c ****         /* Run auto-tuning activities */
1067:Generated_Source\PSoC4/CapSense_1_Processing.c ****         #if (0u != (CapSense_1_CSD_AUTOTUNE & CapSense_1_CSD_SS_TH_EN))
1068:Generated_Source\PSoC4/CapSense_1_Processing.c ****             SmartSense_RunNoiseEnvelope(ptrSnsTmp->raw[0u], ptrRamWdgt->sigPFC, ptrNoiseEnvelope);
1069:Generated_Source\PSoC4/CapSense_1_Processing.c ****             CapSense_1_DpUpdateThresholds(ptrRamWdgt, ptrNoiseEnvelope, snsId);
1070:Generated_Source\PSoC4/CapSense_1_Processing.c **** 
1071:Generated_Source\PSoC4/CapSense_1_Processing.c ****             /* Calculate Proximity Touch Threshold in SmartSense mode based on Finger Threshold and
1072:Generated_Source\PSoC4/CapSense_1_Processing.c ****             #if (CapSense_1_ENABLE == CapSense_1_PROXIMITY_WIDGET_EN)
1073:Generated_Source\PSoC4/CapSense_1_Processing.c ****                 if (CapSense_1_WD_PROXIMITY_E == CapSense_1_GET_WIDGET_TYPE(ptrFlashWdgt))
1074:Generated_Source\PSoC4/CapSense_1_Processing.c ****                 {
1075:Generated_Source\PSoC4/CapSense_1_Processing.c ****                     proximityThreshold = ((uint32)ptrRamWdgt->fingerTh * CapSense_1_PROX_TOUCH_COEF
1076:Generated_Source\PSoC4/CapSense_1_Processing.c ****                     if ((((1Lu) << CapSense_1_THRESHOLD_SIZE) - 1u) < proximityThreshold)
1077:Generated_Source\PSoC4/CapSense_1_Processing.c ****                     {
1078:Generated_Source\PSoC4/CapSense_1_Processing.c ****                         proximityThreshold = ((1Lu) << CapSense_1_THRESHOLD_SIZE) - 1u;
1079:Generated_Source\PSoC4/CapSense_1_Processing.c ****                     }
1080:Generated_Source\PSoC4/CapSense_1_Processing.c ****                     ((CapSense_1_RAM_WD_PROXIMITY_STRUCT *)ptrFlashWdgt->ptr2WdgtRam)->proxTouchTh 
1081:Generated_Source\PSoC4/CapSense_1_Processing.c ****                         (CapSense_1_THRESHOLD_TYPE)proximityThreshold;
1082:Generated_Source\PSoC4/CapSense_1_Processing.c ****                 }
1083:Generated_Source\PSoC4/CapSense_1_Processing.c ****             #endif /* (0 != CapSense_1_PROXIMITY_WIDGET_EN) */
1084:Generated_Source\PSoC4/CapSense_1_Processing.c **** 
1085:Generated_Source\PSoC4/CapSense_1_Processing.c ****             /* Move to next noise-envelope object */
1086:Generated_Source\PSoC4/CapSense_1_Processing.c ****             ptrNoiseEnvelope++;
1087:Generated_Source\PSoC4/CapSense_1_Processing.c ****         #endif /* (0u != (CapSense_1_CSD_AUTOTUNE & CapSense_1_CSD_SS_TH_EN)) */
1088:Generated_Source\PSoC4/CapSense_1_Processing.c **** 
1089:Generated_Source\PSoC4/CapSense_1_Processing.c ****         #if (CapSense_1_ENABLE == CapSense_1_TST_BSLN_DUPLICATION_EN)
1090:Generated_Source\PSoC4/CapSense_1_Processing.c ****             bslnTstResult = CapSense_1_FtUpdateBaseline(ptrRamWdgt, ptrSnsTmp, widgetType);
1091:Generated_Source\PSoC4/CapSense_1_Processing.c ****             if ((CYRET_SUCCESS != bslnTstResult) && (CYRET_SUCCESS == result))
1092:Generated_Source\PSoC4/CapSense_1_Processing.c ****             {
1093:Generated_Source\PSoC4/CapSense_1_Processing.c ****                 result = snsId | CapSense_1_PROCESS_BASELINE_FAILED;
1094:Generated_Source\PSoC4/CapSense_1_Processing.c ****             }
1095:Generated_Source\PSoC4/CapSense_1_Processing.c ****         #else /* (CapSense_1_ENABLE == CapSense_1_TST_BSLN_DUPLICATION_EN) */
1096:Generated_Source\PSoC4/CapSense_1_Processing.c ****             result = CapSense_1_FtUpdateBaseline(ptrRamWdgt, ptrSnsTmp, widgetType);
1097:Generated_Source\PSoC4/CapSense_1_Processing.c ****         #endif /* (CapSense_1_ENABLE == CapSense_1_TST_BSLN_DUPLICATION_EN) */
1098:Generated_Source\PSoC4/CapSense_1_Processing.c **** 
1099:Generated_Source\PSoC4/CapSense_1_Processing.c ****         CapSense_1_DpUpdateDifferences(ptrRamWdgt, ptrSnsTmp);
1100:Generated_Source\PSoC4/CapSense_1_Processing.c **** 
1101:Generated_Source\PSoC4/CapSense_1_Processing.c ****         /* Move to next sensor object */
1102:Generated_Source\PSoC4/CapSense_1_Processing.c ****         ptrSnsTmp++;
1103:Generated_Source\PSoC4/CapSense_1_Processing.c **** 
1104:Generated_Source\PSoC4/CapSense_1_Processing.c ****         #if (CapSense_1_ENABLE == CapSense_1_RC_FILTER_EN)
1105:Generated_Source\PSoC4/CapSense_1_Processing.c ****             /* Move to the next filter history object */
1106:Generated_Source\PSoC4/CapSense_1_Processing.c ****             CapSense_1_INC_FLTR_OBJ_VARIANT(isProxWdgt, fltrHistV);
1107:Generated_Source\PSoC4/CapSense_1_Processing.c ****         #endif /* #if (CapSense_1_ENABLE == CapSense_1_RC_FILTER_EN) */
1108:Generated_Source\PSoC4/CapSense_1_Processing.c ****     }
1109:Generated_Source\PSoC4/CapSense_1_Processing.c ****     return result;
1110:Generated_Source\PSoC4/CapSense_1_Processing.c **** }
1111:Generated_Source\PSoC4/CapSense_1_Processing.c **** 
1112:Generated_Source\PSoC4/CapSense_1_Processing.c **** 
1113:Generated_Source\PSoC4/CapSense_1_Processing.c **** /*******************************************************************************
1114:Generated_Source\PSoC4/CapSense_1_Processing.c **** * Function Name: CapSense_1_DpProcessCsdSensorRawCountsExt
1115:Generated_Source\PSoC4/CapSense_1_Processing.c **** ****************************************************************************//**
1116:Generated_Source\PSoC4/CapSense_1_Processing.c **** *
1117:Generated_Source\PSoC4/CapSense_1_Processing.c **** * \brief
1118:Generated_Source\PSoC4/CapSense_1_Processing.c **** *   Performs customized processing of the CSD sensor raw counts.
1119:Generated_Source\PSoC4/CapSense_1_Processing.c **** *
1120:Generated_Source\PSoC4/CapSense_1_Processing.c **** * \details
1121:Generated_Source\PSoC4/CapSense_1_Processing.c **** *   Performs customized processing of the CSD sensor raw counts.
1122:Generated_Source\PSoC4/CapSense_1_Processing.c **** *
ARM GAS  C:\Users\MICHAE~1.MAC\AppData\Local\Temp\cc682toO.s 			page 23


1123:Generated_Source\PSoC4/CapSense_1_Processing.c **** *   Note that this API updates data associated only with the sensor. It cannot be used to update
1124:Generated_Source\PSoC4/CapSense_1_Processing.c **** *   widget status.
1125:Generated_Source\PSoC4/CapSense_1_Processing.c **** *
1126:Generated_Source\PSoC4/CapSense_1_Processing.c **** * \param ptrFlashWdgt The pointer to the Flash widget structure.
1127:Generated_Source\PSoC4/CapSense_1_Processing.c **** * \param curSnsPtr    The pointer to the sensor object in RAM.
1128:Generated_Source\PSoC4/CapSense_1_Processing.c **** * \param fltrHistV    The pointer to the Filter History Object in RAM.
1129:Generated_Source\PSoC4/CapSense_1_Processing.c **** * \param mode         The bit-mask with the data processing tasks to be executed.
1130:Generated_Source\PSoC4/CapSense_1_Processing.c **** *   The mode parameters can take the following values:
1131:Generated_Source\PSoC4/CapSense_1_Processing.c **** *    - CapSense_1_PROCESS_FILTER     (0x01) Run Firmware Filter
1132:Generated_Source\PSoC4/CapSense_1_Processing.c **** *    - CapSense_1_PROCESS_BASELINE   (0x02) Update Baselines
1133:Generated_Source\PSoC4/CapSense_1_Processing.c **** *    - CapSense_1_PROCESS_DIFFCOUNTS (0x04) Update Difference Counts
1134:Generated_Source\PSoC4/CapSense_1_Processing.c **** *    - CapSense_1_PROCESS_CALC_NOISE (0x08) Calculate Noise (only if FW Tuning is enabled)
1135:Generated_Source\PSoC4/CapSense_1_Processing.c **** *    - CapSense_1_PROCESS_THRESHOLDS (0x10) Update Thresholds (only if FW Tuning is enabled)
1136:Generated_Source\PSoC4/CapSense_1_Processing.c **** *    - CapSense_1_PROCESS_ALL               Execute all tasks
1137:Generated_Source\PSoC4/CapSense_1_Processing.c **** *
1138:Generated_Source\PSoC4/CapSense_1_Processing.c **** * \return
1139:Generated_Source\PSoC4/CapSense_1_Processing.c **** *  Returns the status of the specified sensor processing operation:
1140:Generated_Source\PSoC4/CapSense_1_Processing.c **** *  - CYRET_SUCCESS if operation was successfully completed.
1141:Generated_Source\PSoC4/CapSense_1_Processing.c **** *  - CapSense_1_PROCESS_BASELINE_FAILED if baseline processing of any
1142:Generated_Source\PSoC4/CapSense_1_Processing.c **** *    sensor of the specified widget failed. The result is concatenated with the index
1143:Generated_Source\PSoC4/CapSense_1_Processing.c **** *    of failed sensor.
1144:Generated_Source\PSoC4/CapSense_1_Processing.c **** *
1145:Generated_Source\PSoC4/CapSense_1_Processing.c **** *******************************************************************************/
1146:Generated_Source\PSoC4/CapSense_1_Processing.c **** uint32 CapSense_1_DpProcessCsdSensorRawCountsExt(
1147:Generated_Source\PSoC4/CapSense_1_Processing.c ****                 CapSense_1_FLASH_WD_STRUCT const *ptrFlashWdgt,
1148:Generated_Source\PSoC4/CapSense_1_Processing.c ****                 CapSense_1_RAM_SNS_STRUCT *curSnsPtr,
1149:Generated_Source\PSoC4/CapSense_1_Processing.c ****                 CapSense_1_PTR_FILTER_VARIANT fltrHistV,
1150:Generated_Source\PSoC4/CapSense_1_Processing.c ****                  uint32 mode)
1151:Generated_Source\PSoC4/CapSense_1_Processing.c **** {
1152:Generated_Source\PSoC4/CapSense_1_Processing.c ****     uint32 result = CYRET_SUCCESS;
1153:Generated_Source\PSoC4/CapSense_1_Processing.c ****     uint32  widgetType;
1154:Generated_Source\PSoC4/CapSense_1_Processing.c ****     CapSense_1_RAM_WD_BASE_STRUCT *ptrRamWdgt;
1155:Generated_Source\PSoC4/CapSense_1_Processing.c **** 
1156:Generated_Source\PSoC4/CapSense_1_Processing.c ****     #if (0u != (CapSense_1_CSD_AUTOTUNE & CapSense_1_CSD_SS_TH_EN))
1157:Generated_Source\PSoC4/CapSense_1_Processing.c ****         SMARTSENSE_CSD_NOISE_ENVELOPE_STRUCT *ptrNoiseEnvelope;
1158:Generated_Source\PSoC4/CapSense_1_Processing.c ****         #if (CapSense_1_ENABLE == CapSense_1_PROXIMITY_WIDGET_EN)
1159:Generated_Source\PSoC4/CapSense_1_Processing.c ****             uint32  proximityThreshold;
1160:Generated_Source\PSoC4/CapSense_1_Processing.c ****         #endif /* (0 != CapSense_1_PROXIMITY_WIDGET_EN) */
1161:Generated_Source\PSoC4/CapSense_1_Processing.c **** 
1162:Generated_Source\PSoC4/CapSense_1_Processing.c ****         /* Need to specify pointer to corresponding sensor's noise-envelope object.*/
1163:Generated_Source\PSoC4/CapSense_1_Processing.c ****         ptrNoiseEnvelope = ptrFlashWdgt->ptr2NoiseEnvlp;
1164:Generated_Source\PSoC4/CapSense_1_Processing.c ****     #endif /* (0u != (CapSense_1_CSD_AUTOTUNE & CapSense_1_CSD_SS_TH_EN)) */
1165:Generated_Source\PSoC4/CapSense_1_Processing.c **** 
1166:Generated_Source\PSoC4/CapSense_1_Processing.c ****     widgetType = ptrFlashWdgt->wdgtType;
1167:Generated_Source\PSoC4/CapSense_1_Processing.c ****     ptrRamWdgt = (CapSense_1_RAM_WD_BASE_STRUCT *)ptrFlashWdgt->ptr2WdgtRam;
1168:Generated_Source\PSoC4/CapSense_1_Processing.c **** 
1169:Generated_Source\PSoC4/CapSense_1_Processing.c ****     #if (CapSense_1_ENABLE == CapSense_1_RC_FILTER_EN)
1170:Generated_Source\PSoC4/CapSense_1_Processing.c ****         if (0u != (mode & CapSense_1_PROCESS_FILTER))
1171:Generated_Source\PSoC4/CapSense_1_Processing.c ****         {
1172:Generated_Source\PSoC4/CapSense_1_Processing.c ****             CapSense_1_FtRunEnabledFiltersInternal(fltrHistV, curSnsPtr, widgetType);
1173:Generated_Source\PSoC4/CapSense_1_Processing.c ****             #if (CapSense_1_ALP_FILTER_EN)
1174:Generated_Source\PSoC4/CapSense_1_Processing.c ****                 CapSense_1_ConfigRunALPInternal(fltrHistV, ptrRamWdgt, curSnsPtr, widgetType);
1175:Generated_Source\PSoC4/CapSense_1_Processing.c ****             #endif
1176:Generated_Source\PSoC4/CapSense_1_Processing.c ****         }
1177:Generated_Source\PSoC4/CapSense_1_Processing.c ****     #else
1178:Generated_Source\PSoC4/CapSense_1_Processing.c ****         (void)fltrHistV; /* This parameter is unused in such configurations */
1179:Generated_Source\PSoC4/CapSense_1_Processing.c ****     #endif /* #if (CapSense_1_ENABLE == CapSense_1_RC_FILTER_EN) */
ARM GAS  C:\Users\MICHAE~1.MAC\AppData\Local\Temp\cc682toO.s 			page 24


1180:Generated_Source\PSoC4/CapSense_1_Processing.c **** 
1181:Generated_Source\PSoC4/CapSense_1_Processing.c ****     #if (0u != (CapSense_1_CSD_AUTOTUNE & CapSense_1_CSD_SS_TH_EN))
1182:Generated_Source\PSoC4/CapSense_1_Processing.c ****         if (0u != (mode & CapSense_1_PROCESS_CALC_NOISE))
1183:Generated_Source\PSoC4/CapSense_1_Processing.c ****         {
1184:Generated_Source\PSoC4/CapSense_1_Processing.c ****             SmartSense_RunNoiseEnvelope(curSnsPtr->raw[0u], ptrRamWdgt->sigPFC, ptrNoiseEnvelope);
1185:Generated_Source\PSoC4/CapSense_1_Processing.c ****         }
1186:Generated_Source\PSoC4/CapSense_1_Processing.c **** 
1187:Generated_Source\PSoC4/CapSense_1_Processing.c ****         if (0u != (mode & CapSense_1_PROCESS_THRESHOLDS))
1188:Generated_Source\PSoC4/CapSense_1_Processing.c ****         {
1189:Generated_Source\PSoC4/CapSense_1_Processing.c ****             CapSense_1_DpUpdateThresholds(ptrRamWdgt, ptrNoiseEnvelope, 0u);
1190:Generated_Source\PSoC4/CapSense_1_Processing.c **** 
1191:Generated_Source\PSoC4/CapSense_1_Processing.c ****             /* Calculate Proximity Touch Threshold in SmartSense mode based on Finger Threshold and
1192:Generated_Source\PSoC4/CapSense_1_Processing.c ****             #if (CapSense_1_ENABLE == CapSense_1_PROXIMITY_WIDGET_EN)
1193:Generated_Source\PSoC4/CapSense_1_Processing.c ****                 if (CapSense_1_WD_PROXIMITY_E == CapSense_1_GET_WIDGET_TYPE(ptrFlashWdgt))
1194:Generated_Source\PSoC4/CapSense_1_Processing.c ****                 {
1195:Generated_Source\PSoC4/CapSense_1_Processing.c ****                     proximityThreshold = ((uint32)ptrRamWdgt->fingerTh * CapSense_1_PROX_TOUCH_COEF
1196:Generated_Source\PSoC4/CapSense_1_Processing.c ****                     if ((((1Lu) << CapSense_1_THRESHOLD_SIZE) - 1u) < proximityThreshold)
1197:Generated_Source\PSoC4/CapSense_1_Processing.c ****                     {
1198:Generated_Source\PSoC4/CapSense_1_Processing.c ****                         proximityThreshold = ((1Lu) << CapSense_1_THRESHOLD_SIZE) - 1u;
1199:Generated_Source\PSoC4/CapSense_1_Processing.c ****                     }
1200:Generated_Source\PSoC4/CapSense_1_Processing.c ****                     ((CapSense_1_RAM_WD_PROXIMITY_STRUCT *)ptrFlashWdgt->ptr2WdgtRam)->proxTouchTh 
1201:Generated_Source\PSoC4/CapSense_1_Processing.c ****                         (CapSense_1_THRESHOLD_TYPE)proximityThreshold;
1202:Generated_Source\PSoC4/CapSense_1_Processing.c ****                 }
1203:Generated_Source\PSoC4/CapSense_1_Processing.c ****             #endif /* (0 != CapSense_1_PROXIMITY_WIDGET_EN) */
1204:Generated_Source\PSoC4/CapSense_1_Processing.c ****         }
1205:Generated_Source\PSoC4/CapSense_1_Processing.c ****     #endif /* #if (0u != (CapSense_1_CSD_AUTOTUNE & CapSense_1_CSD_SS_TH_EN)) */
1206:Generated_Source\PSoC4/CapSense_1_Processing.c **** 
1207:Generated_Source\PSoC4/CapSense_1_Processing.c ****     if (0u != (mode & CapSense_1_PROCESS_BASELINE))
1208:Generated_Source\PSoC4/CapSense_1_Processing.c ****     {
1209:Generated_Source\PSoC4/CapSense_1_Processing.c ****         result = CapSense_1_FtUpdateBaseline(ptrRamWdgt, curSnsPtr, widgetType);
1210:Generated_Source\PSoC4/CapSense_1_Processing.c ****     }
1211:Generated_Source\PSoC4/CapSense_1_Processing.c **** 
1212:Generated_Source\PSoC4/CapSense_1_Processing.c ****     if (0u != (mode & CapSense_1_PROCESS_DIFFCOUNTS))
1213:Generated_Source\PSoC4/CapSense_1_Processing.c ****     {
1214:Generated_Source\PSoC4/CapSense_1_Processing.c ****         CapSense_1_DpUpdateDifferences(ptrRamWdgt, curSnsPtr);
1215:Generated_Source\PSoC4/CapSense_1_Processing.c ****     }
1216:Generated_Source\PSoC4/CapSense_1_Processing.c ****     return result;
1217:Generated_Source\PSoC4/CapSense_1_Processing.c **** }
1218:Generated_Source\PSoC4/CapSense_1_Processing.c **** 
1219:Generated_Source\PSoC4/CapSense_1_Processing.c **** /*******************************************************************************
1220:Generated_Source\PSoC4/CapSense_1_Processing.c **** * Function Name: CapSense_1_DpProcessCsdWidgetStatus
1221:Generated_Source\PSoC4/CapSense_1_Processing.c **** ****************************************************************************//**
1222:Generated_Source\PSoC4/CapSense_1_Processing.c **** *
1223:Generated_Source\PSoC4/CapSense_1_Processing.c **** * \brief
1224:Generated_Source\PSoC4/CapSense_1_Processing.c **** *  Runs the status processing of the CSD widget and updates it in the Data Structure.
1225:Generated_Source\PSoC4/CapSense_1_Processing.c **** *
1226:Generated_Source\PSoC4/CapSense_1_Processing.c **** * \details
1227:Generated_Source\PSoC4/CapSense_1_Processing.c **** *  This API determines the widget type and calls the appropriate low-level processing
1228:Generated_Source\PSoC4/CapSense_1_Processing.c **** *  function. Based on the returned results it updates the widget and sensor
1229:Generated_Source\PSoC4/CapSense_1_Processing.c **** *  status in the data structure. Any widget specific registers like the centroid
1230:Generated_Source\PSoC4/CapSense_1_Processing.c **** *  position are updated directly in the low-level processing function.
1231:Generated_Source\PSoC4/CapSense_1_Processing.c **** *
1232:Generated_Source\PSoC4/CapSense_1_Processing.c **** *  When the widget-specific processing completes this API updates the snsStatus
1233:Generated_Source\PSoC4/CapSense_1_Processing.c **** *  and wdgtStatus registers in the data structure. The wdgtStatus register
1234:Generated_Source\PSoC4/CapSense_1_Processing.c **** *  is a bitmask were each bit corresponds to the specific widget identified by
1235:Generated_Source\PSoC4/CapSense_1_Processing.c **** *  the widget index. When the bit is set the widget is active (touched);
1236:Generated_Source\PSoC4/CapSense_1_Processing.c **** *
ARM GAS  C:\Users\MICHAE~1.MAC\AppData\Local\Temp\cc682toO.s 			page 25


1237:Generated_Source\PSoC4/CapSense_1_Processing.c **** *  The snsStatus register for CSD widgets contains status of each widget sensor
1238:Generated_Source\PSoC4/CapSense_1_Processing.c **** *  (active/non-active). Each bit corresponds to one sensor. In case of the
1239:Generated_Source\PSoC4/CapSense_1_Processing.c **** *  Proximity widget two bits are used per sensor: one for proximity status and
1240:Generated_Source\PSoC4/CapSense_1_Processing.c **** *  second for the touch status.
1241:Generated_Source\PSoC4/CapSense_1_Processing.c **** *
1242:Generated_Source\PSoC4/CapSense_1_Processing.c **** * \param widgetId      The widget index number.
1243:Generated_Source\PSoC4/CapSense_1_Processing.c **** * \param ptrFlashWdgt  The pointer to the Flash widget structure.
1244:Generated_Source\PSoC4/CapSense_1_Processing.c **** *
1245:Generated_Source\PSoC4/CapSense_1_Processing.c **** *******************************************************************************/
1246:Generated_Source\PSoC4/CapSense_1_Processing.c **** void CapSense_1_DpProcessCsdWidgetStatus(uint32 widgetId, CapSense_1_FLASH_WD_STRUCT const *ptrFlas
1247:Generated_Source\PSoC4/CapSense_1_Processing.c **** {
1248:Generated_Source\PSoC4/CapSense_1_Processing.c ****     uint32 sensorStatus;
1249:Generated_Source\PSoC4/CapSense_1_Processing.c ****     uint32 wdStatusIndex;
1250:Generated_Source\PSoC4/CapSense_1_Processing.c ****     uint32 wdStatusMask;
1251:Generated_Source\PSoC4/CapSense_1_Processing.c ****     CapSense_1_WD_TYPE_ENUM widgetType;
1252:Generated_Source\PSoC4/CapSense_1_Processing.c **** 
1253:Generated_Source\PSoC4/CapSense_1_Processing.c ****     widgetType = (CapSense_1_WD_TYPE_ENUM)ptrFlashWdgt->wdgtType;
1254:Generated_Source\PSoC4/CapSense_1_Processing.c ****     sensorStatus = CapSense_1_dsRam.snsStatus[widgetId];
1255:Generated_Source\PSoC4/CapSense_1_Processing.c **** 
1256:Generated_Source\PSoC4/CapSense_1_Processing.c ****     switch (widgetType)
1257:Generated_Source\PSoC4/CapSense_1_Processing.c ****     {
1258:Generated_Source\PSoC4/CapSense_1_Processing.c ****     #if (0u != CapSense_1_BUTTON_WIDGET_EN)
1259:Generated_Source\PSoC4/CapSense_1_Processing.c ****         case CapSense_1_WD_BUTTON_E:
1260:Generated_Source\PSoC4/CapSense_1_Processing.c ****             sensorStatus = CapSense_1_DpProcessButton(sensorStatus, ptrFlashWdgt);
1261:Generated_Source\PSoC4/CapSense_1_Processing.c ****             break;
1262:Generated_Source\PSoC4/CapSense_1_Processing.c ****     #endif /* #if (0u != CapSense_1_BUTTON_WIDGET_EN) */
1263:Generated_Source\PSoC4/CapSense_1_Processing.c **** 
1264:Generated_Source\PSoC4/CapSense_1_Processing.c ****     #if (0u != CapSense_1_SLIDER_WIDGET_EN)
1265:Generated_Source\PSoC4/CapSense_1_Processing.c ****         case CapSense_1_WD_LINEAR_SLIDER_E:
1266:Generated_Source\PSoC4/CapSense_1_Processing.c ****         case CapSense_1_WD_RADIAL_SLIDER_E:
1267:Generated_Source\PSoC4/CapSense_1_Processing.c ****             sensorStatus = CapSense_1_DpProcessSlider(sensorStatus, ptrFlashWdgt);
1268:Generated_Source\PSoC4/CapSense_1_Processing.c ****             break;
1269:Generated_Source\PSoC4/CapSense_1_Processing.c ****     #endif /* #if (0u != CapSense_1_SLIDER_WIDGET_EN) */
1270:Generated_Source\PSoC4/CapSense_1_Processing.c **** 
1271:Generated_Source\PSoC4/CapSense_1_Processing.c ****     #if (0u != CapSense_1_CSD_MATRIX_WIDGET_EN)
1272:Generated_Source\PSoC4/CapSense_1_Processing.c ****         case CapSense_1_WD_MATRIX_BUTTON_E:
1273:Generated_Source\PSoC4/CapSense_1_Processing.c ****             sensorStatus = CapSense_1_DpProcessCsdMatrix(sensorStatus, ptrFlashWdgt);
1274:Generated_Source\PSoC4/CapSense_1_Processing.c ****             break;
1275:Generated_Source\PSoC4/CapSense_1_Processing.c ****     #endif /* #if (0u != CapSense_1_CSD_MATRIX_WIDGET_EN) */
1276:Generated_Source\PSoC4/CapSense_1_Processing.c **** 
1277:Generated_Source\PSoC4/CapSense_1_Processing.c ****     #if (0u != CapSense_1_CSD_TOUCHPAD_WIDGET_EN)
1278:Generated_Source\PSoC4/CapSense_1_Processing.c ****         case CapSense_1_WD_TOUCHPAD_E:
1279:Generated_Source\PSoC4/CapSense_1_Processing.c ****             sensorStatus = CapSense_1_DpProcessCsdTouchpad(sensorStatus, ptrFlashWdgt);
1280:Generated_Source\PSoC4/CapSense_1_Processing.c ****             #if (0u != CapSense_1_BALLISTIC_MULTIPLIER_EN)
1281:Generated_Source\PSoC4/CapSense_1_Processing.c ****                 CapSense_1_RunBallisticMultiplier(widgetId);
1282:Generated_Source\PSoC4/CapSense_1_Processing.c ****             #endif /* (0u != CapSense_1_BALLISTIC_MULTIPLIER_EN) */
1283:Generated_Source\PSoC4/CapSense_1_Processing.c ****             break;
1284:Generated_Source\PSoC4/CapSense_1_Processing.c ****     #endif /* #if (0u != CapSense_1_CSD_TOUCHPAD_WIDGET_EN) */
1285:Generated_Source\PSoC4/CapSense_1_Processing.c **** 
1286:Generated_Source\PSoC4/CapSense_1_Processing.c ****     #if (0u != CapSense_1_PROXIMITY_WIDGET_EN)
1287:Generated_Source\PSoC4/CapSense_1_Processing.c ****         case CapSense_1_WD_PROXIMITY_E:
1288:Generated_Source\PSoC4/CapSense_1_Processing.c ****             sensorStatus = CapSense_1_DpProcessProximity(sensorStatus, ptrFlashWdgt);
1289:Generated_Source\PSoC4/CapSense_1_Processing.c ****             break;
1290:Generated_Source\PSoC4/CapSense_1_Processing.c ****     #endif /* #if (0u != CapSense_1_PROXIMITY_WIDGET_EN) */
1291:Generated_Source\PSoC4/CapSense_1_Processing.c **** 
1292:Generated_Source\PSoC4/CapSense_1_Processing.c ****     default:
1293:Generated_Source\PSoC4/CapSense_1_Processing.c ****         CYASSERT(0u);
ARM GAS  C:\Users\MICHAE~1.MAC\AppData\Local\Temp\cc682toO.s 			page 26


1294:Generated_Source\PSoC4/CapSense_1_Processing.c ****         break;
1295:Generated_Source\PSoC4/CapSense_1_Processing.c ****     }
1296:Generated_Source\PSoC4/CapSense_1_Processing.c **** 
1297:Generated_Source\PSoC4/CapSense_1_Processing.c ****     CapSense_1_dsRam.snsStatus[widgetId] = (CapSense_1_SNS_STS_TYPE)sensorStatus;
1298:Generated_Source\PSoC4/CapSense_1_Processing.c **** 
1299:Generated_Source\PSoC4/CapSense_1_Processing.c ****     /* The next two lines calculate index and bitmask of the widget status bit in the wdgtStatus ar
1300:Generated_Source\PSoC4/CapSense_1_Processing.c ****     wdStatusIndex = CapSense_1_GET_WDGT_STATUS_INDEX(widgetId);
1301:Generated_Source\PSoC4/CapSense_1_Processing.c ****     wdStatusMask = CapSense_1_GET_WDGT_STATUS_MASK(widgetId);
1302:Generated_Source\PSoC4/CapSense_1_Processing.c **** 
1303:Generated_Source\PSoC4/CapSense_1_Processing.c ****     /* Check if there are active sensors and update widget status accordingly */
1304:Generated_Source\PSoC4/CapSense_1_Processing.c ****     if (0u == sensorStatus)
1305:Generated_Source\PSoC4/CapSense_1_Processing.c ****     {
1306:Generated_Source\PSoC4/CapSense_1_Processing.c ****         CapSense_1_dsRam.wdgtStatus[wdStatusIndex] &= ~wdStatusMask;
1307:Generated_Source\PSoC4/CapSense_1_Processing.c ****     }
1308:Generated_Source\PSoC4/CapSense_1_Processing.c ****     else
1309:Generated_Source\PSoC4/CapSense_1_Processing.c ****     {
1310:Generated_Source\PSoC4/CapSense_1_Processing.c ****         CapSense_1_dsRam.wdgtStatus[wdStatusIndex] |= wdStatusMask;
1311:Generated_Source\PSoC4/CapSense_1_Processing.c ****     }
1312:Generated_Source\PSoC4/CapSense_1_Processing.c **** }
1313:Generated_Source\PSoC4/CapSense_1_Processing.c **** #endif /* #if (0u != CapSense_1_TOTAL_CSD_WIDGETS) */
1314:Generated_Source\PSoC4/CapSense_1_Processing.c **** 
1315:Generated_Source\PSoC4/CapSense_1_Processing.c **** 
1316:Generated_Source\PSoC4/CapSense_1_Processing.c **** #if (0 != (CapSense_1_CSD_AUTOTUNE & CapSense_1_CSD_SS_TH_EN))
1317:Generated_Source\PSoC4/CapSense_1_Processing.c **** /*******************************************************************************
1318:Generated_Source\PSoC4/CapSense_1_Processing.c **** * Function Name: CapSense_1_DpUpdateThresholds
1319:Generated_Source\PSoC4/CapSense_1_Processing.c **** ****************************************************************************//**
1320:Generated_Source\PSoC4/CapSense_1_Processing.c **** *
1321:Generated_Source\PSoC4/CapSense_1_Processing.c **** * \brief
1322:Generated_Source\PSoC4/CapSense_1_Processing.c **** *   Updates noise and finger thresholds for a specified widget.
1323:Generated_Source\PSoC4/CapSense_1_Processing.c **** *
1324:Generated_Source\PSoC4/CapSense_1_Processing.c **** * \details
1325:Generated_Source\PSoC4/CapSense_1_Processing.c **** *   Updates noise and finger thresholds for a specified widget.
1326:Generated_Source\PSoC4/CapSense_1_Processing.c **** *   This algorithm is a part of Auto-tuning feature.
1327:Generated_Source\PSoC4/CapSense_1_Processing.c **** *
1328:Generated_Source\PSoC4/CapSense_1_Processing.c **** * \param ptrRamWdgt       The pointer to the RAM widget object.
1329:Generated_Source\PSoC4/CapSense_1_Processing.c **** * \param ptrNoiseEnvelope The pointer to the noise-envelope object in RAM.
1330:Generated_Source\PSoC4/CapSense_1_Processing.c **** * \param startFlag        The flag indicates when new widget is processed.
1331:Generated_Source\PSoC4/CapSense_1_Processing.c **** *
1332:Generated_Source\PSoC4/CapSense_1_Processing.c **** *******************************************************************************/
1333:Generated_Source\PSoC4/CapSense_1_Processing.c **** void CapSense_1_DpUpdateThresholds(CapSense_1_RAM_WD_BASE_STRUCT *ptrRamWdgt,
1334:Generated_Source\PSoC4/CapSense_1_Processing.c ****                                          SMARTSENSE_CSD_NOISE_ENVELOPE_STRUCT *ptrNoiseEnvelope,
1335:Generated_Source\PSoC4/CapSense_1_Processing.c ****                                          uint32 startFlag)
1336:Generated_Source\PSoC4/CapSense_1_Processing.c **** {
1337:Generated_Source\PSoC4/CapSense_1_Processing.c ****     SMARTSENSE_UPDATE_THRESHOLDS_STRUCT thresholds;
1338:Generated_Source\PSoC4/CapSense_1_Processing.c ****     SMARTSENSE_UPDATE_THRESHOLDS_STRUCT *ptrThresholds = &thresholds;
1339:Generated_Source\PSoC4/CapSense_1_Processing.c ****     ptrThresholds->fingerTh = ptrRamWdgt->fingerTh;
1340:Generated_Source\PSoC4/CapSense_1_Processing.c **** 
1341:Generated_Source\PSoC4/CapSense_1_Processing.c ****     SmartSense_UpdateThresholds(ptrNoiseEnvelope, ptrThresholds, ptrRamWdgt->sigPFC, startFlag);
1342:Generated_Source\PSoC4/CapSense_1_Processing.c **** 
1343:Generated_Source\PSoC4/CapSense_1_Processing.c ****     ptrRamWdgt->fingerTh = ptrThresholds->fingerTh;
1344:Generated_Source\PSoC4/CapSense_1_Processing.c ****     ptrRamWdgt->noiseTh = ptrThresholds->noiseTh;
1345:Generated_Source\PSoC4/CapSense_1_Processing.c ****     ptrRamWdgt->nNoiseTh = ptrThresholds->nNoiseTh;
1346:Generated_Source\PSoC4/CapSense_1_Processing.c ****     ptrRamWdgt->hysteresis = ptrThresholds->hysteresis;
1347:Generated_Source\PSoC4/CapSense_1_Processing.c **** }
1348:Generated_Source\PSoC4/CapSense_1_Processing.c **** #endif /* #if (0u != (CapSense_1_CSD_AUTOTUNE & CapSense_1_CSD_SS_TH_EN)) */
1349:Generated_Source\PSoC4/CapSense_1_Processing.c **** 
1350:Generated_Source\PSoC4/CapSense_1_Processing.c **** 
ARM GAS  C:\Users\MICHAE~1.MAC\AppData\Local\Temp\cc682toO.s 			page 27


1351:Generated_Source\PSoC4/CapSense_1_Processing.c **** /*******************************************************************************
1352:Generated_Source\PSoC4/CapSense_1_Processing.c **** * Function Name: CapSense_1_DpUpdateDifferences
1353:Generated_Source\PSoC4/CapSense_1_Processing.c **** ****************************************************************************//**
1354:Generated_Source\PSoC4/CapSense_1_Processing.c **** *
1355:Generated_Source\PSoC4/CapSense_1_Processing.c **** * \brief
1356:Generated_Source\PSoC4/CapSense_1_Processing.c **** *   Calculates new difference values.
1357:Generated_Source\PSoC4/CapSense_1_Processing.c **** *   Also, executes the multi-frequency scan algorithm if it is enabled.
1358:Generated_Source\PSoC4/CapSense_1_Processing.c **** *
1359:Generated_Source\PSoC4/CapSense_1_Processing.c **** * \details
1360:Generated_Source\PSoC4/CapSense_1_Processing.c **** *   This API calculates the difference between the baseline and raw counts.
1361:Generated_Source\PSoC4/CapSense_1_Processing.c **** *   If the difference is positive (raw > baseline), and higher than the widget
1362:Generated_Source\PSoC4/CapSense_1_Processing.c **** *   noise threshold, it is saved into the data structure for further processing.
1363:Generated_Source\PSoC4/CapSense_1_Processing.c **** *   Otherwise the difference is set to zero. The final difference value is saved
1364:Generated_Source\PSoC4/CapSense_1_Processing.c **** *   with the subtracted noise threshold value.
1365:Generated_Source\PSoC4/CapSense_1_Processing.c **** *
1366:Generated_Source\PSoC4/CapSense_1_Processing.c **** *   If the multi-frequency scan algorithm is enabled, the difference is calculated
1367:Generated_Source\PSoC4/CapSense_1_Processing.c **** *   for the three sets of data available for each sensor. Then
1368:Generated_Source\PSoC4/CapSense_1_Processing.c **** *   the median filter selects the final difference value.
1369:Generated_Source\PSoC4/CapSense_1_Processing.c **** *
1370:Generated_Source\PSoC4/CapSense_1_Processing.c **** * \param ptrRamWdgt The pointer to the RAR Widget Object.
1371:Generated_Source\PSoC4/CapSense_1_Processing.c **** * \param curSnsPtr  The pointer to the sensor object in RAM.
1372:Generated_Source\PSoC4/CapSense_1_Processing.c **** *
1373:Generated_Source\PSoC4/CapSense_1_Processing.c **** *******************************************************************************/
1374:Generated_Source\PSoC4/CapSense_1_Processing.c **** void CapSense_1_DpUpdateDifferences(
1375:Generated_Source\PSoC4/CapSense_1_Processing.c ****                         CapSense_1_RAM_WD_BASE_STRUCT *ptrRamWdgt,
1376:Generated_Source\PSoC4/CapSense_1_Processing.c ****                         CapSense_1_RAM_SNS_STRUCT *curSnsPtr)
1377:Generated_Source\PSoC4/CapSense_1_Processing.c **** {
 128              		.loc 1 1377 0
 129              		.cfi_startproc
 130              		@ args = 0, pretend = 0, frame = 0
 131              		@ frame_needed = 0, uses_anonymous_args = 0
 132              	.LVL14:
 133 0000 30B5     		push	{r4, r5, lr}
 134              		.cfi_def_cfa_offset 12
 135              		.cfi_offset 4, -12
 136              		.cfi_offset 5, -8
 137              		.cfi_offset 14, -4
 138              	.LVL15:
1378:Generated_Source\PSoC4/CapSense_1_Processing.c ****     register int32 diffValue = 0;
1379:Generated_Source\PSoC4/CapSense_1_Processing.c **** 
1380:Generated_Source\PSoC4/CapSense_1_Processing.c ****     #if (0u != CapSense_1_MULTI_FREQ_SCAN_EN)
1381:Generated_Source\PSoC4/CapSense_1_Processing.c ****         register int32 diffValue_0 = 0;
1382:Generated_Source\PSoC4/CapSense_1_Processing.c ****         register int32 diffValue_2 = 0;
1383:Generated_Source\PSoC4/CapSense_1_Processing.c ****     #endif /* #if (0u != CapSense_1_MULTI_FREQ_SCAN_EN) */
1384:Generated_Source\PSoC4/CapSense_1_Processing.c **** 
1385:Generated_Source\PSoC4/CapSense_1_Processing.c ****     /* Calculate difference */
1386:Generated_Source\PSoC4/CapSense_1_Processing.c ****     diffValue = (int32)curSnsPtr->raw[0u] - (int32)curSnsPtr->bsln[0u];
 139              		.loc 1 1386 0
 140 0002 0B88     		ldrh	r3, [r1]
 141 0004 CA88     		ldrh	r2, [r1, #6]
 142 0006 9B1A     		subs	r3, r3, r2
 143              	.LVL16:
1387:Generated_Source\PSoC4/CapSense_1_Processing.c **** 
1388:Generated_Source\PSoC4/CapSense_1_Processing.c ****     #if (0u != CapSense_1_MULTI_FREQ_SCAN_EN)
1389:Generated_Source\PSoC4/CapSense_1_Processing.c ****         diffValue_0 = (int32)curSnsPtr->raw[1u] - (int32)curSnsPtr->bsln[1u];
 144              		.loc 1 1389 0
 145 0008 4A88     		ldrh	r2, [r1, #2]
ARM GAS  C:\Users\MICHAE~1.MAC\AppData\Local\Temp\cc682toO.s 			page 28


 146 000a 0C89     		ldrh	r4, [r1, #8]
 147 000c 121B     		subs	r2, r2, r4
 148              	.LVL17:
1390:Generated_Source\PSoC4/CapSense_1_Processing.c ****         diffValue_2 = (int32)curSnsPtr->raw[2u] - (int32)curSnsPtr->bsln[2u];
 149              		.loc 1 1390 0
 150 000e 8C88     		ldrh	r4, [r1, #4]
 151 0010 4D89     		ldrh	r5, [r1, #10]
 152 0012 641B     		subs	r4, r4, r5
 153              	.LVL18:
1391:Generated_Source\PSoC4/CapSense_1_Processing.c **** 
1392:Generated_Source\PSoC4/CapSense_1_Processing.c ****         /* Find median and put it into [0u] element */
1393:Generated_Source\PSoC4/CapSense_1_Processing.c ****         if (diffValue_0 > diffValue)
 154              		.loc 1 1393 0
 155 0014 9342     		cmp	r3, r2
 156 0016 02DB     		blt	.L11
 157 0018 1500     		movs	r5, r2
1386:Generated_Source\PSoC4/CapSense_1_Processing.c **** 
 158              		.loc 1 1386 0
 159 001a 1A00     		movs	r2, r3
 160              	.LVL19:
1389:Generated_Source\PSoC4/CapSense_1_Processing.c ****         diffValue_2 = (int32)curSnsPtr->raw[2u] - (int32)curSnsPtr->bsln[2u];
 161              		.loc 1 1389 0
 162 001c 2B00     		movs	r3, r5
 163              	.LVL20:
 164              	.L11:
1394:Generated_Source\PSoC4/CapSense_1_Processing.c ****         {
1395:Generated_Source\PSoC4/CapSense_1_Processing.c ****             register int32 swapv = diffValue_0;
1396:Generated_Source\PSoC4/CapSense_1_Processing.c ****             diffValue_0 = diffValue;
1397:Generated_Source\PSoC4/CapSense_1_Processing.c ****             diffValue = swapv;
1398:Generated_Source\PSoC4/CapSense_1_Processing.c ****         }
1399:Generated_Source\PSoC4/CapSense_1_Processing.c **** 
1400:Generated_Source\PSoC4/CapSense_1_Processing.c ****         if (diffValue > diffValue_2)
 165              		.loc 1 1400 0
 166 001e A242     		cmp	r2, r4
 167 0020 00DC     		bgt	.L12
 168 0022 1400     		movs	r4, r2
 169              	.LVL21:
 170              	.L12:
1401:Generated_Source\PSoC4/CapSense_1_Processing.c ****         {
1402:Generated_Source\PSoC4/CapSense_1_Processing.c ****             register int32 swapv = diffValue;
1403:Generated_Source\PSoC4/CapSense_1_Processing.c ****             diffValue = diffValue_2;
1404:Generated_Source\PSoC4/CapSense_1_Processing.c ****             diffValue_2 = swapv;
1405:Generated_Source\PSoC4/CapSense_1_Processing.c ****         }
1406:Generated_Source\PSoC4/CapSense_1_Processing.c **** 
1407:Generated_Source\PSoC4/CapSense_1_Processing.c ****         if (diffValue_0 > diffValue)
 171              		.loc 1 1407 0
 172 0024 9C42     		cmp	r4, r3
 173 0026 00DB     		blt	.L13
 174 0028 2300     		movs	r3, r4
 175              	.LVL22:
 176              	.L13:
1408:Generated_Source\PSoC4/CapSense_1_Processing.c ****         {
1409:Generated_Source\PSoC4/CapSense_1_Processing.c ****             register int32 swapv = diffValue_0;
1410:Generated_Source\PSoC4/CapSense_1_Processing.c ****             diffValue_0 = diffValue;
1411:Generated_Source\PSoC4/CapSense_1_Processing.c ****             diffValue = swapv;
1412:Generated_Source\PSoC4/CapSense_1_Processing.c ****         }
1413:Generated_Source\PSoC4/CapSense_1_Processing.c ****     #endif /* #if (0u != CapSense_1_MULTI_FREQ_SCAN_EN) */
ARM GAS  C:\Users\MICHAE~1.MAC\AppData\Local\Temp\cc682toO.s 			page 29


1414:Generated_Source\PSoC4/CapSense_1_Processing.c **** 
1415:Generated_Source\PSoC4/CapSense_1_Processing.c ****     curSnsPtr->diff = 0u;
 177              		.loc 1 1415 0
 178 002a 0022     		movs	r2, #0
 179 002c 0A82     		strh	r2, [r1, #16]
1416:Generated_Source\PSoC4/CapSense_1_Processing.c **** 
1417:Generated_Source\PSoC4/CapSense_1_Processing.c ****     if (diffValue > (int32)ptrRamWdgt->noiseTh)
 180              		.loc 1 1417 0
 181 002e 0279     		ldrb	r2, [r0, #4]
 182 0030 9342     		cmp	r3, r2
 183 0032 00DD     		ble	.L10
1418:Generated_Source\PSoC4/CapSense_1_Processing.c ****     {
1419:Generated_Source\PSoC4/CapSense_1_Processing.c ****         curSnsPtr->diff = (CapSense_1_THRESHOLD_TYPE) diffValue;
 184              		.loc 1 1419 0
 185 0034 0B82     		strh	r3, [r1, #16]
 186              	.L10:
1420:Generated_Source\PSoC4/CapSense_1_Processing.c ****     }
1421:Generated_Source\PSoC4/CapSense_1_Processing.c **** }
 187              		.loc 1 1421 0
 188              		@ sp needed
 189 0036 30BD     		pop	{r4, r5, pc}
 190              		.cfi_endproc
 191              	.LFE5:
 192              		.size	CapSense_1_DpUpdateDifferences, .-CapSense_1_DpUpdateDifferences
 193              		.section	.text.CapSense_1_DpProcessCsdWidgetRawCounts,"ax",%progbits
 194              		.align	2
 195              		.global	CapSense_1_DpProcessCsdWidgetRawCounts
 196              		.code	16
 197              		.thumb_func
 198              		.type	CapSense_1_DpProcessCsdWidgetRawCounts, %function
 199              	CapSense_1_DpProcessCsdWidgetRawCounts:
 200              	.LFB2:
1017:Generated_Source\PSoC4/CapSense_1_Processing.c ****     uint32  result = CYRET_SUCCESS;
 201              		.loc 1 1017 0
 202              		.cfi_startproc
 203              		@ args = 0, pretend = 0, frame = 16
 204              		@ frame_needed = 0, uses_anonymous_args = 0
 205              	.LVL23:
 206 0000 F0B5     		push	{r4, r5, r6, r7, lr}
 207              		.cfi_def_cfa_offset 20
 208              		.cfi_offset 4, -20
 209              		.cfi_offset 5, -16
 210              		.cfi_offset 6, -12
 211              		.cfi_offset 7, -8
 212              		.cfi_offset 14, -4
 213 0002 5F46     		mov	r7, fp
 214 0004 80B4     		push	{r7}
 215              		.cfi_def_cfa_offset 24
 216              		.cfi_offset 11, -24
 217 0006 84B0     		sub	sp, sp, #16
 218              		.cfi_def_cfa_offset 40
 219 0008 0600     		movs	r6, r0
 220              	.LVL24:
1041:Generated_Source\PSoC4/CapSense_1_Processing.c **** 
 221              		.loc 1 1041 0
 222 000a 837E     		ldrb	r3, [r0, #26]
 223 000c 062B     		cmp	r3, #6
ARM GAS  C:\Users\MICHAE~1.MAC\AppData\Local\Temp\cc682toO.s 			page 30


 224 000e 02D1     		bne	.L20
 225 0010 0122     		movs	r2, #1
 226 0012 9346     		mov	fp, r2
 227 0014 01E0     		b	.L16
 228              	.L20:
 229 0016 0022     		movs	r2, #0
 230 0018 9346     		mov	fp, r2
 231              	.L16:
 232              	.LVL25:
1044:Generated_Source\PSoC4/CapSense_1_Processing.c ****     #endif /* #if (CapSense_1_ENABLE == CapSense_1_RC_FILTER_EN) */
 233              		.loc 1 1044 0 discriminator 4
 234 001a F568     		ldr	r5, [r6, #12]
 235              	.LVL26:
1047:Generated_Source\PSoC4/CapSense_1_Processing.c ****     ptrRamWdgt = (CapSense_1_RAM_WD_BASE_STRUCT *)ptrFlashWdgt->ptr2WdgtRam;
 236              		.loc 1 1047 0 discriminator 4
 237 001c B468     		ldr	r4, [r6, #8]
 238              	.LVL27:
1048:Generated_Source\PSoC4/CapSense_1_Processing.c ****     widgetType = ptrFlashWdgt->wdgtType;
 239              		.loc 1 1048 0 discriminator 4
 240 001e 7268     		ldr	r2, [r6, #4]
 241 0020 0192     		str	r2, [sp, #4]
 242              	.LVL28:
1049:Generated_Source\PSoC4/CapSense_1_Processing.c **** 
 243              		.loc 1 1049 0 discriminator 4
 244 0022 0293     		str	r3, [sp, #8]
 245              	.LVL29:
1056:Generated_Source\PSoC4/CapSense_1_Processing.c ****     {
 246              		.loc 1 1056 0 discriminator 4
 247 0024 0027     		movs	r7, #0
1018:Generated_Source\PSoC4/CapSense_1_Processing.c **** 
 248              		.loc 1 1018 0 discriminator 4
 249 0026 0023     		movs	r3, #0
 250 0028 0393     		str	r3, [sp, #12]
1056:Generated_Source\PSoC4/CapSense_1_Processing.c ****     {
 251              		.loc 1 1056 0 discriminator 4
 252 002a 14E0     		b	.L17
 253              	.LVL30:
 254              	.L19:
1060:Generated_Source\PSoC4/CapSense_1_Processing.c ****             #if (CapSense_1_ALP_FILTER_EN)
 255              		.loc 1 1060 0
 256 002c 029A     		ldr	r2, [sp, #8]
 257 002e 2100     		movs	r1, r4
 258 0030 2800     		movs	r0, r5
 259 0032 FFF7FEFF 		bl	CapSense_1_FtRunEnabledFiltersInternal
 260              	.LVL31:
1096:Generated_Source\PSoC4/CapSense_1_Processing.c ****         #endif /* (CapSense_1_ENABLE == CapSense_1_TST_BSLN_DUPLICATION_EN) */
 261              		.loc 1 1096 0
 262 0036 029A     		ldr	r2, [sp, #8]
 263 0038 2100     		movs	r1, r4
 264 003a 0198     		ldr	r0, [sp, #4]
 265 003c FFF7FEFF 		bl	CapSense_1_FtUpdateBaseline
 266              	.LVL32:
 267 0040 0390     		str	r0, [sp, #12]
 268              	.LVL33:
1099:Generated_Source\PSoC4/CapSense_1_Processing.c **** 
 269              		.loc 1 1099 0
 270 0042 2100     		movs	r1, r4
ARM GAS  C:\Users\MICHAE~1.MAC\AppData\Local\Temp\cc682toO.s 			page 31


 271 0044 0198     		ldr	r0, [sp, #4]
 272              	.LVL34:
 273 0046 FFF7FEFF 		bl	CapSense_1_DpUpdateDifferences
 274              	.LVL35:
1102:Generated_Source\PSoC4/CapSense_1_Processing.c **** 
 275              		.loc 1 1102 0
 276 004a 1834     		adds	r4, r4, #24
 277              	.LVL36:
1106:Generated_Source\PSoC4/CapSense_1_Processing.c ****         #endif /* #if (CapSense_1_ENABLE == CapSense_1_RC_FILTER_EN) */
 278              		.loc 1 1106 0
 279 004c 5B46     		mov	r3, fp
 280 004e 002B     		cmp	r3, #0
 281 0050 00D1     		bne	.L18
 282              	.LVL37:
1106:Generated_Source\PSoC4/CapSense_1_Processing.c ****         #endif /* #if (CapSense_1_ENABLE == CapSense_1_RC_FILTER_EN) */
 283              		.loc 1 1106 0 is_stmt 0 discriminator 1
 284 0052 2435     		adds	r5, r5, #36
 285              	.LVL38:
 286              	.L18:
1056:Generated_Source\PSoC4/CapSense_1_Processing.c ****     {
 287              		.loc 1 1056 0 is_stmt 1 discriminator 2
 288 0054 0137     		adds	r7, r7, #1
 289              	.LVL39:
 290              	.L17:
1056:Generated_Source\PSoC4/CapSense_1_Processing.c ****     {
 291              		.loc 1 1056 0 is_stmt 0 discriminator 1
 292 0056 338B     		ldrh	r3, [r6, #24]
 293 0058 9F42     		cmp	r7, r3
 294 005a E7D3     		bcc	.L19
1110:Generated_Source\PSoC4/CapSense_1_Processing.c **** 
 295              		.loc 1 1110 0 is_stmt 1
 296 005c 0398     		ldr	r0, [sp, #12]
 297 005e 04B0     		add	sp, sp, #16
 298              		@ sp needed
 299              	.LVL40:
 300              	.LVL41:
 301              	.LVL42:
 302              	.LVL43:
 303              	.LVL44:
 304 0060 04BC     		pop	{r2}
 305 0062 9346     		mov	fp, r2
 306 0064 F0BD     		pop	{r4, r5, r6, r7, pc}
 307              		.cfi_endproc
 308              	.LFE2:
 309              		.size	CapSense_1_DpProcessCsdWidgetRawCounts, .-CapSense_1_DpProcessCsdWidgetRawCounts
 310 0066 C046     		.section	.text.CapSense_1_DpProcessCsdSensorRawCountsExt,"ax",%progbits
 311              		.align	2
 312              		.global	CapSense_1_DpProcessCsdSensorRawCountsExt
 313              		.code	16
 314              		.thumb_func
 315              		.type	CapSense_1_DpProcessCsdSensorRawCountsExt, %function
 316              	CapSense_1_DpProcessCsdSensorRawCountsExt:
 317              	.LFB3:
1151:Generated_Source\PSoC4/CapSense_1_Processing.c ****     uint32 result = CYRET_SUCCESS;
 318              		.loc 1 1151 0
 319              		.cfi_startproc
 320              		@ args = 0, pretend = 0, frame = 8
ARM GAS  C:\Users\MICHAE~1.MAC\AppData\Local\Temp\cc682toO.s 			page 32


 321              		@ frame_needed = 0, uses_anonymous_args = 0
 322              	.LVL45:
 323 0000 F0B5     		push	{r4, r5, r6, r7, lr}
 324              		.cfi_def_cfa_offset 20
 325              		.cfi_offset 4, -20
 326              		.cfi_offset 5, -16
 327              		.cfi_offset 6, -12
 328              		.cfi_offset 7, -8
 329              		.cfi_offset 14, -4
 330 0002 83B0     		sub	sp, sp, #12
 331              		.cfi_def_cfa_offset 32
 332 0004 0E00     		movs	r6, r1
 333 0006 0192     		str	r2, [sp, #4]
 334 0008 1C00     		movs	r4, r3
 335              	.LVL46:
1166:Generated_Source\PSoC4/CapSense_1_Processing.c ****     ptrRamWdgt = (CapSense_1_RAM_WD_BASE_STRUCT *)ptrFlashWdgt->ptr2WdgtRam;
 336              		.loc 1 1166 0
 337 000a 857E     		ldrb	r5, [r0, #26]
 338              	.LVL47:
1167:Generated_Source\PSoC4/CapSense_1_Processing.c **** 
 339              		.loc 1 1167 0
 340 000c 4768     		ldr	r7, [r0, #4]
 341              	.LVL48:
1170:Generated_Source\PSoC4/CapSense_1_Processing.c ****         {
 342              		.loc 1 1170 0
 343 000e E307     		lsls	r3, r4, #31
 344 0010 03D5     		bpl	.L22
 345              	.LVL49:
1172:Generated_Source\PSoC4/CapSense_1_Processing.c ****             #if (CapSense_1_ALP_FILTER_EN)
 346              		.loc 1 1172 0
 347 0012 2A00     		movs	r2, r5
 348              	.LVL50:
 349 0014 0198     		ldr	r0, [sp, #4]
 350              	.LVL51:
 351 0016 FFF7FEFF 		bl	CapSense_1_FtRunEnabledFiltersInternal
 352              	.LVL52:
 353              	.L22:
1207:Generated_Source\PSoC4/CapSense_1_Processing.c ****     {
 354              		.loc 1 1207 0
 355 001a A307     		lsls	r3, r4, #30
 356 001c 06D5     		bpl	.L25
1209:Generated_Source\PSoC4/CapSense_1_Processing.c ****     }
 357              		.loc 1 1209 0
 358 001e 2A00     		movs	r2, r5
 359              	.LVL53:
 360 0020 3100     		movs	r1, r6
 361 0022 3800     		movs	r0, r7
 362 0024 FFF7FEFF 		bl	CapSense_1_FtUpdateBaseline
 363              	.LVL54:
 364 0028 0500     		movs	r5, r0
 365              	.LVL55:
 366 002a 00E0     		b	.L23
 367              	.LVL56:
 368              	.L25:
1152:Generated_Source\PSoC4/CapSense_1_Processing.c ****     uint32  widgetType;
 369              		.loc 1 1152 0
 370 002c 0025     		movs	r5, #0
ARM GAS  C:\Users\MICHAE~1.MAC\AppData\Local\Temp\cc682toO.s 			page 33


 371              	.LVL57:
 372              	.L23:
1212:Generated_Source\PSoC4/CapSense_1_Processing.c ****     {
 373              		.loc 1 1212 0
 374 002e 6307     		lsls	r3, r4, #29
 375 0030 03D5     		bpl	.L24
1214:Generated_Source\PSoC4/CapSense_1_Processing.c ****     }
 376              		.loc 1 1214 0
 377 0032 3100     		movs	r1, r6
 378 0034 3800     		movs	r0, r7
 379 0036 FFF7FEFF 		bl	CapSense_1_DpUpdateDifferences
 380              	.LVL58:
 381              	.L24:
1217:Generated_Source\PSoC4/CapSense_1_Processing.c **** 
 382              		.loc 1 1217 0
 383 003a 2800     		movs	r0, r5
 384 003c 03B0     		add	sp, sp, #12
 385              		@ sp needed
 386              	.LVL59:
 387              	.LVL60:
 388              	.LVL61:
 389              	.LVL62:
 390 003e F0BD     		pop	{r4, r5, r6, r7, pc}
 391              		.cfi_endproc
 392              	.LFE3:
 393              		.size	CapSense_1_DpProcessCsdSensorRawCountsExt, .-CapSense_1_DpProcessCsdSensorRawCountsExt
 394              		.section	.text.CapSense_1_DpProcessButton,"ax",%progbits
 395              		.align	2
 396              		.global	CapSense_1_DpProcessButton
 397              		.code	16
 398              		.thumb_func
 399              		.type	CapSense_1_DpProcessButton, %function
 400              	CapSense_1_DpProcessButton:
 401              	.LFB6:
1422:Generated_Source\PSoC4/CapSense_1_Processing.c **** 
1423:Generated_Source\PSoC4/CapSense_1_Processing.c **** 
1424:Generated_Source\PSoC4/CapSense_1_Processing.c **** #if ((0u != CapSense_1_BUTTON_WIDGET_EN) || (0u != CapSense_1_CSX_MATRIX_WIDGET_EN))
1425:Generated_Source\PSoC4/CapSense_1_Processing.c **** /*******************************************************************************
1426:Generated_Source\PSoC4/CapSense_1_Processing.c **** * Function Name: CapSense_1_DpProcessButton
1427:Generated_Source\PSoC4/CapSense_1_Processing.c **** ****************************************************************************//**
1428:Generated_Source\PSoC4/CapSense_1_Processing.c **** *
1429:Generated_Source\PSoC4/CapSense_1_Processing.c **** * \brief
1430:Generated_Source\PSoC4/CapSense_1_Processing.c **** *   Processes the status of the Button widget.
1431:Generated_Source\PSoC4/CapSense_1_Processing.c **** *
1432:Generated_Source\PSoC4/CapSense_1_Processing.c **** * \details
1433:Generated_Source\PSoC4/CapSense_1_Processing.c **** *   This API processes the status of the CSD/CSX Button widget and
1434:Generated_Source\PSoC4/CapSense_1_Processing.c **** *   CSX Matrix Button widget. It applies the hysteresis and de-bounce algorithm
1435:Generated_Source\PSoC4/CapSense_1_Processing.c **** *   to each sensor difference value. This API is expected to be called
1436:Generated_Source\PSoC4/CapSense_1_Processing.c **** *   after each new widget scan. If it is called multiple times for the same
1437:Generated_Source\PSoC4/CapSense_1_Processing.c **** *   scan data, the de-bounce algorithm will not work properly.
1438:Generated_Source\PSoC4/CapSense_1_Processing.c **** *
1439:Generated_Source\PSoC4/CapSense_1_Processing.c **** *   This API does not update any Data Structure registers
1440:Generated_Source\PSoC4/CapSense_1_Processing.c **** *   except the de-bounce counters.
1441:Generated_Source\PSoC4/CapSense_1_Processing.c **** *
1442:Generated_Source\PSoC4/CapSense_1_Processing.c **** * \param currStatus   The current status of the widget sensors.
1443:Generated_Source\PSoC4/CapSense_1_Processing.c **** * \param ptrFlashWdgt The pointer to the Flash Widget Object.
1444:Generated_Source\PSoC4/CapSense_1_Processing.c **** *
ARM GAS  C:\Users\MICHAE~1.MAC\AppData\Local\Temp\cc682toO.s 			page 34


1445:Generated_Source\PSoC4/CapSense_1_Processing.c **** * \return Returns the status of the widget's sensors. Bit #0 - corresponds to Sensor #0.
1446:Generated_Source\PSoC4/CapSense_1_Processing.c **** *
1447:Generated_Source\PSoC4/CapSense_1_Processing.c **** *******************************************************************************/
1448:Generated_Source\PSoC4/CapSense_1_Processing.c **** uint32 CapSense_1_DpProcessButton(uint32 currStatus, CapSense_1_FLASH_WD_STRUCT const *ptrFlashWdgt
1449:Generated_Source\PSoC4/CapSense_1_Processing.c **** {
 402              		.loc 1 1449 0
 403              		.cfi_startproc
 404              		@ args = 0, pretend = 0, frame = 0
 405              		@ frame_needed = 0, uses_anonymous_args = 0
 406              	.LVL63:
 407 0000 F0B5     		push	{r4, r5, r6, r7, lr}
 408              		.cfi_def_cfa_offset 20
 409              		.cfi_offset 4, -20
 410              		.cfi_offset 5, -16
 411              		.cfi_offset 6, -12
 412              		.cfi_offset 7, -8
 413              		.cfi_offset 14, -4
1450:Generated_Source\PSoC4/CapSense_1_Processing.c ****     uint32 snsCnt;
1451:Generated_Source\PSoC4/CapSense_1_Processing.c ****     uint32 snsMask;
1452:Generated_Source\PSoC4/CapSense_1_Processing.c ****     uint32 newStatus;
1453:Generated_Source\PSoC4/CapSense_1_Processing.c ****     uint32 touchTh;
1454:Generated_Source\PSoC4/CapSense_1_Processing.c ****     CapSense_1_RAM_SNS_STRUCT *ptrSnsTmp;
1455:Generated_Source\PSoC4/CapSense_1_Processing.c ****     CapSense_1_RAM_WD_BASE_STRUCT *ptrRamWdgt;
1456:Generated_Source\PSoC4/CapSense_1_Processing.c ****     uint8 * ptrDebounceCnt;
1457:Generated_Source\PSoC4/CapSense_1_Processing.c **** 
1458:Generated_Source\PSoC4/CapSense_1_Processing.c ****     snsCnt = ptrFlashWdgt->totalNumSns;
 414              		.loc 1 1458 0
 415 0002 0A8B     		ldrh	r2, [r1, #24]
 416              	.LVL64:
1459:Generated_Source\PSoC4/CapSense_1_Processing.c ****     ptrSnsTmp = ptrFlashWdgt->ptr2SnsRam;
 417              		.loc 1 1459 0
 418 0004 8D68     		ldr	r5, [r1, #8]
 419              	.LVL65:
1460:Generated_Source\PSoC4/CapSense_1_Processing.c ****     ptrRamWdgt = (CapSense_1_RAM_WD_BASE_STRUCT *)ptrFlashWdgt->ptr2WdgtRam;
 420              		.loc 1 1460 0
 421 0006 4F68     		ldr	r7, [r1, #4]
 422              	.LVL66:
1461:Generated_Source\PSoC4/CapSense_1_Processing.c ****     ptrDebounceCnt = ptrFlashWdgt->ptr2DebounceArr;
 423              		.loc 1 1461 0
 424 0008 0B69     		ldr	r3, [r1, #16]
 425              	.LVL67:
1462:Generated_Source\PSoC4/CapSense_1_Processing.c **** 
1463:Generated_Source\PSoC4/CapSense_1_Processing.c ****     /* Go through all widget's sensors */
1464:Generated_Source\PSoC4/CapSense_1_Processing.c ****     snsMask = 1Lu;
 426              		.loc 1 1464 0
 427 000a 0121     		movs	r1, #1
 428              	.LVL68:
1465:Generated_Source\PSoC4/CapSense_1_Processing.c ****     for (; snsCnt-- > 0u; )
 429              		.loc 1 1465 0
 430 000c 25E0     		b	.L27
 431              	.LVL69:
 432              	.L35:
1466:Generated_Source\PSoC4/CapSense_1_Processing.c ****     {
1467:Generated_Source\PSoC4/CapSense_1_Processing.c ****         /* Calculate touch threshold taking into account hysteresis
1468:Generated_Source\PSoC4/CapSense_1_Processing.c ****            and current sensor state. */
1469:Generated_Source\PSoC4/CapSense_1_Processing.c ****         touchTh = (0u == (currStatus & snsMask)) ?
 433              		.loc 1 1469 0
ARM GAS  C:\Users\MICHAE~1.MAC\AppData\Local\Temp\cc682toO.s 			page 35


 434 000e 0C00     		movs	r4, r1
 435              	.LVL70:
 436 0010 0440     		ands	r4, r0
1470:Generated_Source\PSoC4/CapSense_1_Processing.c ****                   ((uint32)ptrRamWdgt->fingerTh + ptrRamWdgt->hysteresis) :
 437              		.loc 1 1470 0
 438 0012 03D1     		bne	.L28
 439              		.loc 1 1470 0 is_stmt 0 discriminator 1
 440 0014 7E88     		ldrh	r6, [r7, #2]
 441 0016 BA79     		ldrb	r2, [r7, #6]
 442 0018 B218     		adds	r2, r6, r2
 443 001a 02E0     		b	.L29
 444              	.L28:
1471:Generated_Source\PSoC4/CapSense_1_Processing.c ****                   ((uint32)ptrRamWdgt->fingerTh - ptrRamWdgt->hysteresis);
 445              		.loc 1 1471 0 is_stmt 1 discriminator 2
 446 001c 7A88     		ldrh	r2, [r7, #2]
 447 001e BE79     		ldrb	r6, [r7, #6]
1470:Generated_Source\PSoC4/CapSense_1_Processing.c ****                   ((uint32)ptrRamWdgt->fingerTh + ptrRamWdgt->hysteresis) :
 448              		.loc 1 1470 0 discriminator 2
 449 0020 921B     		subs	r2, r2, r6
 450              	.L29:
 451              	.LVL71:
1472:Generated_Source\PSoC4/CapSense_1_Processing.c **** 
1473:Generated_Source\PSoC4/CapSense_1_Processing.c ****         /* Determine new potential sensor state */
1474:Generated_Source\PSoC4/CapSense_1_Processing.c ****         newStatus = (ptrSnsTmp->diff > touchTh) ? snsMask : 0u;
 452              		.loc 1 1474 0
 453 0022 2E8A     		ldrh	r6, [r5, #16]
 454 0024 B242     		cmp	r2, r6
 455 0026 01D3     		bcc	.L36
 456 0028 0022     		movs	r2, #0
 457              	.LVL72:
 458 002a 00E0     		b	.L30
 459              	.LVL73:
 460              	.L36:
 461 002c 0A00     		movs	r2, r1
 462              	.LVL74:
 463              	.L30:
1475:Generated_Source\PSoC4/CapSense_1_Processing.c **** 
1476:Generated_Source\PSoC4/CapSense_1_Processing.c ****         /* Sensor state changed ? */
1477:Generated_Source\PSoC4/CapSense_1_Processing.c ****         if (newStatus != (currStatus & snsMask))
 464              		.loc 1 1477 0 discriminator 4
 465 002e A242     		cmp	r2, r4
 466 0030 02D0     		beq	.L31
1478:Generated_Source\PSoC4/CapSense_1_Processing.c ****         {
1479:Generated_Source\PSoC4/CapSense_1_Processing.c ****             /* Decrement de-bounce counter */
1480:Generated_Source\PSoC4/CapSense_1_Processing.c ****             (*ptrDebounceCnt)--;
 467              		.loc 1 1480 0
 468 0032 1E78     		ldrb	r6, [r3]
 469 0034 013E     		subs	r6, r6, #1
 470 0036 1E70     		strb	r6, [r3]
 471              	.L31:
1481:Generated_Source\PSoC4/CapSense_1_Processing.c ****         }
1482:Generated_Source\PSoC4/CapSense_1_Processing.c **** 
1483:Generated_Source\PSoC4/CapSense_1_Processing.c ****         /*
1484:Generated_Source\PSoC4/CapSense_1_Processing.c ****         *  This piece of code has two objectives:
1485:Generated_Source\PSoC4/CapSense_1_Processing.c ****         *  1. Reset de-bounce counter if the sensor state did not change.
1486:Generated_Source\PSoC4/CapSense_1_Processing.c ****         *     (It is possible that during previous processing cycles sensor
1487:Generated_Source\PSoC4/CapSense_1_Processing.c ****         *     was active and de-bounce counter was decremented.)
ARM GAS  C:\Users\MICHAE~1.MAC\AppData\Local\Temp\cc682toO.s 			page 36


1488:Generated_Source\PSoC4/CapSense_1_Processing.c ****         *  2. Set new sensor state after successful de-bounce.
1489:Generated_Source\PSoC4/CapSense_1_Processing.c ****         */
1490:Generated_Source\PSoC4/CapSense_1_Processing.c ****         if ((newStatus == (currStatus & snsMask)) || (0u == (*ptrDebounceCnt)))
 472              		.loc 1 1490 0
 473 0038 A242     		cmp	r2, r4
 474 003a 02D0     		beq	.L32
 475              		.loc 1 1490 0 is_stmt 0 discriminator 1
 476 003c 1C78     		ldrb	r4, [r3]
 477 003e 002C     		cmp	r4, #0
 478 0040 07D1     		bne	.L33
 479              	.L32:
1491:Generated_Source\PSoC4/CapSense_1_Processing.c ****         {
1492:Generated_Source\PSoC4/CapSense_1_Processing.c ****             /* Set new sensor status */
1493:Generated_Source\PSoC4/CapSense_1_Processing.c ****             currStatus &= ~snsMask;
 480              		.loc 1 1493 0 is_stmt 1
 481 0042 8843     		bics	r0, r1
 482              	.LVL75:
1494:Generated_Source\PSoC4/CapSense_1_Processing.c ****             currStatus |= newStatus;
 483              		.loc 1 1494 0
 484 0044 1043     		orrs	r0, r2
 485              	.LVL76:
1495:Generated_Source\PSoC4/CapSense_1_Processing.c **** 
1496:Generated_Source\PSoC4/CapSense_1_Processing.c ****             /* Reset de-bounce counter */
1497:Generated_Source\PSoC4/CapSense_1_Processing.c ****             #if (0u != CapSense_1_OFF_DEBOUNCE_EN)
1498:Generated_Source\PSoC4/CapSense_1_Processing.c ****                 *ptrDebounceCnt = (0Lu == newStatus) ? ptrRamWdgt->onDebounce : ptrRamWdgt->offDebo
1499:Generated_Source\PSoC4/CapSense_1_Processing.c ****             #else
1500:Generated_Source\PSoC4/CapSense_1_Processing.c ****                 *ptrDebounceCnt = (0Lu == newStatus) ? ptrRamWdgt->onDebounce : DEFAULT_OFF_DEBOUNC
 486              		.loc 1 1500 0
 487 0046 002A     		cmp	r2, #0
 488 0048 01D1     		bne	.L37
 489              		.loc 1 1500 0 is_stmt 0 discriminator 1
 490 004a FA79     		ldrb	r2, [r7, #7]
 491              	.LVL77:
 492 004c 00E0     		b	.L34
 493              	.LVL78:
 494              	.L37:
 495              		.loc 1 1500 0
 496 004e 0122     		movs	r2, #1
 497              	.LVL79:
 498              	.L34:
 499              		.loc 1 1500 0 discriminator 4
 500 0050 1A70     		strb	r2, [r3]
 501              	.L33:
1501:Generated_Source\PSoC4/CapSense_1_Processing.c ****             #endif /* #if (0u != CapSense_1_OFF_DEBOUNCE_EN) */
1502:Generated_Source\PSoC4/CapSense_1_Processing.c ****         }
1503:Generated_Source\PSoC4/CapSense_1_Processing.c **** 
1504:Generated_Source\PSoC4/CapSense_1_Processing.c ****         /* Move mask to the next sensor */
1505:Generated_Source\PSoC4/CapSense_1_Processing.c ****         snsMask <<= 1u;
 502              		.loc 1 1505 0 is_stmt 1
 503 0052 4900     		lsls	r1, r1, #1
 504              	.LVL80:
1506:Generated_Source\PSoC4/CapSense_1_Processing.c **** 
1507:Generated_Source\PSoC4/CapSense_1_Processing.c ****         ptrSnsTmp++;
 505              		.loc 1 1507 0
 506 0054 1835     		adds	r5, r5, #24
 507              	.LVL81:
1508:Generated_Source\PSoC4/CapSense_1_Processing.c ****         ptrDebounceCnt++;
ARM GAS  C:\Users\MICHAE~1.MAC\AppData\Local\Temp\cc682toO.s 			page 37


 508              		.loc 1 1508 0
 509 0056 0133     		adds	r3, r3, #1
 510              	.LVL82:
1465:Generated_Source\PSoC4/CapSense_1_Processing.c ****     {
 511              		.loc 1 1465 0
 512 0058 6246     		mov	r2, ip
 513              	.LVL83:
 514              	.L27:
 515 005a 541E     		subs	r4, r2, #1
 516 005c A446     		mov	ip, r4
 517              	.LVL84:
 518 005e 002A     		cmp	r2, #0
 519 0060 D5D1     		bne	.L35
1509:Generated_Source\PSoC4/CapSense_1_Processing.c ****     }
1510:Generated_Source\PSoC4/CapSense_1_Processing.c **** 
1511:Generated_Source\PSoC4/CapSense_1_Processing.c ****     return currStatus;
1512:Generated_Source\PSoC4/CapSense_1_Processing.c **** }
 520              		.loc 1 1512 0
 521              		@ sp needed
 522              	.LVL85:
 523              	.LVL86:
 524              	.LVL87:
 525 0062 F0BD     		pop	{r4, r5, r6, r7, pc}
 526              		.cfi_endproc
 527              	.LFE6:
 528              		.size	CapSense_1_DpProcessButton, .-CapSense_1_DpProcessButton
 529              		.section	.text.CapSense_1_DpProcessCsdWidgetStatus,"ax",%progbits
 530              		.align	2
 531              		.global	CapSense_1_DpProcessCsdWidgetStatus
 532              		.code	16
 533              		.thumb_func
 534              		.type	CapSense_1_DpProcessCsdWidgetStatus, %function
 535              	CapSense_1_DpProcessCsdWidgetStatus:
 536              	.LFB4:
1247:Generated_Source\PSoC4/CapSense_1_Processing.c ****     uint32 sensorStatus;
 537              		.loc 1 1247 0
 538              		.cfi_startproc
 539              		@ args = 0, pretend = 0, frame = 0
 540              		@ frame_needed = 0, uses_anonymous_args = 0
 541              	.LVL88:
 542 0000 70B5     		push	{r4, r5, r6, lr}
 543              		.cfi_def_cfa_offset 16
 544              		.cfi_offset 4, -16
 545              		.cfi_offset 5, -12
 546              		.cfi_offset 6, -8
 547              		.cfi_offset 14, -4
 548 0002 0400     		movs	r4, r0
1253:Generated_Source\PSoC4/CapSense_1_Processing.c ****     sensorStatus = CapSense_1_dsRam.snsStatus[widgetId];
 549              		.loc 1 1253 0
 550 0004 8A7E     		ldrb	r2, [r1, #26]
 551              	.LVL89:
1254:Generated_Source\PSoC4/CapSense_1_Processing.c **** 
 552              		.loc 1 1254 0
 553 0006 134B     		ldr	r3, .L45
 554 0008 1B18     		adds	r3, r3, r0
 555 000a 1D7E     		ldrb	r5, [r3, #24]
 556              	.LVL90:
ARM GAS  C:\Users\MICHAE~1.MAC\AppData\Local\Temp\cc682toO.s 			page 38


1256:Generated_Source\PSoC4/CapSense_1_Processing.c ****     {
 557              		.loc 1 1256 0
 558 000c 012A     		cmp	r2, #1
 559 000e 04D1     		bne	.L44
1260:Generated_Source\PSoC4/CapSense_1_Processing.c ****             break;
 560              		.loc 1 1260 0
 561 0010 2800     		movs	r0, r5
 562              	.LVL91:
 563 0012 FFF7FEFF 		bl	CapSense_1_DpProcessButton
 564              	.LVL92:
 565 0016 0500     		movs	r5, r0
 566              	.LVL93:
1261:Generated_Source\PSoC4/CapSense_1_Processing.c ****     #endif /* #if (0u != CapSense_1_BUTTON_WIDGET_EN) */
 567              		.loc 1 1261 0
 568 0018 02E0     		b	.L41
 569              	.LVL94:
 570              	.L44:
1293:Generated_Source\PSoC4/CapSense_1_Processing.c ****         break;
 571              		.loc 1 1293 0 discriminator 1
 572 001a 0020     		movs	r0, #0
 573              	.LVL95:
 574 001c FFF7FEFF 		bl	CyHalt
 575              	.LVL96:
 576              	.L41:
1297:Generated_Source\PSoC4/CapSense_1_Processing.c **** 
 577              		.loc 1 1297 0
 578 0020 0C4B     		ldr	r3, .L45
 579 0022 1B19     		adds	r3, r3, r4
 580 0024 1D76     		strb	r5, [r3, #24]
1300:Generated_Source\PSoC4/CapSense_1_Processing.c ****     wdStatusMask = CapSense_1_GET_WDGT_STATUS_MASK(widgetId);
 581              		.loc 1 1300 0
 582 0026 6309     		lsrs	r3, r4, #5
 583              	.LVL97:
1301:Generated_Source\PSoC4/CapSense_1_Processing.c **** 
 584              		.loc 1 1301 0
 585 0028 1F22     		movs	r2, #31
 586 002a 1440     		ands	r4, r2
 587              	.LVL98:
 588 002c 1E3A     		subs	r2, r2, #30
 589 002e A240     		lsls	r2, r2, r4
 590              	.LVL99:
1304:Generated_Source\PSoC4/CapSense_1_Processing.c ****     {
 591              		.loc 1 1304 0
 592 0030 002D     		cmp	r5, #0
 593 0032 07D1     		bne	.L42
1306:Generated_Source\PSoC4/CapSense_1_Processing.c ****     }
 594              		.loc 1 1306 0
 595 0034 0433     		adds	r3, r3, #4
 596              	.LVL100:
 597 0036 9B00     		lsls	r3, r3, #2
 598              	.LVL101:
 599 0038 0649     		ldr	r1, .L45
 600 003a CB18     		adds	r3, r1, r3
 601 003c 5968     		ldr	r1, [r3, #4]
 602 003e 9143     		bics	r1, r2
 603 0040 5960     		str	r1, [r3, #4]
 604 0042 06E0     		b	.L38
ARM GAS  C:\Users\MICHAE~1.MAC\AppData\Local\Temp\cc682toO.s 			page 39


 605              	.LVL102:
 606              	.L42:
1310:Generated_Source\PSoC4/CapSense_1_Processing.c ****     }
 607              		.loc 1 1310 0
 608 0044 0433     		adds	r3, r3, #4
 609              	.LVL103:
 610 0046 9B00     		lsls	r3, r3, #2
 611              	.LVL104:
 612 0048 0249     		ldr	r1, .L45
 613 004a CB18     		adds	r3, r1, r3
 614 004c 5968     		ldr	r1, [r3, #4]
 615 004e 0A43     		orrs	r2, r1
 616              	.LVL105:
 617 0050 5A60     		str	r2, [r3, #4]
 618              	.L38:
1312:Generated_Source\PSoC4/CapSense_1_Processing.c **** #endif /* #if (0u != CapSense_1_TOTAL_CSD_WIDGETS) */
 619              		.loc 1 1312 0
 620              		@ sp needed
 621              	.LVL106:
 622              	.LVL107:
 623 0052 70BD     		pop	{r4, r5, r6, pc}
 624              	.L46:
 625              		.align	2
 626              	.L45:
 627 0054 00000000 		.word	CapSense_1_dsRam
 628              		.cfi_endproc
 629              	.LFE4:
 630              		.size	CapSense_1_DpProcessCsdWidgetStatus, .-CapSense_1_DpProcessCsdWidgetStatus
 631              		.text
 632              	.Letext0:
 633              		.file 2 "Generated_Source\\PSoC4\\cytypes.h"
 634              		.file 3 "c:\\program files (x86)\\cypress\\psoc creator\\4.2\\psoc creator\\import\\gnu\\arm\\5.4.
 635              		.file 4 "Generated_Source\\PSoC4\\CapSense_1_Configuration.h"
 636              		.file 5 "Generated_Source\\PSoC4\\CapSense_1_Structure.h"
 637              		.file 6 "c:\\program files (x86)\\cypress\\psoc creator\\4.2\\psoc creator\\import\\gnu\\arm\\5.4.
 638              		.file 7 "Generated_Source\\PSoC4\\CapSense_1_Filter.h"
 639              		.file 8 "Generated_Source\\PSoC4\\CyLib.h"
 640              		.section	.debug_info,"",%progbits
 641              	.Ldebug_info0:
 642 0000 E30A0000 		.4byte	0xae3
 643 0004 0400     		.2byte	0x4
 644 0006 00000000 		.4byte	.Ldebug_abbrev0
 645 000a 04       		.byte	0x4
 646 000b 01       		.uleb128 0x1
 647 000c 50010000 		.4byte	.LASF133
 648 0010 0C       		.byte	0xc
 649 0011 B0020000 		.4byte	.LASF134
 650 0015 EA020000 		.4byte	.LASF135
 651 0019 00000000 		.4byte	.Ldebug_ranges0+0
 652 001d 00000000 		.4byte	0
 653 0021 00000000 		.4byte	.Ldebug_line0
 654 0025 02       		.uleb128 0x2
 655 0026 01       		.byte	0x1
 656 0027 06       		.byte	0x6
 657 0028 CA070000 		.4byte	.LASF0
 658 002c 02       		.uleb128 0x2
 659 002d 01       		.byte	0x1
ARM GAS  C:\Users\MICHAE~1.MAC\AppData\Local\Temp\cc682toO.s 			page 40


 660 002e 08       		.byte	0x8
 661 002f 68070000 		.4byte	.LASF1
 662 0033 02       		.uleb128 0x2
 663 0034 02       		.byte	0x2
 664 0035 05       		.byte	0x5
 665 0036 1B060000 		.4byte	.LASF2
 666 003a 02       		.uleb128 0x2
 667 003b 02       		.byte	0x2
 668 003c 07       		.byte	0x7
 669 003d DB070000 		.4byte	.LASF3
 670 0041 02       		.uleb128 0x2
 671 0042 04       		.byte	0x4
 672 0043 05       		.byte	0x5
 673 0044 25060000 		.4byte	.LASF4
 674 0048 02       		.uleb128 0x2
 675 0049 04       		.byte	0x4
 676 004a 07       		.byte	0x7
 677 004b 06070000 		.4byte	.LASF5
 678 004f 02       		.uleb128 0x2
 679 0050 08       		.byte	0x8
 680 0051 05       		.byte	0x5
 681 0052 FD030000 		.4byte	.LASF6
 682 0056 02       		.uleb128 0x2
 683 0057 08       		.byte	0x8
 684 0058 07       		.byte	0x7
 685 0059 0E020000 		.4byte	.LASF7
 686 005d 03       		.uleb128 0x3
 687 005e 04       		.byte	0x4
 688 005f 05       		.byte	0x5
 689 0060 696E7400 		.ascii	"int\000"
 690 0064 02       		.uleb128 0x2
 691 0065 04       		.byte	0x4
 692 0066 07       		.byte	0x7
 693 0067 74000000 		.4byte	.LASF8
 694 006b 04       		.uleb128 0x4
 695 006c FB070000 		.4byte	.LASF9
 696 0070 02       		.byte	0x2
 697 0071 E401     		.2byte	0x1e4
 698 0073 2C000000 		.4byte	0x2c
 699 0077 04       		.uleb128 0x4
 700 0078 A7030000 		.4byte	.LASF10
 701 007c 02       		.byte	0x2
 702 007d E501     		.2byte	0x1e5
 703 007f 3A000000 		.4byte	0x3a
 704 0083 04       		.uleb128 0x4
 705 0084 B3040000 		.4byte	.LASF11
 706 0088 02       		.byte	0x2
 707 0089 E601     		.2byte	0x1e6
 708 008b 48000000 		.4byte	0x48
 709 008f 04       		.uleb128 0x4
 710 0090 E2010000 		.4byte	.LASF12
 711 0094 02       		.byte	0x2
 712 0095 E901     		.2byte	0x1e9
 713 0097 41000000 		.4byte	0x41
 714 009b 02       		.uleb128 0x2
 715 009c 04       		.byte	0x4
 716 009d 04       		.byte	0x4
ARM GAS  C:\Users\MICHAE~1.MAC\AppData\Local\Temp\cc682toO.s 			page 41


 717 009e 4A010000 		.4byte	.LASF13
 718 00a2 02       		.uleb128 0x2
 719 00a3 08       		.byte	0x8
 720 00a4 04       		.byte	0x4
 721 00a5 01080000 		.4byte	.LASF14
 722 00a9 02       		.uleb128 0x2
 723 00aa 01       		.byte	0x1
 724 00ab 08       		.byte	0x8
 725 00ac A2030000 		.4byte	.LASF15
 726 00b0 05       		.uleb128 0x5
 727 00b1 83000000 		.4byte	0x83
 728 00b5 06       		.uleb128 0x6
 729 00b6 A9020000 		.4byte	.LASF16
 730 00ba 03       		.byte	0x3
 731 00bb D8       		.byte	0xd8
 732 00bc 64000000 		.4byte	0x64
 733 00c0 02       		.uleb128 0x2
 734 00c1 08       		.byte	0x8
 735 00c2 04       		.byte	0x4
 736 00c3 46050000 		.4byte	.LASF17
 737 00c7 02       		.uleb128 0x2
 738 00c8 04       		.byte	0x4
 739 00c9 07       		.byte	0x7
 740 00ca FD060000 		.4byte	.LASF18
 741 00ce 07       		.uleb128 0x7
 742 00cf 04       		.byte	0x4
 743 00d0 04       		.uleb128 0x4
 744 00d1 0B040000 		.4byte	.LASF19
 745 00d5 04       		.byte	0x4
 746 00d6 4101     		.2byte	0x141
 747 00d8 77000000 		.4byte	0x77
 748 00dc 04       		.uleb128 0x4
 749 00dd 73020000 		.4byte	.LASF20
 750 00e1 04       		.byte	0x4
 751 00e2 4501     		.2byte	0x145
 752 00e4 6B000000 		.4byte	0x6b
 753 00e8 08       		.uleb128 0x8
 754 00e9 01       		.byte	0x1
 755 00ea 2C000000 		.4byte	0x2c
 756 00ee 05       		.byte	0x5
 757 00ef 61       		.byte	0x61
 758 00f0 1F010000 		.4byte	0x11f
 759 00f4 09       		.uleb128 0x9
 760 00f5 F7010000 		.4byte	.LASF21
 761 00f9 01       		.byte	0x1
 762 00fa 09       		.uleb128 0x9
 763 00fb FF040000 		.4byte	.LASF22
 764 00ff 02       		.byte	0x2
 765 0100 09       		.uleb128 0x9
 766 0101 D6030000 		.4byte	.LASF23
 767 0105 03       		.byte	0x3
 768 0106 09       		.uleb128 0x9
 769 0107 4C030000 		.4byte	.LASF24
 770 010b 04       		.byte	0x4
 771 010c 09       		.uleb128 0x9
 772 010d 81030000 		.4byte	.LASF25
 773 0111 05       		.byte	0x5
ARM GAS  C:\Users\MICHAE~1.MAC\AppData\Local\Temp\cc682toO.s 			page 42


 774 0112 09       		.uleb128 0x9
 775 0113 8C050000 		.4byte	.LASF26
 776 0117 06       		.byte	0x6
 777 0118 09       		.uleb128 0x9
 778 0119 A6050000 		.4byte	.LASF27
 779 011d 07       		.byte	0x7
 780 011e 00       		.byte	0
 781 011f 06       		.uleb128 0x6
 782 0120 D0000000 		.4byte	.LASF28
 783 0124 05       		.byte	0x5
 784 0125 69       		.byte	0x69
 785 0126 E8000000 		.4byte	0xe8
 786 012a 0A       		.uleb128 0xa
 787 012b 0E       		.byte	0xe
 788 012c 05       		.byte	0x5
 789 012d 8E       		.byte	0x8e
 790 012e 9F010000 		.4byte	0x19f
 791 0132 0B       		.uleb128 0xb
 792 0133 AE030000 		.4byte	.LASF29
 793 0137 05       		.byte	0x5
 794 0138 93       		.byte	0x93
 795 0139 77000000 		.4byte	0x77
 796 013d 00       		.byte	0
 797 013e 0B       		.uleb128 0xb
 798 013f 30070000 		.4byte	.LASF30
 799 0143 05       		.byte	0x5
 800 0144 98       		.byte	0x98
 801 0145 D0000000 		.4byte	0xd0
 802 0149 02       		.byte	0x2
 803 014a 0B       		.uleb128 0xb
 804 014b 9A030000 		.4byte	.LASF31
 805 014f 05       		.byte	0x5
 806 0150 9D       		.byte	0x9d
 807 0151 6B000000 		.4byte	0x6b
 808 0155 04       		.byte	0x4
 809 0156 0B       		.uleb128 0xb
 810 0157 50040000 		.4byte	.LASF32
 811 015b 05       		.byte	0x5
 812 015c A2       		.byte	0xa2
 813 015d 6B000000 		.4byte	0x6b
 814 0161 05       		.byte	0x5
 815 0162 0B       		.uleb128 0xb
 816 0163 DF020000 		.4byte	.LASF33
 817 0167 05       		.byte	0x5
 818 0168 A8       		.byte	0xa8
 819 0169 6B000000 		.4byte	0x6b
 820 016d 06       		.byte	0x6
 821 016e 0B       		.uleb128 0xb
 822 016f 25040000 		.4byte	.LASF34
 823 0173 05       		.byte	0x5
 824 0174 AE       		.byte	0xae
 825 0175 6B000000 		.4byte	0x6b
 826 0179 07       		.byte	0x7
 827 017a 0B       		.uleb128 0xb
 828 017b 6A030000 		.4byte	.LASF35
 829 017f 05       		.byte	0x5
 830 0180 B5       		.byte	0xb5
ARM GAS  C:\Users\MICHAE~1.MAC\AppData\Local\Temp\cc682toO.s 			page 43


 831 0181 DC000000 		.4byte	0xdc
 832 0185 08       		.byte	0x8
 833 0186 0B       		.uleb128 0xb
 834 0187 18070000 		.4byte	.LASF36
 835 018b 05       		.byte	0x5
 836 018c BC       		.byte	0xbc
 837 018d 9F010000 		.4byte	0x19f
 838 0191 09       		.byte	0x9
 839 0192 0B       		.uleb128 0xb
 840 0193 EF050000 		.4byte	.LASF37
 841 0197 05       		.byte	0x5
 842 0198 C1       		.byte	0xc1
 843 0199 6B000000 		.4byte	0x6b
 844 019d 0C       		.byte	0xc
 845 019e 00       		.byte	0
 846 019f 0C       		.uleb128 0xc
 847 01a0 6B000000 		.4byte	0x6b
 848 01a4 AF010000 		.4byte	0x1af
 849 01a8 0D       		.uleb128 0xd
 850 01a9 C7000000 		.4byte	0xc7
 851 01ad 02       		.byte	0x2
 852 01ae 00       		.byte	0
 853 01af 06       		.uleb128 0x6
 854 01b0 95040000 		.4byte	.LASF38
 855 01b4 05       		.byte	0x5
 856 01b5 C2       		.byte	0xc2
 857 01b6 2A010000 		.4byte	0x12a
 858 01ba 0A       		.uleb128 0xa
 859 01bb 0E       		.byte	0xe
 860 01bc 05       		.byte	0x5
 861 01bd C7       		.byte	0xc7
 862 01be 2F020000 		.4byte	0x22f
 863 01c2 0B       		.uleb128 0xb
 864 01c3 AE030000 		.4byte	.LASF29
 865 01c7 05       		.byte	0x5
 866 01c8 CC       		.byte	0xcc
 867 01c9 77000000 		.4byte	0x77
 868 01cd 00       		.byte	0
 869 01ce 0B       		.uleb128 0xb
 870 01cf 30070000 		.4byte	.LASF30
 871 01d3 05       		.byte	0x5
 872 01d4 D1       		.byte	0xd1
 873 01d5 D0000000 		.4byte	0xd0
 874 01d9 02       		.byte	0x2
 875 01da 0B       		.uleb128 0xb
 876 01db 9A030000 		.4byte	.LASF31
 877 01df 05       		.byte	0x5
 878 01e0 D6       		.byte	0xd6
 879 01e1 6B000000 		.4byte	0x6b
 880 01e5 04       		.byte	0x4
 881 01e6 0B       		.uleb128 0xb
 882 01e7 50040000 		.4byte	.LASF32
 883 01eb 05       		.byte	0x5
 884 01ec DB       		.byte	0xdb
 885 01ed 6B000000 		.4byte	0x6b
 886 01f1 05       		.byte	0x5
 887 01f2 0B       		.uleb128 0xb
ARM GAS  C:\Users\MICHAE~1.MAC\AppData\Local\Temp\cc682toO.s 			page 44


 888 01f3 DF020000 		.4byte	.LASF33
 889 01f7 05       		.byte	0x5
 890 01f8 E1       		.byte	0xe1
 891 01f9 6B000000 		.4byte	0x6b
 892 01fd 06       		.byte	0x6
 893 01fe 0B       		.uleb128 0xb
 894 01ff 25040000 		.4byte	.LASF34
 895 0203 05       		.byte	0x5
 896 0204 E7       		.byte	0xe7
 897 0205 6B000000 		.4byte	0x6b
 898 0209 07       		.byte	0x7
 899 020a 0B       		.uleb128 0xb
 900 020b 6A030000 		.4byte	.LASF35
 901 020f 05       		.byte	0x5
 902 0210 EE       		.byte	0xee
 903 0211 DC000000 		.4byte	0xdc
 904 0215 08       		.byte	0x8
 905 0216 0B       		.uleb128 0xb
 906 0217 18070000 		.4byte	.LASF36
 907 021b 05       		.byte	0x5
 908 021c F5       		.byte	0xf5
 909 021d 9F010000 		.4byte	0x19f
 910 0221 09       		.byte	0x9
 911 0222 0B       		.uleb128 0xb
 912 0223 EF050000 		.4byte	.LASF37
 913 0227 05       		.byte	0x5
 914 0228 FA       		.byte	0xfa
 915 0229 6B000000 		.4byte	0x6b
 916 022d 0C       		.byte	0xc
 917 022e 00       		.byte	0
 918 022f 06       		.uleb128 0x6
 919 0230 6E080000 		.4byte	.LASF39
 920 0234 05       		.byte	0x5
 921 0235 FB       		.byte	0xfb
 922 0236 BA010000 		.4byte	0x1ba
 923 023a 0E       		.uleb128 0xe
 924 023b 8C       		.byte	0x8c
 925 023c 05       		.byte	0x5
 926 023d 0101     		.2byte	0x101
 927 023f C6020000 		.4byte	0x2c6
 928 0243 0F       		.uleb128 0xf
 929 0244 81060000 		.4byte	.LASF40
 930 0248 05       		.byte	0x5
 931 0249 0601     		.2byte	0x106
 932 024b 2F020000 		.4byte	0x22f
 933 024f 00       		.byte	0
 934 0250 0F       		.uleb128 0xf
 935 0251 89060000 		.4byte	.LASF41
 936 0255 05       		.byte	0x5
 937 0256 0B01     		.2byte	0x10b
 938 0258 2F020000 		.4byte	0x22f
 939 025c 0E       		.byte	0xe
 940 025d 0F       		.uleb128 0xf
 941 025e 91060000 		.4byte	.LASF42
 942 0262 05       		.byte	0x5
 943 0263 1001     		.2byte	0x110
 944 0265 2F020000 		.4byte	0x22f
ARM GAS  C:\Users\MICHAE~1.MAC\AppData\Local\Temp\cc682toO.s 			page 45


 945 0269 1C       		.byte	0x1c
 946 026a 0F       		.uleb128 0xf
 947 026b 99060000 		.4byte	.LASF43
 948 026f 05       		.byte	0x5
 949 0270 1501     		.2byte	0x115
 950 0272 2F020000 		.4byte	0x22f
 951 0276 2A       		.byte	0x2a
 952 0277 0F       		.uleb128 0xf
 953 0278 A1060000 		.4byte	.LASF44
 954 027c 05       		.byte	0x5
 955 027d 1A01     		.2byte	0x11a
 956 027f 2F020000 		.4byte	0x22f
 957 0283 38       		.byte	0x38
 958 0284 0F       		.uleb128 0xf
 959 0285 A9060000 		.4byte	.LASF45
 960 0289 05       		.byte	0x5
 961 028a 1F01     		.2byte	0x11f
 962 028c 2F020000 		.4byte	0x22f
 963 0290 46       		.byte	0x46
 964 0291 0F       		.uleb128 0xf
 965 0292 B1060000 		.4byte	.LASF46
 966 0296 05       		.byte	0x5
 967 0297 2401     		.2byte	0x124
 968 0299 2F020000 		.4byte	0x22f
 969 029d 54       		.byte	0x54
 970 029e 0F       		.uleb128 0xf
 971 029f B9060000 		.4byte	.LASF47
 972 02a3 05       		.byte	0x5
 973 02a4 2901     		.2byte	0x129
 974 02a6 2F020000 		.4byte	0x22f
 975 02aa 62       		.byte	0x62
 976 02ab 0F       		.uleb128 0xf
 977 02ac C1060000 		.4byte	.LASF48
 978 02b0 05       		.byte	0x5
 979 02b1 2E01     		.2byte	0x12e
 980 02b3 2F020000 		.4byte	0x22f
 981 02b7 70       		.byte	0x70
 982 02b8 0F       		.uleb128 0xf
 983 02b9 C9060000 		.4byte	.LASF49
 984 02bd 05       		.byte	0x5
 985 02be 3301     		.2byte	0x133
 986 02c0 2F020000 		.4byte	0x22f
 987 02c4 7E       		.byte	0x7e
 988 02c5 00       		.byte	0
 989 02c6 04       		.uleb128 0x4
 990 02c7 00010000 		.4byte	.LASF50
 991 02cb 05       		.byte	0x5
 992 02cc 3401     		.2byte	0x134
 993 02ce 3A020000 		.4byte	0x23a
 994 02d2 0E       		.uleb128 0xe
 995 02d3 18       		.byte	0x18
 996 02d4 05       		.byte	0x5
 997 02d5 3A01     		.2byte	0x13a
 998 02d7 2A030000 		.4byte	0x32a
 999 02db 10       		.uleb128 0x10
 1000 02dc 72617700 		.ascii	"raw\000"
 1001 02e0 05       		.byte	0x5
ARM GAS  C:\Users\MICHAE~1.MAC\AppData\Local\Temp\cc682toO.s 			page 46


 1002 02e1 3F01     		.2byte	0x13f
 1003 02e3 2A030000 		.4byte	0x32a
 1004 02e7 00       		.byte	0
 1005 02e8 0F       		.uleb128 0xf
 1006 02e9 D6070000 		.4byte	.LASF51
 1007 02ed 05       		.byte	0x5
 1008 02ee 4401     		.2byte	0x144
 1009 02f0 2A030000 		.4byte	0x32a
 1010 02f4 06       		.byte	0x6
 1011 02f5 0F       		.uleb128 0xf
 1012 02f6 39070000 		.4byte	.LASF52
 1013 02fa 05       		.byte	0x5
 1014 02fb 4A01     		.2byte	0x14a
 1015 02fd 9F010000 		.4byte	0x19f
 1016 0301 0C       		.byte	0xc
 1017 0302 0F       		.uleb128 0xf
 1018 0303 73060000 		.4byte	.LASF53
 1019 0307 05       		.byte	0x5
 1020 0308 4F01     		.2byte	0x14f
 1021 030a D0000000 		.4byte	0xd0
 1022 030e 10       		.byte	0x10
 1023 030f 0F       		.uleb128 0xf
 1024 0310 32080000 		.4byte	.LASF54
 1025 0314 05       		.byte	0x5
 1026 0315 5401     		.2byte	0x154
 1027 0317 3A030000 		.4byte	0x33a
 1028 031b 12       		.byte	0x12
 1029 031c 0F       		.uleb128 0xf
 1030 031d F4030000 		.4byte	.LASF55
 1031 0321 05       		.byte	0x5
 1032 0322 5901     		.2byte	0x159
 1033 0324 9F010000 		.4byte	0x19f
 1034 0328 15       		.byte	0x15
 1035 0329 00       		.byte	0
 1036 032a 0C       		.uleb128 0xc
 1037 032b 77000000 		.4byte	0x77
 1038 032f 3A030000 		.4byte	0x33a
 1039 0333 0D       		.uleb128 0xd
 1040 0334 C7000000 		.4byte	0xc7
 1041 0338 02       		.byte	0x2
 1042 0339 00       		.byte	0
 1043 033a 0C       		.uleb128 0xc
 1044 033b DC000000 		.4byte	0xdc
 1045 033f 4A030000 		.4byte	0x34a
 1046 0343 0D       		.uleb128 0xd
 1047 0344 C7000000 		.4byte	0xc7
 1048 0348 02       		.byte	0x2
 1049 0349 00       		.byte	0
 1050 034a 04       		.uleb128 0x4
 1051 034b 4B080000 		.4byte	.LASF56
 1052 034f 05       		.byte	0x5
 1053 0350 5A01     		.2byte	0x15a
 1054 0352 D2020000 		.4byte	0x2d2
 1055 0356 0E       		.uleb128 0xe
 1056 0357 F0       		.byte	0xf0
 1057 0358 05       		.byte	0x5
 1058 0359 6001     		.2byte	0x160
ARM GAS  C:\Users\MICHAE~1.MAC\AppData\Local\Temp\cc682toO.s 			page 47


 1059 035b E2030000 		.4byte	0x3e2
 1060 035f 0F       		.uleb128 0xf
 1061 0360 81060000 		.4byte	.LASF40
 1062 0364 05       		.byte	0x5
 1063 0365 6501     		.2byte	0x165
 1064 0367 E2030000 		.4byte	0x3e2
 1065 036b 00       		.byte	0
 1066 036c 0F       		.uleb128 0xf
 1067 036d 89060000 		.4byte	.LASF41
 1068 0371 05       		.byte	0x5
 1069 0372 6A01     		.2byte	0x16a
 1070 0374 E2030000 		.4byte	0x3e2
 1071 0378 18       		.byte	0x18
 1072 0379 0F       		.uleb128 0xf
 1073 037a 91060000 		.4byte	.LASF42
 1074 037e 05       		.byte	0x5
 1075 037f 6F01     		.2byte	0x16f
 1076 0381 E2030000 		.4byte	0x3e2
 1077 0385 30       		.byte	0x30
 1078 0386 0F       		.uleb128 0xf
 1079 0387 99060000 		.4byte	.LASF43
 1080 038b 05       		.byte	0x5
 1081 038c 7401     		.2byte	0x174
 1082 038e E2030000 		.4byte	0x3e2
 1083 0392 48       		.byte	0x48
 1084 0393 0F       		.uleb128 0xf
 1085 0394 A1060000 		.4byte	.LASF44
 1086 0398 05       		.byte	0x5
 1087 0399 7901     		.2byte	0x179
 1088 039b E2030000 		.4byte	0x3e2
 1089 039f 60       		.byte	0x60
 1090 03a0 0F       		.uleb128 0xf
 1091 03a1 A9060000 		.4byte	.LASF45
 1092 03a5 05       		.byte	0x5
 1093 03a6 7E01     		.2byte	0x17e
 1094 03a8 E2030000 		.4byte	0x3e2
 1095 03ac 78       		.byte	0x78
 1096 03ad 0F       		.uleb128 0xf
 1097 03ae B1060000 		.4byte	.LASF46
 1098 03b2 05       		.byte	0x5
 1099 03b3 8301     		.2byte	0x183
 1100 03b5 E2030000 		.4byte	0x3e2
 1101 03b9 90       		.byte	0x90
 1102 03ba 0F       		.uleb128 0xf
 1103 03bb B9060000 		.4byte	.LASF47
 1104 03bf 05       		.byte	0x5
 1105 03c0 8801     		.2byte	0x188
 1106 03c2 E2030000 		.4byte	0x3e2
 1107 03c6 A8       		.byte	0xa8
 1108 03c7 0F       		.uleb128 0xf
 1109 03c8 C1060000 		.4byte	.LASF48
 1110 03cc 05       		.byte	0x5
 1111 03cd 8D01     		.2byte	0x18d
 1112 03cf E2030000 		.4byte	0x3e2
 1113 03d3 C0       		.byte	0xc0
 1114 03d4 0F       		.uleb128 0xf
 1115 03d5 C9060000 		.4byte	.LASF49
ARM GAS  C:\Users\MICHAE~1.MAC\AppData\Local\Temp\cc682toO.s 			page 48


 1116 03d9 05       		.byte	0x5
 1117 03da 9201     		.2byte	0x192
 1118 03dc E2030000 		.4byte	0x3e2
 1119 03e0 D8       		.byte	0xd8
 1120 03e1 00       		.byte	0
 1121 03e2 0C       		.uleb128 0xc
 1122 03e3 4A030000 		.4byte	0x34a
 1123 03e7 F2030000 		.4byte	0x3f2
 1124 03eb 0D       		.uleb128 0xd
 1125 03ec C7000000 		.4byte	0xc7
 1126 03f0 00       		.byte	0
 1127 03f1 00       		.byte	0
 1128 03f2 04       		.uleb128 0x4
 1129 03f3 D2040000 		.4byte	.LASF57
 1130 03f7 05       		.byte	0x5
 1131 03f8 9301     		.2byte	0x193
 1132 03fa 56030000 		.4byte	0x356
 1133 03fe 11       		.uleb128 0x11
 1134 03ff B001     		.2byte	0x1b0
 1135 0401 05       		.byte	0x5
 1136 0402 9901     		.2byte	0x199
 1137 0404 F7040000 		.4byte	0x4f7
 1138 0408 0F       		.uleb128 0xf
 1139 0409 78050000 		.4byte	.LASF58
 1140 040d 05       		.byte	0x5
 1141 040e A001     		.2byte	0x1a0
 1142 0410 77000000 		.4byte	0x77
 1143 0414 00       		.byte	0
 1144 0415 0F       		.uleb128 0xf
 1145 0416 65080000 		.4byte	.LASF59
 1146 041a 05       		.byte	0x5
 1147 041b A501     		.2byte	0x1a5
 1148 041d 77000000 		.4byte	0x77
 1149 0421 02       		.byte	0x2
 1150 0422 0F       		.uleb128 0xf
 1151 0423 8D000000 		.4byte	.LASF60
 1152 0427 05       		.byte	0x5
 1153 0428 AA01     		.2byte	0x1aa
 1154 042a 77000000 		.4byte	0x77
 1155 042e 04       		.byte	0x4
 1156 042f 0F       		.uleb128 0xf
 1157 0430 78060000 		.4byte	.LASF61
 1158 0434 05       		.byte	0x5
 1159 0435 B001     		.2byte	0x1b0
 1160 0437 77000000 		.4byte	0x77
 1161 043b 06       		.byte	0x6
 1162 043c 0F       		.uleb128 0xf
 1163 043d 81000000 		.4byte	.LASF62
 1164 0441 05       		.byte	0x5
 1165 0442 B501     		.2byte	0x1b5
 1166 0444 77000000 		.4byte	0x77
 1167 0448 08       		.byte	0x8
 1168 0449 0F       		.uleb128 0xf
 1169 044a CF030000 		.4byte	.LASF63
 1170 044e 05       		.byte	0x5
 1171 044f BA01     		.2byte	0x1ba
 1172 0451 B0000000 		.4byte	0xb0
ARM GAS  C:\Users\MICHAE~1.MAC\AppData\Local\Temp\cc682toO.s 			page 49


 1173 0455 0C       		.byte	0xc
 1174 0456 0F       		.uleb128 0xf
 1175 0457 55060000 		.4byte	.LASF64
 1176 045b 05       		.byte	0x5
 1177 045c C001     		.2byte	0x1c0
 1178 045e F7040000 		.4byte	0x4f7
 1179 0462 10       		.byte	0x10
 1180 0463 0F       		.uleb128 0xf
 1181 0464 F2060000 		.4byte	.LASF65
 1182 0468 05       		.byte	0x5
 1183 0469 C701     		.2byte	0x1c7
 1184 046b F7040000 		.4byte	0x4f7
 1185 046f 14       		.byte	0x14
 1186 0470 0F       		.uleb128 0xf
 1187 0471 E5050000 		.4byte	.LASF66
 1188 0475 05       		.byte	0x5
 1189 0476 D701     		.2byte	0x1d7
 1190 0478 07050000 		.4byte	0x507
 1191 047c 18       		.byte	0x18
 1192 047d 0F       		.uleb128 0xf
 1193 047e 59040000 		.4byte	.LASF67
 1194 0482 05       		.byte	0x5
 1195 0483 DD01     		.2byte	0x1dd
 1196 0485 77000000 		.4byte	0x77
 1197 0489 22       		.byte	0x22
 1198 048a 0F       		.uleb128 0xf
 1199 048b 9F020000 		.4byte	.LASF68
 1200 048f 05       		.byte	0x5
 1201 0490 E201     		.2byte	0x1e2
 1202 0492 6B000000 		.4byte	0x6b
 1203 0496 24       		.byte	0x24
 1204 0497 0F       		.uleb128 0xf
 1205 0498 00000000 		.4byte	.LASF69
 1206 049c 05       		.byte	0x5
 1207 049d E701     		.2byte	0x1e7
 1208 049f 77000000 		.4byte	0x77
 1209 04a3 26       		.byte	0x26
 1210 04a4 0F       		.uleb128 0xf
 1211 04a5 30040000 		.4byte	.LASF70
 1212 04a9 05       		.byte	0x5
 1213 04aa EC01     		.2byte	0x1ec
 1214 04ac C6020000 		.4byte	0x2c6
 1215 04b0 28       		.byte	0x28
 1216 04b1 0F       		.uleb128 0xf
 1217 04b2 E8010000 		.4byte	.LASF71
 1218 04b6 05       		.byte	0x5
 1219 04b7 F101     		.2byte	0x1f1
 1220 04b9 F2030000 		.4byte	0x3f2
 1221 04bd B4       		.byte	0xb4
 1222 04be 12       		.uleb128 0x12
 1223 04bf 64000000 		.4byte	.LASF72
 1224 04c3 05       		.byte	0x5
 1225 04c4 F601     		.2byte	0x1f6
 1226 04c6 6B000000 		.4byte	0x6b
 1227 04ca A401     		.2byte	0x1a4
 1228 04cc 12       		.uleb128 0x12
 1229 04cd 30020000 		.4byte	.LASF73
ARM GAS  C:\Users\MICHAE~1.MAC\AppData\Local\Temp\cc682toO.s 			page 50


 1230 04d1 05       		.byte	0x5
 1231 04d2 FB01     		.2byte	0x1fb
 1232 04d4 6B000000 		.4byte	0x6b
 1233 04d8 A501     		.2byte	0x1a5
 1234 04da 12       		.uleb128 0x12
 1235 04db 65050000 		.4byte	.LASF74
 1236 04df 05       		.byte	0x5
 1237 04e0 0002     		.2byte	0x200
 1238 04e2 77000000 		.4byte	0x77
 1239 04e6 A601     		.2byte	0x1a6
 1240 04e8 12       		.uleb128 0x12
 1241 04e9 39040000 		.4byte	.LASF75
 1242 04ed 05       		.byte	0x5
 1243 04ee 0502     		.2byte	0x205
 1244 04f0 2A030000 		.4byte	0x32a
 1245 04f4 A801     		.2byte	0x1a8
 1246 04f6 00       		.byte	0
 1247 04f7 0C       		.uleb128 0xc
 1248 04f8 83000000 		.4byte	0x83
 1249 04fc 07050000 		.4byte	0x507
 1250 0500 0D       		.uleb128 0xd
 1251 0501 C7000000 		.4byte	0xc7
 1252 0505 00       		.byte	0
 1253 0506 00       		.byte	0
 1254 0507 0C       		.uleb128 0xc
 1255 0508 6B000000 		.4byte	0x6b
 1256 050c 17050000 		.4byte	0x517
 1257 0510 0D       		.uleb128 0xd
 1258 0511 C7000000 		.4byte	0xc7
 1259 0515 09       		.byte	0x9
 1260 0516 00       		.byte	0
 1261 0517 04       		.uleb128 0x4
 1262 0518 B9030000 		.4byte	.LASF76
 1263 051c 05       		.byte	0x5
 1264 051d 0602     		.2byte	0x206
 1265 051f FE030000 		.4byte	0x3fe
 1266 0523 0E       		.uleb128 0xe
 1267 0524 1C       		.byte	0x1c
 1268 0525 05       		.byte	0x5
 1269 0526 6D02     		.2byte	0x26d
 1270 0528 A2050000 		.4byte	0x5a2
 1271 052c 0F       		.uleb128 0xf
 1272 052d EE070000 		.4byte	.LASF77
 1273 0531 05       		.byte	0x5
 1274 0532 7602     		.2byte	0x276
 1275 0534 A2050000 		.4byte	0x5a2
 1276 0538 00       		.byte	0
 1277 0539 0F       		.uleb128 0xf
 1278 053a A8070000 		.4byte	.LASF78
 1279 053e 05       		.byte	0x5
 1280 053f 7D02     		.2byte	0x27d
 1281 0541 CE000000 		.4byte	0xce
 1282 0545 04       		.byte	0x4
 1283 0546 0F       		.uleb128 0xf
 1284 0547 81050000 		.4byte	.LASF79
 1285 054b 05       		.byte	0x5
 1286 054c 8302     		.2byte	0x283
ARM GAS  C:\Users\MICHAE~1.MAC\AppData\Local\Temp\cc682toO.s 			page 51


 1287 054e A9050000 		.4byte	0x5a9
 1288 0552 08       		.byte	0x8
 1289 0553 0F       		.uleb128 0xf
 1290 0554 C2040000 		.4byte	.LASF80
 1291 0558 05       		.byte	0x5
 1292 0559 8902     		.2byte	0x289
 1293 055b CE000000 		.4byte	0xce
 1294 055f 0C       		.byte	0xc
 1295 0560 0F       		.uleb128 0xf
 1296 0561 20070000 		.4byte	.LASF81
 1297 0565 05       		.byte	0x5
 1298 0566 9002     		.2byte	0x290
 1299 0568 AF050000 		.4byte	0x5af
 1300 056c 10       		.byte	0x10
 1301 056d 0F       		.uleb128 0xf
 1302 056e 9B070000 		.4byte	.LASF82
 1303 0572 05       		.byte	0x5
 1304 0573 9502     		.2byte	0x295
 1305 0575 83000000 		.4byte	0x83
 1306 0579 14       		.byte	0x14
 1307 057a 0F       		.uleb128 0xf
 1308 057b 75030000 		.4byte	.LASF83
 1309 057f 05       		.byte	0x5
 1310 0580 9C02     		.2byte	0x29c
 1311 0582 77000000 		.4byte	0x77
 1312 0586 18       		.byte	0x18
 1313 0587 0F       		.uleb128 0xf
 1314 0588 6A020000 		.4byte	.LASF84
 1315 058c 05       		.byte	0x5
 1316 058d A302     		.2byte	0x2a3
 1317 058f 6B000000 		.4byte	0x6b
 1318 0593 1A       		.byte	0x1a
 1319 0594 0F       		.uleb128 0xf
 1320 0595 DB060000 		.4byte	.LASF85
 1321 0599 05       		.byte	0x5
 1322 059a AD02     		.2byte	0x2ad
 1323 059c 6B000000 		.4byte	0x6b
 1324 05a0 1B       		.byte	0x1b
 1325 05a1 00       		.byte	0
 1326 05a2 13       		.uleb128 0x13
 1327 05a3 04       		.byte	0x4
 1328 05a4 A8050000 		.4byte	0x5a8
 1329 05a8 14       		.uleb128 0x14
 1330 05a9 13       		.uleb128 0x13
 1331 05aa 04       		.byte	0x4
 1332 05ab 4A030000 		.4byte	0x34a
 1333 05af 13       		.uleb128 0x13
 1334 05b0 04       		.byte	0x4
 1335 05b1 6B000000 		.4byte	0x6b
 1336 05b5 04       		.uleb128 0x4
 1337 05b6 0A000000 		.4byte	.LASF86
 1338 05ba 05       		.byte	0x5
 1339 05bb AE02     		.2byte	0x2ae
 1340 05bd 23050000 		.4byte	0x523
 1341 05c1 11       		.uleb128 0x11
 1342 05c2 1801     		.2byte	0x118
 1343 05c4 05       		.byte	0x5
ARM GAS  C:\Users\MICHAE~1.MAC\AppData\Local\Temp\cc682toO.s 			page 52


 1344 05c5 B402     		.2byte	0x2b4
 1345 05c7 D9050000 		.4byte	0x5d9
 1346 05cb 0F       		.uleb128 0xf
 1347 05cc 97080000 		.4byte	.LASF87
 1348 05d0 05       		.byte	0x5
 1349 05d1 B902     		.2byte	0x2b9
 1350 05d3 D9050000 		.4byte	0x5d9
 1351 05d7 00       		.byte	0
 1352 05d8 00       		.byte	0
 1353 05d9 0C       		.uleb128 0xc
 1354 05da B5050000 		.4byte	0x5b5
 1355 05de E9050000 		.4byte	0x5e9
 1356 05e2 0D       		.uleb128 0xd
 1357 05e3 C7000000 		.4byte	0xc7
 1358 05e7 09       		.byte	0x9
 1359 05e8 00       		.byte	0
 1360 05e9 04       		.uleb128 0x4
 1361 05ea CD050000 		.4byte	.LASF88
 1362 05ee 05       		.byte	0x5
 1363 05ef BA02     		.2byte	0x2ba
 1364 05f1 C1050000 		.4byte	0x5c1
 1365 05f5 0E       		.uleb128 0xe
 1366 05f6 0C       		.byte	0xc
 1367 05f7 05       		.byte	0x5
 1368 05f8 EF02     		.2byte	0x2ef
 1369 05fa 26060000 		.4byte	0x626
 1370 05fe 0F       		.uleb128 0xf
 1371 05ff B4070000 		.4byte	.LASF89
 1372 0603 05       		.byte	0x5
 1373 0604 F402     		.2byte	0x2f4
 1374 0606 77000000 		.4byte	0x77
 1375 060a 00       		.byte	0
 1376 060b 0F       		.uleb128 0xf
 1377 060c 5F020000 		.4byte	.LASF90
 1378 0610 05       		.byte	0x5
 1379 0611 FA02     		.2byte	0x2fa
 1380 0613 26060000 		.4byte	0x626
 1381 0617 02       		.byte	0x2
 1382 0618 0F       		.uleb128 0xf
 1383 0619 C2050000 		.4byte	.LASF91
 1384 061d 05       		.byte	0x5
 1385 061e FF02     		.2byte	0x2ff
 1386 0620 2A030000 		.4byte	0x32a
 1387 0624 06       		.byte	0x6
 1388 0625 00       		.byte	0
 1389 0626 0C       		.uleb128 0xc
 1390 0627 77000000 		.4byte	0x77
 1391 062b 36060000 		.4byte	0x636
 1392 062f 0D       		.uleb128 0xd
 1393 0630 C7000000 		.4byte	0xc7
 1394 0634 01       		.byte	0x1
 1395 0635 00       		.byte	0
 1396 0636 04       		.uleb128 0x4
 1397 0637 25000000 		.4byte	.LASF92
 1398 063b 05       		.byte	0x5
 1399 063c 0003     		.2byte	0x300
 1400 063e F5050000 		.4byte	0x5f5
ARM GAS  C:\Users\MICHAE~1.MAC\AppData\Local\Temp\cc682toO.s 			page 53


 1401 0642 0E       		.uleb128 0xe
 1402 0643 24       		.byte	0x24
 1403 0644 05       		.byte	0x5
 1404 0645 0503     		.2byte	0x305
 1405 0647 59060000 		.4byte	0x659
 1406 064b 0F       		.uleb128 0xf
 1407 064c 90020000 		.4byte	.LASF93
 1408 0650 05       		.byte	0x5
 1409 0651 0A03     		.2byte	0x30a
 1410 0653 59060000 		.4byte	0x659
 1411 0657 00       		.byte	0
 1412 0658 00       		.byte	0
 1413 0659 0C       		.uleb128 0xc
 1414 065a 36060000 		.4byte	0x636
 1415 065e 69060000 		.4byte	0x669
 1416 0662 0D       		.uleb128 0xd
 1417 0663 C7000000 		.4byte	0xc7
 1418 0667 02       		.byte	0x2
 1419 0668 00       		.byte	0
 1420 0669 04       		.uleb128 0x4
 1421 066a 40020000 		.4byte	.LASF94
 1422 066e 05       		.byte	0x5
 1423 066f 0B03     		.2byte	0x30b
 1424 0671 42060000 		.4byte	0x642
 1425 0675 15       		.uleb128 0x15
 1426 0676 04       		.byte	0x4
 1427 0677 05       		.byte	0x5
 1428 0678 1003     		.2byte	0x310
 1429 067a 97060000 		.4byte	0x697
 1430 067e 16       		.uleb128 0x16
 1431 067f 70747200 		.ascii	"ptr\000"
 1432 0683 05       		.byte	0x5
 1433 0684 1503     		.2byte	0x315
 1434 0686 CE000000 		.4byte	0xce
 1435 068a 17       		.uleb128 0x17
 1436 068b 25020000 		.4byte	.LASF95
 1437 068f 05       		.byte	0x5
 1438 0690 1A03     		.2byte	0x31a
 1439 0692 97060000 		.4byte	0x697
 1440 0696 00       		.byte	0
 1441 0697 13       		.uleb128 0x13
 1442 0698 04       		.byte	0x4
 1443 0699 69060000 		.4byte	0x669
 1444 069d 04       		.uleb128 0x4
 1445 069e 2E030000 		.4byte	.LASF96
 1446 06a2 05       		.byte	0x5
 1447 06a3 1B03     		.2byte	0x31b
 1448 06a5 75060000 		.4byte	0x675
 1449 06a9 18       		.uleb128 0x18
 1450 06aa E8000000 		.4byte	.LASF101
 1451 06ae 01       		.byte	0x1
 1452 06af 9001     		.2byte	0x190
 1453 06b1 00000000 		.4byte	.LFB1
 1454 06b5 58000000 		.4byte	.LFE1-.LFB1
 1455 06b9 01       		.uleb128 0x1
 1456 06ba 9C       		.byte	0x9c
 1457 06bb 09070000 		.4byte	0x709
ARM GAS  C:\Users\MICHAE~1.MAC\AppData\Local\Temp\cc682toO.s 			page 54


 1458 06bf 19       		.uleb128 0x19
 1459 06c0 53000000 		.4byte	.LASF97
 1460 06c4 01       		.byte	0x1
 1461 06c5 9201     		.2byte	0x192
 1462 06c7 83000000 		.4byte	0x83
 1463 06cb 00000000 		.4byte	.LLST0
 1464 06cf 19       		.uleb128 0x19
 1465 06d0 40080000 		.4byte	.LASF98
 1466 06d4 01       		.byte	0x1
 1467 06d5 9301     		.2byte	0x193
 1468 06d7 1F010000 		.4byte	0x11f
 1469 06db 4D000000 		.4byte	.LLST1
 1470 06df 19       		.uleb128 0x19
 1471 06e0 52050000 		.4byte	.LASF99
 1472 06e4 01       		.byte	0x1
 1473 06e5 9401     		.2byte	0x194
 1474 06e7 09070000 		.4byte	0x709
 1475 06eb 60000000 		.4byte	.LLST2
 1476 06ef 19       		.uleb128 0x19
 1477 06f0 8E070000 		.4byte	.LASF100
 1478 06f4 01       		.byte	0x1
 1479 06f5 9501     		.2byte	0x195
 1480 06f7 0F070000 		.4byte	0x70f
 1481 06fb 73000000 		.4byte	.LLST3
 1482 06ff 1A       		.uleb128 0x1a
 1483 0700 42000000 		.4byte	.LVL8
 1484 0704 BA0A0000 		.4byte	0xaba
 1485 0708 00       		.byte	0
 1486 0709 13       		.uleb128 0x13
 1487 070a 04       		.byte	0x4
 1488 070b AF010000 		.4byte	0x1af
 1489 070f 13       		.uleb128 0x13
 1490 0710 04       		.byte	0x4
 1491 0711 15070000 		.4byte	0x715
 1492 0715 1B       		.uleb128 0x1b
 1493 0716 B5050000 		.4byte	0x5b5
 1494 071a 18       		.uleb128 0x18
 1495 071b FC050000 		.4byte	.LASF102
 1496 071f 01       		.byte	0x1
 1497 0720 5E05     		.2byte	0x55e
 1498 0722 00000000 		.4byte	.LFB5
 1499 0726 38000000 		.4byte	.LFE5-.LFB5
 1500 072a 01       		.uleb128 0x1
 1501 072b 9C       		.byte	0x9c
 1502 072c 7D070000 		.4byte	0x77d
 1503 0730 1C       		.uleb128 0x1c
 1504 0731 52050000 		.4byte	.LASF99
 1505 0735 01       		.byte	0x1
 1506 0736 5F05     		.2byte	0x55f
 1507 0738 09070000 		.4byte	0x709
 1508 073c 01       		.uleb128 0x1
 1509 073d 50       		.byte	0x50
 1510 073e 1C       		.uleb128 0x1c
 1511 073f C6000000 		.4byte	.LASF103
 1512 0743 01       		.byte	0x1
 1513 0744 6005     		.2byte	0x560
 1514 0746 A9050000 		.4byte	0x5a9
ARM GAS  C:\Users\MICHAE~1.MAC\AppData\Local\Temp\cc682toO.s 			page 55


 1515 074a 01       		.uleb128 0x1
 1516 074b 51       		.byte	0x51
 1517 074c 19       		.uleb128 0x19
 1518 074d 9C000000 		.4byte	.LASF104
 1519 0751 01       		.byte	0x1
 1520 0752 6205     		.2byte	0x562
 1521 0754 8F000000 		.4byte	0x8f
 1522 0758 86000000 		.4byte	.LLST4
 1523 075c 19       		.uleb128 0x19
 1524 075d 1D050000 		.4byte	.LASF105
 1525 0761 01       		.byte	0x1
 1526 0762 6505     		.2byte	0x565
 1527 0764 8F000000 		.4byte	0x8f
 1528 0768 C6000000 		.4byte	.LLST5
 1529 076c 19       		.uleb128 0x19
 1530 076d 29050000 		.4byte	.LASF106
 1531 0771 01       		.byte	0x1
 1532 0772 6605     		.2byte	0x566
 1533 0774 8F000000 		.4byte	0x8f
 1534 0778 FB000000 		.4byte	.LLST6
 1535 077c 00       		.byte	0
 1536 077d 1D       		.uleb128 0x1d
 1537 077e 41070000 		.4byte	.LASF112
 1538 0782 01       		.byte	0x1
 1539 0783 F803     		.2byte	0x3f8
 1540 0785 83000000 		.4byte	0x83
 1541 0789 00000000 		.4byte	.LFB2
 1542 078d 66000000 		.4byte	.LFE2-.LFB2
 1543 0791 01       		.uleb128 0x1
 1544 0792 9C       		.byte	0x9c
 1545 0793 71080000 		.4byte	0x871
 1546 0797 1E       		.uleb128 0x1e
 1547 0798 8E070000 		.4byte	.LASF100
 1548 079c 01       		.byte	0x1
 1549 079d F803     		.2byte	0x3f8
 1550 079f 0F070000 		.4byte	0x70f
 1551 07a3 36010000 		.4byte	.LLST7
 1552 07a7 19       		.uleb128 0x19
 1553 07a8 F0010000 		.4byte	.LASF107
 1554 07ac 01       		.byte	0x1
 1555 07ad FA03     		.2byte	0x3fa
 1556 07af 83000000 		.4byte	0x83
 1557 07b3 62010000 		.4byte	.LLST8
 1558 07b7 1F       		.uleb128 0x1f
 1559 07b8 40080000 		.4byte	.LASF98
 1560 07bc 01       		.byte	0x1
 1561 07bd 0004     		.2byte	0x400
 1562 07bf 83000000 		.4byte	0x83
 1563 07c3 02       		.uleb128 0x2
 1564 07c4 91       		.byte	0x91
 1565 07c5 60       		.sleb128 -32
 1566 07c6 19       		.uleb128 0x19
 1567 07c7 44010000 		.4byte	.LASF108
 1568 07cb 01       		.byte	0x1
 1569 07cc 0104     		.2byte	0x401
 1570 07ce 83000000 		.4byte	0x83
 1571 07d2 99010000 		.4byte	.LLST9
ARM GAS  C:\Users\MICHAE~1.MAC\AppData\Local\Temp\cc682toO.s 			page 56


 1572 07d6 19       		.uleb128 0x19
 1573 07d7 D1060000 		.4byte	.LASF109
 1574 07db 01       		.byte	0x1
 1575 07dc 0204     		.2byte	0x402
 1576 07de A9050000 		.4byte	0x5a9
 1577 07e2 B8010000 		.4byte	.LLST10
 1578 07e6 19       		.uleb128 0x19
 1579 07e7 52050000 		.4byte	.LASF99
 1580 07eb 01       		.byte	0x1
 1581 07ec 0304     		.2byte	0x403
 1582 07ee 09070000 		.4byte	0x709
 1583 07f2 CB010000 		.4byte	.LLST11
 1584 07f6 19       		.uleb128 0x19
 1585 07f7 5A000000 		.4byte	.LASF110
 1586 07fb 01       		.byte	0x1
 1587 07fc 0E04     		.2byte	0x40e
 1588 07fe 9D060000 		.4byte	0x69d
 1589 0802 EA010000 		.4byte	.LLST12
 1590 0806 19       		.uleb128 0x19
 1591 0807 83070000 		.4byte	.LASF111
 1592 080b 01       		.byte	0x1
 1593 080c 1104     		.2byte	0x411
 1594 080e 83000000 		.4byte	0x83
 1595 0812 FD010000 		.4byte	.LLST13
 1596 0816 20       		.uleb128 0x20
 1597 0817 36000000 		.4byte	.LVL31
 1598 081b C50A0000 		.4byte	0xac5
 1599 081f 37080000 		.4byte	0x837
 1600 0823 21       		.uleb128 0x21
 1601 0824 01       		.uleb128 0x1
 1602 0825 50       		.byte	0x50
 1603 0826 02       		.uleb128 0x2
 1604 0827 75       		.byte	0x75
 1605 0828 00       		.sleb128 0
 1606 0829 21       		.uleb128 0x21
 1607 082a 01       		.uleb128 0x1
 1608 082b 51       		.byte	0x51
 1609 082c 02       		.uleb128 0x2
 1610 082d 74       		.byte	0x74
 1611 082e 00       		.sleb128 0
 1612 082f 21       		.uleb128 0x21
 1613 0830 01       		.uleb128 0x1
 1614 0831 52       		.byte	0x52
 1615 0832 03       		.uleb128 0x3
 1616 0833 91       		.byte	0x91
 1617 0834 60       		.sleb128 -32
 1618 0835 06       		.byte	0x6
 1619 0836 00       		.byte	0
 1620 0837 20       		.uleb128 0x20
 1621 0838 40000000 		.4byte	.LVL32
 1622 083c D00A0000 		.4byte	0xad0
 1623 0840 59080000 		.4byte	0x859
 1624 0844 21       		.uleb128 0x21
 1625 0845 01       		.uleb128 0x1
 1626 0846 50       		.byte	0x50
 1627 0847 03       		.uleb128 0x3
 1628 0848 91       		.byte	0x91
ARM GAS  C:\Users\MICHAE~1.MAC\AppData\Local\Temp\cc682toO.s 			page 57


 1629 0849 5C       		.sleb128 -36
 1630 084a 06       		.byte	0x6
 1631 084b 21       		.uleb128 0x21
 1632 084c 01       		.uleb128 0x1
 1633 084d 51       		.byte	0x51
 1634 084e 02       		.uleb128 0x2
 1635 084f 74       		.byte	0x74
 1636 0850 00       		.sleb128 0
 1637 0851 21       		.uleb128 0x21
 1638 0852 01       		.uleb128 0x1
 1639 0853 52       		.byte	0x52
 1640 0854 03       		.uleb128 0x3
 1641 0855 91       		.byte	0x91
 1642 0856 60       		.sleb128 -32
 1643 0857 06       		.byte	0x6
 1644 0858 00       		.byte	0
 1645 0859 22       		.uleb128 0x22
 1646 085a 4A000000 		.4byte	.LVL35
 1647 085e 1A070000 		.4byte	0x71a
 1648 0862 21       		.uleb128 0x21
 1649 0863 01       		.uleb128 0x1
 1650 0864 50       		.byte	0x50
 1651 0865 03       		.uleb128 0x3
 1652 0866 91       		.byte	0x91
 1653 0867 5C       		.sleb128 -36
 1654 0868 06       		.byte	0x6
 1655 0869 21       		.uleb128 0x21
 1656 086a 01       		.uleb128 0x1
 1657 086b 51       		.byte	0x51
 1658 086c 02       		.uleb128 0x2
 1659 086d 74       		.byte	0x74
 1660 086e 00       		.sleb128 0
 1661 086f 00       		.byte	0
 1662 0870 00       		.byte	0
 1663 0871 1D       		.uleb128 0x1d
 1664 0872 08080000 		.4byte	.LASF113
 1665 0876 01       		.byte	0x1
 1666 0877 7A04     		.2byte	0x47a
 1667 0879 83000000 		.4byte	0x83
 1668 087d 00000000 		.4byte	.LFB3
 1669 0881 40000000 		.4byte	.LFE3-.LFB3
 1670 0885 01       		.uleb128 0x1
 1671 0886 9C       		.byte	0x9c
 1672 0887 53090000 		.4byte	0x953
 1673 088b 1E       		.uleb128 0x1e
 1674 088c 8E070000 		.4byte	.LASF100
 1675 0890 01       		.byte	0x1
 1676 0891 7B04     		.2byte	0x47b
 1677 0893 0F070000 		.4byte	0x70f
 1678 0897 26020000 		.4byte	.LLST14
 1679 089b 1E       		.uleb128 0x1e
 1680 089c C6000000 		.4byte	.LASF103
 1681 08a0 01       		.byte	0x1
 1682 08a1 7C04     		.2byte	0x47c
 1683 08a3 A9050000 		.4byte	0x5a9
 1684 08a7 47020000 		.4byte	.LLST15
 1685 08ab 1E       		.uleb128 0x1e
ARM GAS  C:\Users\MICHAE~1.MAC\AppData\Local\Temp\cc682toO.s 			page 58


 1686 08ac 5A000000 		.4byte	.LASF110
 1687 08b0 01       		.byte	0x1
 1688 08b1 7D04     		.2byte	0x47d
 1689 08b3 9D060000 		.4byte	0x69d
 1690 08b7 73020000 		.4byte	.LLST16
 1691 08bb 1E       		.uleb128 0x1e
 1692 08bc C1000000 		.4byte	.LASF114
 1693 08c0 01       		.byte	0x1
 1694 08c1 7E04     		.2byte	0x47e
 1695 08c3 83000000 		.4byte	0x83
 1696 08c7 A7020000 		.4byte	.LLST17
 1697 08cb 19       		.uleb128 0x19
 1698 08cc F0010000 		.4byte	.LASF107
 1699 08d0 01       		.byte	0x1
 1700 08d1 8004     		.2byte	0x480
 1701 08d3 83000000 		.4byte	0x83
 1702 08d7 D3020000 		.4byte	.LLST18
 1703 08db 19       		.uleb128 0x19
 1704 08dc 40080000 		.4byte	.LASF98
 1705 08e0 01       		.byte	0x1
 1706 08e1 8104     		.2byte	0x481
 1707 08e3 83000000 		.4byte	0x83
 1708 08e7 14030000 		.4byte	.LLST19
 1709 08eb 19       		.uleb128 0x19
 1710 08ec 52050000 		.4byte	.LASF99
 1711 08f0 01       		.byte	0x1
 1712 08f1 8204     		.2byte	0x482
 1713 08f3 09070000 		.4byte	0x709
 1714 08f7 32030000 		.4byte	.LLST20
 1715 08fb 20       		.uleb128 0x20
 1716 08fc 1A000000 		.4byte	.LVL52
 1717 0900 C50A0000 		.4byte	0xac5
 1718 0904 1C090000 		.4byte	0x91c
 1719 0908 21       		.uleb128 0x21
 1720 0909 01       		.uleb128 0x1
 1721 090a 50       		.byte	0x50
 1722 090b 03       		.uleb128 0x3
 1723 090c 91       		.byte	0x91
 1724 090d 64       		.sleb128 -28
 1725 090e 06       		.byte	0x6
 1726 090f 21       		.uleb128 0x21
 1727 0910 01       		.uleb128 0x1
 1728 0911 51       		.byte	0x51
 1729 0912 02       		.uleb128 0x2
 1730 0913 76       		.byte	0x76
 1731 0914 00       		.sleb128 0
 1732 0915 21       		.uleb128 0x21
 1733 0916 01       		.uleb128 0x1
 1734 0917 52       		.byte	0x52
 1735 0918 02       		.uleb128 0x2
 1736 0919 75       		.byte	0x75
 1737 091a 00       		.sleb128 0
 1738 091b 00       		.byte	0
 1739 091c 20       		.uleb128 0x20
 1740 091d 28000000 		.4byte	.LVL54
 1741 0921 D00A0000 		.4byte	0xad0
 1742 0925 3C090000 		.4byte	0x93c
ARM GAS  C:\Users\MICHAE~1.MAC\AppData\Local\Temp\cc682toO.s 			page 59


 1743 0929 21       		.uleb128 0x21
 1744 092a 01       		.uleb128 0x1
 1745 092b 50       		.byte	0x50
 1746 092c 02       		.uleb128 0x2
 1747 092d 77       		.byte	0x77
 1748 092e 00       		.sleb128 0
 1749 092f 21       		.uleb128 0x21
 1750 0930 01       		.uleb128 0x1
 1751 0931 51       		.byte	0x51
 1752 0932 02       		.uleb128 0x2
 1753 0933 76       		.byte	0x76
 1754 0934 00       		.sleb128 0
 1755 0935 21       		.uleb128 0x21
 1756 0936 01       		.uleb128 0x1
 1757 0937 52       		.byte	0x52
 1758 0938 02       		.uleb128 0x2
 1759 0939 75       		.byte	0x75
 1760 093a 00       		.sleb128 0
 1761 093b 00       		.byte	0
 1762 093c 22       		.uleb128 0x22
 1763 093d 3A000000 		.4byte	.LVL58
 1764 0941 1A070000 		.4byte	0x71a
 1765 0945 21       		.uleb128 0x21
 1766 0946 01       		.uleb128 0x1
 1767 0947 50       		.byte	0x50
 1768 0948 02       		.uleb128 0x2
 1769 0949 77       		.byte	0x77
 1770 094a 00       		.sleb128 0
 1771 094b 21       		.uleb128 0x21
 1772 094c 01       		.uleb128 0x1
 1773 094d 51       		.byte	0x51
 1774 094e 02       		.uleb128 0x2
 1775 094f 76       		.byte	0x76
 1776 0950 00       		.sleb128 0
 1777 0951 00       		.byte	0
 1778 0952 00       		.byte	0
 1779 0953 1D       		.uleb128 0x1d
 1780 0954 A6000000 		.4byte	.LASF115
 1781 0958 01       		.byte	0x1
 1782 0959 A805     		.2byte	0x5a8
 1783 095b 83000000 		.4byte	0x83
 1784 095f 00000000 		.4byte	.LFB6
 1785 0963 64000000 		.4byte	.LFE6-.LFB6
 1786 0967 01       		.uleb128 0x1
 1787 0968 9C       		.byte	0x9c
 1788 0969 FC090000 		.4byte	0x9fc
 1789 096d 1E       		.uleb128 0x1e
 1790 096e BF070000 		.4byte	.LASF116
 1791 0972 01       		.byte	0x1
 1792 0973 A805     		.2byte	0x5a8
 1793 0975 83000000 		.4byte	0x83
 1794 0979 45030000 		.4byte	.LLST21
 1795 097d 1E       		.uleb128 0x1e
 1796 097e 8E070000 		.4byte	.LASF100
 1797 0982 01       		.byte	0x1
 1798 0983 A805     		.2byte	0x5a8
 1799 0985 0F070000 		.4byte	0x70f
ARM GAS  C:\Users\MICHAE~1.MAC\AppData\Local\Temp\cc682toO.s 			page 60


 1800 0989 63030000 		.4byte	.LLST22
 1801 098d 19       		.uleb128 0x19
 1802 098e 4C000000 		.4byte	.LASF117
 1803 0992 01       		.byte	0x1
 1804 0993 AA05     		.2byte	0x5aa
 1805 0995 83000000 		.4byte	0x83
 1806 0999 84030000 		.4byte	.LLST23
 1807 099d 19       		.uleb128 0x19
 1808 099e 5D050000 		.4byte	.LASF118
 1809 09a2 01       		.byte	0x1
 1810 09a3 AB05     		.2byte	0x5ab
 1811 09a5 83000000 		.4byte	0x83
 1812 09a9 CE030000 		.4byte	.LLST24
 1813 09ad 19       		.uleb128 0x19
 1814 09ae 3A010000 		.4byte	.LASF119
 1815 09b2 01       		.byte	0x1
 1816 09b3 AC05     		.2byte	0x5ac
 1817 09b5 83000000 		.4byte	0x83
 1818 09b9 ED030000 		.4byte	.LLST25
 1819 09bd 19       		.uleb128 0x19
 1820 09be BA040000 		.4byte	.LASF120
 1821 09c2 01       		.byte	0x1
 1822 09c3 AD05     		.2byte	0x5ad
 1823 09c5 83000000 		.4byte	0x83
 1824 09c9 0B040000 		.4byte	.LLST26
 1825 09cd 19       		.uleb128 0x19
 1826 09ce D1060000 		.4byte	.LASF109
 1827 09d2 01       		.byte	0x1
 1828 09d3 AE05     		.2byte	0x5ae
 1829 09d5 A9050000 		.4byte	0x5a9
 1830 09d9 29040000 		.4byte	.LLST27
 1831 09dd 19       		.uleb128 0x19
 1832 09de 52050000 		.4byte	.LASF99
 1833 09e2 01       		.byte	0x1
 1834 09e3 AF05     		.2byte	0x5af
 1835 09e5 09070000 		.4byte	0x709
 1836 09e9 3C040000 		.4byte	.LLST28
 1837 09ed 1F       		.uleb128 0x1f
 1838 09ee E3060000 		.4byte	.LASF121
 1839 09f2 01       		.byte	0x1
 1840 09f3 B005     		.2byte	0x5b0
 1841 09f5 AF050000 		.4byte	0x5af
 1842 09f9 01       		.uleb128 0x1
 1843 09fa 53       		.byte	0x53
 1844 09fb 00       		.byte	0
 1845 09fc 18       		.uleb128 0x18
 1846 09fd 64040000 		.4byte	.LASF122
 1847 0a01 01       		.byte	0x1
 1848 0a02 DE04     		.2byte	0x4de
 1849 0a04 00000000 		.4byte	.LFB4
 1850 0a08 58000000 		.4byte	.LFE4-.LFB4
 1851 0a0c 01       		.uleb128 0x1
 1852 0a0d 9C       		.byte	0x9c
 1853 0a0e 9D0A0000 		.4byte	0xa9d
 1854 0a12 1E       		.uleb128 0x1e
 1855 0a13 8E080000 		.4byte	.LASF123
 1856 0a17 01       		.byte	0x1
ARM GAS  C:\Users\MICHAE~1.MAC\AppData\Local\Temp\cc682toO.s 			page 61


 1857 0a18 DE04     		.2byte	0x4de
 1858 0a1a 83000000 		.4byte	0x83
 1859 0a1e 4F040000 		.4byte	.LLST29
 1860 0a22 1E       		.uleb128 0x1e
 1861 0a23 8E070000 		.4byte	.LASF100
 1862 0a27 01       		.byte	0x1
 1863 0a28 DE04     		.2byte	0x4de
 1864 0a2a 0F070000 		.4byte	0x70f
 1865 0a2e 91040000 		.4byte	.LLST30
 1866 0a32 19       		.uleb128 0x19
 1867 0a33 88040000 		.4byte	.LASF124
 1868 0a37 01       		.byte	0x1
 1869 0a38 E004     		.2byte	0x4e0
 1870 0a3a 83000000 		.4byte	0x83
 1871 0a3e CB040000 		.4byte	.LLST31
 1872 0a42 19       		.uleb128 0x19
 1873 0a43 F1040000 		.4byte	.LASF125
 1874 0a47 01       		.byte	0x1
 1875 0a48 E104     		.2byte	0x4e1
 1876 0a4a 83000000 		.4byte	0x83
 1877 0a4e F4040000 		.4byte	.LLST32
 1878 0a52 19       		.uleb128 0x19
 1879 0a53 76070000 		.4byte	.LASF126
 1880 0a57 01       		.byte	0x1
 1881 0a58 E204     		.2byte	0x4e2
 1882 0a5a 83000000 		.4byte	0x83
 1883 0a5e 4C050000 		.4byte	.LLST33
 1884 0a62 19       		.uleb128 0x19
 1885 0a63 40080000 		.4byte	.LASF98
 1886 0a67 01       		.byte	0x1
 1887 0a68 E304     		.2byte	0x4e3
 1888 0a6a 1F010000 		.4byte	0x11f
 1889 0a6e 80050000 		.4byte	.LLST34
 1890 0a72 20       		.uleb128 0x20
 1891 0a73 16000000 		.4byte	.LVL92
 1892 0a77 53090000 		.4byte	0x953
 1893 0a7b 8D0A0000 		.4byte	0xa8d
 1894 0a7f 21       		.uleb128 0x21
 1895 0a80 01       		.uleb128 0x1
 1896 0a81 50       		.byte	0x50
 1897 0a82 02       		.uleb128 0x2
 1898 0a83 75       		.byte	0x75
 1899 0a84 00       		.sleb128 0
 1900 0a85 21       		.uleb128 0x21
 1901 0a86 01       		.uleb128 0x1
 1902 0a87 51       		.byte	0x51
 1903 0a88 03       		.uleb128 0x3
 1904 0a89 F3       		.byte	0xf3
 1905 0a8a 01       		.uleb128 0x1
 1906 0a8b 51       		.byte	0x51
 1907 0a8c 00       		.byte	0
 1908 0a8d 22       		.uleb128 0x22
 1909 0a8e 20000000 		.4byte	.LVL96
 1910 0a92 DB0A0000 		.4byte	0xadb
 1911 0a96 21       		.uleb128 0x21
 1912 0a97 01       		.uleb128 0x1
 1913 0a98 50       		.byte	0x50
ARM GAS  C:\Users\MICHAE~1.MAC\AppData\Local\Temp\cc682toO.s 			page 62


 1914 0a99 01       		.uleb128 0x1
 1915 0a9a 30       		.byte	0x30
 1916 0a9b 00       		.byte	0
 1917 0a9c 00       		.byte	0
 1918 0a9d 23       		.uleb128 0x23
 1919 0a9e 35050000 		.4byte	.LASF127
 1920 0aa2 05       		.byte	0x5
 1921 0aa3 5C04     		.2byte	0x45c
 1922 0aa5 17050000 		.4byte	0x517
 1923 0aa9 23       		.uleb128 0x23
 1924 0aaa 60060000 		.4byte	.LASF128
 1925 0aae 05       		.byte	0x5
 1926 0aaf 5D04     		.2byte	0x45d
 1927 0ab1 B50A0000 		.4byte	0xab5
 1928 0ab5 1B       		.uleb128 0x1b
 1929 0ab6 E9050000 		.4byte	0x5e9
 1930 0aba 24       		.uleb128 0x24
 1931 0abb 49040000 		.4byte	.LASF129
 1932 0abf 49040000 		.4byte	.LASF129
 1933 0ac3 06       		.byte	0x6
 1934 0ac4 19       		.byte	0x19
 1935 0ac5 24       		.uleb128 0x24
 1936 0ac6 2E060000 		.4byte	.LASF130
 1937 0aca 2E060000 		.4byte	.LASF130
 1938 0ace 07       		.byte	0x7
 1939 0acf 85       		.byte	0x85
 1940 0ad0 24       		.uleb128 0x24
 1941 0ad1 1E010000 		.4byte	.LASF131
 1942 0ad5 1E010000 		.4byte	.LASF131
 1943 0ad9 07       		.byte	0x7
 1944 0ada 72       		.byte	0x72
 1945 0adb 24       		.uleb128 0x24
 1946 0adc 95000000 		.4byte	.LASF132
 1947 0ae0 95000000 		.4byte	.LASF132
 1948 0ae4 08       		.byte	0x8
 1949 0ae5 E7       		.byte	0xe7
 1950 0ae6 00       		.byte	0
 1951              		.section	.debug_abbrev,"",%progbits
 1952              	.Ldebug_abbrev0:
 1953 0000 01       		.uleb128 0x1
 1954 0001 11       		.uleb128 0x11
 1955 0002 01       		.byte	0x1
 1956 0003 25       		.uleb128 0x25
 1957 0004 0E       		.uleb128 0xe
 1958 0005 13       		.uleb128 0x13
 1959 0006 0B       		.uleb128 0xb
 1960 0007 03       		.uleb128 0x3
 1961 0008 0E       		.uleb128 0xe
 1962 0009 1B       		.uleb128 0x1b
 1963 000a 0E       		.uleb128 0xe
 1964 000b 55       		.uleb128 0x55
 1965 000c 17       		.uleb128 0x17
 1966 000d 11       		.uleb128 0x11
 1967 000e 01       		.uleb128 0x1
 1968 000f 10       		.uleb128 0x10
 1969 0010 17       		.uleb128 0x17
 1970 0011 00       		.byte	0
ARM GAS  C:\Users\MICHAE~1.MAC\AppData\Local\Temp\cc682toO.s 			page 63


 1971 0012 00       		.byte	0
 1972 0013 02       		.uleb128 0x2
 1973 0014 24       		.uleb128 0x24
 1974 0015 00       		.byte	0
 1975 0016 0B       		.uleb128 0xb
 1976 0017 0B       		.uleb128 0xb
 1977 0018 3E       		.uleb128 0x3e
 1978 0019 0B       		.uleb128 0xb
 1979 001a 03       		.uleb128 0x3
 1980 001b 0E       		.uleb128 0xe
 1981 001c 00       		.byte	0
 1982 001d 00       		.byte	0
 1983 001e 03       		.uleb128 0x3
 1984 001f 24       		.uleb128 0x24
 1985 0020 00       		.byte	0
 1986 0021 0B       		.uleb128 0xb
 1987 0022 0B       		.uleb128 0xb
 1988 0023 3E       		.uleb128 0x3e
 1989 0024 0B       		.uleb128 0xb
 1990 0025 03       		.uleb128 0x3
 1991 0026 08       		.uleb128 0x8
 1992 0027 00       		.byte	0
 1993 0028 00       		.byte	0
 1994 0029 04       		.uleb128 0x4
 1995 002a 16       		.uleb128 0x16
 1996 002b 00       		.byte	0
 1997 002c 03       		.uleb128 0x3
 1998 002d 0E       		.uleb128 0xe
 1999 002e 3A       		.uleb128 0x3a
 2000 002f 0B       		.uleb128 0xb
 2001 0030 3B       		.uleb128 0x3b
 2002 0031 05       		.uleb128 0x5
 2003 0032 49       		.uleb128 0x49
 2004 0033 13       		.uleb128 0x13
 2005 0034 00       		.byte	0
 2006 0035 00       		.byte	0
 2007 0036 05       		.uleb128 0x5
 2008 0037 35       		.uleb128 0x35
 2009 0038 00       		.byte	0
 2010 0039 49       		.uleb128 0x49
 2011 003a 13       		.uleb128 0x13
 2012 003b 00       		.byte	0
 2013 003c 00       		.byte	0
 2014 003d 06       		.uleb128 0x6
 2015 003e 16       		.uleb128 0x16
 2016 003f 00       		.byte	0
 2017 0040 03       		.uleb128 0x3
 2018 0041 0E       		.uleb128 0xe
 2019 0042 3A       		.uleb128 0x3a
 2020 0043 0B       		.uleb128 0xb
 2021 0044 3B       		.uleb128 0x3b
 2022 0045 0B       		.uleb128 0xb
 2023 0046 49       		.uleb128 0x49
 2024 0047 13       		.uleb128 0x13
 2025 0048 00       		.byte	0
 2026 0049 00       		.byte	0
 2027 004a 07       		.uleb128 0x7
ARM GAS  C:\Users\MICHAE~1.MAC\AppData\Local\Temp\cc682toO.s 			page 64


 2028 004b 0F       		.uleb128 0xf
 2029 004c 00       		.byte	0
 2030 004d 0B       		.uleb128 0xb
 2031 004e 0B       		.uleb128 0xb
 2032 004f 00       		.byte	0
 2033 0050 00       		.byte	0
 2034 0051 08       		.uleb128 0x8
 2035 0052 04       		.uleb128 0x4
 2036 0053 01       		.byte	0x1
 2037 0054 0B       		.uleb128 0xb
 2038 0055 0B       		.uleb128 0xb
 2039 0056 49       		.uleb128 0x49
 2040 0057 13       		.uleb128 0x13
 2041 0058 3A       		.uleb128 0x3a
 2042 0059 0B       		.uleb128 0xb
 2043 005a 3B       		.uleb128 0x3b
 2044 005b 0B       		.uleb128 0xb
 2045 005c 01       		.uleb128 0x1
 2046 005d 13       		.uleb128 0x13
 2047 005e 00       		.byte	0
 2048 005f 00       		.byte	0
 2049 0060 09       		.uleb128 0x9
 2050 0061 28       		.uleb128 0x28
 2051 0062 00       		.byte	0
 2052 0063 03       		.uleb128 0x3
 2053 0064 0E       		.uleb128 0xe
 2054 0065 1C       		.uleb128 0x1c
 2055 0066 0B       		.uleb128 0xb
 2056 0067 00       		.byte	0
 2057 0068 00       		.byte	0
 2058 0069 0A       		.uleb128 0xa
 2059 006a 13       		.uleb128 0x13
 2060 006b 01       		.byte	0x1
 2061 006c 0B       		.uleb128 0xb
 2062 006d 0B       		.uleb128 0xb
 2063 006e 3A       		.uleb128 0x3a
 2064 006f 0B       		.uleb128 0xb
 2065 0070 3B       		.uleb128 0x3b
 2066 0071 0B       		.uleb128 0xb
 2067 0072 01       		.uleb128 0x1
 2068 0073 13       		.uleb128 0x13
 2069 0074 00       		.byte	0
 2070 0075 00       		.byte	0
 2071 0076 0B       		.uleb128 0xb
 2072 0077 0D       		.uleb128 0xd
 2073 0078 00       		.byte	0
 2074 0079 03       		.uleb128 0x3
 2075 007a 0E       		.uleb128 0xe
 2076 007b 3A       		.uleb128 0x3a
 2077 007c 0B       		.uleb128 0xb
 2078 007d 3B       		.uleb128 0x3b
 2079 007e 0B       		.uleb128 0xb
 2080 007f 49       		.uleb128 0x49
 2081 0080 13       		.uleb128 0x13
 2082 0081 38       		.uleb128 0x38
 2083 0082 0B       		.uleb128 0xb
 2084 0083 00       		.byte	0
ARM GAS  C:\Users\MICHAE~1.MAC\AppData\Local\Temp\cc682toO.s 			page 65


 2085 0084 00       		.byte	0
 2086 0085 0C       		.uleb128 0xc
 2087 0086 01       		.uleb128 0x1
 2088 0087 01       		.byte	0x1
 2089 0088 49       		.uleb128 0x49
 2090 0089 13       		.uleb128 0x13
 2091 008a 01       		.uleb128 0x1
 2092 008b 13       		.uleb128 0x13
 2093 008c 00       		.byte	0
 2094 008d 00       		.byte	0
 2095 008e 0D       		.uleb128 0xd
 2096 008f 21       		.uleb128 0x21
 2097 0090 00       		.byte	0
 2098 0091 49       		.uleb128 0x49
 2099 0092 13       		.uleb128 0x13
 2100 0093 2F       		.uleb128 0x2f
 2101 0094 0B       		.uleb128 0xb
 2102 0095 00       		.byte	0
 2103 0096 00       		.byte	0
 2104 0097 0E       		.uleb128 0xe
 2105 0098 13       		.uleb128 0x13
 2106 0099 01       		.byte	0x1
 2107 009a 0B       		.uleb128 0xb
 2108 009b 0B       		.uleb128 0xb
 2109 009c 3A       		.uleb128 0x3a
 2110 009d 0B       		.uleb128 0xb
 2111 009e 3B       		.uleb128 0x3b
 2112 009f 05       		.uleb128 0x5
 2113 00a0 01       		.uleb128 0x1
 2114 00a1 13       		.uleb128 0x13
 2115 00a2 00       		.byte	0
 2116 00a3 00       		.byte	0
 2117 00a4 0F       		.uleb128 0xf
 2118 00a5 0D       		.uleb128 0xd
 2119 00a6 00       		.byte	0
 2120 00a7 03       		.uleb128 0x3
 2121 00a8 0E       		.uleb128 0xe
 2122 00a9 3A       		.uleb128 0x3a
 2123 00aa 0B       		.uleb128 0xb
 2124 00ab 3B       		.uleb128 0x3b
 2125 00ac 05       		.uleb128 0x5
 2126 00ad 49       		.uleb128 0x49
 2127 00ae 13       		.uleb128 0x13
 2128 00af 38       		.uleb128 0x38
 2129 00b0 0B       		.uleb128 0xb
 2130 00b1 00       		.byte	0
 2131 00b2 00       		.byte	0
 2132 00b3 10       		.uleb128 0x10
 2133 00b4 0D       		.uleb128 0xd
 2134 00b5 00       		.byte	0
 2135 00b6 03       		.uleb128 0x3
 2136 00b7 08       		.uleb128 0x8
 2137 00b8 3A       		.uleb128 0x3a
 2138 00b9 0B       		.uleb128 0xb
 2139 00ba 3B       		.uleb128 0x3b
 2140 00bb 05       		.uleb128 0x5
 2141 00bc 49       		.uleb128 0x49
ARM GAS  C:\Users\MICHAE~1.MAC\AppData\Local\Temp\cc682toO.s 			page 66


 2142 00bd 13       		.uleb128 0x13
 2143 00be 38       		.uleb128 0x38
 2144 00bf 0B       		.uleb128 0xb
 2145 00c0 00       		.byte	0
 2146 00c1 00       		.byte	0
 2147 00c2 11       		.uleb128 0x11
 2148 00c3 13       		.uleb128 0x13
 2149 00c4 01       		.byte	0x1
 2150 00c5 0B       		.uleb128 0xb
 2151 00c6 05       		.uleb128 0x5
 2152 00c7 3A       		.uleb128 0x3a
 2153 00c8 0B       		.uleb128 0xb
 2154 00c9 3B       		.uleb128 0x3b
 2155 00ca 05       		.uleb128 0x5
 2156 00cb 01       		.uleb128 0x1
 2157 00cc 13       		.uleb128 0x13
 2158 00cd 00       		.byte	0
 2159 00ce 00       		.byte	0
 2160 00cf 12       		.uleb128 0x12
 2161 00d0 0D       		.uleb128 0xd
 2162 00d1 00       		.byte	0
 2163 00d2 03       		.uleb128 0x3
 2164 00d3 0E       		.uleb128 0xe
 2165 00d4 3A       		.uleb128 0x3a
 2166 00d5 0B       		.uleb128 0xb
 2167 00d6 3B       		.uleb128 0x3b
 2168 00d7 05       		.uleb128 0x5
 2169 00d8 49       		.uleb128 0x49
 2170 00d9 13       		.uleb128 0x13
 2171 00da 38       		.uleb128 0x38
 2172 00db 05       		.uleb128 0x5
 2173 00dc 00       		.byte	0
 2174 00dd 00       		.byte	0
 2175 00de 13       		.uleb128 0x13
 2176 00df 0F       		.uleb128 0xf
 2177 00e0 00       		.byte	0
 2178 00e1 0B       		.uleb128 0xb
 2179 00e2 0B       		.uleb128 0xb
 2180 00e3 49       		.uleb128 0x49
 2181 00e4 13       		.uleb128 0x13
 2182 00e5 00       		.byte	0
 2183 00e6 00       		.byte	0
 2184 00e7 14       		.uleb128 0x14
 2185 00e8 26       		.uleb128 0x26
 2186 00e9 00       		.byte	0
 2187 00ea 00       		.byte	0
 2188 00eb 00       		.byte	0
 2189 00ec 15       		.uleb128 0x15
 2190 00ed 17       		.uleb128 0x17
 2191 00ee 01       		.byte	0x1
 2192 00ef 0B       		.uleb128 0xb
 2193 00f0 0B       		.uleb128 0xb
 2194 00f1 3A       		.uleb128 0x3a
 2195 00f2 0B       		.uleb128 0xb
 2196 00f3 3B       		.uleb128 0x3b
 2197 00f4 05       		.uleb128 0x5
 2198 00f5 01       		.uleb128 0x1
ARM GAS  C:\Users\MICHAE~1.MAC\AppData\Local\Temp\cc682toO.s 			page 67


 2199 00f6 13       		.uleb128 0x13
 2200 00f7 00       		.byte	0
 2201 00f8 00       		.byte	0
 2202 00f9 16       		.uleb128 0x16
 2203 00fa 0D       		.uleb128 0xd
 2204 00fb 00       		.byte	0
 2205 00fc 03       		.uleb128 0x3
 2206 00fd 08       		.uleb128 0x8
 2207 00fe 3A       		.uleb128 0x3a
 2208 00ff 0B       		.uleb128 0xb
 2209 0100 3B       		.uleb128 0x3b
 2210 0101 05       		.uleb128 0x5
 2211 0102 49       		.uleb128 0x49
 2212 0103 13       		.uleb128 0x13
 2213 0104 00       		.byte	0
 2214 0105 00       		.byte	0
 2215 0106 17       		.uleb128 0x17
 2216 0107 0D       		.uleb128 0xd
 2217 0108 00       		.byte	0
 2218 0109 03       		.uleb128 0x3
 2219 010a 0E       		.uleb128 0xe
 2220 010b 3A       		.uleb128 0x3a
 2221 010c 0B       		.uleb128 0xb
 2222 010d 3B       		.uleb128 0x3b
 2223 010e 05       		.uleb128 0x5
 2224 010f 49       		.uleb128 0x49
 2225 0110 13       		.uleb128 0x13
 2226 0111 00       		.byte	0
 2227 0112 00       		.byte	0
 2228 0113 18       		.uleb128 0x18
 2229 0114 2E       		.uleb128 0x2e
 2230 0115 01       		.byte	0x1
 2231 0116 3F       		.uleb128 0x3f
 2232 0117 19       		.uleb128 0x19
 2233 0118 03       		.uleb128 0x3
 2234 0119 0E       		.uleb128 0xe
 2235 011a 3A       		.uleb128 0x3a
 2236 011b 0B       		.uleb128 0xb
 2237 011c 3B       		.uleb128 0x3b
 2238 011d 05       		.uleb128 0x5
 2239 011e 27       		.uleb128 0x27
 2240 011f 19       		.uleb128 0x19
 2241 0120 11       		.uleb128 0x11
 2242 0121 01       		.uleb128 0x1
 2243 0122 12       		.uleb128 0x12
 2244 0123 06       		.uleb128 0x6
 2245 0124 40       		.uleb128 0x40
 2246 0125 18       		.uleb128 0x18
 2247 0126 9742     		.uleb128 0x2117
 2248 0128 19       		.uleb128 0x19
 2249 0129 01       		.uleb128 0x1
 2250 012a 13       		.uleb128 0x13
 2251 012b 00       		.byte	0
 2252 012c 00       		.byte	0
 2253 012d 19       		.uleb128 0x19
 2254 012e 34       		.uleb128 0x34
 2255 012f 00       		.byte	0
ARM GAS  C:\Users\MICHAE~1.MAC\AppData\Local\Temp\cc682toO.s 			page 68


 2256 0130 03       		.uleb128 0x3
 2257 0131 0E       		.uleb128 0xe
 2258 0132 3A       		.uleb128 0x3a
 2259 0133 0B       		.uleb128 0xb
 2260 0134 3B       		.uleb128 0x3b
 2261 0135 05       		.uleb128 0x5
 2262 0136 49       		.uleb128 0x49
 2263 0137 13       		.uleb128 0x13
 2264 0138 02       		.uleb128 0x2
 2265 0139 17       		.uleb128 0x17
 2266 013a 00       		.byte	0
 2267 013b 00       		.byte	0
 2268 013c 1A       		.uleb128 0x1a
 2269 013d 898201   		.uleb128 0x4109
 2270 0140 00       		.byte	0
 2271 0141 11       		.uleb128 0x11
 2272 0142 01       		.uleb128 0x1
 2273 0143 31       		.uleb128 0x31
 2274 0144 13       		.uleb128 0x13
 2275 0145 00       		.byte	0
 2276 0146 00       		.byte	0
 2277 0147 1B       		.uleb128 0x1b
 2278 0148 26       		.uleb128 0x26
 2279 0149 00       		.byte	0
 2280 014a 49       		.uleb128 0x49
 2281 014b 13       		.uleb128 0x13
 2282 014c 00       		.byte	0
 2283 014d 00       		.byte	0
 2284 014e 1C       		.uleb128 0x1c
 2285 014f 05       		.uleb128 0x5
 2286 0150 00       		.byte	0
 2287 0151 03       		.uleb128 0x3
 2288 0152 0E       		.uleb128 0xe
 2289 0153 3A       		.uleb128 0x3a
 2290 0154 0B       		.uleb128 0xb
 2291 0155 3B       		.uleb128 0x3b
 2292 0156 05       		.uleb128 0x5
 2293 0157 49       		.uleb128 0x49
 2294 0158 13       		.uleb128 0x13
 2295 0159 02       		.uleb128 0x2
 2296 015a 18       		.uleb128 0x18
 2297 015b 00       		.byte	0
 2298 015c 00       		.byte	0
 2299 015d 1D       		.uleb128 0x1d
 2300 015e 2E       		.uleb128 0x2e
 2301 015f 01       		.byte	0x1
 2302 0160 3F       		.uleb128 0x3f
 2303 0161 19       		.uleb128 0x19
 2304 0162 03       		.uleb128 0x3
 2305 0163 0E       		.uleb128 0xe
 2306 0164 3A       		.uleb128 0x3a
 2307 0165 0B       		.uleb128 0xb
 2308 0166 3B       		.uleb128 0x3b
 2309 0167 05       		.uleb128 0x5
 2310 0168 27       		.uleb128 0x27
 2311 0169 19       		.uleb128 0x19
 2312 016a 49       		.uleb128 0x49
ARM GAS  C:\Users\MICHAE~1.MAC\AppData\Local\Temp\cc682toO.s 			page 69


 2313 016b 13       		.uleb128 0x13
 2314 016c 11       		.uleb128 0x11
 2315 016d 01       		.uleb128 0x1
 2316 016e 12       		.uleb128 0x12
 2317 016f 06       		.uleb128 0x6
 2318 0170 40       		.uleb128 0x40
 2319 0171 18       		.uleb128 0x18
 2320 0172 9742     		.uleb128 0x2117
 2321 0174 19       		.uleb128 0x19
 2322 0175 01       		.uleb128 0x1
 2323 0176 13       		.uleb128 0x13
 2324 0177 00       		.byte	0
 2325 0178 00       		.byte	0
 2326 0179 1E       		.uleb128 0x1e
 2327 017a 05       		.uleb128 0x5
 2328 017b 00       		.byte	0
 2329 017c 03       		.uleb128 0x3
 2330 017d 0E       		.uleb128 0xe
 2331 017e 3A       		.uleb128 0x3a
 2332 017f 0B       		.uleb128 0xb
 2333 0180 3B       		.uleb128 0x3b
 2334 0181 05       		.uleb128 0x5
 2335 0182 49       		.uleb128 0x49
 2336 0183 13       		.uleb128 0x13
 2337 0184 02       		.uleb128 0x2
 2338 0185 17       		.uleb128 0x17
 2339 0186 00       		.byte	0
 2340 0187 00       		.byte	0
 2341 0188 1F       		.uleb128 0x1f
 2342 0189 34       		.uleb128 0x34
 2343 018a 00       		.byte	0
 2344 018b 03       		.uleb128 0x3
 2345 018c 0E       		.uleb128 0xe
 2346 018d 3A       		.uleb128 0x3a
 2347 018e 0B       		.uleb128 0xb
 2348 018f 3B       		.uleb128 0x3b
 2349 0190 05       		.uleb128 0x5
 2350 0191 49       		.uleb128 0x49
 2351 0192 13       		.uleb128 0x13
 2352 0193 02       		.uleb128 0x2
 2353 0194 18       		.uleb128 0x18
 2354 0195 00       		.byte	0
 2355 0196 00       		.byte	0
 2356 0197 20       		.uleb128 0x20
 2357 0198 898201   		.uleb128 0x4109
 2358 019b 01       		.byte	0x1
 2359 019c 11       		.uleb128 0x11
 2360 019d 01       		.uleb128 0x1
 2361 019e 31       		.uleb128 0x31
 2362 019f 13       		.uleb128 0x13
 2363 01a0 01       		.uleb128 0x1
 2364 01a1 13       		.uleb128 0x13
 2365 01a2 00       		.byte	0
 2366 01a3 00       		.byte	0
 2367 01a4 21       		.uleb128 0x21
 2368 01a5 8A8201   		.uleb128 0x410a
 2369 01a8 00       		.byte	0
ARM GAS  C:\Users\MICHAE~1.MAC\AppData\Local\Temp\cc682toO.s 			page 70


 2370 01a9 02       		.uleb128 0x2
 2371 01aa 18       		.uleb128 0x18
 2372 01ab 9142     		.uleb128 0x2111
 2373 01ad 18       		.uleb128 0x18
 2374 01ae 00       		.byte	0
 2375 01af 00       		.byte	0
 2376 01b0 22       		.uleb128 0x22
 2377 01b1 898201   		.uleb128 0x4109
 2378 01b4 01       		.byte	0x1
 2379 01b5 11       		.uleb128 0x11
 2380 01b6 01       		.uleb128 0x1
 2381 01b7 31       		.uleb128 0x31
 2382 01b8 13       		.uleb128 0x13
 2383 01b9 00       		.byte	0
 2384 01ba 00       		.byte	0
 2385 01bb 23       		.uleb128 0x23
 2386 01bc 34       		.uleb128 0x34
 2387 01bd 00       		.byte	0
 2388 01be 03       		.uleb128 0x3
 2389 01bf 0E       		.uleb128 0xe
 2390 01c0 3A       		.uleb128 0x3a
 2391 01c1 0B       		.uleb128 0xb
 2392 01c2 3B       		.uleb128 0x3b
 2393 01c3 05       		.uleb128 0x5
 2394 01c4 49       		.uleb128 0x49
 2395 01c5 13       		.uleb128 0x13
 2396 01c6 3F       		.uleb128 0x3f
 2397 01c7 19       		.uleb128 0x19
 2398 01c8 3C       		.uleb128 0x3c
 2399 01c9 19       		.uleb128 0x19
 2400 01ca 00       		.byte	0
 2401 01cb 00       		.byte	0
 2402 01cc 24       		.uleb128 0x24
 2403 01cd 2E       		.uleb128 0x2e
 2404 01ce 00       		.byte	0
 2405 01cf 3F       		.uleb128 0x3f
 2406 01d0 19       		.uleb128 0x19
 2407 01d1 3C       		.uleb128 0x3c
 2408 01d2 19       		.uleb128 0x19
 2409 01d3 6E       		.uleb128 0x6e
 2410 01d4 0E       		.uleb128 0xe
 2411 01d5 03       		.uleb128 0x3
 2412 01d6 0E       		.uleb128 0xe
 2413 01d7 3A       		.uleb128 0x3a
 2414 01d8 0B       		.uleb128 0xb
 2415 01d9 3B       		.uleb128 0x3b
 2416 01da 0B       		.uleb128 0xb
 2417 01db 00       		.byte	0
 2418 01dc 00       		.byte	0
 2419 01dd 00       		.byte	0
 2420              		.section	.debug_loc,"",%progbits
 2421              	.Ldebug_loc0:
 2422              	.LLST0:
 2423 0000 02000000 		.4byte	.LVL0
 2424 0004 06000000 		.4byte	.LVL1
 2425 0008 0200     		.2byte	0x2
 2426 000a 30       		.byte	0x30
ARM GAS  C:\Users\MICHAE~1.MAC\AppData\Local\Temp\cc682toO.s 			page 71


 2427 000b 9F       		.byte	0x9f
 2428 000c 06000000 		.4byte	.LVL1
 2429 0010 22000000 		.4byte	.LVL3
 2430 0014 0100     		.2byte	0x1
 2431 0016 53       		.byte	0x53
 2432 0017 24000000 		.4byte	.LVL4
 2433 001b 46000000 		.4byte	.LVL10
 2434 001f 0100     		.2byte	0x1
 2435 0021 55       		.byte	0x55
 2436 0022 46000000 		.4byte	.LVL10
 2437 0026 48000000 		.4byte	.LVL11
 2438 002a 0100     		.2byte	0x1
 2439 002c 53       		.byte	0x53
 2440 002d 48000000 		.4byte	.LVL11
 2441 0031 4C000000 		.4byte	.LVL13
 2442 0035 0100     		.2byte	0x1
 2443 0037 55       		.byte	0x55
 2444 0038 4C000000 		.4byte	.LVL13
 2445 003c 58000000 		.4byte	.LFE1
 2446 0040 0300     		.2byte	0x3
 2447 0042 73       		.byte	0x73
 2448 0043 7F       		.sleb128 -1
 2449 0044 9F       		.byte	0x9f
 2450 0045 00000000 		.4byte	0
 2451 0049 00000000 		.4byte	0
 2452              	.LLST1:
 2453 004d 28000000 		.4byte	.LVL6
 2454 0051 3E000000 		.4byte	.LVL7
 2455 0055 0100     		.2byte	0x1
 2456 0057 52       		.byte	0x52
 2457 0058 00000000 		.4byte	0
 2458 005c 00000000 		.4byte	0
 2459              	.LLST2:
 2460 0060 26000000 		.4byte	.LVL5
 2461 0064 46000000 		.4byte	.LVL10
 2462 0068 0100     		.2byte	0x1
 2463 006a 56       		.byte	0x56
 2464 006b 00000000 		.4byte	0
 2465 006f 00000000 		.4byte	0
 2466              	.LLST3:
 2467 0073 24000000 		.4byte	.LVL4
 2468 0077 4C000000 		.4byte	.LVL12
 2469 007b 0100     		.2byte	0x1
 2470 007d 54       		.byte	0x54
 2471 007e 00000000 		.4byte	0
 2472 0082 00000000 		.4byte	0
 2473              	.LLST4:
 2474 0086 02000000 		.4byte	.LVL15
 2475 008a 08000000 		.4byte	.LVL16
 2476 008e 0200     		.2byte	0x2
 2477 0090 30       		.byte	0x30
 2478 0091 9F       		.byte	0x9f
 2479 0092 08000000 		.4byte	.LVL16
 2480 0096 1E000000 		.4byte	.LVL20
 2481 009a 0100     		.2byte	0x1
 2482 009c 53       		.byte	0x53
 2483 009d 1E000000 		.4byte	.LVL20
ARM GAS  C:\Users\MICHAE~1.MAC\AppData\Local\Temp\cc682toO.s 			page 72


 2484 00a1 24000000 		.4byte	.LVL21
 2485 00a5 0100     		.2byte	0x1
 2486 00a7 52       		.byte	0x52
 2487 00a8 24000000 		.4byte	.LVL21
 2488 00ac 2A000000 		.4byte	.LVL22
 2489 00b0 0100     		.2byte	0x1
 2490 00b2 54       		.byte	0x54
 2491 00b3 2A000000 		.4byte	.LVL22
 2492 00b7 38000000 		.4byte	.LFE5
 2493 00bb 0100     		.2byte	0x1
 2494 00bd 53       		.byte	0x53
 2495 00be 00000000 		.4byte	0
 2496 00c2 00000000 		.4byte	0
 2497              	.LLST5:
 2498 00c6 02000000 		.4byte	.LVL15
 2499 00ca 0E000000 		.4byte	.LVL17
 2500 00ce 0200     		.2byte	0x2
 2501 00d0 30       		.byte	0x30
 2502 00d1 9F       		.byte	0x9f
 2503 00d2 0E000000 		.4byte	.LVL17
 2504 00d6 1C000000 		.4byte	.LVL19
 2505 00da 0100     		.2byte	0x1
 2506 00dc 52       		.byte	0x52
 2507 00dd 1C000000 		.4byte	.LVL19
 2508 00e1 1E000000 		.4byte	.LVL20
 2509 00e5 0100     		.2byte	0x1
 2510 00e7 55       		.byte	0x55
 2511 00e8 1E000000 		.4byte	.LVL20
 2512 00ec 2A000000 		.4byte	.LVL22
 2513 00f0 0100     		.2byte	0x1
 2514 00f2 53       		.byte	0x53
 2515 00f3 00000000 		.4byte	0
 2516 00f7 00000000 		.4byte	0
 2517              	.LLST6:
 2518 00fb 02000000 		.4byte	.LVL15
 2519 00ff 14000000 		.4byte	.LVL18
 2520 0103 0200     		.2byte	0x2
 2521 0105 30       		.byte	0x30
 2522 0106 9F       		.byte	0x9f
 2523 0107 14000000 		.4byte	.LVL18
 2524 010b 24000000 		.4byte	.LVL21
 2525 010f 0100     		.2byte	0x1
 2526 0111 54       		.byte	0x54
 2527 0112 24000000 		.4byte	.LVL21
 2528 0116 38000000 		.4byte	.LFE5
 2529 011a 1200     		.2byte	0x12
 2530 011c 71       		.byte	0x71
 2531 011d 04       		.sleb128 4
 2532 011e 94       		.byte	0x94
 2533 011f 02       		.byte	0x2
 2534 0120 0A       		.byte	0xa
 2535 0121 FFFF     		.2byte	0xffff
 2536 0123 1A       		.byte	0x1a
 2537 0124 71       		.byte	0x71
 2538 0125 0A       		.sleb128 10
 2539 0126 94       		.byte	0x94
 2540 0127 02       		.byte	0x2
ARM GAS  C:\Users\MICHAE~1.MAC\AppData\Local\Temp\cc682toO.s 			page 73


 2541 0128 0A       		.byte	0xa
 2542 0129 FFFF     		.2byte	0xffff
 2543 012b 1A       		.byte	0x1a
 2544 012c 1C       		.byte	0x1c
 2545 012d 9F       		.byte	0x9f
 2546 012e 00000000 		.4byte	0
 2547 0132 00000000 		.4byte	0
 2548              	.LLST7:
 2549 0136 00000000 		.4byte	.LVL23
 2550 013a 2C000000 		.4byte	.LVL30
 2551 013e 0100     		.2byte	0x1
 2552 0140 50       		.byte	0x50
 2553 0141 2C000000 		.4byte	.LVL30
 2554 0145 60000000 		.4byte	.LVL42
 2555 0149 0100     		.2byte	0x1
 2556 014b 56       		.byte	0x56
 2557 014c 60000000 		.4byte	.LVL42
 2558 0150 66000000 		.4byte	.LFE2
 2559 0154 0400     		.2byte	0x4
 2560 0156 F3       		.byte	0xf3
 2561 0157 01       		.uleb128 0x1
 2562 0158 50       		.byte	0x50
 2563 0159 9F       		.byte	0x9f
 2564 015a 00000000 		.4byte	0
 2565 015e 00000000 		.4byte	0
 2566              	.LLST8:
 2567 0162 0A000000 		.4byte	.LVL24
 2568 0166 2C000000 		.4byte	.LVL30
 2569 016a 0200     		.2byte	0x2
 2570 016c 30       		.byte	0x30
 2571 016d 9F       		.byte	0x9f
 2572 016e 2C000000 		.4byte	.LVL30
 2573 0172 42000000 		.4byte	.LVL33
 2574 0176 0200     		.2byte	0x2
 2575 0178 91       		.byte	0x91
 2576 0179 64       		.sleb128 -28
 2577 017a 42000000 		.4byte	.LVL33
 2578 017e 46000000 		.4byte	.LVL34
 2579 0182 0100     		.2byte	0x1
 2580 0184 50       		.byte	0x50
 2581 0185 46000000 		.4byte	.LVL34
 2582 0189 66000000 		.4byte	.LFE2
 2583 018d 0200     		.2byte	0x2
 2584 018f 91       		.byte	0x91
 2585 0190 64       		.sleb128 -28
 2586 0191 00000000 		.4byte	0
 2587 0195 00000000 		.4byte	0
 2588              	.LLST9:
 2589 0199 24000000 		.4byte	.LVL29
 2590 019d 2C000000 		.4byte	.LVL30
 2591 01a1 0200     		.2byte	0x2
 2592 01a3 30       		.byte	0x30
 2593 01a4 9F       		.byte	0x9f
 2594 01a5 2C000000 		.4byte	.LVL30
 2595 01a9 60000000 		.4byte	.LVL43
 2596 01ad 0100     		.2byte	0x1
 2597 01af 57       		.byte	0x57
ARM GAS  C:\Users\MICHAE~1.MAC\AppData\Local\Temp\cc682toO.s 			page 74


 2598 01b0 00000000 		.4byte	0
 2599 01b4 00000000 		.4byte	0
 2600              	.LLST10:
 2601 01b8 1E000000 		.4byte	.LVL27
 2602 01bc 60000000 		.4byte	.LVL40
 2603 01c0 0100     		.2byte	0x1
 2604 01c2 54       		.byte	0x54
 2605 01c3 00000000 		.4byte	0
 2606 01c7 00000000 		.4byte	0
 2607              	.LLST11:
 2608 01cb 22000000 		.4byte	.LVL28
 2609 01cf 2C000000 		.4byte	.LVL30
 2610 01d3 0100     		.2byte	0x1
 2611 01d5 52       		.byte	0x52
 2612 01d6 2C000000 		.4byte	.LVL30
 2613 01da 66000000 		.4byte	.LFE2
 2614 01de 0200     		.2byte	0x2
 2615 01e0 91       		.byte	0x91
 2616 01e1 5C       		.sleb128 -36
 2617 01e2 00000000 		.4byte	0
 2618 01e6 00000000 		.4byte	0
 2619              	.LLST12:
 2620 01ea 2C000000 		.4byte	.LVL30
 2621 01ee 60000000 		.4byte	.LVL41
 2622 01f2 0100     		.2byte	0x1
 2623 01f4 55       		.byte	0x55
 2624 01f5 00000000 		.4byte	0
 2625 01f9 00000000 		.4byte	0
 2626              	.LLST13:
 2627 01fd 1A000000 		.4byte	.LVL25
 2628 0201 52000000 		.4byte	.LVL37
 2629 0205 0100     		.2byte	0x1
 2630 0207 5B       		.byte	0x5b
 2631 0208 52000000 		.4byte	.LVL37
 2632 020c 56000000 		.4byte	.LVL39
 2633 0210 0100     		.2byte	0x1
 2634 0212 53       		.byte	0x53
 2635 0213 56000000 		.4byte	.LVL39
 2636 0217 60000000 		.4byte	.LVL44
 2637 021b 0100     		.2byte	0x1
 2638 021d 5B       		.byte	0x5b
 2639 021e 00000000 		.4byte	0
 2640 0222 00000000 		.4byte	0
 2641              	.LLST14:
 2642 0226 00000000 		.4byte	.LVL45
 2643 022a 16000000 		.4byte	.LVL51
 2644 022e 0100     		.2byte	0x1
 2645 0230 50       		.byte	0x50
 2646 0231 16000000 		.4byte	.LVL51
 2647 0235 40000000 		.4byte	.LFE3
 2648 0239 0400     		.2byte	0x4
 2649 023b F3       		.byte	0xf3
 2650 023c 01       		.uleb128 0x1
 2651 023d 50       		.byte	0x50
 2652 023e 9F       		.byte	0x9f
 2653 023f 00000000 		.4byte	0
 2654 0243 00000000 		.4byte	0
ARM GAS  C:\Users\MICHAE~1.MAC\AppData\Local\Temp\cc682toO.s 			page 75


 2655              	.LLST15:
 2656 0247 00000000 		.4byte	.LVL45
 2657 024b 19000000 		.4byte	.LVL52-1
 2658 024f 0100     		.2byte	0x1
 2659 0251 51       		.byte	0x51
 2660 0252 19000000 		.4byte	.LVL52-1
 2661 0256 3E000000 		.4byte	.LVL61
 2662 025a 0100     		.2byte	0x1
 2663 025c 56       		.byte	0x56
 2664 025d 3E000000 		.4byte	.LVL61
 2665 0261 40000000 		.4byte	.LFE3
 2666 0265 0400     		.2byte	0x4
 2667 0267 F3       		.byte	0xf3
 2668 0268 01       		.uleb128 0x1
 2669 0269 51       		.byte	0x51
 2670 026a 9F       		.byte	0x9f
 2671 026b 00000000 		.4byte	0
 2672 026f 00000000 		.4byte	0
 2673              	.LLST16:
 2674 0273 00000000 		.4byte	.LVL45
 2675 0277 14000000 		.4byte	.LVL50
 2676 027b 0100     		.2byte	0x1
 2677 027d 52       		.byte	0x52
 2678 027e 1A000000 		.4byte	.LVL52
 2679 0282 20000000 		.4byte	.LVL53
 2680 0286 0100     		.2byte	0x1
 2681 0288 52       		.byte	0x52
 2682 0289 2C000000 		.4byte	.LVL56
 2683 028d 39000000 		.4byte	.LVL58-1
 2684 0291 0100     		.2byte	0x1
 2685 0293 52       		.byte	0x52
 2686 0294 3A000000 		.4byte	.LVL58
 2687 0298 40000000 		.4byte	.LFE3
 2688 029c 0100     		.2byte	0x1
 2689 029e 52       		.byte	0x52
 2690 029f 00000000 		.4byte	0
 2691 02a3 00000000 		.4byte	0
 2692              	.LLST17:
 2693 02a7 00000000 		.4byte	.LVL45
 2694 02ab 12000000 		.4byte	.LVL49
 2695 02af 0100     		.2byte	0x1
 2696 02b1 53       		.byte	0x53
 2697 02b2 12000000 		.4byte	.LVL49
 2698 02b6 3E000000 		.4byte	.LVL59
 2699 02ba 0100     		.2byte	0x1
 2700 02bc 54       		.byte	0x54
 2701 02bd 3E000000 		.4byte	.LVL59
 2702 02c1 40000000 		.4byte	.LFE3
 2703 02c5 0400     		.2byte	0x4
 2704 02c7 F3       		.byte	0xf3
 2705 02c8 01       		.uleb128 0x1
 2706 02c9 53       		.byte	0x53
 2707 02ca 9F       		.byte	0x9f
 2708 02cb 00000000 		.4byte	0
 2709 02cf 00000000 		.4byte	0
 2710              	.LLST18:
 2711 02d3 0A000000 		.4byte	.LVL46
ARM GAS  C:\Users\MICHAE~1.MAC\AppData\Local\Temp\cc682toO.s 			page 76


 2712 02d7 2A000000 		.4byte	.LVL55
 2713 02db 0200     		.2byte	0x2
 2714 02dd 30       		.byte	0x30
 2715 02de 9F       		.byte	0x9f
 2716 02df 2A000000 		.4byte	.LVL55
 2717 02e3 2C000000 		.4byte	.LVL56
 2718 02e7 0100     		.2byte	0x1
 2719 02e9 50       		.byte	0x50
 2720 02ea 2C000000 		.4byte	.LVL56
 2721 02ee 2E000000 		.4byte	.LVL57
 2722 02f2 0200     		.2byte	0x2
 2723 02f4 30       		.byte	0x30
 2724 02f5 9F       		.byte	0x9f
 2725 02f6 2E000000 		.4byte	.LVL57
 2726 02fa 3E000000 		.4byte	.LVL60
 2727 02fe 0100     		.2byte	0x1
 2728 0300 55       		.byte	0x55
 2729 0301 3E000000 		.4byte	.LVL60
 2730 0305 40000000 		.4byte	.LFE3
 2731 0309 0100     		.2byte	0x1
 2732 030b 50       		.byte	0x50
 2733 030c 00000000 		.4byte	0
 2734 0310 00000000 		.4byte	0
 2735              	.LLST19:
 2736 0314 0C000000 		.4byte	.LVL47
 2737 0318 2A000000 		.4byte	.LVL55
 2738 031c 0100     		.2byte	0x1
 2739 031e 55       		.byte	0x55
 2740 031f 2C000000 		.4byte	.LVL56
 2741 0323 2E000000 		.4byte	.LVL57
 2742 0327 0100     		.2byte	0x1
 2743 0329 55       		.byte	0x55
 2744 032a 00000000 		.4byte	0
 2745 032e 00000000 		.4byte	0
 2746              	.LLST20:
 2747 0332 0E000000 		.4byte	.LVL48
 2748 0336 3E000000 		.4byte	.LVL62
 2749 033a 0100     		.2byte	0x1
 2750 033c 57       		.byte	0x57
 2751 033d 00000000 		.4byte	0
 2752 0341 00000000 		.4byte	0
 2753              	.LLST21:
 2754 0345 00000000 		.4byte	.LVL63
 2755 0349 44000000 		.4byte	.LVL75
 2756 034d 0100     		.2byte	0x1
 2757 034f 50       		.byte	0x50
 2758 0350 44000000 		.4byte	.LVL75
 2759 0354 64000000 		.4byte	.LFE6
 2760 0358 0100     		.2byte	0x1
 2761 035a 50       		.byte	0x50
 2762 035b 00000000 		.4byte	0
 2763 035f 00000000 		.4byte	0
 2764              	.LLST22:
 2765 0363 00000000 		.4byte	.LVL63
 2766 0367 0C000000 		.4byte	.LVL68
 2767 036b 0100     		.2byte	0x1
 2768 036d 51       		.byte	0x51
ARM GAS  C:\Users\MICHAE~1.MAC\AppData\Local\Temp\cc682toO.s 			page 77


 2769 036e 0C000000 		.4byte	.LVL68
 2770 0372 64000000 		.4byte	.LFE6
 2771 0376 0400     		.2byte	0x4
 2772 0378 F3       		.byte	0xf3
 2773 0379 01       		.uleb128 0x1
 2774 037a 51       		.byte	0x51
 2775 037b 9F       		.byte	0x9f
 2776 037c 00000000 		.4byte	0
 2777 0380 00000000 		.4byte	0
 2778              	.LLST23:
 2779 0384 04000000 		.4byte	.LVL64
 2780 0388 0E000000 		.4byte	.LVL69
 2781 038c 0100     		.2byte	0x1
 2782 038e 52       		.byte	0x52
 2783 038f 0E000000 		.4byte	.LVL69
 2784 0393 10000000 		.4byte	.LVL70
 2785 0397 0100     		.2byte	0x1
 2786 0399 54       		.byte	0x54
 2787 039a 10000000 		.4byte	.LVL70
 2788 039e 5A000000 		.4byte	.LVL83
 2789 03a2 0100     		.2byte	0x1
 2790 03a4 5C       		.byte	0x5c
 2791 03a5 5A000000 		.4byte	.LVL83
 2792 03a9 5E000000 		.4byte	.LVL84
 2793 03ad 0100     		.2byte	0x1
 2794 03af 52       		.byte	0x52
 2795 03b0 5E000000 		.4byte	.LVL84
 2796 03b4 62000000 		.4byte	.LVL85
 2797 03b8 0100     		.2byte	0x1
 2798 03ba 54       		.byte	0x54
 2799 03bb 62000000 		.4byte	.LVL85
 2800 03bf 64000000 		.4byte	.LFE6
 2801 03c3 0100     		.2byte	0x1
 2802 03c5 5C       		.byte	0x5c
 2803 03c6 00000000 		.4byte	0
 2804 03ca 00000000 		.4byte	0
 2805              	.LLST24:
 2806 03ce 0A000000 		.4byte	.LVL67
 2807 03d2 0E000000 		.4byte	.LVL69
 2808 03d6 0200     		.2byte	0x2
 2809 03d8 31       		.byte	0x31
 2810 03d9 9F       		.byte	0x9f
 2811 03da 0E000000 		.4byte	.LVL69
 2812 03de 64000000 		.4byte	.LFE6
 2813 03e2 0100     		.2byte	0x1
 2814 03e4 51       		.byte	0x51
 2815 03e5 00000000 		.4byte	0
 2816 03e9 00000000 		.4byte	0
 2817              	.LLST25:
 2818 03ed 2E000000 		.4byte	.LVL74
 2819 03f1 4C000000 		.4byte	.LVL77
 2820 03f5 0100     		.2byte	0x1
 2821 03f7 52       		.byte	0x52
 2822 03f8 4E000000 		.4byte	.LVL78
 2823 03fc 50000000 		.4byte	.LVL79
 2824 0400 0100     		.2byte	0x1
 2825 0402 52       		.byte	0x52
ARM GAS  C:\Users\MICHAE~1.MAC\AppData\Local\Temp\cc682toO.s 			page 78


 2826 0403 00000000 		.4byte	0
 2827 0407 00000000 		.4byte	0
 2828              	.LLST26:
 2829 040b 22000000 		.4byte	.LVL71
 2830 040f 2A000000 		.4byte	.LVL72
 2831 0413 0100     		.2byte	0x1
 2832 0415 52       		.byte	0x52
 2833 0416 2C000000 		.4byte	.LVL73
 2834 041a 2E000000 		.4byte	.LVL74
 2835 041e 0100     		.2byte	0x1
 2836 0420 52       		.byte	0x52
 2837 0421 00000000 		.4byte	0
 2838 0425 00000000 		.4byte	0
 2839              	.LLST27:
 2840 0429 06000000 		.4byte	.LVL65
 2841 042d 62000000 		.4byte	.LVL86
 2842 0431 0100     		.2byte	0x1
 2843 0433 55       		.byte	0x55
 2844 0434 00000000 		.4byte	0
 2845 0438 00000000 		.4byte	0
 2846              	.LLST28:
 2847 043c 08000000 		.4byte	.LVL66
 2848 0440 62000000 		.4byte	.LVL87
 2849 0444 0100     		.2byte	0x1
 2850 0446 57       		.byte	0x57
 2851 0447 00000000 		.4byte	0
 2852 044b 00000000 		.4byte	0
 2853              	.LLST29:
 2854 044f 00000000 		.4byte	.LVL88
 2855 0453 12000000 		.4byte	.LVL91
 2856 0457 0100     		.2byte	0x1
 2857 0459 50       		.byte	0x50
 2858 045a 12000000 		.4byte	.LVL91
 2859 045e 1A000000 		.4byte	.LVL94
 2860 0462 0100     		.2byte	0x1
 2861 0464 54       		.byte	0x54
 2862 0465 1A000000 		.4byte	.LVL94
 2863 0469 1C000000 		.4byte	.LVL95
 2864 046d 0100     		.2byte	0x1
 2865 046f 50       		.byte	0x50
 2866 0470 1C000000 		.4byte	.LVL95
 2867 0474 2C000000 		.4byte	.LVL98
 2868 0478 0100     		.2byte	0x1
 2869 047a 54       		.byte	0x54
 2870 047b 2C000000 		.4byte	.LVL98
 2871 047f 58000000 		.4byte	.LFE4
 2872 0483 0400     		.2byte	0x4
 2873 0485 F3       		.byte	0xf3
 2874 0486 01       		.uleb128 0x1
 2875 0487 50       		.byte	0x50
 2876 0488 9F       		.byte	0x9f
 2877 0489 00000000 		.4byte	0
 2878 048d 00000000 		.4byte	0
 2879              	.LLST30:
 2880 0491 00000000 		.4byte	.LVL88
 2881 0495 15000000 		.4byte	.LVL92-1
 2882 0499 0100     		.2byte	0x1
ARM GAS  C:\Users\MICHAE~1.MAC\AppData\Local\Temp\cc682toO.s 			page 79


 2883 049b 51       		.byte	0x51
 2884 049c 15000000 		.4byte	.LVL92-1
 2885 04a0 1A000000 		.4byte	.LVL94
 2886 04a4 0400     		.2byte	0x4
 2887 04a6 F3       		.byte	0xf3
 2888 04a7 01       		.uleb128 0x1
 2889 04a8 51       		.byte	0x51
 2890 04a9 9F       		.byte	0x9f
 2891 04aa 1A000000 		.4byte	.LVL94
 2892 04ae 1F000000 		.4byte	.LVL96-1
 2893 04b2 0100     		.2byte	0x1
 2894 04b4 51       		.byte	0x51
 2895 04b5 1F000000 		.4byte	.LVL96-1
 2896 04b9 58000000 		.4byte	.LFE4
 2897 04bd 0400     		.2byte	0x4
 2898 04bf F3       		.byte	0xf3
 2899 04c0 01       		.uleb128 0x1
 2900 04c1 51       		.byte	0x51
 2901 04c2 9F       		.byte	0x9f
 2902 04c3 00000000 		.4byte	0
 2903 04c7 00000000 		.4byte	0
 2904              	.LLST31:
 2905 04cb 0C000000 		.4byte	.LVL90
 2906 04cf 18000000 		.4byte	.LVL93
 2907 04d3 0100     		.2byte	0x1
 2908 04d5 55       		.byte	0x55
 2909 04d6 18000000 		.4byte	.LVL93
 2910 04da 1A000000 		.4byte	.LVL94
 2911 04de 0100     		.2byte	0x1
 2912 04e0 50       		.byte	0x50
 2913 04e1 1A000000 		.4byte	.LVL94
 2914 04e5 52000000 		.4byte	.LVL107
 2915 04e9 0100     		.2byte	0x1
 2916 04eb 55       		.byte	0x55
 2917 04ec 00000000 		.4byte	0
 2918 04f0 00000000 		.4byte	0
 2919              	.LLST32:
 2920 04f4 28000000 		.4byte	.LVL97
 2921 04f8 36000000 		.4byte	.LVL100
 2922 04fc 0100     		.2byte	0x1
 2923 04fe 53       		.byte	0x53
 2924 04ff 36000000 		.4byte	.LVL100
 2925 0503 38000000 		.4byte	.LVL101
 2926 0507 0300     		.2byte	0x3
 2927 0509 73       		.byte	0x73
 2928 050a 7C       		.sleb128 -4
 2929 050b 9F       		.byte	0x9f
 2930 050c 38000000 		.4byte	.LVL101
 2931 0510 44000000 		.4byte	.LVL102
 2932 0514 0600     		.2byte	0x6
 2933 0516 F3       		.byte	0xf3
 2934 0517 01       		.uleb128 0x1
 2935 0518 50       		.byte	0x50
 2936 0519 35       		.byte	0x35
 2937 051a 25       		.byte	0x25
 2938 051b 9F       		.byte	0x9f
 2939 051c 44000000 		.4byte	.LVL102
ARM GAS  C:\Users\MICHAE~1.MAC\AppData\Local\Temp\cc682toO.s 			page 80


 2940 0520 46000000 		.4byte	.LVL103
 2941 0524 0100     		.2byte	0x1
 2942 0526 53       		.byte	0x53
 2943 0527 46000000 		.4byte	.LVL103
 2944 052b 48000000 		.4byte	.LVL104
 2945 052f 0300     		.2byte	0x3
 2946 0531 73       		.byte	0x73
 2947 0532 7C       		.sleb128 -4
 2948 0533 9F       		.byte	0x9f
 2949 0534 48000000 		.4byte	.LVL104
 2950 0538 58000000 		.4byte	.LFE4
 2951 053c 0600     		.2byte	0x6
 2952 053e F3       		.byte	0xf3
 2953 053f 01       		.uleb128 0x1
 2954 0540 50       		.byte	0x50
 2955 0541 35       		.byte	0x35
 2956 0542 25       		.byte	0x25
 2957 0543 9F       		.byte	0x9f
 2958 0544 00000000 		.4byte	0
 2959 0548 00000000 		.4byte	0
 2960              	.LLST33:
 2961 054c 30000000 		.4byte	.LVL99
 2962 0550 50000000 		.4byte	.LVL105
 2963 0554 0100     		.2byte	0x1
 2964 0556 52       		.byte	0x52
 2965 0557 50000000 		.4byte	.LVL105
 2966 055b 52000000 		.4byte	.LVL106
 2967 055f 0500     		.2byte	0x5
 2968 0561 31       		.byte	0x31
 2969 0562 74       		.byte	0x74
 2970 0563 00       		.sleb128 0
 2971 0564 24       		.byte	0x24
 2972 0565 9F       		.byte	0x9f
 2973 0566 52000000 		.4byte	.LVL106
 2974 056a 58000000 		.4byte	.LFE4
 2975 056e 0800     		.2byte	0x8
 2976 0570 31       		.byte	0x31
 2977 0571 F3       		.byte	0xf3
 2978 0572 01       		.uleb128 0x1
 2979 0573 50       		.byte	0x50
 2980 0574 4F       		.byte	0x4f
 2981 0575 1A       		.byte	0x1a
 2982 0576 24       		.byte	0x24
 2983 0577 9F       		.byte	0x9f
 2984 0578 00000000 		.4byte	0
 2985 057c 00000000 		.4byte	0
 2986              	.LLST34:
 2987 0580 06000000 		.4byte	.LVL89
 2988 0584 15000000 		.4byte	.LVL92-1
 2989 0588 0100     		.2byte	0x1
 2990 058a 52       		.byte	0x52
 2991 058b 1A000000 		.4byte	.LVL94
 2992 058f 1F000000 		.4byte	.LVL96-1
 2993 0593 0100     		.2byte	0x1
 2994 0595 52       		.byte	0x52
 2995 0596 00000000 		.4byte	0
 2996 059a 00000000 		.4byte	0
ARM GAS  C:\Users\MICHAE~1.MAC\AppData\Local\Temp\cc682toO.s 			page 81


 2997              		.section	.debug_aranges,"",%progbits
 2998 0000 44000000 		.4byte	0x44
 2999 0004 0200     		.2byte	0x2
 3000 0006 00000000 		.4byte	.Ldebug_info0
 3001 000a 04       		.byte	0x4
 3002 000b 00       		.byte	0
 3003 000c 0000     		.2byte	0
 3004 000e 0000     		.2byte	0
 3005 0010 00000000 		.4byte	.LFB1
 3006 0014 58000000 		.4byte	.LFE1-.LFB1
 3007 0018 00000000 		.4byte	.LFB5
 3008 001c 38000000 		.4byte	.LFE5-.LFB5
 3009 0020 00000000 		.4byte	.LFB2
 3010 0024 66000000 		.4byte	.LFE2-.LFB2
 3011 0028 00000000 		.4byte	.LFB3
 3012 002c 40000000 		.4byte	.LFE3-.LFB3
 3013 0030 00000000 		.4byte	.LFB6
 3014 0034 64000000 		.4byte	.LFE6-.LFB6
 3015 0038 00000000 		.4byte	.LFB4
 3016 003c 58000000 		.4byte	.LFE4-.LFB4
 3017 0040 00000000 		.4byte	0
 3018 0044 00000000 		.4byte	0
 3019              		.section	.debug_ranges,"",%progbits
 3020              	.Ldebug_ranges0:
 3021 0000 00000000 		.4byte	.LFB1
 3022 0004 58000000 		.4byte	.LFE1
 3023 0008 00000000 		.4byte	.LFB5
 3024 000c 38000000 		.4byte	.LFE5
 3025 0010 00000000 		.4byte	.LFB2
 3026 0014 66000000 		.4byte	.LFE2
 3027 0018 00000000 		.4byte	.LFB3
 3028 001c 40000000 		.4byte	.LFE3
 3029 0020 00000000 		.4byte	.LFB6
 3030 0024 64000000 		.4byte	.LFE6
 3031 0028 00000000 		.4byte	.LFB4
 3032 002c 58000000 		.4byte	.LFE4
 3033 0030 00000000 		.4byte	0
 3034 0034 00000000 		.4byte	0
 3035              		.section	.debug_line,"",%progbits
 3036              	.Ldebug_line0:
 3037 0000 05030000 		.section	.debug_str,"MS",%progbits,1
 3037      0200A201 
 3037      00000201 
 3037      FB0E0D00 
 3037      01010101 
 3038              	.LASF69:
 3039 0000 736E7343 		.ascii	"snsCsdClk\000"
 3039      7364436C 
 3039      6B00
 3040              	.LASF86:
 3041 000a 43617053 		.ascii	"CapSense_1_FLASH_WD_STRUCT\000"
 3041      656E7365 
 3041      5F315F46 
 3041      4C415348 
 3041      5F57445F 
 3042              	.LASF92:
 3043 0025 43617053 		.ascii	"CapSense_1_REGULAR_FLTR_CHANNEL_STRUCT\000"
ARM GAS  C:\Users\MICHAE~1.MAC\AppData\Local\Temp\cc682toO.s 			page 82


 3043      656E7365 
 3043      5F315F52 
 3043      4547554C 
 3043      41525F46 
 3044              	.LASF117:
 3045 004c 736E7343 		.ascii	"snsCnt\000"
 3045      6E7400
 3046              	.LASF97:
 3047 0053 77646774 		.ascii	"wdgtId\000"
 3047      496400
 3048              	.LASF110:
 3049 005a 666C7472 		.ascii	"fltrHistV\000"
 3049      48697374 
 3049      5600
 3050              	.LASF72:
 3051 0064 736E7254 		.ascii	"snrTestWidgetId\000"
 3051      65737457 
 3051      69646765 
 3051      74496400 
 3052              	.LASF8:
 3053 0074 756E7369 		.ascii	"unsigned int\000"
 3053      676E6564 
 3053      20696E74 
 3053      00
 3054              	.LASF62:
 3055 0081 7363616E 		.ascii	"scanCounter\000"
 3055      436F756E 
 3055      74657200 
 3056              	.LASF60:
 3057 008d 6877436C 		.ascii	"hwClock\000"
 3057      6F636B00 
 3058              	.LASF132:
 3059 0095 43794861 		.ascii	"CyHalt\000"
 3059      6C7400
 3060              	.LASF104:
 3061 009c 64696666 		.ascii	"diffValue\000"
 3061      56616C75 
 3061      6500
 3062              	.LASF115:
 3063 00a6 43617053 		.ascii	"CapSense_1_DpProcessButton\000"
 3063      656E7365 
 3063      5F315F44 
 3063      7050726F 
 3063      63657373 
 3064              	.LASF114:
 3065 00c1 6D6F6465 		.ascii	"mode\000"
 3065      00
 3066              	.LASF103:
 3067 00c6 63757253 		.ascii	"curSnsPtr\000"
 3067      6E735074 
 3067      7200
 3068              	.LASF28:
 3069 00d0 43617053 		.ascii	"CapSense_1_WD_TYPE_ENUM\000"
 3069      656E7365 
 3069      5F315F57 
 3069      445F5459 
 3069      50455F45 
ARM GAS  C:\Users\MICHAE~1.MAC\AppData\Local\Temp\cc682toO.s 			page 83


 3070              	.LASF101:
 3071 00e8 43617053 		.ascii	"CapSense_1_DpInitialize\000"
 3071      656E7365 
 3071      5F315F44 
 3071      70496E69 
 3071      7469616C 
 3072              	.LASF50:
 3073 0100 43617053 		.ascii	"CapSense_1_RAM_WD_LIST_STRUCT\000"
 3073      656E7365 
 3073      5F315F52 
 3073      414D5F57 
 3073      445F4C49 
 3074              	.LASF131:
 3075 011e 43617053 		.ascii	"CapSense_1_FtUpdateBaseline\000"
 3075      656E7365 
 3075      5F315F46 
 3075      74557064 
 3075      61746542 
 3076              	.LASF119:
 3077 013a 6E657753 		.ascii	"newStatus\000"
 3077      74617475 
 3077      7300
 3078              	.LASF108:
 3079 0144 736E7349 		.ascii	"snsId\000"
 3079      6400
 3080              	.LASF13:
 3081 014a 666C6F61 		.ascii	"float\000"
 3081      7400
 3082              	.LASF133:
 3083 0150 474E5520 		.ascii	"GNU C11 5.4.1 20160609 (release) [ARM/embedded-5-br"
 3083      43313120 
 3083      352E342E 
 3083      31203230 
 3083      31363036 
 3084 0183 616E6368 		.ascii	"anch revision 237715] -mcpu=cortex-m0plus -mthumb -"
 3084      20726576 
 3084      6973696F 
 3084      6E203233 
 3084      37373135 
 3085 01b6 67202D4F 		.ascii	"g -Og -ffunction-sections -ffat-lto-objects\000"
 3085      67202D66 
 3085      66756E63 
 3085      74696F6E 
 3085      2D736563 
 3086              	.LASF12:
 3087 01e2 696E7433 		.ascii	"int32\000"
 3087      3200
 3088              	.LASF71:
 3089 01e8 736E734C 		.ascii	"snsList\000"
 3089      69737400 
 3090              	.LASF107:
 3091 01f0 72657375 		.ascii	"result\000"
 3091      6C7400
 3092              	.LASF21:
 3093 01f7 43617053 		.ascii	"CapSense_1_WD_BUTTON_E\000"
 3093      656E7365 
 3093      5F315F57 
ARM GAS  C:\Users\MICHAE~1.MAC\AppData\Local\Temp\cc682toO.s 			page 84


 3093      445F4255 
 3093      54544F4E 
 3094              	.LASF7:
 3095 020e 6C6F6E67 		.ascii	"long long unsigned int\000"
 3095      206C6F6E 
 3095      6720756E 
 3095      7369676E 
 3095      65642069 
 3096              	.LASF95:
 3097 0225 70747252 		.ascii	"ptrRegular\000"
 3097      6567756C 
 3097      617200
 3098              	.LASF73:
 3099 0230 736E7254 		.ascii	"snrTestSensorId\000"
 3099      65737453 
 3099      656E736F 
 3099      72496400 
 3100              	.LASF94:
 3101 0240 43617053 		.ascii	"CapSense_1_REGULAR_FLTR_STRUCT\000"
 3101      656E7365 
 3101      5F315F52 
 3101      4547554C 
 3101      41525F46 
 3102              	.LASF90:
 3103 025f 6D656448 		.ascii	"medHistory\000"
 3103      6973746F 
 3103      727900
 3104              	.LASF84:
 3105 026a 77646774 		.ascii	"wdgtType\000"
 3105      54797065 
 3105      00
 3106              	.LASF20:
 3107 0273 43617053 		.ascii	"CapSense_1_LOW_BSLN_RST_TYPE\000"
 3107      656E7365 
 3107      5F315F4C 
 3107      4F575F42 
 3107      534C4E5F 
 3108              	.LASF93:
 3109 0290 72656775 		.ascii	"regularChannel\000"
 3109      6C617243 
 3109      68616E6E 
 3109      656C00
 3110              	.LASF68:
 3111 029f 6D6F6443 		.ascii	"modCsdClk\000"
 3111      7364436C 
 3111      6B00
 3112              	.LASF16:
 3113 02a9 73697A65 		.ascii	"size_t\000"
 3113      5F7400
 3114              	.LASF134:
 3115 02b0 47656E65 		.ascii	"Generated_Source\\PSoC4\\CapSense_1_Processing.c\000"
 3115      72617465 
 3115      645F536F 
 3115      75726365 
 3115      5C50536F 
 3116              	.LASF33:
 3117 02df 68797374 		.ascii	"hysteresis\000"
ARM GAS  C:\Users\MICHAE~1.MAC\AppData\Local\Temp\cc682toO.s 			page 85


 3117      65726573 
 3117      697300
 3118              	.LASF135:
 3119 02ea 433A5C55 		.ascii	"C:\\Users\\michael.machate\\Desktop\\Cypress_Firstt"
 3119      73657273 
 3119      5C6D6963 
 3119      6861656C 
 3119      2E6D6163 
 3120 0319 65737473 		.ascii	"ests\\FirstTest.cydsn\000"
 3120      5C466972 
 3120      73745465 
 3120      73742E63 
 3120      7964736E 
 3121              	.LASF96:
 3122 032e 43617053 		.ascii	"CapSense_1_PTR_FILTER_VARIANT\000"
 3122      656E7365 
 3122      5F315F50 
 3122      54525F46 
 3122      494C5445 
 3123              	.LASF24:
 3124 034c 43617053 		.ascii	"CapSense_1_WD_MATRIX_BUTTON_E\000"
 3124      656E7365 
 3124      5F315F57 
 3124      445F4D41 
 3124      54524958 
 3125              	.LASF35:
 3126 036a 6C6F7742 		.ascii	"lowBslnRst\000"
 3126      736C6E52 
 3126      737400
 3127              	.LASF83:
 3128 0375 746F7461 		.ascii	"totalNumSns\000"
 3128      6C4E756D 
 3128      536E7300 
 3129              	.LASF25:
 3130 0381 43617053 		.ascii	"CapSense_1_WD_TOUCHPAD_E\000"
 3130      656E7365 
 3130      5F315F57 
 3130      445F544F 
 3130      55434850 
 3131              	.LASF31:
 3132 039a 6E6F6973 		.ascii	"noiseTh\000"
 3132      65546800 
 3133              	.LASF15:
 3134 03a2 63686172 		.ascii	"char\000"
 3134      00
 3135              	.LASF10:
 3136 03a7 75696E74 		.ascii	"uint16\000"
 3136      313600
 3137              	.LASF29:
 3138 03ae 7265736F 		.ascii	"resolution\000"
 3138      6C757469 
 3138      6F6E00
 3139              	.LASF76:
 3140 03b9 43617053 		.ascii	"CapSense_1_RAM_STRUCT\000"
 3140      656E7365 
 3140      5F315F52 
 3140      414D5F53 
ARM GAS  C:\Users\MICHAE~1.MAC\AppData\Local\Temp\cc682toO.s 			page 86


 3140      54525543 
 3141              	.LASF63:
 3142 03cf 73746174 		.ascii	"status\000"
 3142      757300
 3143              	.LASF23:
 3144 03d6 43617053 		.ascii	"CapSense_1_WD_RADIAL_SLIDER_E\000"
 3144      656E7365 
 3144      5F315F57 
 3144      445F5241 
 3144      4449414C 
 3145              	.LASF55:
 3146 03f4 69646163 		.ascii	"idacComp\000"
 3146      436F6D70 
 3146      00
 3147              	.LASF6:
 3148 03fd 6C6F6E67 		.ascii	"long long int\000"
 3148      206C6F6E 
 3148      6720696E 
 3148      7400
 3149              	.LASF19:
 3150 040b 43617053 		.ascii	"CapSense_1_THRESHOLD_TYPE\000"
 3150      656E7365 
 3150      5F315F54 
 3150      48524553 
 3150      484F4C44 
 3151              	.LASF34:
 3152 0425 6F6E4465 		.ascii	"onDebounce\000"
 3152      626F756E 
 3152      636500
 3153              	.LASF70:
 3154 0430 77646774 		.ascii	"wdgtList\000"
 3154      4C697374 
 3154      00
 3155              	.LASF75:
 3156 0439 736E7254 		.ascii	"snrTestRawCount\000"
 3156      65737452 
 3156      6177436F 
 3156      756E7400 
 3157              	.LASF129:
 3158 0449 6D656D73 		.ascii	"memset\000"
 3158      657400
 3159              	.LASF32:
 3160 0450 6E4E6F69 		.ascii	"nNoiseTh\000"
 3160      73655468 
 3160      00
 3161              	.LASF67:
 3162 0459 63736430 		.ascii	"csd0Config\000"
 3162      436F6E66 
 3162      696700
 3163              	.LASF122:
 3164 0464 43617053 		.ascii	"CapSense_1_DpProcessCsdWidgetStatus\000"
 3164      656E7365 
 3164      5F315F44 
 3164      7050726F 
 3164      63657373 
 3165              	.LASF124:
 3166 0488 73656E73 		.ascii	"sensorStatus\000"
ARM GAS  C:\Users\MICHAE~1.MAC\AppData\Local\Temp\cc682toO.s 			page 87


 3166      6F725374 
 3166      61747573 
 3166      00
 3167              	.LASF38:
 3168 0495 43617053 		.ascii	"CapSense_1_RAM_WD_BASE_STRUCT\000"
 3168      656E7365 
 3168      5F315F52 
 3168      414D5F57 
 3168      445F4241 
 3169              	.LASF11:
 3170 04b3 75696E74 		.ascii	"uint32\000"
 3170      333200
 3171              	.LASF120:
 3172 04ba 746F7563 		.ascii	"touchTh\000"
 3172      68546800 
 3173              	.LASF80:
 3174 04c2 70747232 		.ascii	"ptr2FltrHistory\000"
 3174      466C7472 
 3174      48697374 
 3174      6F727900 
 3175              	.LASF57:
 3176 04d2 43617053 		.ascii	"CapSense_1_RAM_SNS_LIST_STRUCT\000"
 3176      656E7365 
 3176      5F315F52 
 3176      414D5F53 
 3176      4E535F4C 
 3177              	.LASF125:
 3178 04f1 77645374 		.ascii	"wdStatusIndex\000"
 3178      61747573 
 3178      496E6465 
 3178      7800
 3179              	.LASF22:
 3180 04ff 43617053 		.ascii	"CapSense_1_WD_LINEAR_SLIDER_E\000"
 3180      656E7365 
 3180      5F315F57 
 3180      445F4C49 
 3180      4E454152 
 3181              	.LASF105:
 3182 051d 64696666 		.ascii	"diffValue_0\000"
 3182      56616C75 
 3182      655F3000 
 3183              	.LASF106:
 3184 0529 64696666 		.ascii	"diffValue_2\000"
 3184      56616C75 
 3184      655F3200 
 3185              	.LASF127:
 3186 0535 43617053 		.ascii	"CapSense_1_dsRam\000"
 3186      656E7365 
 3186      5F315F64 
 3186      7352616D 
 3186      00
 3187              	.LASF17:
 3188 0546 6C6F6E67 		.ascii	"long double\000"
 3188      20646F75 
 3188      626C6500 
 3189              	.LASF99:
 3190 0552 70747252 		.ascii	"ptrRamWdgt\000"
ARM GAS  C:\Users\MICHAE~1.MAC\AppData\Local\Temp\cc682toO.s 			page 88


 3190      616D5764 
 3190      677400
 3191              	.LASF118:
 3192 055d 736E734D 		.ascii	"snsMask\000"
 3192      61736B00 
 3193              	.LASF74:
 3194 0565 736E7254 		.ascii	"snrTestScanCounter\000"
 3194      65737453 
 3194      63616E43 
 3194      6F756E74 
 3194      657200
 3195              	.LASF58:
 3196 0578 636F6E66 		.ascii	"configId\000"
 3196      69674964 
 3196      00
 3197              	.LASF79:
 3198 0581 70747232 		.ascii	"ptr2SnsRam\000"
 3198      536E7352 
 3198      616D00
 3199              	.LASF26:
 3200 058c 43617053 		.ascii	"CapSense_1_WD_PROXIMITY_E\000"
 3200      656E7365 
 3200      5F315F57 
 3200      445F5052 
 3200      4F58494D 
 3201              	.LASF27:
 3202 05a6 43617053 		.ascii	"CapSense_1_WD_ENCODERDIAL_E\000"
 3202      656E7365 
 3202      5F315F57 
 3202      445F454E 
 3202      434F4445 
 3203              	.LASF91:
 3204 05c2 61766748 		.ascii	"avgHistory\000"
 3204      6973746F 
 3204      727900
 3205              	.LASF88:
 3206 05cd 43617053 		.ascii	"CapSense_1_FLASH_STRUCT\000"
 3206      656E7365 
 3206      5F315F46 
 3206      4C415348 
 3206      5F535452 
 3207              	.LASF66:
 3208 05e5 736E7353 		.ascii	"snsStatus\000"
 3208      74617475 
 3208      7300
 3209              	.LASF37:
 3210 05ef 736E7343 		.ascii	"snsClkSource\000"
 3210      6C6B536F 
 3210      75726365 
 3210      00
 3211              	.LASF102:
 3212 05fc 43617053 		.ascii	"CapSense_1_DpUpdateDifferences\000"
 3212      656E7365 
 3212      5F315F44 
 3212      70557064 
 3212      61746544 
 3213              	.LASF2:
ARM GAS  C:\Users\MICHAE~1.MAC\AppData\Local\Temp\cc682toO.s 			page 89


 3214 061b 73686F72 		.ascii	"short int\000"
 3214      7420696E 
 3214      7400
 3215              	.LASF4:
 3216 0625 6C6F6E67 		.ascii	"long int\000"
 3216      20696E74 
 3216      00
 3217              	.LASF130:
 3218 062e 43617053 		.ascii	"CapSense_1_FtRunEnabledFiltersInternal\000"
 3218      656E7365 
 3218      5F315F46 
 3218      7452756E 
 3218      456E6162 
 3219              	.LASF64:
 3220 0655 77646774 		.ascii	"wdgtEnable\000"
 3220      456E6162 
 3220      6C6500
 3221              	.LASF128:
 3222 0660 43617053 		.ascii	"CapSense_1_dsFlash\000"
 3222      656E7365 
 3222      5F315F64 
 3222      73466C61 
 3222      736800
 3223              	.LASF53:
 3224 0673 64696666 		.ascii	"diff\000"
 3224      00
 3225              	.LASF61:
 3226 0678 74756E65 		.ascii	"tunerCmd\000"
 3226      72436D64 
 3226      00
 3227              	.LASF40:
 3228 0681 62757474 		.ascii	"button0\000"
 3228      6F6E3000 
 3229              	.LASF41:
 3230 0689 62757474 		.ascii	"button1\000"
 3230      6F6E3100 
 3231              	.LASF42:
 3232 0691 62757474 		.ascii	"button2\000"
 3232      6F6E3200 
 3233              	.LASF43:
 3234 0699 62757474 		.ascii	"button3\000"
 3234      6F6E3300 
 3235              	.LASF44:
 3236 06a1 62757474 		.ascii	"button4\000"
 3236      6F6E3400 
 3237              	.LASF45:
 3238 06a9 62757474 		.ascii	"button5\000"
 3238      6F6E3500 
 3239              	.LASF46:
 3240 06b1 62757474 		.ascii	"button6\000"
 3240      6F6E3600 
 3241              	.LASF47:
 3242 06b9 62757474 		.ascii	"button7\000"
 3242      6F6E3700 
 3243              	.LASF48:
 3244 06c1 62757474 		.ascii	"button8\000"
 3244      6F6E3800 
ARM GAS  C:\Users\MICHAE~1.MAC\AppData\Local\Temp\cc682toO.s 			page 90


 3245              	.LASF49:
 3246 06c9 62757474 		.ascii	"button9\000"
 3246      6F6E3900 
 3247              	.LASF109:
 3248 06d1 70747253 		.ascii	"ptrSnsTmp\000"
 3248      6E73546D 
 3248      7000
 3249              	.LASF85:
 3250 06db 6E756D43 		.ascii	"numCols\000"
 3250      6F6C7300 
 3251              	.LASF121:
 3252 06e3 70747244 		.ascii	"ptrDebounceCnt\000"
 3252      65626F75 
 3252      6E636543 
 3252      6E7400
 3253              	.LASF65:
 3254 06f2 77646774 		.ascii	"wdgtStatus\000"
 3254      53746174 
 3254      757300
 3255              	.LASF18:
 3256 06fd 73697A65 		.ascii	"sizetype\000"
 3256      74797065 
 3256      00
 3257              	.LASF5:
 3258 0706 6C6F6E67 		.ascii	"long unsigned int\000"
 3258      20756E73 
 3258      69676E65 
 3258      6420696E 
 3258      7400
 3259              	.LASF36:
 3260 0718 69646163 		.ascii	"idacMod\000"
 3260      4D6F6400 
 3261              	.LASF81:
 3262 0720 70747232 		.ascii	"ptr2DebounceArr\000"
 3262      4465626F 
 3262      756E6365 
 3262      41727200 
 3263              	.LASF30:
 3264 0730 66696E67 		.ascii	"fingerTh\000"
 3264      65725468 
 3264      00
 3265              	.LASF52:
 3266 0739 62736C6E 		.ascii	"bslnExt\000"
 3266      45787400 
 3267              	.LASF112:
 3268 0741 43617053 		.ascii	"CapSense_1_DpProcessCsdWidgetRawCounts\000"
 3268      656E7365 
 3268      5F315F44 
 3268      7050726F 
 3268      63657373 
 3269              	.LASF1:
 3270 0768 756E7369 		.ascii	"unsigned char\000"
 3270      676E6564 
 3270      20636861 
 3270      7200
 3271              	.LASF126:
 3272 0776 77645374 		.ascii	"wdStatusMask\000"
ARM GAS  C:\Users\MICHAE~1.MAC\AppData\Local\Temp\cc682toO.s 			page 91


 3272      61747573 
 3272      4D61736B 
 3272      00
 3273              	.LASF111:
 3274 0783 69735072 		.ascii	"isProxWdgt\000"
 3274      6F785764 
 3274      677400
 3275              	.LASF100:
 3276 078e 70747246 		.ascii	"ptrFlashWdgt\000"
 3276      6C617368 
 3276      57646774 
 3276      00
 3277              	.LASF82:
 3278 079b 73746174 		.ascii	"staticConfig\000"
 3278      6963436F 
 3278      6E666967 
 3278      00
 3279              	.LASF78:
 3280 07a8 70747232 		.ascii	"ptr2WdgtRam\000"
 3280      57646774 
 3280      52616D00 
 3281              	.LASF89:
 3282 07b4 69697248 		.ascii	"iirHistory\000"
 3282      6973746F 
 3282      727900
 3283              	.LASF116:
 3284 07bf 63757272 		.ascii	"currStatus\000"
 3284      53746174 
 3284      757300
 3285              	.LASF0:
 3286 07ca 7369676E 		.ascii	"signed char\000"
 3286      65642063 
 3286      68617200 
 3287              	.LASF51:
 3288 07d6 62736C6E 		.ascii	"bsln\000"
 3288      00
 3289              	.LASF3:
 3290 07db 73686F72 		.ascii	"short unsigned int\000"
 3290      7420756E 
 3290      7369676E 
 3290      65642069 
 3290      6E7400
 3291              	.LASF77:
 3292 07ee 70747232 		.ascii	"ptr2SnsFlash\000"
 3292      536E7346 
 3292      6C617368 
 3292      00
 3293              	.LASF9:
 3294 07fb 75696E74 		.ascii	"uint8\000"
 3294      3800
 3295              	.LASF14:
 3296 0801 646F7562 		.ascii	"double\000"
 3296      6C6500
 3297              	.LASF113:
 3298 0808 43617053 		.ascii	"CapSense_1_DpProcessCsdSensorRawCountsExt\000"
 3298      656E7365 
 3298      5F315F44 
ARM GAS  C:\Users\MICHAE~1.MAC\AppData\Local\Temp\cc682toO.s 			page 92


 3298      7050726F 
 3298      63657373 
 3299              	.LASF54:
 3300 0832 6E656742 		.ascii	"negBslnRstCnt\000"
 3300      736C6E52 
 3300      7374436E 
 3300      7400
 3301              	.LASF98:
 3302 0840 77696467 		.ascii	"widgetType\000"
 3302      65745479 
 3302      706500
 3303              	.LASF56:
 3304 084b 43617053 		.ascii	"CapSense_1_RAM_SNS_STRUCT\000"
 3304      656E7365 
 3304      5F315F52 
 3304      414D5F53 
 3304      4E535F53 
 3305              	.LASF59:
 3306 0865 64657669 		.ascii	"deviceId\000"
 3306      63654964 
 3306      00
 3307              	.LASF39:
 3308 086e 43617053 		.ascii	"CapSense_1_RAM_WD_BUTTON_STRUCT\000"
 3308      656E7365 
 3308      5F315F52 
 3308      414D5F57 
 3308      445F4255 
 3309              	.LASF123:
 3310 088e 77696467 		.ascii	"widgetId\000"
 3310      65744964 
 3310      00
 3311              	.LASF87:
 3312 0897 77646774 		.ascii	"wdgtArray\000"
 3312      41727261 
 3312      7900
 3313              		.ident	"GCC: (GNU Tools for ARM Embedded Processors) 5.4.1 20160609 (release) [ARM/embedded-5-bran
