ARM GAS  C:\Users\MICHAE~1.MAC\AppData\Local\Temp\ccJeyeG1.s 			page 1


   1              		.syntax unified
   2              		.cpu cortex-m0plus
   3              		.fpu softvfp
   4              		.eabi_attribute 20, 1
   5              		.eabi_attribute 21, 1
   6              		.eabi_attribute 23, 3
   7              		.eabi_attribute 24, 1
   8              		.eabi_attribute 25, 1
   9              		.eabi_attribute 26, 1
  10              		.eabi_attribute 30, 1
  11              		.eabi_attribute 34, 0
  12              		.eabi_attribute 18, 4
  13              		.thumb
  14              		.syntax unified
  15              		.file	"CapSense_1_SensingCSD_LL.c"
  16              		.text
  17              	.Ltext0:
  18              		.cfi_sections	.debug_frame
  19              		.section	.text.CapSense_1_SsCSDSetModeSnsClockDivider,"ax",%progbits
  20              		.align	2
  21              		.code	16
  22              		.thumb_func
  23              		.type	CapSense_1_SsCSDSetModeSnsClockDivider, %function
  24              	CapSense_1_SsCSDSetModeSnsClockDivider:
  25              	.LFB1:
  26              		.file 1 "Generated_Source\\PSoC4\\CapSense_1_SensingCSD_LL.c"
   1:Generated_Source\PSoC4/CapSense_1_SensingCSD_LL.c **** /***************************************************************************//**
   2:Generated_Source\PSoC4/CapSense_1_SensingCSD_LL.c **** * \file CapSense_1_SensingCSD_LL.c
   3:Generated_Source\PSoC4/CapSense_1_SensingCSD_LL.c **** * \version 5.20
   4:Generated_Source\PSoC4/CapSense_1_SensingCSD_LL.c **** *
   5:Generated_Source\PSoC4/CapSense_1_SensingCSD_LL.c **** * \brief
   6:Generated_Source\PSoC4/CapSense_1_SensingCSD_LL.c **** *   This file defines the data structure global variables and provides
   7:Generated_Source\PSoC4/CapSense_1_SensingCSD_LL.c **** *   implementation for the low-level APIs of the CSD part of
   8:Generated_Source\PSoC4/CapSense_1_SensingCSD_LL.c **** *   the Sensing module. The file contains the APIs used for the CSD block
   9:Generated_Source\PSoC4/CapSense_1_SensingCSD_LL.c **** *   initialization, calibration, and scanning.
  10:Generated_Source\PSoC4/CapSense_1_SensingCSD_LL.c **** *
  11:Generated_Source\PSoC4/CapSense_1_SensingCSD_LL.c **** * \see CapSense_1 v5.20 Datasheet
  12:Generated_Source\PSoC4/CapSense_1_SensingCSD_LL.c **** *
  13:Generated_Source\PSoC4/CapSense_1_SensingCSD_LL.c **** *//*****************************************************************************
  14:Generated_Source\PSoC4/CapSense_1_SensingCSD_LL.c **** * Copyright (2016-2018), Cypress Semiconductor Corporation.
  15:Generated_Source\PSoC4/CapSense_1_SensingCSD_LL.c **** ********************************************************************************
  16:Generated_Source\PSoC4/CapSense_1_SensingCSD_LL.c **** * This software is owned by Cypress Semiconductor Corporation (Cypress) and is
  17:Generated_Source\PSoC4/CapSense_1_SensingCSD_LL.c **** * protected by and subject to worldwide patent protection (United States and
  18:Generated_Source\PSoC4/CapSense_1_SensingCSD_LL.c **** * foreign), United States copyright laws and international treaty provisions.
  19:Generated_Source\PSoC4/CapSense_1_SensingCSD_LL.c **** * Cypress hereby grants to licensee a personal, non-exclusive, non-transferable
  20:Generated_Source\PSoC4/CapSense_1_SensingCSD_LL.c **** * license to copy, use, modify, create derivative works of, and compile the
  21:Generated_Source\PSoC4/CapSense_1_SensingCSD_LL.c **** * Cypress Source Code and derivative works for the sole purpose of creating
  22:Generated_Source\PSoC4/CapSense_1_SensingCSD_LL.c **** * custom software in support of licensee product to be used only in conjunction
  23:Generated_Source\PSoC4/CapSense_1_SensingCSD_LL.c **** * with a Cypress integrated circuit as specified in the applicable agreement.
  24:Generated_Source\PSoC4/CapSense_1_SensingCSD_LL.c **** * Any reproduction, modification, translation, compilation, or representation of
  25:Generated_Source\PSoC4/CapSense_1_SensingCSD_LL.c **** * this software except as specified above is prohibited without the express
  26:Generated_Source\PSoC4/CapSense_1_SensingCSD_LL.c **** * written permission of Cypress.
  27:Generated_Source\PSoC4/CapSense_1_SensingCSD_LL.c **** *
  28:Generated_Source\PSoC4/CapSense_1_SensingCSD_LL.c **** * Disclaimer: CYPRESS MAKES NO WARRANTY OF ANY KIND, EXPRESS OR IMPLIED, WITH
  29:Generated_Source\PSoC4/CapSense_1_SensingCSD_LL.c **** * REGARD TO THIS MATERIAL, INCLUDING, BUT NOT LIMITED TO, THE IMPLIED
  30:Generated_Source\PSoC4/CapSense_1_SensingCSD_LL.c **** * WARRANTIES OF MERCHANTABILITY AND FITNESS FOR A PARTICULAR PURPOSE.
  31:Generated_Source\PSoC4/CapSense_1_SensingCSD_LL.c **** * Cypress reserves the right to make changes without further notice to the
ARM GAS  C:\Users\MICHAE~1.MAC\AppData\Local\Temp\ccJeyeG1.s 			page 2


  32:Generated_Source\PSoC4/CapSense_1_SensingCSD_LL.c **** * materials described herein. Cypress does not assume any liability arising out
  33:Generated_Source\PSoC4/CapSense_1_SensingCSD_LL.c **** * of the application or use of any product or circuit described herein. Cypress
  34:Generated_Source\PSoC4/CapSense_1_SensingCSD_LL.c **** * does not authorize its products for use as critical components in life-support
  35:Generated_Source\PSoC4/CapSense_1_SensingCSD_LL.c **** * systems where a malfunction or failure may reasonably be expected to result in
  36:Generated_Source\PSoC4/CapSense_1_SensingCSD_LL.c **** * significant injury to the user. The inclusion of Cypress' product in a life-
  37:Generated_Source\PSoC4/CapSense_1_SensingCSD_LL.c **** * support systems application implies that the manufacturer assumes all risk of
  38:Generated_Source\PSoC4/CapSense_1_SensingCSD_LL.c **** * such use and in doing so indemnifies Cypress against all charges. Use may be
  39:Generated_Source\PSoC4/CapSense_1_SensingCSD_LL.c **** * limited by and subject to the applicable Cypress software license agreement.
  40:Generated_Source\PSoC4/CapSense_1_SensingCSD_LL.c **** *******************************************************************************/
  41:Generated_Source\PSoC4/CapSense_1_SensingCSD_LL.c **** #include "CapSense_1_Structure.h"
  42:Generated_Source\PSoC4/CapSense_1_SensingCSD_LL.c **** #include "CapSense_1_Configuration.h"
  43:Generated_Source\PSoC4/CapSense_1_SensingCSD_LL.c **** #include "CapSense_1_SensingCSD_LL.h"
  44:Generated_Source\PSoC4/CapSense_1_SensingCSD_LL.c **** #include "cyapicallbacks.h"
  45:Generated_Source\PSoC4/CapSense_1_SensingCSD_LL.c **** 
  46:Generated_Source\PSoC4/CapSense_1_SensingCSD_LL.c **** #if (CapSense_1_ENABLE == CapSense_1_CSD_EN)
  47:Generated_Source\PSoC4/CapSense_1_SensingCSD_LL.c **** 
  48:Generated_Source\PSoC4/CapSense_1_SensingCSD_LL.c **** /***************************************
  49:Generated_Source\PSoC4/CapSense_1_SensingCSD_LL.c **** * API Constants
  50:Generated_Source\PSoC4/CapSense_1_SensingCSD_LL.c **** ***************************************/
  51:Generated_Source\PSoC4/CapSense_1_SensingCSD_LL.c **** 
  52:Generated_Source\PSoC4/CapSense_1_SensingCSD_LL.c **** #if (CapSense_1_ENABLE == CapSense_1_CSDV2)
  53:Generated_Source\PSoC4/CapSense_1_SensingCSD_LL.c **** 
  54:Generated_Source\PSoC4/CapSense_1_SensingCSD_LL.c **** #if (CapSense_1_ENABLE == CapSense_1_CSD_AUTO_ZERO_EN)
  55:Generated_Source\PSoC4/CapSense_1_SensingCSD_LL.c ****     #define CapSense_1_CSD_AZ_ENABLE_CFG                  (CapSense_1_CSD_AZ_EN_MASK)
  56:Generated_Source\PSoC4/CapSense_1_SensingCSD_LL.c **** #else
  57:Generated_Source\PSoC4/CapSense_1_SensingCSD_LL.c ****     #define CapSense_1_CSD_AZ_ENABLE_CFG                  (0uL)
  58:Generated_Source\PSoC4/CapSense_1_SensingCSD_LL.c **** #endif /* (CapSense_1_ENABLE == CapSense_1_CSD_AUTO_ZERO_EN) */
  59:Generated_Source\PSoC4/CapSense_1_SensingCSD_LL.c **** 
  60:Generated_Source\PSoC4/CapSense_1_SensingCSD_LL.c **** #if (CapSense_1_IDAC_SINKING == CapSense_1_CSD_IDAC_CONFIG)
  61:Generated_Source\PSoC4/CapSense_1_SensingCSD_LL.c ****     #define CapSense_1_HSCMP_SCAN_MASK                    (CapSense_1_HSCMP_EN_MASK | CapSense_1_CS
  62:Generated_Source\PSoC4/CapSense_1_SensingCSD_LL.c ****                                                                  CapSense_1_HSCMP_INVERT_MASK)
  63:Generated_Source\PSoC4/CapSense_1_SensingCSD_LL.c **** #else
  64:Generated_Source\PSoC4/CapSense_1_SensingCSD_LL.c ****     #define CapSense_1_HSCMP_SCAN_MASK                    (CapSense_1_HSCMP_EN_MASK | CapSense_1_CS
  65:Generated_Source\PSoC4/CapSense_1_SensingCSD_LL.c **** #endif /* (CapSense_1_IDAC_SINKING == CapSense_1_CSD_IDAC_CONFIG) */
  66:Generated_Source\PSoC4/CapSense_1_SensingCSD_LL.c **** 
  67:Generated_Source\PSoC4/CapSense_1_SensingCSD_LL.c **** #define CapSense_1_HSCMP_INIT_MASK                        (CapSense_1_HSCMP_EN_MASK | CapSense_1_CS
  68:Generated_Source\PSoC4/CapSense_1_SensingCSD_LL.c **** 
  69:Generated_Source\PSoC4/CapSense_1_SensingCSD_LL.c **** #define CapSense_1_DEFAULT_SW_SHIELD_SEL                  (0x00000000uL)
  70:Generated_Source\PSoC4/CapSense_1_SensingCSD_LL.c **** #define CapSense_1_DEFAULT_CSD_SW_DSI_SEL                 (CapSense_1_SW_DSI_SEL_CMODPAD | CapSense
  71:Generated_Source\PSoC4/CapSense_1_SensingCSD_LL.c **** #define CapSense_1_DEFAULT_CSD_INTR_SET                   (0x00000000uL)
  72:Generated_Source\PSoC4/CapSense_1_SensingCSD_LL.c **** #define CapSense_1_DEFAULT_SW_HS_P_SEL                    (0x00000000uL)
  73:Generated_Source\PSoC4/CapSense_1_SensingCSD_LL.c **** #define CapSense_1_DEFAULT_SW_HS_N_SEL                    (0x00000000uL)
  74:Generated_Source\PSoC4/CapSense_1_SensingCSD_LL.c **** #define CapSense_1_DEFAULT_CSD_SW_FW_TANK_SEL             (0x00000000uL)
  75:Generated_Source\PSoC4/CapSense_1_SensingCSD_LL.c **** #define CapSense_1_DEFAULT_CSD_ADC_CTL                    (0x00000000uL)
  76:Generated_Source\PSoC4/CapSense_1_SensingCSD_LL.c **** #define CapSense_1_DEFAULT_HSCMP_CFG                      (0x00000000uL)
  77:Generated_Source\PSoC4/CapSense_1_SensingCSD_LL.c **** 
  78:Generated_Source\PSoC4/CapSense_1_SensingCSD_LL.c **** #else
  79:Generated_Source\PSoC4/CapSense_1_SensingCSD_LL.c **** 
  80:Generated_Source\PSoC4/CapSense_1_SensingCSD_LL.c ****     /* Set IDAC ranges */
  81:Generated_Source\PSoC4/CapSense_1_SensingCSD_LL.c ****     #if (CapSense_1_IDAC_GAIN_8X == CapSense_1_CSD_IDAC_GAIN)
  82:Generated_Source\PSoC4/CapSense_1_SensingCSD_LL.c ****         #define CapSense_1_DEFAULT_IDAC_MOD_RANGE         (CapSense_1_IDAC_MOD_RANGE_MASK)
  83:Generated_Source\PSoC4/CapSense_1_SensingCSD_LL.c ****         #define CapSense_1_DEFAULT_IDAC_COMP_RANGE        (CapSense_1_IDAC_COMP_RANGE_MASK)
  84:Generated_Source\PSoC4/CapSense_1_SensingCSD_LL.c ****     #else
  85:Generated_Source\PSoC4/CapSense_1_SensingCSD_LL.c ****         #define CapSense_1_DEFAULT_IDAC_MOD_RANGE         (0u)
  86:Generated_Source\PSoC4/CapSense_1_SensingCSD_LL.c ****         #define CapSense_1_DEFAULT_IDAC_COMP_RANGE        (0u)
  87:Generated_Source\PSoC4/CapSense_1_SensingCSD_LL.c ****     #endif /* (CapSense_1_IDAC_GAIN_8X == CapSense_1_CSD_IDAC_GAIN) */
  88:Generated_Source\PSoC4/CapSense_1_SensingCSD_LL.c **** 
ARM GAS  C:\Users\MICHAE~1.MAC\AppData\Local\Temp\ccJeyeG1.s 			page 3


  89:Generated_Source\PSoC4/CapSense_1_SensingCSD_LL.c ****     /* Defining default IDACs configuration according to settings in customizer. */
  90:Generated_Source\PSoC4/CapSense_1_SensingCSD_LL.c ****     #if (CapSense_1_ENABLE == CapSense_1_CSD_IDAC_COMP_EN)
  91:Generated_Source\PSoC4/CapSense_1_SensingCSD_LL.c ****         #define CapSense_1_DEFAULT_CSD_IDAC_CONFIG        (CapSense_1_IDAC_MOD_MODE_VARIABLE |\
  92:Generated_Source\PSoC4/CapSense_1_SensingCSD_LL.c ****                                                                  CapSense_1_IDAC_COMP_MODE_FIXED |\
  93:Generated_Source\PSoC4/CapSense_1_SensingCSD_LL.c ****                                                                  CapSense_1_DEFAULT_IDAC_MOD_RANGE 
  94:Generated_Source\PSoC4/CapSense_1_SensingCSD_LL.c ****                                                                  CapSense_1_DEFAULT_IDAC_COMP_RANGE
  95:Generated_Source\PSoC4/CapSense_1_SensingCSD_LL.c ****     #else
  96:Generated_Source\PSoC4/CapSense_1_SensingCSD_LL.c ****         #define CapSense_1_DEFAULT_CSD_IDAC_CONFIG        (CapSense_1_IDAC_MOD_MODE_VARIABLE |\
  97:Generated_Source\PSoC4/CapSense_1_SensingCSD_LL.c ****                                                                  CapSense_1_DEFAULT_IDAC_MOD_RANGE)
  98:Generated_Source\PSoC4/CapSense_1_SensingCSD_LL.c ****     #endif /* (CapSense_1_ENABLE == CapSense_1_CSD_IDAC_COMP_EN) */
  99:Generated_Source\PSoC4/CapSense_1_SensingCSD_LL.c **** 
 100:Generated_Source\PSoC4/CapSense_1_SensingCSD_LL.c **** #endif /* (CapSense_1_ENABLE == CapSense_1_CSDV2) */
 101:Generated_Source\PSoC4/CapSense_1_SensingCSD_LL.c **** 
 102:Generated_Source\PSoC4/CapSense_1_SensingCSD_LL.c **** /***************************************
 103:Generated_Source\PSoC4/CapSense_1_SensingCSD_LL.c **** * Variables
 104:Generated_Source\PSoC4/CapSense_1_SensingCSD_LL.c **** ***************************************/
 105:Generated_Source\PSoC4/CapSense_1_SensingCSD_LL.c **** 
 106:Generated_Source\PSoC4/CapSense_1_SensingCSD_LL.c **** #if (CapSense_1_ENABLE == CapSense_1_CSDV2)
 107:Generated_Source\PSoC4/CapSense_1_SensingCSD_LL.c ****     uint32 CapSense_1_configCsd = CapSense_1_DEFAULT_CSD_CONFIG;
 108:Generated_Source\PSoC4/CapSense_1_SensingCSD_LL.c **** #else
 109:Generated_Source\PSoC4/CapSense_1_SensingCSD_LL.c ****     uint32 CapSense_1_configCsd = CapSense_1_DEFAULT_CSD_CONFIG | CapSense_1_DEFAULT_MODULATION_MOD
 110:Generated_Source\PSoC4/CapSense_1_SensingCSD_LL.c ****     static uint32 CapSense_1_counterResolution = CapSense_1_CNT_RESOLUTION_12_BITS;
 111:Generated_Source\PSoC4/CapSense_1_SensingCSD_LL.c **** #endif /* (CapSense_1_ENABLE == CapSense_1_CSDV2) */
 112:Generated_Source\PSoC4/CapSense_1_SensingCSD_LL.c **** 
 113:Generated_Source\PSoC4/CapSense_1_SensingCSD_LL.c **** /* Flag to indicate electrodes that were connected previously */
 114:Generated_Source\PSoC4/CapSense_1_SensingCSD_LL.c **** static uint8 CapSense_1_eleCsdDisconnectFlag = 0u;
 115:Generated_Source\PSoC4/CapSense_1_SensingCSD_LL.c **** #if ((CapSense_1_ENABLE == CapSense_1_CSDV2) && (CapSense_1_ENABLE == CapSense_1_CSD_NOISE_METRIC_E
 116:Generated_Source\PSoC4/CapSense_1_SensingCSD_LL.c ****     /* Number of re-samplings when the bad conversion occurs */
 117:Generated_Source\PSoC4/CapSense_1_SensingCSD_LL.c ****     uint8 CapSense_1_badConversionsNum = CapSense_1_BAD_CONVERSIONS_NUM;
 118:Generated_Source\PSoC4/CapSense_1_SensingCSD_LL.c **** #endif /* ((CapSense_1_ENABLE == CapSense_1_CSDV2) && (CapSense_1_ENABLE == CapSense_1_CSD_NOISE_ME
 119:Generated_Source\PSoC4/CapSense_1_SensingCSD_LL.c **** 
 120:Generated_Source\PSoC4/CapSense_1_SensingCSD_LL.c **** #if (CapSense_1_CSD_SS_DIS != CapSense_1_CSD_AUTOTUNE)
 121:Generated_Source\PSoC4/CapSense_1_SensingCSD_LL.c ****     /* Stores IDAC and raw count that corresponds to a sensor with maximum Cp within a widget */
 122:Generated_Source\PSoC4/CapSense_1_SensingCSD_LL.c ****     uint8 CapSense_1_calibratedIdac = 1u;
 123:Generated_Source\PSoC4/CapSense_1_SensingCSD_LL.c ****     uint16 CapSense_1_calibratedRawcount = 1u;
 124:Generated_Source\PSoC4/CapSense_1_SensingCSD_LL.c ****     #if (CapSense_1_CSD_MATRIX_WIDGET_EN || CapSense_1_CSD_TOUCHPAD_WIDGET_EN)
 125:Generated_Source\PSoC4/CapSense_1_SensingCSD_LL.c ****         uint8 CapSense_1_calibratedIdacRow = 1u;
 126:Generated_Source\PSoC4/CapSense_1_SensingCSD_LL.c ****         uint16 CapSense_1_calibratedRawcountRow = 1u;
 127:Generated_Source\PSoC4/CapSense_1_SensingCSD_LL.c ****     #endif /*(CapSense_1_CSD_MATRIX_WIDGET_EN || CapSense_1_CSD_TOUCHPAD_WIDGET_EN) */
 128:Generated_Source\PSoC4/CapSense_1_SensingCSD_LL.c **** #endif /* (CapSense_1_CSD_SS_DIS != CapSense_1_CSD_AUTOTUNE) */
 129:Generated_Source\PSoC4/CapSense_1_SensingCSD_LL.c **** 
 130:Generated_Source\PSoC4/CapSense_1_SensingCSD_LL.c **** 
 131:Generated_Source\PSoC4/CapSense_1_SensingCSD_LL.c **** /*******************************************************************************
 132:Generated_Source\PSoC4/CapSense_1_SensingCSD_LL.c **** * Static Function Prototypes
 133:Generated_Source\PSoC4/CapSense_1_SensingCSD_LL.c **** *******************************************************************************/
 134:Generated_Source\PSoC4/CapSense_1_SensingCSD_LL.c **** 
 135:Generated_Source\PSoC4/CapSense_1_SensingCSD_LL.c **** /**
 136:Generated_Source\PSoC4/CapSense_1_SensingCSD_LL.c **** * \cond SECTION_C_INTERNAL
 137:Generated_Source\PSoC4/CapSense_1_SensingCSD_LL.c **** * \addtogroup group_c_internal
 138:Generated_Source\PSoC4/CapSense_1_SensingCSD_LL.c **** * \{
 139:Generated_Source\PSoC4/CapSense_1_SensingCSD_LL.c **** */
 140:Generated_Source\PSoC4/CapSense_1_SensingCSD_LL.c **** 
 141:Generated_Source\PSoC4/CapSense_1_SensingCSD_LL.c **** #if (CapSense_1_ENABLE == CapSense_1_CSD_SHIELD_EN)
 142:Generated_Source\PSoC4/CapSense_1_SensingCSD_LL.c ****     static void CapSense_1_SsSetShieldDelay(uint32 delay);
 143:Generated_Source\PSoC4/CapSense_1_SensingCSD_LL.c ****     #if (CapSense_1_ENABLE == CapSense_1_CSD_SHIELD_TANK_EN)
 144:Generated_Source\PSoC4/CapSense_1_SensingCSD_LL.c ****         static void CapSense_1_SsCSDEnableShieldTank(void);
 145:Generated_Source\PSoC4/CapSense_1_SensingCSD_LL.c ****     #endif /* (CapSense_1_ENABLE == CapSense_1_CSD_SHIELD_TANK_EN) */
ARM GAS  C:\Users\MICHAE~1.MAC\AppData\Local\Temp\ccJeyeG1.s 			page 4


 146:Generated_Source\PSoC4/CapSense_1_SensingCSD_LL.c ****     #if (0u != CapSense_1_CSD_TOTAL_SHIELD_COUNT)
 147:Generated_Source\PSoC4/CapSense_1_SensingCSD_LL.c ****         static void CapSense_1_SsCSDEnableShieldElectrodes(void);
 148:Generated_Source\PSoC4/CapSense_1_SensingCSD_LL.c ****     #endif /* (0u != CapSense_1_CSD_TOTAL_SHIELD_COUNT) */
 149:Generated_Source\PSoC4/CapSense_1_SensingCSD_LL.c **** #endif /* (CapSense_1_ENABLE == CapSense_1_CSD_SHIELD_EN) */
 150:Generated_Source\PSoC4/CapSense_1_SensingCSD_LL.c **** 
 151:Generated_Source\PSoC4/CapSense_1_SensingCSD_LL.c **** #if ((CapSense_1_CSD_SS_DIS != CapSense_1_CSD_AUTOTUNE) || \
 152:Generated_Source\PSoC4/CapSense_1_SensingCSD_LL.c ****      (CapSense_1_ENABLE == CapSense_1_CSD_IDAC_AUTOCAL_EN))
 153:Generated_Source\PSoC4/CapSense_1_SensingCSD_LL.c ****     static cystatus CapSense_1_SsCSDCalibrateCheck(CapSense_1_RAM_WD_BASE_STRUCT const *ptrWdgt, ui
 154:Generated_Source\PSoC4/CapSense_1_SensingCSD_LL.c ****     #if (CapSense_1_ENABLE == CapSense_1_CSD_IDAC_COMP_EN)
 155:Generated_Source\PSoC4/CapSense_1_SensingCSD_LL.c ****         static void CapSense_1_SsCSDSetSingleIdacMode(void);
 156:Generated_Source\PSoC4/CapSense_1_SensingCSD_LL.c ****         static void CapSense_1_SsCSDRestoreIdacMode(void);
 157:Generated_Source\PSoC4/CapSense_1_SensingCSD_LL.c ****     #endif /* (CapSense_1_ENABLE == CapSense_1_CSD_IDAC_COMP_EN) */
 158:Generated_Source\PSoC4/CapSense_1_SensingCSD_LL.c ****     static cystatus CapSense_1_SsCSDCalibrateOneSensor(uint32 rawLevel,
 159:Generated_Source\PSoC4/CapSense_1_SensingCSD_LL.c ****                                                              uint8 *ptrIdac,
 160:Generated_Source\PSoC4/CapSense_1_SensingCSD_LL.c ****                                                              uint8 *iDAC8Max);
 161:Generated_Source\PSoC4/CapSense_1_SensingCSD_LL.c **** #endif /* ((CapSense_1_CSD_SS_DIS != CapSense_1_CSD_AUTOTUNE) || \
 162:Generated_Source\PSoC4/CapSense_1_SensingCSD_LL.c ****            (CapSense_1_ENABLE == CapSense_1_CSD_IDAC_AUTOCAL_EN))  */
 163:Generated_Source\PSoC4/CapSense_1_SensingCSD_LL.c **** #if (CapSense_1_ENABLE == CapSense_1_CSDV2)
 164:Generated_Source\PSoC4/CapSense_1_SensingCSD_LL.c ****     static void CapSense_1_SsCSDSetFilterDelay(void);
 165:Generated_Source\PSoC4/CapSense_1_SensingCSD_LL.c **** #else
 166:Generated_Source\PSoC4/CapSense_1_SensingCSD_LL.c ****     CY_INLINE static void CapSense_1_SsCSDClockRestart(void);
 167:Generated_Source\PSoC4/CapSense_1_SensingCSD_LL.c **** #endif /* (CapSense_1_ENABLE == CapSense_1_CSDV2) */
 168:Generated_Source\PSoC4/CapSense_1_SensingCSD_LL.c **** CY_INLINE static void CapSense_1_SsCSDCmodPrecharge(void);
 169:Generated_Source\PSoC4/CapSense_1_SensingCSD_LL.c **** CY_INLINE static void CapSense_1_SsCSDTriggerScan(void);
 170:Generated_Source\PSoC4/CapSense_1_SensingCSD_LL.c **** static void CapSense_1_SsCSDConfigIDACs(void);
 171:Generated_Source\PSoC4/CapSense_1_SensingCSD_LL.c **** static void CapSense_1_SsCSDSetModeSnsClockDivider(uint32 snsClkSource, uint32 snsClkDivider);
 172:Generated_Source\PSoC4/CapSense_1_SensingCSD_LL.c **** 
 173:Generated_Source\PSoC4/CapSense_1_SensingCSD_LL.c **** /** \}
 174:Generated_Source\PSoC4/CapSense_1_SensingCSD_LL.c **** * \endcond */
 175:Generated_Source\PSoC4/CapSense_1_SensingCSD_LL.c **** 
 176:Generated_Source\PSoC4/CapSense_1_SensingCSD_LL.c **** 
 177:Generated_Source\PSoC4/CapSense_1_SensingCSD_LL.c **** #if (CapSense_1_ENABLE == CapSense_1_CSD_SHIELD_EN)
 178:Generated_Source\PSoC4/CapSense_1_SensingCSD_LL.c ****     /*******************************************************************************
 179:Generated_Source\PSoC4/CapSense_1_SensingCSD_LL.c ****     * Function Name: CapSense_1_SsSetShieldDelay
 180:Generated_Source\PSoC4/CapSense_1_SensingCSD_LL.c ****     ****************************************************************************//**
 181:Generated_Source\PSoC4/CapSense_1_SensingCSD_LL.c ****     *
 182:Generated_Source\PSoC4/CapSense_1_SensingCSD_LL.c ****     * \brief
 183:Generated_Source\PSoC4/CapSense_1_SensingCSD_LL.c ****     *   This is an internal function that sets a shield delay.
 184:Generated_Source\PSoC4/CapSense_1_SensingCSD_LL.c ****     *
 185:Generated_Source\PSoC4/CapSense_1_SensingCSD_LL.c ****     * \details
 186:Generated_Source\PSoC4/CapSense_1_SensingCSD_LL.c ****     *   The function updates the CSD configuration register bits that define the shield
 187:Generated_Source\PSoC4/CapSense_1_SensingCSD_LL.c ****     *   signal delay relatively to the sense signal.
 188:Generated_Source\PSoC4/CapSense_1_SensingCSD_LL.c ****     *
 189:Generated_Source\PSoC4/CapSense_1_SensingCSD_LL.c ****     * \param delay
 190:Generated_Source\PSoC4/CapSense_1_SensingCSD_LL.c ****     *   Specifies the shield delay value:
 191:Generated_Source\PSoC4/CapSense_1_SensingCSD_LL.c ****     *    PSoC 4100/4200 value interpretation:
 192:Generated_Source\PSoC4/CapSense_1_SensingCSD_LL.c ****     *         0 - no delay
 193:Generated_Source\PSoC4/CapSense_1_SensingCSD_LL.c ****     *         1 - 1 cycle of HFCLK
 194:Generated_Source\PSoC4/CapSense_1_SensingCSD_LL.c ****     *         2 - 2 cycles of HFCLK
 195:Generated_Source\PSoC4/CapSense_1_SensingCSD_LL.c ****     *    Third-generation HW block (except 4100/4200 devices):
 196:Generated_Source\PSoC4/CapSense_1_SensingCSD_LL.c ****     *         0 - no delay
 197:Generated_Source\PSoC4/CapSense_1_SensingCSD_LL.c ****     *         3 - 10ns delay
 198:Generated_Source\PSoC4/CapSense_1_SensingCSD_LL.c ****     *         2 - 50ns delay
 199:Generated_Source\PSoC4/CapSense_1_SensingCSD_LL.c ****     *    Fourth-generation HW block:
 200:Generated_Source\PSoC4/CapSense_1_SensingCSD_LL.c ****     *         0 - no delay
 201:Generated_Source\PSoC4/CapSense_1_SensingCSD_LL.c ****     *         1 - 5ns delay
 202:Generated_Source\PSoC4/CapSense_1_SensingCSD_LL.c ****     *         2 - 10ns delay
ARM GAS  C:\Users\MICHAE~1.MAC\AppData\Local\Temp\ccJeyeG1.s 			page 5


 203:Generated_Source\PSoC4/CapSense_1_SensingCSD_LL.c ****     *         3 - 20ns delay
 204:Generated_Source\PSoC4/CapSense_1_SensingCSD_LL.c ****     *
 205:Generated_Source\PSoC4/CapSense_1_SensingCSD_LL.c ****     *******************************************************************************/
 206:Generated_Source\PSoC4/CapSense_1_SensingCSD_LL.c ****     static void CapSense_1_SsSetShieldDelay(uint32 delay)
 207:Generated_Source\PSoC4/CapSense_1_SensingCSD_LL.c ****     {
 208:Generated_Source\PSoC4/CapSense_1_SensingCSD_LL.c ****         /* Update CSD config register shield delay bits with shield delay value */
 209:Generated_Source\PSoC4/CapSense_1_SensingCSD_LL.c ****         CapSense_1_configCsd &= (uint32)(~CapSense_1_CONFIG_SHIELD_DELAY_MASK);
 210:Generated_Source\PSoC4/CapSense_1_SensingCSD_LL.c ****         CapSense_1_configCsd |= (delay << CapSense_1_SHIELD_DELAY_SHIFT);
 211:Generated_Source\PSoC4/CapSense_1_SensingCSD_LL.c ****     }
 212:Generated_Source\PSoC4/CapSense_1_SensingCSD_LL.c **** 
 213:Generated_Source\PSoC4/CapSense_1_SensingCSD_LL.c ****     #if (CapSense_1_ENABLE == CapSense_1_CSD_SHIELD_TANK_EN)
 214:Generated_Source\PSoC4/CapSense_1_SensingCSD_LL.c ****         /*******************************************************************************
 215:Generated_Source\PSoC4/CapSense_1_SensingCSD_LL.c ****         * Function Name: CapSense_1_SsCSDEnableShieldTank
 216:Generated_Source\PSoC4/CapSense_1_SensingCSD_LL.c ****         ****************************************************************************//**
 217:Generated_Source\PSoC4/CapSense_1_SensingCSD_LL.c ****         *
 218:Generated_Source\PSoC4/CapSense_1_SensingCSD_LL.c ****         * \brief
 219:Generated_Source\PSoC4/CapSense_1_SensingCSD_LL.c ****         *   This function configures Csh pin
 220:Generated_Source\PSoC4/CapSense_1_SensingCSD_LL.c ****         *
 221:Generated_Source\PSoC4/CapSense_1_SensingCSD_LL.c ****         * \details
 222:Generated_Source\PSoC4/CapSense_1_SensingCSD_LL.c ****         *   The function updates the CSH_HSIOM register to connect Csh to AMUXBUS-B.
 223:Generated_Source\PSoC4/CapSense_1_SensingCSD_LL.c ****         *   For Third-generation HW block it additionally sets Strong drive mode for Csh
 224:Generated_Source\PSoC4/CapSense_1_SensingCSD_LL.c ****         *   and applies High level to Csh pin when precharge is set to IO buffer.
 225:Generated_Source\PSoC4/CapSense_1_SensingCSD_LL.c ****         *
 226:Generated_Source\PSoC4/CapSense_1_SensingCSD_LL.c ****         *******************************************************************************/
 227:Generated_Source\PSoC4/CapSense_1_SensingCSD_LL.c ****         static void CapSense_1_SsCSDEnableShieldTank(void)
 228:Generated_Source\PSoC4/CapSense_1_SensingCSD_LL.c ****         {
 229:Generated_Source\PSoC4/CapSense_1_SensingCSD_LL.c ****             uint32 newRegValue;
 230:Generated_Source\PSoC4/CapSense_1_SensingCSD_LL.c **** 
 231:Generated_Source\PSoC4/CapSense_1_SensingCSD_LL.c ****             /* Update the CSH_HSIOM register to connect Csh to AMUXBUS-B */
 232:Generated_Source\PSoC4/CapSense_1_SensingCSD_LL.c ****             newRegValue = CY_GET_REG32(CapSense_1_CSH_HSIOM_PTR);
 233:Generated_Source\PSoC4/CapSense_1_SensingCSD_LL.c ****             newRegValue &= (uint32)(~(uint32)CapSense_1_CSH_HSIOM_MASK);
 234:Generated_Source\PSoC4/CapSense_1_SensingCSD_LL.c ****             newRegValue |= (CapSense_1_CSH_TO_AMUXBUS_B_MASK << CapSense_1_CSH_HSIOM_SHIFT);
 235:Generated_Source\PSoC4/CapSense_1_SensingCSD_LL.c ****             CY_SET_REG32(CapSense_1_CSH_HSIOM_PTR, newRegValue);
 236:Generated_Source\PSoC4/CapSense_1_SensingCSD_LL.c **** 
 237:Generated_Source\PSoC4/CapSense_1_SensingCSD_LL.c ****             #if ((CapSense_1_CSH_PRECHARGE_IO_BUF == CapSense_1_CSD_CSH_PRECHARGE_SRC) &&\
 238:Generated_Source\PSoC4/CapSense_1_SensingCSD_LL.c ****                  (CapSense_1_DISABLE == CapSense_1_CSDV2))
 239:Generated_Source\PSoC4/CapSense_1_SensingCSD_LL.c ****                 /* Set Strong drive mode for Csh */
 240:Generated_Source\PSoC4/CapSense_1_SensingCSD_LL.c ****                 newRegValue = CY_GET_REG32(CapSense_1_CSH_PC_PTR);
 241:Generated_Source\PSoC4/CapSense_1_SensingCSD_LL.c ****                 newRegValue &= (uint32)(~(CapSense_1_CSH_PC_MASK << CapSense_1_CSH_PC_SHIFT));
 242:Generated_Source\PSoC4/CapSense_1_SensingCSD_LL.c ****                 newRegValue |= (CapSense_1_CSH_PC_STRONG_MODE << CapSense_1_CSH_PC_SHIFT);
 243:Generated_Source\PSoC4/CapSense_1_SensingCSD_LL.c ****                 CY_SET_REG32(CapSense_1_CSH_PC_PTR, newRegValue);
 244:Generated_Source\PSoC4/CapSense_1_SensingCSD_LL.c **** 
 245:Generated_Source\PSoC4/CapSense_1_SensingCSD_LL.c ****                 /* Appliy High level to Csh pin for Csh */
 246:Generated_Source\PSoC4/CapSense_1_SensingCSD_LL.c ****                 newRegValue = CY_GET_REG32(CapSense_1_CSH_DR_PTR);
 247:Generated_Source\PSoC4/CapSense_1_SensingCSD_LL.c ****                 newRegValue &= (uint32)(~(CapSense_1_DR_MASK << CapSense_1_CSH_SHIFT));
 248:Generated_Source\PSoC4/CapSense_1_SensingCSD_LL.c ****                 newRegValue |= (uint32)CapSense_1_CSH_DR_CONFIG;
 249:Generated_Source\PSoC4/CapSense_1_SensingCSD_LL.c ****                 CY_SET_REG32(CapSense_1_CSH_DR_PTR, newRegValue);
 250:Generated_Source\PSoC4/CapSense_1_SensingCSD_LL.c ****             #endif /* ((CapSense_1_CSH_PRECHARGE_IO_BUF == CapSense_1_CSD_CSH_PRECHARGE_SRC) &&\
 251:Generated_Source\PSoC4/CapSense_1_SensingCSD_LL.c ****                        (CapSense_1_DISABLE == CapSense_1_CSDV2)) */
 252:Generated_Source\PSoC4/CapSense_1_SensingCSD_LL.c ****         }
 253:Generated_Source\PSoC4/CapSense_1_SensingCSD_LL.c ****     #endif /* (CapSense_1_ENABLE == CapSense_1_CSD_SHIELD_TANK_EN) */
 254:Generated_Source\PSoC4/CapSense_1_SensingCSD_LL.c **** 
 255:Generated_Source\PSoC4/CapSense_1_SensingCSD_LL.c ****     #if (0u != CapSense_1_CSD_TOTAL_SHIELD_COUNT)
 256:Generated_Source\PSoC4/CapSense_1_SensingCSD_LL.c ****         /*******************************************************************************
 257:Generated_Source\PSoC4/CapSense_1_SensingCSD_LL.c ****         * Function Name: CapSense_1_SsCSDEnableShieldElectrodes
 258:Generated_Source\PSoC4/CapSense_1_SensingCSD_LL.c ****         ****************************************************************************//**
 259:Generated_Source\PSoC4/CapSense_1_SensingCSD_LL.c ****         *
ARM GAS  C:\Users\MICHAE~1.MAC\AppData\Local\Temp\ccJeyeG1.s 			page 6


 260:Generated_Source\PSoC4/CapSense_1_SensingCSD_LL.c ****         * \brief
 261:Generated_Source\PSoC4/CapSense_1_SensingCSD_LL.c ****         *   This internal function initializes Shield Electrodes.
 262:Generated_Source\PSoC4/CapSense_1_SensingCSD_LL.c ****         *
 263:Generated_Source\PSoC4/CapSense_1_SensingCSD_LL.c ****         * \details
 264:Generated_Source\PSoC4/CapSense_1_SensingCSD_LL.c ****         *   The function sets the bit in the HSIOM register which enables the shield electrode
 265:Generated_Source\PSoC4/CapSense_1_SensingCSD_LL.c ****         *   functionality on the pin. The port and pin configurations are stored in
 266:Generated_Source\PSoC4/CapSense_1_SensingCSD_LL.c ****         *   the CapSense_1_shieldIoList structure.
 267:Generated_Source\PSoC4/CapSense_1_SensingCSD_LL.c ****         *
 268:Generated_Source\PSoC4/CapSense_1_SensingCSD_LL.c ****         *******************************************************************************/
 269:Generated_Source\PSoC4/CapSense_1_SensingCSD_LL.c ****         static void CapSense_1_SsCSDEnableShieldElectrodes(void)
 270:Generated_Source\PSoC4/CapSense_1_SensingCSD_LL.c ****         {
 271:Generated_Source\PSoC4/CapSense_1_SensingCSD_LL.c ****             uint32 newRegValue;
 272:Generated_Source\PSoC4/CapSense_1_SensingCSD_LL.c ****             uint32 shieldIndex;
 273:Generated_Source\PSoC4/CapSense_1_SensingCSD_LL.c **** 
 274:Generated_Source\PSoC4/CapSense_1_SensingCSD_LL.c ****             for (shieldIndex = 0u; shieldIndex < CapSense_1_CSD_TOTAL_SHIELD_COUNT; shieldIndex++)
 275:Generated_Source\PSoC4/CapSense_1_SensingCSD_LL.c ****             {
 276:Generated_Source\PSoC4/CapSense_1_SensingCSD_LL.c ****                 /* Set drive mode to Analog */
 277:Generated_Source\PSoC4/CapSense_1_SensingCSD_LL.c ****                 CY_SET_REG32(CapSense_1_shieldIoList[shieldIndex].pcPtr, CY_GET_REG32(CapSense_1_sh
 278:Generated_Source\PSoC4/CapSense_1_SensingCSD_LL.c ****                            ~(CapSense_1_GPIO_PC_MASK <<(CapSense_1_shieldIoList[shieldIndex].shift)
 279:Generated_Source\PSoC4/CapSense_1_SensingCSD_LL.c **** 
 280:Generated_Source\PSoC4/CapSense_1_SensingCSD_LL.c ****                 /* Set HSIOM register mode to CSD_SHIELD or AMUXBUS B connection */
 281:Generated_Source\PSoC4/CapSense_1_SensingCSD_LL.c ****                 newRegValue = CY_GET_REG32(CapSense_1_shieldIoList[shieldIndex].hsiomPtr);
 282:Generated_Source\PSoC4/CapSense_1_SensingCSD_LL.c ****                 newRegValue &= ~(CapSense_1_HSIOM_SEL_MASK << (CapSense_1_shieldIoList[shieldIndex]
 283:Generated_Source\PSoC4/CapSense_1_SensingCSD_LL.c **** 
 284:Generated_Source\PSoC4/CapSense_1_SensingCSD_LL.c ****                 /* Set HSIOM register mode to CSD_SHIELD */
 285:Generated_Source\PSoC4/CapSense_1_SensingCSD_LL.c ****                 newRegValue |= (CapSense_1_HSIOM_SEL_CSD_SHIELD << (CapSense_1_shieldIoList[shieldI
 286:Generated_Source\PSoC4/CapSense_1_SensingCSD_LL.c **** 
 287:Generated_Source\PSoC4/CapSense_1_SensingCSD_LL.c ****                 CY_SET_REG32(CapSense_1_shieldIoList[shieldIndex].hsiomPtr, newRegValue);
 288:Generated_Source\PSoC4/CapSense_1_SensingCSD_LL.c ****             }
 289:Generated_Source\PSoC4/CapSense_1_SensingCSD_LL.c ****         }
 290:Generated_Source\PSoC4/CapSense_1_SensingCSD_LL.c **** 
 291:Generated_Source\PSoC4/CapSense_1_SensingCSD_LL.c **** 
 292:Generated_Source\PSoC4/CapSense_1_SensingCSD_LL.c ****         /*******************************************************************************
 293:Generated_Source\PSoC4/CapSense_1_SensingCSD_LL.c ****         * Function Name: CapSense_1_SsCSDDisableShieldElectrodes
 294:Generated_Source\PSoC4/CapSense_1_SensingCSD_LL.c ****         ****************************************************************************//**
 295:Generated_Source\PSoC4/CapSense_1_SensingCSD_LL.c ****         *
 296:Generated_Source\PSoC4/CapSense_1_SensingCSD_LL.c ****         * \brief
 297:Generated_Source\PSoC4/CapSense_1_SensingCSD_LL.c ****         *   This internal function disables Shield Electrodes.
 298:Generated_Source\PSoC4/CapSense_1_SensingCSD_LL.c ****         *
 299:Generated_Source\PSoC4/CapSense_1_SensingCSD_LL.c ****         * \details
 300:Generated_Source\PSoC4/CapSense_1_SensingCSD_LL.c ****         *   The function resets the bit in the HSIOM register which disables the shield
 301:Generated_Source\PSoC4/CapSense_1_SensingCSD_LL.c ****         *   electrode functionality on the pin. The port and pin configurations are
 302:Generated_Source\PSoC4/CapSense_1_SensingCSD_LL.c ****         *   stored in  the CapSense_1_shieldIoList structure.
 303:Generated_Source\PSoC4/CapSense_1_SensingCSD_LL.c ****         *
 304:Generated_Source\PSoC4/CapSense_1_SensingCSD_LL.c ****         *******************************************************************************/
 305:Generated_Source\PSoC4/CapSense_1_SensingCSD_LL.c ****         void CapSense_1_SsCSDDisableShieldElectrodes(void)
 306:Generated_Source\PSoC4/CapSense_1_SensingCSD_LL.c ****         {
 307:Generated_Source\PSoC4/CapSense_1_SensingCSD_LL.c ****             uint32 newRegValue;
 308:Generated_Source\PSoC4/CapSense_1_SensingCSD_LL.c ****             uint32 shieldIndex;
 309:Generated_Source\PSoC4/CapSense_1_SensingCSD_LL.c **** 
 310:Generated_Source\PSoC4/CapSense_1_SensingCSD_LL.c ****             for (shieldIndex = 0u; shieldIndex < CapSense_1_CSD_TOTAL_SHIELD_COUNT; shieldIndex++)
 311:Generated_Source\PSoC4/CapSense_1_SensingCSD_LL.c ****             {
 312:Generated_Source\PSoC4/CapSense_1_SensingCSD_LL.c ****                 /* Reset HSIOM register (to GPIO state) */
 313:Generated_Source\PSoC4/CapSense_1_SensingCSD_LL.c ****                 CY_SET_REG32(CapSense_1_shieldIoList[shieldIndex].hsiomPtr, CY_GET_REG32(CapSense_1
 314:Generated_Source\PSoC4/CapSense_1_SensingCSD_LL.c ****                              (uint32)~(uint32)(CapSense_1_HSIOM_SEL_MASK << CapSense_1_shieldIoList
 315:Generated_Source\PSoC4/CapSense_1_SensingCSD_LL.c **** 
 316:Generated_Source\PSoC4/CapSense_1_SensingCSD_LL.c ****                 /* Update port configuration register (drive mode to ground)  */
ARM GAS  C:\Users\MICHAE~1.MAC\AppData\Local\Temp\ccJeyeG1.s 			page 7


 317:Generated_Source\PSoC4/CapSense_1_SensingCSD_LL.c ****                 newRegValue = CY_GET_REG32(CapSense_1_shieldIoList[shieldIndex].pcPtr);
 318:Generated_Source\PSoC4/CapSense_1_SensingCSD_LL.c ****                 newRegValue &= ~(CapSense_1_GPIO_PC_MASK << CapSense_1_shieldIoList[shieldIndex].sh
 319:Generated_Source\PSoC4/CapSense_1_SensingCSD_LL.c ****                 newRegValue |= (CapSense_1_SNS_GROUND_CONNECT << CapSense_1_shieldIoList[shieldInde
 320:Generated_Source\PSoC4/CapSense_1_SensingCSD_LL.c ****                 CY_SET_REG32(CapSense_1_shieldIoList[shieldIndex].pcPtr, newRegValue);
 321:Generated_Source\PSoC4/CapSense_1_SensingCSD_LL.c **** 
 322:Generated_Source\PSoC4/CapSense_1_SensingCSD_LL.c ****                 /* Set logic 0 to port data register */
 323:Generated_Source\PSoC4/CapSense_1_SensingCSD_LL.c ****                 CY_SET_REG32(CapSense_1_shieldIoList[shieldIndex].drPtr, CY_GET_REG32(CapSense_1_sh
 324:Generated_Source\PSoC4/CapSense_1_SensingCSD_LL.c ****                            (uint32)~(uint32)((uint32)1u << CapSense_1_shieldIoList[shieldIndex].drS
 325:Generated_Source\PSoC4/CapSense_1_SensingCSD_LL.c ****             }
 326:Generated_Source\PSoC4/CapSense_1_SensingCSD_LL.c ****         }
 327:Generated_Source\PSoC4/CapSense_1_SensingCSD_LL.c ****     #endif /* (0u != CapSense_1_CSD_TOTAL_SHIELD_COUNT) */
 328:Generated_Source\PSoC4/CapSense_1_SensingCSD_LL.c **** #endif /* (CapSense_1_ENABLE == CapSense_1_CSD_SHIELD_EN) */
 329:Generated_Source\PSoC4/CapSense_1_SensingCSD_LL.c **** 
 330:Generated_Source\PSoC4/CapSense_1_SensingCSD_LL.c **** 
 331:Generated_Source\PSoC4/CapSense_1_SensingCSD_LL.c **** /*******************************************************************************
 332:Generated_Source\PSoC4/CapSense_1_SensingCSD_LL.c **** * Function Name: CapSense_1_SsCSDSetModeSnsClockDivider
 333:Generated_Source\PSoC4/CapSense_1_SensingCSD_LL.c **** ****************************************************************************//**
 334:Generated_Source\PSoC4/CapSense_1_SensingCSD_LL.c **** *
 335:Generated_Source\PSoC4/CapSense_1_SensingCSD_LL.c **** * \brief
 336:Generated_Source\PSoC4/CapSense_1_SensingCSD_LL.c **** *   Sets sense source and Sense Clock Divider
 337:Generated_Source\PSoC4/CapSense_1_SensingCSD_LL.c **** *
 338:Generated_Source\PSoC4/CapSense_1_SensingCSD_LL.c **** * \details
 339:Generated_Source\PSoC4/CapSense_1_SensingCSD_LL.c **** *   For Fourth-generation HW block: Updates CapSense_1_SENSE_PERIOD register with
 340:Generated_Source\PSoC4/CapSense_1_SensingCSD_LL.c **** *   sense source and Sense Clock Divider.
 341:Generated_Source\PSoC4/CapSense_1_SensingCSD_LL.c **** *   For Third-generation HW block: Updates CapSense_1_configCsd variable with
 342:Generated_Source\PSoC4/CapSense_1_SensingCSD_LL.c **** *   sense source and sets sense clock divider.
 343:Generated_Source\PSoC4/CapSense_1_SensingCSD_LL.c **** *
 344:Generated_Source\PSoC4/CapSense_1_SensingCSD_LL.c **** * \param
 345:Generated_Source\PSoC4/CapSense_1_SensingCSD_LL.c **** *   snsClkSource The sense source for the sense clock.
 346:Generated_Source\PSoC4/CapSense_1_SensingCSD_LL.c **** * \param
 347:Generated_Source\PSoC4/CapSense_1_SensingCSD_LL.c **** *   snsClkDivider The divider value for the sense clock.
 348:Generated_Source\PSoC4/CapSense_1_SensingCSD_LL.c **** *
 349:Generated_Source\PSoC4/CapSense_1_SensingCSD_LL.c **** *******************************************************************************/
 350:Generated_Source\PSoC4/CapSense_1_SensingCSD_LL.c **** static void CapSense_1_SsCSDSetModeSnsClockDivider(uint32 snsClkSource, uint32 snsClkDivider)
 351:Generated_Source\PSoC4/CapSense_1_SensingCSD_LL.c **** {
  27              		.loc 1 351 0
  28              		.cfi_startproc
  29              		@ args = 0, pretend = 0, frame = 0
  30              		@ frame_needed = 0, uses_anonymous_args = 0
  31              		@ link register save eliminated.
  32              	.LVL0:
 352:Generated_Source\PSoC4/CapSense_1_SensingCSD_LL.c ****     #if (CapSense_1_ENABLE == CapSense_1_CSDV2)
 353:Generated_Source\PSoC4/CapSense_1_SensingCSD_LL.c ****         /* Update reg value with divider and configuration */
 354:Generated_Source\PSoC4/CapSense_1_SensingCSD_LL.c ****         CY_SET_REG32(CapSense_1_SENSE_PERIOD_PTR, snsClkSource | (snsClkDivider - 1u));
  33              		.loc 1 354 0
  34 0000 0139     		subs	r1, r1, #1
  35              	.LVL1:
  36 0002 0843     		orrs	r0, r1
  37              	.LVL2:
  38 0004 014B     		ldr	r3, .L2
  39 0006 1860     		str	r0, [r3]
 355:Generated_Source\PSoC4/CapSense_1_SensingCSD_LL.c ****     #else
 356:Generated_Source\PSoC4/CapSense_1_SensingCSD_LL.c ****         /* Set configuration */
 357:Generated_Source\PSoC4/CapSense_1_SensingCSD_LL.c ****         CapSense_1_configCsd &= ~(CapSense_1_CONFIG_PRS_SELECT_MASK | CapSense_1_CSD_PRS_12_BIT);
 358:Generated_Source\PSoC4/CapSense_1_SensingCSD_LL.c ****         CapSense_1_configCsd |= snsClkSource;
 359:Generated_Source\PSoC4/CapSense_1_SensingCSD_LL.c **** 
 360:Generated_Source\PSoC4/CapSense_1_SensingCSD_LL.c ****         /* Set sense clock divider */
ARM GAS  C:\Users\MICHAE~1.MAC\AppData\Local\Temp\ccJeyeG1.s 			page 8


 361:Generated_Source\PSoC4/CapSense_1_SensingCSD_LL.c ****         CapSense_1_SsSetSnsClockDivider(snsClkDivider);
 362:Generated_Source\PSoC4/CapSense_1_SensingCSD_LL.c ****     #endif /* (CapSense_1_ENABLE == CapSense_1_CSDV2) */
 363:Generated_Source\PSoC4/CapSense_1_SensingCSD_LL.c **** }
  40              		.loc 1 363 0
  41              		@ sp needed
  42 0008 7047     		bx	lr
  43              	.L3:
  44 000a C046     		.align	2
  45              	.L2:
  46 000c 00020B40 		.word	1074463232
  47              		.cfi_endproc
  48              	.LFE1:
  49              		.size	CapSense_1_SsCSDSetModeSnsClockDivider, .-CapSense_1_SsCSDSetModeSnsClockDivider
  50              		.global	__aeabi_uidiv
  51              		.section	.text.CapSense_1_SsCSDSetFilterDelay,"ax",%progbits
  52              		.align	2
  53              		.code	16
  54              		.thumb_func
  55              		.type	CapSense_1_SsCSDSetFilterDelay, %function
  56              	CapSense_1_SsCSDSetFilterDelay:
  57              	.LFB2:
 364:Generated_Source\PSoC4/CapSense_1_SensingCSD_LL.c **** 
 365:Generated_Source\PSoC4/CapSense_1_SensingCSD_LL.c **** 
 366:Generated_Source\PSoC4/CapSense_1_SensingCSD_LL.c **** #if (CapSense_1_ENABLE == CapSense_1_CSDV2)
 367:Generated_Source\PSoC4/CapSense_1_SensingCSD_LL.c ****     /*******************************************************************************
 368:Generated_Source\PSoC4/CapSense_1_SensingCSD_LL.c ****     * Function Name: CapSense_1_SsCSDSetFilterDelay
 369:Generated_Source\PSoC4/CapSense_1_SensingCSD_LL.c ****     ****************************************************************************//**
 370:Generated_Source\PSoC4/CapSense_1_SensingCSD_LL.c ****     *
 371:Generated_Source\PSoC4/CapSense_1_SensingCSD_LL.c ****     * \brief
 372:Generated_Source\PSoC4/CapSense_1_SensingCSD_LL.c ****     *   Sets the filter delay for Fourth-generation HW block.
 373:Generated_Source\PSoC4/CapSense_1_SensingCSD_LL.c ****     *
 374:Generated_Source\PSoC4/CapSense_1_SensingCSD_LL.c ****     * \details
 375:Generated_Source\PSoC4/CapSense_1_SensingCSD_LL.c ****     *   This function updates Fourth-generation HW block configuration
 376:Generated_Source\PSoC4/CapSense_1_SensingCSD_LL.c ****     *   variable CapSense_1_configCsd
 377:Generated_Source\PSoC4/CapSense_1_SensingCSD_LL.c ****     *   with the filter delay which depends on the sample clock frequency.
 378:Generated_Source\PSoC4/CapSense_1_SensingCSD_LL.c ****     *   This variable is written into register during enabling
 379:Generated_Source\PSoC4/CapSense_1_SensingCSD_LL.c ****     *   Fourth-generation HW block .
 380:Generated_Source\PSoC4/CapSense_1_SensingCSD_LL.c ****     *
 381:Generated_Source\PSoC4/CapSense_1_SensingCSD_LL.c ****     *******************************************************************************/
 382:Generated_Source\PSoC4/CapSense_1_SensingCSD_LL.c ****     static void CapSense_1_SsCSDSetFilterDelay(void)
 383:Generated_Source\PSoC4/CapSense_1_SensingCSD_LL.c ****     {
  58              		.loc 1 383 0
  59              		.cfi_startproc
  60              		@ args = 0, pretend = 0, frame = 0
  61              		@ frame_needed = 0, uses_anonymous_args = 0
  62 0000 10B5     		push	{r4, lr}
  63              		.cfi_def_cfa_offset 8
  64              		.cfi_offset 4, -8
  65              		.cfi_offset 14, -4
 384:Generated_Source\PSoC4/CapSense_1_SensingCSD_LL.c ****         #if (CapSense_1_MOD_CSD_CLK_12MHZ < CYDEV_BCLK__HFCLK__HZ)
 385:Generated_Source\PSoC4/CapSense_1_SensingCSD_LL.c ****             uint32 sampleClkFreqHz;
 386:Generated_Source\PSoC4/CapSense_1_SensingCSD_LL.c ****         #endif /* (CapSense_1_MOD_CSD_CLK_12MHZ < CYDEV_BCLK__HFCLK__HZ) */
 387:Generated_Source\PSoC4/CapSense_1_SensingCSD_LL.c **** 
 388:Generated_Source\PSoC4/CapSense_1_SensingCSD_LL.c ****         CapSense_1_configCsd &= ~CapSense_1_CONFIG_FILTER_DELAY_MASK;
  66              		.loc 1 388 0
  67 0002 0F4B     		ldr	r3, .L8
  68 0004 1B68     		ldr	r3, [r3]
ARM GAS  C:\Users\MICHAE~1.MAC\AppData\Local\Temp\ccJeyeG1.s 			page 9


  69 0006 7022     		movs	r2, #112
  70 0008 9343     		bics	r3, r2
  71 000a 1C00     		movs	r4, r3
 389:Generated_Source\PSoC4/CapSense_1_SensingCSD_LL.c **** 
 390:Generated_Source\PSoC4/CapSense_1_SensingCSD_LL.c ****         #if (CapSense_1_MOD_CSD_CLK_12MHZ < CYDEV_BCLK__HFCLK__HZ)
 391:Generated_Source\PSoC4/CapSense_1_SensingCSD_LL.c ****             sampleClkFreqHz = CYDEV_BCLK__HFCLK__HZ / (uint32)CapSense_1_dsRam.modCsdClk;
  72              		.loc 1 391 0
  73 000c 0D4B     		ldr	r3, .L8+4
  74 000e 197F     		ldrb	r1, [r3, #28]
  75 0010 0D48     		ldr	r0, .L8+8
  76 0012 FFF7FEFF 		bl	__aeabi_uidiv
  77              	.LVL3:
 392:Generated_Source\PSoC4/CapSense_1_SensingCSD_LL.c ****             if(sampleClkFreqHz <= CapSense_1_MOD_CSD_CLK_12MHZ)
  78              		.loc 1 392 0
  79 0016 0D4B     		ldr	r3, .L8+12
  80 0018 9842     		cmp	r0, r3
  81 001a 04D8     		bhi	.L5
 393:Generated_Source\PSoC4/CapSense_1_SensingCSD_LL.c ****             {
 394:Generated_Source\PSoC4/CapSense_1_SensingCSD_LL.c ****                 CapSense_1_configCsd |= CapSense_1_CONFIG_FILTER_DELAY_12MHZ;
  82              		.loc 1 394 0
  83 001c 2023     		movs	r3, #32
  84 001e 2343     		orrs	r3, r4
  85 0020 074A     		ldr	r2, .L8
  86 0022 1360     		str	r3, [r2]
  87 0024 0BE0     		b	.L4
  88              	.L5:
 395:Generated_Source\PSoC4/CapSense_1_SensingCSD_LL.c ****             }
 396:Generated_Source\PSoC4/CapSense_1_SensingCSD_LL.c ****             else if(sampleClkFreqHz <= CapSense_1_MOD_CSD_CLK_24MHZ)
  89              		.loc 1 396 0
  90 0026 0A4B     		ldr	r3, .L8+16
  91 0028 9842     		cmp	r0, r3
  92 002a 04D8     		bhi	.L7
 397:Generated_Source\PSoC4/CapSense_1_SensingCSD_LL.c ****             {
 398:Generated_Source\PSoC4/CapSense_1_SensingCSD_LL.c ****                 CapSense_1_configCsd |= CapSense_1_CONFIG_FILTER_DELAY_24MHZ;
  93              		.loc 1 398 0
  94 002c 3023     		movs	r3, #48
  95 002e 2343     		orrs	r3, r4
  96 0030 034A     		ldr	r2, .L8
  97 0032 1360     		str	r3, [r2]
  98 0034 03E0     		b	.L4
  99              	.L7:
 399:Generated_Source\PSoC4/CapSense_1_SensingCSD_LL.c ****             }
 400:Generated_Source\PSoC4/CapSense_1_SensingCSD_LL.c ****             else
 401:Generated_Source\PSoC4/CapSense_1_SensingCSD_LL.c ****             {
 402:Generated_Source\PSoC4/CapSense_1_SensingCSD_LL.c ****                 CapSense_1_configCsd |= CapSense_1_CONFIG_FILTER_DELAY_48MHZ;
 100              		.loc 1 402 0
 101 0036 4023     		movs	r3, #64
 102 0038 2343     		orrs	r3, r4
 103 003a 014A     		ldr	r2, .L8
 104 003c 1360     		str	r3, [r2]
 105              	.L4:
 403:Generated_Source\PSoC4/CapSense_1_SensingCSD_LL.c ****             }
 404:Generated_Source\PSoC4/CapSense_1_SensingCSD_LL.c ****         #else
 405:Generated_Source\PSoC4/CapSense_1_SensingCSD_LL.c ****             CapSense_1_configCsd |= CapSense_1_CONFIG_FILTER_DELAY_12MHZ;
 406:Generated_Source\PSoC4/CapSense_1_SensingCSD_LL.c ****         #endif /* (CapSense_1_MOD_CSD_CLK_12MHZ < CYDEV_BCLK__HFCLK__HZ) */
 407:Generated_Source\PSoC4/CapSense_1_SensingCSD_LL.c ****     }
 106              		.loc 1 407 0
ARM GAS  C:\Users\MICHAE~1.MAC\AppData\Local\Temp\ccJeyeG1.s 			page 10


 107              		@ sp needed
 108 003e 10BD     		pop	{r4, pc}
 109              	.L9:
 110              		.align	2
 111              	.L8:
 112 0040 00000000 		.word	.LANCHOR0
 113 0044 00000000 		.word	CapSense_1_dsRam
 114 0048 006CDC02 		.word	48000000
 115 004c 001BB700 		.word	12000000
 116 0050 00366E01 		.word	24000000
 117              		.cfi_endproc
 118              	.LFE2:
 119              		.size	CapSense_1_SsCSDSetFilterDelay, .-CapSense_1_SsCSDSetFilterDelay
 120              		.section	.text.CapSense_1_SsCSDConfigIDACs,"ax",%progbits
 121              		.align	2
 122              		.code	16
 123              		.thumb_func
 124              		.type	CapSense_1_SsCSDConfigIDACs, %function
 125              	CapSense_1_SsCSDConfigIDACs:
 126              	.LFB3:
 408:Generated_Source\PSoC4/CapSense_1_SensingCSD_LL.c **** #endif /* (CapSense_1_ENABLE == CapSense_1_CSD_GANGED_SNS_EN)  */
 409:Generated_Source\PSoC4/CapSense_1_SensingCSD_LL.c **** 
 410:Generated_Source\PSoC4/CapSense_1_SensingCSD_LL.c **** 
 411:Generated_Source\PSoC4/CapSense_1_SensingCSD_LL.c **** /*******************************************************************************
 412:Generated_Source\PSoC4/CapSense_1_SensingCSD_LL.c **** * Function Name: CapSense_1_SsCSDConfigIDACs
 413:Generated_Source\PSoC4/CapSense_1_SensingCSD_LL.c **** ****************************************************************************//**
 414:Generated_Source\PSoC4/CapSense_1_SensingCSD_LL.c **** *
 415:Generated_Source\PSoC4/CapSense_1_SensingCSD_LL.c **** * \brief
 416:Generated_Source\PSoC4/CapSense_1_SensingCSD_LL.c **** *   Configures the mode for IDAC registers
 417:Generated_Source\PSoC4/CapSense_1_SensingCSD_LL.c **** *
 418:Generated_Source\PSoC4/CapSense_1_SensingCSD_LL.c **** * \details
 419:Generated_Source\PSoC4/CapSense_1_SensingCSD_LL.c **** *   This function configures the IDAC modes depend on Compensation IDAC
 420:Generated_Source\PSoC4/CapSense_1_SensingCSD_LL.c **** *   enabled or disabled.
 421:Generated_Source\PSoC4/CapSense_1_SensingCSD_LL.c **** *
 422:Generated_Source\PSoC4/CapSense_1_SensingCSD_LL.c **** *******************************************************************************/
 423:Generated_Source\PSoC4/CapSense_1_SensingCSD_LL.c **** static void CapSense_1_SsCSDConfigIDACs(void)
 424:Generated_Source\PSoC4/CapSense_1_SensingCSD_LL.c **** {
 127              		.loc 1 424 0
 128              		.cfi_startproc
 129              		@ args = 0, pretend = 0, frame = 0
 130              		@ frame_needed = 0, uses_anonymous_args = 0
 131              		@ link register save eliminated.
 425:Generated_Source\PSoC4/CapSense_1_SensingCSD_LL.c ****     #if (CapSense_1_ENABLE == CapSense_1_CSDV2)
 426:Generated_Source\PSoC4/CapSense_1_SensingCSD_LL.c ****     CY_SET_REG32(CapSense_1_IDAC_MOD_PTR, CapSense_1_IDAC_MOD_DEFAULT_CFG);
 132              		.loc 1 426 0
 133 0000 034A     		ldr	r2, .L11
 134 0002 044B     		ldr	r3, .L11+4
 135 0004 1A60     		str	r2, [r3]
 427:Generated_Source\PSoC4/CapSense_1_SensingCSD_LL.c ****         #if ((CapSense_1_ENABLE == CapSense_1_CSD_IDAC_COMP_EN) && \
 428:Generated_Source\PSoC4/CapSense_1_SensingCSD_LL.c ****              (CapSense_1_ENABLE == CapSense_1_CSD_DEDICATED_IDAC_COMP_EN))
 429:Generated_Source\PSoC4/CapSense_1_SensingCSD_LL.c ****         CY_SET_REG32(CapSense_1_IDACB_PTR, CapSense_1_IDAC_COMP_DEFAULT_CFG);
 136              		.loc 1 429 0
 137 0006 C122     		movs	r2, #193
 138 0008 5204     		lsls	r2, r2, #17
 139 000a 034B     		ldr	r3, .L11+8
 140 000c 1A60     		str	r2, [r3]
 430:Generated_Source\PSoC4/CapSense_1_SensingCSD_LL.c ****         #endif /* ((CapSense_1_ENABLE == CapSense_1_CSD_IDAC_COMP_EN) && \
ARM GAS  C:\Users\MICHAE~1.MAC\AppData\Local\Temp\ccJeyeG1.s 			page 11


 431:Generated_Source\PSoC4/CapSense_1_SensingCSD_LL.c ****                    (CapSense_1_ENABLE == CapSense_1_CSD_DEDICATED_IDAC_COMP_EN)) */
 432:Generated_Source\PSoC4/CapSense_1_SensingCSD_LL.c ****     #else
 433:Generated_Source\PSoC4/CapSense_1_SensingCSD_LL.c ****         #if (CapSense_1_ENABLE == CapSense_1_CSD_IDAC_COMP_EN)
 434:Generated_Source\PSoC4/CapSense_1_SensingCSD_LL.c ****             CY_SET_REG32(CapSense_1_IDAC_PTR, CapSense_1_DEFAULT_CSD_IDAC_CONFIG);
 435:Generated_Source\PSoC4/CapSense_1_SensingCSD_LL.c ****         #else
 436:Generated_Source\PSoC4/CapSense_1_SensingCSD_LL.c ****             CY_SET_REG32(CapSense_1_IDAC_PTR, CY_GET_REG32(CapSense_1_IDAC_PTR) &
 437:Generated_Source\PSoC4/CapSense_1_SensingCSD_LL.c ****                                                                 ~(CapSense_1_IDAC_MOD_MODE_MASK |
 438:Generated_Source\PSoC4/CapSense_1_SensingCSD_LL.c ****                                                                   CapSense_1_IDAC_MOD_MASK));
 439:Generated_Source\PSoC4/CapSense_1_SensingCSD_LL.c ****             CY_SET_REG32(CapSense_1_IDAC_PTR, CY_GET_REG32(CapSense_1_IDAC_PTR) |
 440:Generated_Source\PSoC4/CapSense_1_SensingCSD_LL.c ****                                                                  CapSense_1_DEFAULT_CSD_IDAC_CONFIG
 441:Generated_Source\PSoC4/CapSense_1_SensingCSD_LL.c ****         #endif /* (CapSense_1_ENABLE == CapSense_1_CSD_IDAC_COMP_EN) */
 442:Generated_Source\PSoC4/CapSense_1_SensingCSD_LL.c ****     #endif /* (CapSense_1_ENABLE == CapSense_1_CSDV2) */
 443:Generated_Source\PSoC4/CapSense_1_SensingCSD_LL.c **** }
 141              		.loc 1 443 0
 142              		@ sp needed
 143 000e 7047     		bx	lr
 144              	.L12:
 145              		.align	2
 146              	.L11:
 147 0010 00008301 		.word	25362432
 148 0014 C0010B40 		.word	1074463168
 149 0018 C4010B40 		.word	1074463172
 150              		.cfi_endproc
 151              	.LFE3:
 152              		.size	CapSense_1_SsCSDConfigIDACs, .-CapSense_1_SsCSDConfigIDACs
 153              		.section	.text.CapSense_1_SsCSDSetSingleIdacMode,"ax",%progbits
 154              		.align	2
 155              		.code	16
 156              		.thumb_func
 157              		.type	CapSense_1_SsCSDSetSingleIdacMode, %function
 158              	CapSense_1_SsCSDSetSingleIdacMode:
 159              	.LFB19:
 444:Generated_Source\PSoC4/CapSense_1_SensingCSD_LL.c **** 
 445:Generated_Source\PSoC4/CapSense_1_SensingCSD_LL.c **** 
 446:Generated_Source\PSoC4/CapSense_1_SensingCSD_LL.c **** /*******************************************************************************
 447:Generated_Source\PSoC4/CapSense_1_SensingCSD_LL.c **** * Function Name: CapSense_1_SsCSDInitialize
 448:Generated_Source\PSoC4/CapSense_1_SensingCSD_LL.c **** ****************************************************************************//**
 449:Generated_Source\PSoC4/CapSense_1_SensingCSD_LL.c **** *
 450:Generated_Source\PSoC4/CapSense_1_SensingCSD_LL.c **** * \brief
 451:Generated_Source\PSoC4/CapSense_1_SensingCSD_LL.c **** *   This API initializes the CSD module.
 452:Generated_Source\PSoC4/CapSense_1_SensingCSD_LL.c **** *
 453:Generated_Source\PSoC4/CapSense_1_SensingCSD_LL.c **** * \details
 454:Generated_Source\PSoC4/CapSense_1_SensingCSD_LL.c **** *   The function performs the following steps for Fourth-generation HW block:
 455:Generated_Source\PSoC4/CapSense_1_SensingCSD_LL.c **** *   1) Sets GPIO output to "0" for all sensor pins;
 456:Generated_Source\PSoC4/CapSense_1_SensingCSD_LL.c **** *   2) Connects CMOD to AMUXBUS-A and to CSDBUS-A;
 457:Generated_Source\PSoC4/CapSense_1_SensingCSD_LL.c **** *   3) Connects CMOD to (sense path) to CSDCOMP;
 458:Generated_Source\PSoC4/CapSense_1_SensingCSD_LL.c **** *   4) Connects Csh_tank to AMUXBUS-B and to CSDBUS-B;
 459:Generated_Source\PSoC4/CapSense_1_SensingCSD_LL.c **** *   5) Connects VREF to REFGEN;
 460:Generated_Source\PSoC4/CapSense_1_SensingCSD_LL.c **** *   6) Configures REFGEN and sets the reference voltage;
 461:Generated_Source\PSoC4/CapSense_1_SensingCSD_LL.c **** *   7) Connects VREF to CSDCOMP and HSCOMP;
 462:Generated_Source\PSoC4/CapSense_1_SensingCSD_LL.c **** *   8) Configures IDAC and connect to CSDBUS-A (to drive CMOD);
 463:Generated_Source\PSoC4/CapSense_1_SensingCSD_LL.c **** *   9) Configures ModClk;
 464:Generated_Source\PSoC4/CapSense_1_SensingCSD_LL.c **** *   10) Configure SnsClk source;
 465:Generated_Source\PSoC4/CapSense_1_SensingCSD_LL.c **** *   11) Sets other CSD configurations (Csd Auto Zero time,
 466:Generated_Source\PSoC4/CapSense_1_SensingCSD_LL.c **** *       Sample Init period, interrupts,
 467:Generated_Source\PSoC4/CapSense_1_SensingCSD_LL.c **** *       CMOD and Csh_tank/shield initialization switch resistance).
 468:Generated_Source\PSoC4/CapSense_1_SensingCSD_LL.c **** *
ARM GAS  C:\Users\MICHAE~1.MAC\AppData\Local\Temp\ccJeyeG1.s 			page 12


 469:Generated_Source\PSoC4/CapSense_1_SensingCSD_LL.c **** *   The function performs the following steps for Third-generation HW block:
 470:Generated_Source\PSoC4/CapSense_1_SensingCSD_LL.c **** *   1) Sets all the sensors to the inactive state;
 471:Generated_Source\PSoC4/CapSense_1_SensingCSD_LL.c **** *   2) Enables Shield Electrodes;
 472:Generated_Source\PSoC4/CapSense_1_SensingCSD_LL.c **** *   3) Configures the CSD block and IDACs;
 473:Generated_Source\PSoC4/CapSense_1_SensingCSD_LL.c **** *   4) Connects Cmod to AMUXBUS-A;
 474:Generated_Source\PSoC4/CapSense_1_SensingCSD_LL.c **** *   5) Enables the clocks;
 475:Generated_Source\PSoC4/CapSense_1_SensingCSD_LL.c **** *   6) Sets the shield delay;
 476:Generated_Source\PSoC4/CapSense_1_SensingCSD_LL.c **** *   7) Enables the CSD block; connects Vref Buffer to the AMUX bus.
 477:Generated_Source\PSoC4/CapSense_1_SensingCSD_LL.c **** *
 478:Generated_Source\PSoC4/CapSense_1_SensingCSD_LL.c **** *******************************************************************************/
 479:Generated_Source\PSoC4/CapSense_1_SensingCSD_LL.c **** void CapSense_1_SsCSDInitialize(void)
 480:Generated_Source\PSoC4/CapSense_1_SensingCSD_LL.c **** {
 481:Generated_Source\PSoC4/CapSense_1_SensingCSD_LL.c ****     uint32 newRegValue;
 482:Generated_Source\PSoC4/CapSense_1_SensingCSD_LL.c **** 
 483:Generated_Source\PSoC4/CapSense_1_SensingCSD_LL.c ****     /* Set all the sensors to inactive state */
 484:Generated_Source\PSoC4/CapSense_1_SensingCSD_LL.c ****     CapSense_1_SsClearCSDSensors();
 485:Generated_Source\PSoC4/CapSense_1_SensingCSD_LL.c **** 
 486:Generated_Source\PSoC4/CapSense_1_SensingCSD_LL.c ****     #if (CapSense_1_ENABLE == CapSense_1_CSDV2)
 487:Generated_Source\PSoC4/CapSense_1_SensingCSD_LL.c ****         CapSense_1_BistDischargeExtCapacitors();
 488:Generated_Source\PSoC4/CapSense_1_SensingCSD_LL.c ****     #endif /* (CapSense_1_ENABLE == CapSense_1_CSDV2) */
 489:Generated_Source\PSoC4/CapSense_1_SensingCSD_LL.c ****     
 490:Generated_Source\PSoC4/CapSense_1_SensingCSD_LL.c ****     #if (CapSense_1_ENABLE == CapSense_1_CSD_SHIELD_EN)
 491:Generated_Source\PSoC4/CapSense_1_SensingCSD_LL.c ****         /* Connect shields to AMUX-B bus (config HSIOM regs) */
 492:Generated_Source\PSoC4/CapSense_1_SensingCSD_LL.c ****         #if (0u != CapSense_1_CSD_TOTAL_SHIELD_COUNT)
 493:Generated_Source\PSoC4/CapSense_1_SensingCSD_LL.c ****             CapSense_1_SsCSDEnableShieldElectrodes();
 494:Generated_Source\PSoC4/CapSense_1_SensingCSD_LL.c ****         #endif /* (0u != CapSense_1_CSD_TOTAL_SHIELD_COUNT) */
 495:Generated_Source\PSoC4/CapSense_1_SensingCSD_LL.c **** 
 496:Generated_Source\PSoC4/CapSense_1_SensingCSD_LL.c ****         #if (CapSense_1_ENABLE == CapSense_1_CSD_SHIELD_TANK_EN)
 497:Generated_Source\PSoC4/CapSense_1_SensingCSD_LL.c ****             /* Configure Csh */
 498:Generated_Source\PSoC4/CapSense_1_SensingCSD_LL.c ****             CapSense_1_SsCSDEnableShieldTank();
 499:Generated_Source\PSoC4/CapSense_1_SensingCSD_LL.c ****         #endif /* (CapSense_1_ENABLE == CapSense_1_CSD_SHIELD_TANK_EN) */
 500:Generated_Source\PSoC4/CapSense_1_SensingCSD_LL.c ****     #endif /* (CapSense_1_ENABLE == CapSense_1_CSD_SHIELD_EN) */
 501:Generated_Source\PSoC4/CapSense_1_SensingCSD_LL.c **** 
 502:Generated_Source\PSoC4/CapSense_1_SensingCSD_LL.c ****     #if (CapSense_1_ENABLE == CapSense_1_CSDV2)
 503:Generated_Source\PSoC4/CapSense_1_SensingCSD_LL.c **** 
 504:Generated_Source\PSoC4/CapSense_1_SensingCSD_LL.c ****         /* Initialize the unused CSD registers to defaut state */
 505:Generated_Source\PSoC4/CapSense_1_SensingCSD_LL.c ****         CY_SET_REG32(CapSense_1_SENSE_DUTY_PTR,       CapSense_1_DEFAULT_SENSE_DUTY_SEL);
 506:Generated_Source\PSoC4/CapSense_1_SensingCSD_LL.c **** 
 507:Generated_Source\PSoC4/CapSense_1_SensingCSD_LL.c ****         /* Configure VREF */
 508:Generated_Source\PSoC4/CapSense_1_SensingCSD_LL.c ****         newRegValue = CY_GET_REG32(CapSense_1_SW_REFGEN_SEL_PTR);
 509:Generated_Source\PSoC4/CapSense_1_SensingCSD_LL.c ****         newRegValue |= CapSense_1_DEFAULT_SW_REFGEN_SEL;
 510:Generated_Source\PSoC4/CapSense_1_SensingCSD_LL.c **** 
 511:Generated_Source\PSoC4/CapSense_1_SensingCSD_LL.c ****         CY_SET_REG32(CapSense_1_SW_REFGEN_SEL_PTR, newRegValue);
 512:Generated_Source\PSoC4/CapSense_1_SensingCSD_LL.c ****         CY_SET_REG32(CapSense_1_INTR_SET_PTR,         CapSense_1_DEFAULT_CSD_INTR_SET);
 513:Generated_Source\PSoC4/CapSense_1_SensingCSD_LL.c ****         CY_SET_REG32(CapSense_1_SW_FW_TANK_SEL_PTR,   CapSense_1_DEFAULT_CSD_SW_FW_TANK_SEL);
 514:Generated_Source\PSoC4/CapSense_1_SensingCSD_LL.c ****         CY_SET_REG32(CapSense_1_SW_DSI_SEL_PTR,       CapSense_1_DEFAULT_CSD_SW_DSI_SEL);
 515:Generated_Source\PSoC4/CapSense_1_SensingCSD_LL.c ****         CY_SET_REG32(CapSense_1_ADC_CTL_PTR,          CapSense_1_DEFAULT_CSD_ADC_CTL);
 516:Generated_Source\PSoC4/CapSense_1_SensingCSD_LL.c ****         CY_SET_REG32(CapSense_1_AMBUF_PTR,            CapSense_1_AMBUF_PWR_MODE_OFF);
 517:Generated_Source\PSoC4/CapSense_1_SensingCSD_LL.c ****         CY_SET_REG32(CapSense_1_SW_SHIELD_SEL_PTR,    CapSense_1_DEFAULT_SW_SHIELD_SEL);
 518:Generated_Source\PSoC4/CapSense_1_SensingCSD_LL.c ****         CY_SET_REG32(CapSense_1_SW_HS_P_SEL_PTR,      CapSense_1_DEFAULT_SW_HS_P_SEL);
 519:Generated_Source\PSoC4/CapSense_1_SensingCSD_LL.c ****         CY_SET_REG32(CapSense_1_SW_HS_N_SEL_PTR,      CapSense_1_DEFAULT_SW_HS_N_SEL);
 520:Generated_Source\PSoC4/CapSense_1_SensingCSD_LL.c ****         CY_SET_REG32(CapSense_1_HSCMP_PTR,            CapSense_1_DEFAULT_HSCMP_CFG);
 521:Generated_Source\PSoC4/CapSense_1_SensingCSD_LL.c **** 
 522:Generated_Source\PSoC4/CapSense_1_SensingCSD_LL.c ****         /* Connect CMOD to AMUXBUS-A */
 523:Generated_Source\PSoC4/CapSense_1_SensingCSD_LL.c ****         newRegValue = CY_GET_REG32(CapSense_1_CMOD_HSIOM_PTR);
 524:Generated_Source\PSoC4/CapSense_1_SensingCSD_LL.c ****         newRegValue &= (uint32)(~(uint32)CapSense_1_CMOD_HSIOM_MASK);
 525:Generated_Source\PSoC4/CapSense_1_SensingCSD_LL.c ****         newRegValue |= (CapSense_1_HSIOM_SEL_AMUXA << CapSense_1_CMOD_HSIOM_SHIFT);
ARM GAS  C:\Users\MICHAE~1.MAC\AppData\Local\Temp\ccJeyeG1.s 			page 13


 526:Generated_Source\PSoC4/CapSense_1_SensingCSD_LL.c ****         CY_SET_REG32(CapSense_1_CMOD_HSIOM_PTR, newRegValue);
 527:Generated_Source\PSoC4/CapSense_1_SensingCSD_LL.c **** 
 528:Generated_Source\PSoC4/CapSense_1_SensingCSD_LL.c ****         /* Connect AMUXBUS-A to CSDBUS-A */
 529:Generated_Source\PSoC4/CapSense_1_SensingCSD_LL.c ****         newRegValue = CY_GET_REG32(CapSense_1_SW_BYP_SEL_PTR);
 530:Generated_Source\PSoC4/CapSense_1_SensingCSD_LL.c ****         newRegValue |= CapSense_1_SW_BYP_SEL_SW_BYA_MASK;
 531:Generated_Source\PSoC4/CapSense_1_SensingCSD_LL.c ****         CY_SET_REG32(CapSense_1_SW_BYP_SEL_PTR, newRegValue);
 532:Generated_Source\PSoC4/CapSense_1_SensingCSD_LL.c **** 
 533:Generated_Source\PSoC4/CapSense_1_SensingCSD_LL.c ****         /* Connect CMOD to (sense path) to CSDCOMP */
 534:Generated_Source\PSoC4/CapSense_1_SensingCSD_LL.c ****         #if (CapSense_1_CSD__CMOD_PAD == CapSense_1_CMOD_CONNECTION)
 535:Generated_Source\PSoC4/CapSense_1_SensingCSD_LL.c ****             CY_SET_REG32(CapSense_1_SW_CMP_P_SEL_PTR, CapSense_1_SW_CMP_P_SEL_SW_SFPM_STATIC_CLOSE)
 536:Generated_Source\PSoC4/CapSense_1_SensingCSD_LL.c ****         #elif (CapSense_1_CSD__CSHIELD_PAD == CapSense_1_CMOD_CONNECTION)
 537:Generated_Source\PSoC4/CapSense_1_SensingCSD_LL.c ****             CY_SET_REG32(CapSense_1_SW_CMP_P_SEL_PTR, CapSense_1_SW_CMP_P_SEL_SW_SFPS_STATIC_CLOSE)
 538:Generated_Source\PSoC4/CapSense_1_SensingCSD_LL.c ****         #else
 539:Generated_Source\PSoC4/CapSense_1_SensingCSD_LL.c ****             CY_SET_REG32(CapSense_1_SW_CMP_P_SEL_PTR, CapSense_1_SW_CMP_P_SEL_SW_SFPT_STATIC_CLOSE)
 540:Generated_Source\PSoC4/CapSense_1_SensingCSD_LL.c ****         #endif /* (CapSense_1_CSD__CMOD_PAD == CapSense_1_CMOD_CONNECTION) */
 541:Generated_Source\PSoC4/CapSense_1_SensingCSD_LL.c **** 
 542:Generated_Source\PSoC4/CapSense_1_SensingCSD_LL.c ****         /* Configure shield driving path */
 543:Generated_Source\PSoC4/CapSense_1_SensingCSD_LL.c ****         #if (CapSense_1_ENABLE == CapSense_1_CSD_SHIELD_EN)
 544:Generated_Source\PSoC4/CapSense_1_SensingCSD_LL.c ****             /* Connect AMUXBUS-B to CSDBUS-B (and AMUXBUS-A to CSDBUS-A ) */
 545:Generated_Source\PSoC4/CapSense_1_SensingCSD_LL.c ****             CY_SET_REG32(CapSense_1_SW_BYP_SEL_PTR, CapSense_1_SW_BYP_SEL_SW_BYA_MASK | CapSense_1_
 546:Generated_Source\PSoC4/CapSense_1_SensingCSD_LL.c **** 
 547:Generated_Source\PSoC4/CapSense_1_SensingCSD_LL.c ****         /* Connect AMUXBUS-B to HSCMP positive input */
 548:Generated_Source\PSoC4/CapSense_1_SensingCSD_LL.c ****         CY_SET_REG32(CapSense_1_SW_HS_P_SEL_PTR, 0x00000000uL);
 549:Generated_Source\PSoC4/CapSense_1_SensingCSD_LL.c ****     #endif /* (CapSense_1_ENABLE == CapSense_1_CSD_SHIELD_EN) */
 550:Generated_Source\PSoC4/CapSense_1_SensingCSD_LL.c **** 
 551:Generated_Source\PSoC4/CapSense_1_SensingCSD_LL.c ****         /* Configure VREF */
 552:Generated_Source\PSoC4/CapSense_1_SensingCSD_LL.c ****         #if (CapSense_1_ENABLE == CapSense_1_CSD_IDAC_COMP_EN) && (CapSense_1_ENABLE == CapSense_1_
 553:Generated_Source\PSoC4/CapSense_1_SensingCSD_LL.c ****             /* Connect VREF to REFGEN. Connect IDACB to CSDBUSA */
 554:Generated_Source\PSoC4/CapSense_1_SensingCSD_LL.c ****             newRegValue = CY_GET_REG32(CapSense_1_SW_REFGEN_SEL_PTR);
 555:Generated_Source\PSoC4/CapSense_1_SensingCSD_LL.c ****             newRegValue |= CapSense_1_SW_REFGEN_SEL_SW_SGR_MASK | CapSense_1_SW_REFGEN_SEL_SW_IAIB_
 556:Generated_Source\PSoC4/CapSense_1_SensingCSD_LL.c ****             CY_SET_REG32(CapSense_1_SW_REFGEN_SEL_PTR, newRegValue);
 557:Generated_Source\PSoC4/CapSense_1_SensingCSD_LL.c ****         #else
 558:Generated_Source\PSoC4/CapSense_1_SensingCSD_LL.c ****             /* Connect VREF to REFGEN (IAIB switch is open) */
 559:Generated_Source\PSoC4/CapSense_1_SensingCSD_LL.c ****             newRegValue = CY_GET_REG32(CapSense_1_SW_REFGEN_SEL_PTR);
 560:Generated_Source\PSoC4/CapSense_1_SensingCSD_LL.c ****             newRegValue |= CapSense_1_SW_REFGEN_SEL_SW_SGR_MASK;
 561:Generated_Source\PSoC4/CapSense_1_SensingCSD_LL.c ****             CY_SET_REG32(CapSense_1_SW_REFGEN_SEL_PTR, newRegValue);
 562:Generated_Source\PSoC4/CapSense_1_SensingCSD_LL.c ****         #endif /* (CapSense_1_ENABLE == CapSense_1_CSD_IDAC_COMP_EN) && (CapSense_1_ENABLE == CapSe
 563:Generated_Source\PSoC4/CapSense_1_SensingCSD_LL.c **** 
 564:Generated_Source\PSoC4/CapSense_1_SensingCSD_LL.c ****     #if (CapSense_1_2000_MV > CapSense_1_CYDEV_VDDA_MV)
 565:Generated_Source\PSoC4/CapSense_1_SensingCSD_LL.c **** 
 566:Generated_Source\PSoC4/CapSense_1_SensingCSD_LL.c ****         /* Connect VREFLOW (from AMBUF and RefGen is in bypass mode) to CSDCOMP when Vdda < 2 V */
 567:Generated_Source\PSoC4/CapSense_1_SensingCSD_LL.c ****         CY_SET_REG32(CapSense_1_SW_CMP_N_SEL_PTR, CapSense_1_SW_CMP_N_SEL_SW_SCRH_STATIC_CLOSE);
 568:Generated_Source\PSoC4/CapSense_1_SensingCSD_LL.c **** 
 569:Generated_Source\PSoC4/CapSense_1_SensingCSD_LL.c ****         /* Configure REFGEN. Set reference voltage when Vdda < 2 V */
 570:Generated_Source\PSoC4/CapSense_1_SensingCSD_LL.c ****         CY_SET_REG32(CapSense_1_REFGEN_PTR, CapSense_1_REFGEN_LV);
 571:Generated_Source\PSoC4/CapSense_1_SensingCSD_LL.c **** 
 572:Generated_Source\PSoC4/CapSense_1_SensingCSD_LL.c ****         /* Connect Vrefhi to AMUBUF positive input when Vdaa < 2V
 573:Generated_Source\PSoC4/CapSense_1_SensingCSD_LL.c ****          *  Connect AMUBUF to SCDCMP negative input when Vdaa < 2V
 574:Generated_Source\PSoC4/CapSense_1_SensingCSD_LL.c ****          */
 575:Generated_Source\PSoC4/CapSense_1_SensingCSD_LL.c ****         #if (CapSense_1_ENABLE == CapSense_1_CSD_SHIELD_EN)
 576:Generated_Source\PSoC4/CapSense_1_SensingCSD_LL.c ****             #if (CapSense_1_IDAC_SINKING == CapSense_1_CSD_IDAC_CONFIG)
 577:Generated_Source\PSoC4/CapSense_1_SensingCSD_LL.c ****                 CY_SET_REG32(CapSense_1_SW_AMUXBUF_SEL_PTR, CapSense_1_SW_AMUXBUF_SEL_SW_IRH_STATIC
 578:Generated_Source\PSoC4/CapSense_1_SensingCSD_LL.c ****                                                                       CapSense_1_SW_AMUXBUF_SEL_SW_
 579:Generated_Source\PSoC4/CapSense_1_SensingCSD_LL.c ****             #else
 580:Generated_Source\PSoC4/CapSense_1_SensingCSD_LL.c ****                 CY_SET_REG32(CapSense_1_SW_AMUXBUF_SEL_PTR, CapSense_1_SW_AMUXBUF_SEL_SW_DEFAULT);
 581:Generated_Source\PSoC4/CapSense_1_SensingCSD_LL.c ****             #endif /* (CapSense_1_ENABLE == CapSense_1_CSD_SHIELD_EN) */
 582:Generated_Source\PSoC4/CapSense_1_SensingCSD_LL.c ****             CY_SET_REG32(CapSense_1_AMBUF_PTR, CapSense_1_AMBUF_PWR_MODE_NORM);
ARM GAS  C:\Users\MICHAE~1.MAC\AppData\Local\Temp\ccJeyeG1.s 			page 14


 583:Generated_Source\PSoC4/CapSense_1_SensingCSD_LL.c ****         #else
 584:Generated_Source\PSoC4/CapSense_1_SensingCSD_LL.c ****             CY_SET_REG32(CapSense_1_AMBUF_PTR, CapSense_1_AMBUF_PWR_MODE_OFF);
 585:Generated_Source\PSoC4/CapSense_1_SensingCSD_LL.c ****         #endif /* (CapSense_1_ENABLE == CapSense_1_CSD_SHIELD_EN) */
 586:Generated_Source\PSoC4/CapSense_1_SensingCSD_LL.c **** 
 587:Generated_Source\PSoC4/CapSense_1_SensingCSD_LL.c ****         /* Connect VREFHI to HSCOMP */
 588:Generated_Source\PSoC4/CapSense_1_SensingCSD_LL.c ****         CY_SET_REG32(CapSense_1_SW_HS_N_SEL_PTR, CapSense_1_SW_HS_N_SEL_SW_HCRH_STATIC_CLOSE);
 589:Generated_Source\PSoC4/CapSense_1_SensingCSD_LL.c ****     #else
 590:Generated_Source\PSoC4/CapSense_1_SensingCSD_LL.c **** 
 591:Generated_Source\PSoC4/CapSense_1_SensingCSD_LL.c ****         /* Connect VREFHI (from RefGen) to CSDCOMP when Vdda >= 2 V */
 592:Generated_Source\PSoC4/CapSense_1_SensingCSD_LL.c ****         CY_SET_REG32(CapSense_1_SW_CMP_N_SEL_PTR, CapSense_1_SW_CMP_N_SEL_SW_SCRH_STATIC_CLOSE);
 593:Generated_Source\PSoC4/CapSense_1_SensingCSD_LL.c **** 
 594:Generated_Source\PSoC4/CapSense_1_SensingCSD_LL.c ****         /* Configure REFGEN. Set reference voltage when Vdda >= 2 V */
 595:Generated_Source\PSoC4/CapSense_1_SensingCSD_LL.c ****         CY_SET_REG32(CapSense_1_REFGEN_PTR, CapSense_1_REFGEN_HV);
 596:Generated_Source\PSoC4/CapSense_1_SensingCSD_LL.c **** 
 597:Generated_Source\PSoC4/CapSense_1_SensingCSD_LL.c ****         #if (CapSense_1_ENABLE == CapSense_1_CSD_SHIELD_EN)
 598:Generated_Source\PSoC4/CapSense_1_SensingCSD_LL.c ****             /* Turn on CSD_AMBUF high power level when Vdaa >= 2V */
 599:Generated_Source\PSoC4/CapSense_1_SensingCSD_LL.c ****             CY_SET_REG32(CapSense_1_AMBUF_PTR, CapSense_1_AMBUF_PWR_MODE_HI);
 600:Generated_Source\PSoC4/CapSense_1_SensingCSD_LL.c **** 
 601:Generated_Source\PSoC4/CapSense_1_SensingCSD_LL.c ****             #if (CapSense_1_IDAC_SINKING != CapSense_1_CSD_IDAC_CONFIG)
 602:Generated_Source\PSoC4/CapSense_1_SensingCSD_LL.c ****                 CY_SET_REG32(CapSense_1_SW_AMUXBUF_SEL_PTR, CapSense_1_SW_AMUXBUF_SEL_SW_IRH_STATIC
 603:Generated_Source\PSoC4/CapSense_1_SensingCSD_LL.c ****                                                                       CapSense_1_SW_AMUXBUF_SEL_SW_
 604:Generated_Source\PSoC4/CapSense_1_SensingCSD_LL.c ****             #else
 605:Generated_Source\PSoC4/CapSense_1_SensingCSD_LL.c ****                 CY_SET_REG32(CapSense_1_SW_AMUXBUF_SEL_PTR, CapSense_1_SW_AMUXBUF_SEL_SW_DEFAULT);
 606:Generated_Source\PSoC4/CapSense_1_SensingCSD_LL.c ****             #endif /* (CapSense_1_IDAC_SINKING == CapSense_1_CSD_IDAC_CONFIG) */
 607:Generated_Source\PSoC4/CapSense_1_SensingCSD_LL.c ****         #else
 608:Generated_Source\PSoC4/CapSense_1_SensingCSD_LL.c ****             CY_SET_REG32(CapSense_1_SW_AMUXBUF_SEL_PTR, CapSense_1_SW_AMUXBUF_SEL_SW_DEFAULT);
 609:Generated_Source\PSoC4/CapSense_1_SensingCSD_LL.c ****         #endif /* (CapSense_1_ENABLE == CapSense_1_CSD_SHIELD_EN) */
 610:Generated_Source\PSoC4/CapSense_1_SensingCSD_LL.c **** 
 611:Generated_Source\PSoC4/CapSense_1_SensingCSD_LL.c ****         /* Connect VREFHI to HSCOMP */
 612:Generated_Source\PSoC4/CapSense_1_SensingCSD_LL.c ****         CY_SET_REG32(CapSense_1_SW_HS_N_SEL_PTR, CapSense_1_SW_HS_N_SEL_SW_HCRH_STATIC_CLOSE);
 613:Generated_Source\PSoC4/CapSense_1_SensingCSD_LL.c ****     #endif /* (CapSense_1_2000_MV > CapSense_1_CYDEV_VDDA_MV) */
 614:Generated_Source\PSoC4/CapSense_1_SensingCSD_LL.c **** 
 615:Generated_Source\PSoC4/CapSense_1_SensingCSD_LL.c ****     /* Configure IDACs mode */
 616:Generated_Source\PSoC4/CapSense_1_SensingCSD_LL.c ****     CapSense_1_SsCSDConfigIDACs();
 617:Generated_Source\PSoC4/CapSense_1_SensingCSD_LL.c **** 
 618:Generated_Source\PSoC4/CapSense_1_SensingCSD_LL.c ****         /* Configure ModClk */
 619:Generated_Source\PSoC4/CapSense_1_SensingCSD_LL.c ****         CapSense_1_SsSetModClkClockDivider((uint32)CapSense_1_dsRam.modCsdClk);
 620:Generated_Source\PSoC4/CapSense_1_SensingCSD_LL.c **** 
 621:Generated_Source\PSoC4/CapSense_1_SensingCSD_LL.c ****     /* Set other CSD configurations */
 622:Generated_Source\PSoC4/CapSense_1_SensingCSD_LL.c ****     #if (CapSense_1_ENABLE == CapSense_1_CSD_SHIELD_EN)
 623:Generated_Source\PSoC4/CapSense_1_SensingCSD_LL.c ****         CapSense_1_SsSetShieldDelay(CapSense_1_CSD_SHIELD_DELAY);
 624:Generated_Source\PSoC4/CapSense_1_SensingCSD_LL.c ****     #endif /* (CapSense_1_ENABLE == CapSense_1_CSD_SHIELD_EN) */
 625:Generated_Source\PSoC4/CapSense_1_SensingCSD_LL.c **** 
 626:Generated_Source\PSoC4/CapSense_1_SensingCSD_LL.c ****     /* Configure HW block filter delay */
 627:Generated_Source\PSoC4/CapSense_1_SensingCSD_LL.c ****     CapSense_1_SsCSDSetFilterDelay();
 628:Generated_Source\PSoC4/CapSense_1_SensingCSD_LL.c **** 
 629:Generated_Source\PSoC4/CapSense_1_SensingCSD_LL.c ****     #if (CapSense_1_DISABLE == CapSense_1_BLOCK_OFF_AFTER_SCAN_EN)
 630:Generated_Source\PSoC4/CapSense_1_SensingCSD_LL.c ****         /* Enable power to sub-blocks */
 631:Generated_Source\PSoC4/CapSense_1_SensingCSD_LL.c ****         CY_SET_REG32(CapSense_1_CONFIG_PTR, CapSense_1_configCsd |
 632:Generated_Source\PSoC4/CapSense_1_SensingCSD_LL.c ****                                                   CapSense_1_CONFIG_SENSE_EN_MASK |
 633:Generated_Source\PSoC4/CapSense_1_SensingCSD_LL.c ****                                                   CapSense_1_CONFIG_ENABLE_MASK);
 634:Generated_Source\PSoC4/CapSense_1_SensingCSD_LL.c ****     #endif /* (CapSense_1_ENABLE == CapSense_1_BLOCK_OFF_AFTER_SCAN_EN) */
 635:Generated_Source\PSoC4/CapSense_1_SensingCSD_LL.c **** 
 636:Generated_Source\PSoC4/CapSense_1_SensingCSD_LL.c ****         /* Set Csd Auto Zero time (set AZ_TIME bitmask) */
 637:Generated_Source\PSoC4/CapSense_1_SensingCSD_LL.c ****         CY_SET_REG32(CapSense_1_SEQ_TIME_PTR, CapSense_1_CSD_AUTO_ZERO_TIME);
 638:Generated_Source\PSoC4/CapSense_1_SensingCSD_LL.c **** 
 639:Generated_Source\PSoC4/CapSense_1_SensingCSD_LL.c ****         /* Select CMOD and Csh_tank/shield initialization switch resistance */
ARM GAS  C:\Users\MICHAE~1.MAC\AppData\Local\Temp\ccJeyeG1.s 			page 15


 640:Generated_Source\PSoC4/CapSense_1_SensingCSD_LL.c ****         CY_SET_REG32(CapSense_1_SW_RES_PTR, 0x00000000);
 641:Generated_Source\PSoC4/CapSense_1_SensingCSD_LL.c **** 
 642:Generated_Source\PSoC4/CapSense_1_SensingCSD_LL.c ****         /* Set the number of dummy fine initialization cycles */
 643:Generated_Source\PSoC4/CapSense_1_SensingCSD_LL.c ****         CY_SET_REG32(CapSense_1_SEQ_INIT_CNT_PTR, CapSense_1_CSD_FINE_INIT_TIME);
 644:Generated_Source\PSoC4/CapSense_1_SensingCSD_LL.c ****     #endif /* (CapSense_1_ENABLE == CapSense_1_CSDV2) */
 645:Generated_Source\PSoC4/CapSense_1_SensingCSD_LL.c **** 
 646:Generated_Source\PSoC4/CapSense_1_SensingCSD_LL.c ****     #if (CapSense_1_DISABLE == CapSense_1_CSDV2)
 647:Generated_Source\PSoC4/CapSense_1_SensingCSD_LL.c **** 
 648:Generated_Source\PSoC4/CapSense_1_SensingCSD_LL.c ****         /* Configure IDACs mode */
 649:Generated_Source\PSoC4/CapSense_1_SensingCSD_LL.c ****         CapSense_1_SsCSDConfigIDACs();
 650:Generated_Source\PSoC4/CapSense_1_SensingCSD_LL.c **** 
 651:Generated_Source\PSoC4/CapSense_1_SensingCSD_LL.c ****         /* Connect Cmod to AMUXBUS-A using HSIOM registers */
 652:Generated_Source\PSoC4/CapSense_1_SensingCSD_LL.c ****         newRegValue = CY_GET_REG32(CapSense_1_CMOD_HSIOM_PTR);
 653:Generated_Source\PSoC4/CapSense_1_SensingCSD_LL.c ****         newRegValue &= (uint32)(~(uint32)CapSense_1_CMOD_HSIOM_MASK);
 654:Generated_Source\PSoC4/CapSense_1_SensingCSD_LL.c ****         newRegValue |= (CapSense_1_HSIOM_SEL_AMUXA << CapSense_1_CMOD_HSIOM_SHIFT);
 655:Generated_Source\PSoC4/CapSense_1_SensingCSD_LL.c ****         CY_SET_REG32(CapSense_1_CMOD_HSIOM_PTR, newRegValue);
 656:Generated_Source\PSoC4/CapSense_1_SensingCSD_LL.c **** 
 657:Generated_Source\PSoC4/CapSense_1_SensingCSD_LL.c ****         #if (CapSense_1_ENABLE == CapSense_1_CSD_SHIELD_EN)
 658:Generated_Source\PSoC4/CapSense_1_SensingCSD_LL.c ****             CapSense_1_SsSetShieldDelay(CapSense_1_CSD_SHIELD_DELAY);
 659:Generated_Source\PSoC4/CapSense_1_SensingCSD_LL.c ****         #endif /* (CapSense_1_ENABLE == CapSense_1_CSD_SHIELD_EN) */
 660:Generated_Source\PSoC4/CapSense_1_SensingCSD_LL.c **** 
 661:Generated_Source\PSoC4/CapSense_1_SensingCSD_LL.c ****         /* Enable CSD block. Connect Vref Buffer to AMUX bus to make sure that Cmod is charged befo
 662:Generated_Source\PSoC4/CapSense_1_SensingCSD_LL.c ****         #if (CapSense_1_ENABLE == CapSense_1_BLOCK_OFF_AFTER_SCAN_EN)
 663:Generated_Source\PSoC4/CapSense_1_SensingCSD_LL.c ****             CY_SET_REG32(CapSense_1_CONFIG_PTR, CapSense_1_configCsd);
 664:Generated_Source\PSoC4/CapSense_1_SensingCSD_LL.c ****         #else
 665:Generated_Source\PSoC4/CapSense_1_SensingCSD_LL.c ****             CY_SET_REG32(CapSense_1_CONFIG_PTR, CapSense_1_configCsd | CapSense_1_CTANK_PRECHARGE_C
 666:Generated_Source\PSoC4/CapSense_1_SensingCSD_LL.c ****         #endif /* (CapSense_1_ENABLE == CapSense_1_BLOCK_OFF_AFTER_SCAN_EN) */
 667:Generated_Source\PSoC4/CapSense_1_SensingCSD_LL.c ****     #endif /* (CapSense_1_DISABLE == CapSense_1_CSDV2) */
 668:Generated_Source\PSoC4/CapSense_1_SensingCSD_LL.c **** 
 669:Generated_Source\PSoC4/CapSense_1_SensingCSD_LL.c ****     #if ((CapSense_1_ENABLE == CapSense_1_CSD_COMMON_SNS_CLK_EN) &&\
 670:Generated_Source\PSoC4/CapSense_1_SensingCSD_LL.c ****          (CapSense_1_CLK_SOURCE_DIRECT == CapSense_1_CSD_SNS_CLK_SOURCE))
 671:Generated_Source\PSoC4/CapSense_1_SensingCSD_LL.c ****          /* Set clock dividers and clock source mode */
 672:Generated_Source\PSoC4/CapSense_1_SensingCSD_LL.c ****         CapSense_1_SsCSDConfigClock();
 673:Generated_Source\PSoC4/CapSense_1_SensingCSD_LL.c ****     #endif /* ((CapSense_1_ENABLE == CapSense_1_CSD_COMMON_SNS_CLK_EN) &&\
 674:Generated_Source\PSoC4/CapSense_1_SensingCSD_LL.c ****                (CapSense_1_CLK_SOURCE_DIRECT == CapSense_1_CSD_SNS_CLK_SOURCE)) */
 675:Generated_Source\PSoC4/CapSense_1_SensingCSD_LL.c **** }
 676:Generated_Source\PSoC4/CapSense_1_SensingCSD_LL.c **** 
 677:Generated_Source\PSoC4/CapSense_1_SensingCSD_LL.c **** 
 678:Generated_Source\PSoC4/CapSense_1_SensingCSD_LL.c **** /*******************************************************************************
 679:Generated_Source\PSoC4/CapSense_1_SensingCSD_LL.c **** * Function Name: CapSense_1_SsCSDElectrodeCheck
 680:Generated_Source\PSoC4/CapSense_1_SensingCSD_LL.c **** ****************************************************************************//**
 681:Generated_Source\PSoC4/CapSense_1_SensingCSD_LL.c **** *
 682:Generated_Source\PSoC4/CapSense_1_SensingCSD_LL.c **** * \brief
 683:Generated_Source\PSoC4/CapSense_1_SensingCSD_LL.c **** *   Checks if electrodes were previously connected using
 684:Generated_Source\PSoC4/CapSense_1_SensingCSD_LL.c ****  * CapSense_1_CSDSetupWidgetExt() API and if yes disconnects them.
 685:Generated_Source\PSoC4/CapSense_1_SensingCSD_LL.c **** *
 686:Generated_Source\PSoC4/CapSense_1_SensingCSD_LL.c **** * \details
 687:Generated_Source\PSoC4/CapSense_1_SensingCSD_LL.c **** *   This function checks if CapSense_1_eleCsdDisconnectFlag is set.
 688:Generated_Source\PSoC4/CapSense_1_SensingCSD_LL.c **** *   If it set, the function disconnects the previously connected electrode.
 689:Generated_Source\PSoC4/CapSense_1_SensingCSD_LL.c **** *   The previous IO is contained in CapSense_1_curSnsIOPtr and
 690:Generated_Source\PSoC4/CapSense_1_SensingCSD_LL.c **** *   CapSense_1_curFlashSnsPtr contains the previous data for Ganged
 691:Generated_Source\PSoC4/CapSense_1_SensingCSD_LL.c **** *   sensors.
 692:Generated_Source\PSoC4/CapSense_1_SensingCSD_LL.c **** *
 693:Generated_Source\PSoC4/CapSense_1_SensingCSD_LL.c **** *******************************************************************************/
 694:Generated_Source\PSoC4/CapSense_1_SensingCSD_LL.c **** void CapSense_1_SsCSDElectrodeCheck(void)
 695:Generated_Source\PSoC4/CapSense_1_SensingCSD_LL.c **** {
 696:Generated_Source\PSoC4/CapSense_1_SensingCSD_LL.c ****     #if (CapSense_1_ENABLE == CapSense_1_CSD_GANGED_SNS_EN)
ARM GAS  C:\Users\MICHAE~1.MAC\AppData\Local\Temp\ccJeyeG1.s 			page 16


 697:Generated_Source\PSoC4/CapSense_1_SensingCSD_LL.c ****         uint32 tempVal;
 698:Generated_Source\PSoC4/CapSense_1_SensingCSD_LL.c ****     #endif /* (CapSense_1_ENABLE == CapSense_1_CSD_GANGED_SNS_EN) */
 699:Generated_Source\PSoC4/CapSense_1_SensingCSD_LL.c **** 
 700:Generated_Source\PSoC4/CapSense_1_SensingCSD_LL.c ****     if (CapSense_1_ENABLE == CapSense_1_eleCsdDisconnectFlag)
 701:Generated_Source\PSoC4/CapSense_1_SensingCSD_LL.c ****     {
 702:Generated_Source\PSoC4/CapSense_1_SensingCSD_LL.c ****         /* Disconnect if electrodes were previous connected by CSDSetupWidgetExt() API */
 703:Generated_Source\PSoC4/CapSense_1_SensingCSD_LL.c ****         #if (CapSense_1_ENABLE == CapSense_1_CSD_GANGED_SNS_EN)
 704:Generated_Source\PSoC4/CapSense_1_SensingCSD_LL.c ****             /* Check ganged sns flag  */
 705:Generated_Source\PSoC4/CapSense_1_SensingCSD_LL.c ****             if (CapSense_1_GANGED_SNS_MASK == (CapSense_1_curFlashWdgtPtr->staticConfig & CapSense_
 706:Generated_Source\PSoC4/CapSense_1_SensingCSD_LL.c ****             {
 707:Generated_Source\PSoC4/CapSense_1_SensingCSD_LL.c ****                 /* Get number of ganged pins */
 708:Generated_Source\PSoC4/CapSense_1_SensingCSD_LL.c ****                 tempVal = CapSense_1_curFlashSnsPtr->numPins;
 709:Generated_Source\PSoC4/CapSense_1_SensingCSD_LL.c **** 
 710:Generated_Source\PSoC4/CapSense_1_SensingCSD_LL.c ****                 /* Get IO pointer  */
 711:Generated_Source\PSoC4/CapSense_1_SensingCSD_LL.c ****                 CapSense_1_curSnsIOPtr = &CapSense_1_ioList[CapSense_1_curFlashSnsPtr->firstPinId];
 712:Generated_Source\PSoC4/CapSense_1_SensingCSD_LL.c **** 
 713:Generated_Source\PSoC4/CapSense_1_SensingCSD_LL.c ****                 /* Disconnect all ganged sensors */
 714:Generated_Source\PSoC4/CapSense_1_SensingCSD_LL.c ****                 do
 715:Generated_Source\PSoC4/CapSense_1_SensingCSD_LL.c ****                 {
 716:Generated_Source\PSoC4/CapSense_1_SensingCSD_LL.c ****                     CapSense_1_CSDDisconnectSns(CapSense_1_curSnsIOPtr);
 717:Generated_Source\PSoC4/CapSense_1_SensingCSD_LL.c ****                     CapSense_1_curSnsIOPtr++;
 718:Generated_Source\PSoC4/CapSense_1_SensingCSD_LL.c ****                     tempVal--;
 719:Generated_Source\PSoC4/CapSense_1_SensingCSD_LL.c ****                 } while (0u != tempVal);
 720:Generated_Source\PSoC4/CapSense_1_SensingCSD_LL.c ****             }
 721:Generated_Source\PSoC4/CapSense_1_SensingCSD_LL.c ****             else
 722:Generated_Source\PSoC4/CapSense_1_SensingCSD_LL.c ****             {
 723:Generated_Source\PSoC4/CapSense_1_SensingCSD_LL.c ****                 /* Disconnect ganged sensor */
 724:Generated_Source\PSoC4/CapSense_1_SensingCSD_LL.c ****                 CapSense_1_CSDDisconnectSns(CapSense_1_curSnsIOPtr);
 725:Generated_Source\PSoC4/CapSense_1_SensingCSD_LL.c ****             }
 726:Generated_Source\PSoC4/CapSense_1_SensingCSD_LL.c ****         #else
 727:Generated_Source\PSoC4/CapSense_1_SensingCSD_LL.c ****             /* Disable sensor */
 728:Generated_Source\PSoC4/CapSense_1_SensingCSD_LL.c ****             CapSense_1_CSDDisconnectSns(CapSense_1_curSnsIOPtr);
 729:Generated_Source\PSoC4/CapSense_1_SensingCSD_LL.c ****         #endif /* (CapSense_1_ENABLE == CapSense_1_CSD_GANGED_SNS_EN)  */
 730:Generated_Source\PSoC4/CapSense_1_SensingCSD_LL.c **** 
 731:Generated_Source\PSoC4/CapSense_1_SensingCSD_LL.c ****         CapSense_1_eleCsdDisconnectFlag = 0u;
 732:Generated_Source\PSoC4/CapSense_1_SensingCSD_LL.c ****     }
 733:Generated_Source\PSoC4/CapSense_1_SensingCSD_LL.c **** }
 734:Generated_Source\PSoC4/CapSense_1_SensingCSD_LL.c **** 
 735:Generated_Source\PSoC4/CapSense_1_SensingCSD_LL.c **** 
 736:Generated_Source\PSoC4/CapSense_1_SensingCSD_LL.c **** /*******************************************************************************
 737:Generated_Source\PSoC4/CapSense_1_SensingCSD_LL.c **** * Function Name: CapSense_1_SsCSDSetUpIdacs
 738:Generated_Source\PSoC4/CapSense_1_SensingCSD_LL.c **** ****************************************************************************//**
 739:Generated_Source\PSoC4/CapSense_1_SensingCSD_LL.c **** *
 740:Generated_Source\PSoC4/CapSense_1_SensingCSD_LL.c **** * \brief
 741:Generated_Source\PSoC4/CapSense_1_SensingCSD_LL.c **** *  This internal function changes the IDACs values.
 742:Generated_Source\PSoC4/CapSense_1_SensingCSD_LL.c **** *
 743:Generated_Source\PSoC4/CapSense_1_SensingCSD_LL.c **** * \details
 744:Generated_Source\PSoC4/CapSense_1_SensingCSD_LL.c **** *  If Compensation IDAC is enabled, it updates two IDACs.
 745:Generated_Source\PSoC4/CapSense_1_SensingCSD_LL.c **** *  The Modulator IDAC is common for all the sensors of the widget.
 746:Generated_Source\PSoC4/CapSense_1_SensingCSD_LL.c **** *  The Compensation IDAC is updated for the sensor of the widget which
 747:Generated_Source\PSoC4/CapSense_1_SensingCSD_LL.c **** *  is available in the RAM_SNS_STRUCT structure.
 748:Generated_Source\PSoC4/CapSense_1_SensingCSD_LL.c **** *  If the Compensation IDAC is disabled, the function updates the Modulator IDAC
 749:Generated_Source\PSoC4/CapSense_1_SensingCSD_LL.c **** *  value only in the RAM_WD_BASE_STRUCT structure.
 750:Generated_Source\PSoC4/CapSense_1_SensingCSD_LL.c **** *
 751:Generated_Source\PSoC4/CapSense_1_SensingCSD_LL.c **** * \param
 752:Generated_Source\PSoC4/CapSense_1_SensingCSD_LL.c **** *  ptrWdgt The pointer to the RAM_WD_BASE_STRUCT structure.
 753:Generated_Source\PSoC4/CapSense_1_SensingCSD_LL.c **** *
ARM GAS  C:\Users\MICHAE~1.MAC\AppData\Local\Temp\ccJeyeG1.s 			page 17


 754:Generated_Source\PSoC4/CapSense_1_SensingCSD_LL.c **** *******************************************************************************/
 755:Generated_Source\PSoC4/CapSense_1_SensingCSD_LL.c **** void CapSense_1_SsCSDSetUpIdacs(CapSense_1_RAM_WD_BASE_STRUCT const *ptrWdgt)
 756:Generated_Source\PSoC4/CapSense_1_SensingCSD_LL.c **** {
 757:Generated_Source\PSoC4/CapSense_1_SensingCSD_LL.c **** 
 758:Generated_Source\PSoC4/CapSense_1_SensingCSD_LL.c ****     uint8 interruptState;
 759:Generated_Source\PSoC4/CapSense_1_SensingCSD_LL.c **** 
 760:Generated_Source\PSoC4/CapSense_1_SensingCSD_LL.c **** #if (CapSense_1_ENABLE == CapSense_1_CSDV2)
 761:Generated_Source\PSoC4/CapSense_1_SensingCSD_LL.c ****     uint32 idacARegValue;
 762:Generated_Source\PSoC4/CapSense_1_SensingCSD_LL.c ****     #if ((CapSense_1_ENABLE == CapSense_1_CSD_IDAC_COMP_EN) && \
 763:Generated_Source\PSoC4/CapSense_1_SensingCSD_LL.c ****          (CapSense_1_ENABLE == CapSense_1_CSD_DEDICATED_IDAC_COMP_EN))
 764:Generated_Source\PSoC4/CapSense_1_SensingCSD_LL.c ****         uint32 idacBRegValue;
 765:Generated_Source\PSoC4/CapSense_1_SensingCSD_LL.c ****     #endif /* ((CapSense_1_ENABLE == CapSense_1_CSD_IDAC_COMP_EN) && \
 766:Generated_Source\PSoC4/CapSense_1_SensingCSD_LL.c ****                (CapSense_1_ENABLE == CapSense_1_CSD_DEDICATED_IDAC_COMP_EN)) */
 767:Generated_Source\PSoC4/CapSense_1_SensingCSD_LL.c **** 
 768:Generated_Source\PSoC4/CapSense_1_SensingCSD_LL.c ****     interruptState = CyEnterCriticalSection();
 769:Generated_Source\PSoC4/CapSense_1_SensingCSD_LL.c **** 
 770:Generated_Source\PSoC4/CapSense_1_SensingCSD_LL.c ****     /* Get IDACA Value */
 771:Generated_Source\PSoC4/CapSense_1_SensingCSD_LL.c ****     idacARegValue = CY_GET_REG32(CapSense_1_IDAC_MOD_PTR);
 772:Generated_Source\PSoC4/CapSense_1_SensingCSD_LL.c **** 
 773:Generated_Source\PSoC4/CapSense_1_SensingCSD_LL.c ****     /* Set IDACA Value mask */
 774:Generated_Source\PSoC4/CapSense_1_SensingCSD_LL.c ****     idacARegValue &= ~(CapSense_1_IDAC_MOD_VAL_MASK);
 775:Generated_Source\PSoC4/CapSense_1_SensingCSD_LL.c **** 
 776:Generated_Source\PSoC4/CapSense_1_SensingCSD_LL.c ****     /* Set IDACA value */
 777:Generated_Source\PSoC4/CapSense_1_SensingCSD_LL.c ****     #if (CapSense_1_CSD_MATRIX_WIDGET_EN || CapSense_1_CSD_TOUCHPAD_WIDGET_EN)
 778:Generated_Source\PSoC4/CapSense_1_SensingCSD_LL.c ****         if (CapSense_1_dsFlash.wdgtArray[(CapSense_1_widgetIndex)].numCols <= CapSense_1_sensorInde
 779:Generated_Source\PSoC4/CapSense_1_SensingCSD_LL.c ****         {
 780:Generated_Source\PSoC4/CapSense_1_SensingCSD_LL.c ****             idacARegValue |= (uint32)ptrWdgt->rowIdacMod[CapSense_1_scanFreqIndex];
 781:Generated_Source\PSoC4/CapSense_1_SensingCSD_LL.c ****         }
 782:Generated_Source\PSoC4/CapSense_1_SensingCSD_LL.c ****         else
 783:Generated_Source\PSoC4/CapSense_1_SensingCSD_LL.c ****         {
 784:Generated_Source\PSoC4/CapSense_1_SensingCSD_LL.c ****             idacARegValue |= (uint32)ptrWdgt->idacMod[CapSense_1_scanFreqIndex];
 785:Generated_Source\PSoC4/CapSense_1_SensingCSD_LL.c ****         }
 786:Generated_Source\PSoC4/CapSense_1_SensingCSD_LL.c ****     #else
 787:Generated_Source\PSoC4/CapSense_1_SensingCSD_LL.c ****         idacARegValue |= (uint32)ptrWdgt->idacMod[CapSense_1_scanFreqIndex];
 788:Generated_Source\PSoC4/CapSense_1_SensingCSD_LL.c ****     #endif /* (CapSense_1_CSD_MATRIX_WIDGET_EN | CapSense_1_CSD_TOUCHPAD_WIDGET_EN) */
 789:Generated_Source\PSoC4/CapSense_1_SensingCSD_LL.c **** 
 790:Generated_Source\PSoC4/CapSense_1_SensingCSD_LL.c ****     /* Update IDACA register with new value */
 791:Generated_Source\PSoC4/CapSense_1_SensingCSD_LL.c ****     CY_SET_REG32(CapSense_1_IDAC_MOD_PTR, idacARegValue);
 792:Generated_Source\PSoC4/CapSense_1_SensingCSD_LL.c ****     CyExitCriticalSection(interruptState);
 793:Generated_Source\PSoC4/CapSense_1_SensingCSD_LL.c **** 
 794:Generated_Source\PSoC4/CapSense_1_SensingCSD_LL.c ****     #if ((CapSense_1_ENABLE == CapSense_1_CSD_IDAC_COMP_EN) && \
 795:Generated_Source\PSoC4/CapSense_1_SensingCSD_LL.c ****          (CapSense_1_ENABLE == CapSense_1_CSD_DEDICATED_IDAC_COMP_EN))
 796:Generated_Source\PSoC4/CapSense_1_SensingCSD_LL.c ****         interruptState = CyEnterCriticalSection();
 797:Generated_Source\PSoC4/CapSense_1_SensingCSD_LL.c ****         /* Get IDACB Value */
 798:Generated_Source\PSoC4/CapSense_1_SensingCSD_LL.c ****         idacBRegValue = CY_GET_REG32(CapSense_1_IDAC_COMP_PTR);
 799:Generated_Source\PSoC4/CapSense_1_SensingCSD_LL.c **** 
 800:Generated_Source\PSoC4/CapSense_1_SensingCSD_LL.c ****         /* Set IDACB Value mask */
 801:Generated_Source\PSoC4/CapSense_1_SensingCSD_LL.c ****         idacBRegValue &= ~(CapSense_1_IDAC_COMP_VAL_MASK);
 802:Generated_Source\PSoC4/CapSense_1_SensingCSD_LL.c **** 
 803:Generated_Source\PSoC4/CapSense_1_SensingCSD_LL.c ****         /* Set IDACB value */
 804:Generated_Source\PSoC4/CapSense_1_SensingCSD_LL.c ****         idacBRegValue |= (uint32)CapSense_1_curRamSnsPtr->idacComp[CapSense_1_scanFreqIndex];
 805:Generated_Source\PSoC4/CapSense_1_SensingCSD_LL.c **** 
 806:Generated_Source\PSoC4/CapSense_1_SensingCSD_LL.c ****         /* Update IDACA register with new value */
 807:Generated_Source\PSoC4/CapSense_1_SensingCSD_LL.c ****         CY_SET_REG32(CapSense_1_IDAC_COMP_PTR, idacBRegValue);
 808:Generated_Source\PSoC4/CapSense_1_SensingCSD_LL.c ****         CyExitCriticalSection(interruptState);
 809:Generated_Source\PSoC4/CapSense_1_SensingCSD_LL.c ****     #endif /* ((CapSense_1_ENABLE == CapSense_1_CSD_IDAC_COMP_EN) && \
 810:Generated_Source\PSoC4/CapSense_1_SensingCSD_LL.c ****                (CapSense_1_ENABLE == CapSense_1_CSD_DEDICATED_IDAC_COMP_EN)) */
ARM GAS  C:\Users\MICHAE~1.MAC\AppData\Local\Temp\ccJeyeG1.s 			page 18


 811:Generated_Source\PSoC4/CapSense_1_SensingCSD_LL.c **** 
 812:Generated_Source\PSoC4/CapSense_1_SensingCSD_LL.c **** #else
 813:Generated_Source\PSoC4/CapSense_1_SensingCSD_LL.c **** 
 814:Generated_Source\PSoC4/CapSense_1_SensingCSD_LL.c ****     uint32 newRegValue;
 815:Generated_Source\PSoC4/CapSense_1_SensingCSD_LL.c ****     uint8 const *ptrIdacMod = ptrWdgt->idacMod;
 816:Generated_Source\PSoC4/CapSense_1_SensingCSD_LL.c **** 
 817:Generated_Source\PSoC4/CapSense_1_SensingCSD_LL.c ****     #if (CapSense_1_CSD_MATRIX_WIDGET_EN  | CapSense_1_CSD_TOUCHPAD_WIDGET_EN)
 818:Generated_Source\PSoC4/CapSense_1_SensingCSD_LL.c ****         if (CapSense_1_dsFlash.wdgtArray[(CapSense_1_widgetIndex)].numCols <= CapSense_1_sensorInde
 819:Generated_Source\PSoC4/CapSense_1_SensingCSD_LL.c ****         {
 820:Generated_Source\PSoC4/CapSense_1_SensingCSD_LL.c ****             ptrIdacMod = &ptrWdgt->rowIdacMod[0u];
 821:Generated_Source\PSoC4/CapSense_1_SensingCSD_LL.c ****         }
 822:Generated_Source\PSoC4/CapSense_1_SensingCSD_LL.c ****     #endif /* (CapSense_1_CSD_MATRIX_WIDGET_EN  | CapSense_1_CSD_TOUCHPAD_WIDGET_EN) */
 823:Generated_Source\PSoC4/CapSense_1_SensingCSD_LL.c **** 
 824:Generated_Source\PSoC4/CapSense_1_SensingCSD_LL.c ****     interruptState = CyEnterCriticalSection();
 825:Generated_Source\PSoC4/CapSense_1_SensingCSD_LL.c **** 
 826:Generated_Source\PSoC4/CapSense_1_SensingCSD_LL.c ****     /* Get Idac Value */
 827:Generated_Source\PSoC4/CapSense_1_SensingCSD_LL.c ****     newRegValue = CY_GET_REG32(CapSense_1_IDAC_PTR);
 828:Generated_Source\PSoC4/CapSense_1_SensingCSD_LL.c **** 
 829:Generated_Source\PSoC4/CapSense_1_SensingCSD_LL.c ****     /* Set Idac Value mask */
 830:Generated_Source\PSoC4/CapSense_1_SensingCSD_LL.c ****     #if (CapSense_1_ENABLE == CapSense_1_CSD_IDAC_COMP_EN)
 831:Generated_Source\PSoC4/CapSense_1_SensingCSD_LL.c ****         newRegValue &= ~(CapSense_1_IDAC_MOD_MASK | CapSense_1_IDAC_COMP_MASK);
 832:Generated_Source\PSoC4/CapSense_1_SensingCSD_LL.c ****     #else
 833:Generated_Source\PSoC4/CapSense_1_SensingCSD_LL.c ****         newRegValue &= ~(CapSense_1_IDAC_MOD_MASK);
 834:Generated_Source\PSoC4/CapSense_1_SensingCSD_LL.c ****     #endif /* (CapSense_1_ENABLE == CapSense_1_CSD_IDAC_COMP_EN) */
 835:Generated_Source\PSoC4/CapSense_1_SensingCSD_LL.c **** 
 836:Generated_Source\PSoC4/CapSense_1_SensingCSD_LL.c ****     /* Set Idac value */
 837:Generated_Source\PSoC4/CapSense_1_SensingCSD_LL.c ****     #if (CapSense_1_ENABLE == CapSense_1_CSD_IDAC_COMP_EN)
 838:Generated_Source\PSoC4/CapSense_1_SensingCSD_LL.c ****         newRegValue |= (ptrIdacMod[CapSense_1_scanFreqIndex] |
 839:Generated_Source\PSoC4/CapSense_1_SensingCSD_LL.c ****                        (uint32)((uint32)CapSense_1_curRamSnsPtr->idacComp[CapSense_1_scanFreqIndex]
 840:Generated_Source\PSoC4/CapSense_1_SensingCSD_LL.c ****                        CapSense_1_IDAC_COMP_DATA_OFFSET));
 841:Generated_Source\PSoC4/CapSense_1_SensingCSD_LL.c ****     #else
 842:Generated_Source\PSoC4/CapSense_1_SensingCSD_LL.c ****         newRegValue |= ptrIdacMod[CapSense_1_scanFreqIndex];
 843:Generated_Source\PSoC4/CapSense_1_SensingCSD_LL.c ****     #endif /* (CapSense_1_ENABLE == CapSense_1_CSD_IDAC_COMP_EN) */
 844:Generated_Source\PSoC4/CapSense_1_SensingCSD_LL.c ****     CY_SET_REG32(CapSense_1_IDAC_PTR, newRegValue);
 845:Generated_Source\PSoC4/CapSense_1_SensingCSD_LL.c **** 
 846:Generated_Source\PSoC4/CapSense_1_SensingCSD_LL.c ****     CyExitCriticalSection(interruptState);
 847:Generated_Source\PSoC4/CapSense_1_SensingCSD_LL.c **** 
 848:Generated_Source\PSoC4/CapSense_1_SensingCSD_LL.c **** #endif /* (CapSense_1_ENABLE == CapSense_1_CSDV2) */
 849:Generated_Source\PSoC4/CapSense_1_SensingCSD_LL.c **** }
 850:Generated_Source\PSoC4/CapSense_1_SensingCSD_LL.c **** 
 851:Generated_Source\PSoC4/CapSense_1_SensingCSD_LL.c **** 
 852:Generated_Source\PSoC4/CapSense_1_SensingCSD_LL.c **** #if (CapSense_1_ENABLE == CapSense_1_CSDV2)
 853:Generated_Source\PSoC4/CapSense_1_SensingCSD_LL.c ****     /*******************************************************************************
 854:Generated_Source\PSoC4/CapSense_1_SensingCSD_LL.c ****     * Function Name: CapSense_1_SsCSDGetNumberOfConversions
 855:Generated_Source\PSoC4/CapSense_1_SensingCSD_LL.c ****     ****************************************************************************//**
 856:Generated_Source\PSoC4/CapSense_1_SensingCSD_LL.c ****     *
 857:Generated_Source\PSoC4/CapSense_1_SensingCSD_LL.c ****     * \brief
 858:Generated_Source\PSoC4/CapSense_1_SensingCSD_LL.c ****     *  This function gets Number of conversions.
 859:Generated_Source\PSoC4/CapSense_1_SensingCSD_LL.c ****     *
 860:Generated_Source\PSoC4/CapSense_1_SensingCSD_LL.c ****     * \details
 861:Generated_Source\PSoC4/CapSense_1_SensingCSD_LL.c ****     *  This function gets Number of conversions using foll.owing equation:
 862:Generated_Source\PSoC4/CapSense_1_SensingCSD_LL.c ****     *   conversionsNum = (2^resolution - 1) / snsClkDivider.
 863:Generated_Source\PSoC4/CapSense_1_SensingCSD_LL.c ****     *
 864:Generated_Source\PSoC4/CapSense_1_SensingCSD_LL.c ****     * \param
 865:Generated_Source\PSoC4/CapSense_1_SensingCSD_LL.c ****     *  snsClkDivider The divider value for the sense clock.
 866:Generated_Source\PSoC4/CapSense_1_SensingCSD_LL.c ****     *  resolution The widget resolution.
 867:Generated_Source\PSoC4/CapSense_1_SensingCSD_LL.c ****     *  snsClkSrc The current Sense Clock Source.
ARM GAS  C:\Users\MICHAE~1.MAC\AppData\Local\Temp\ccJeyeG1.s 			page 19


 868:Generated_Source\PSoC4/CapSense_1_SensingCSD_LL.c ****     *
 869:Generated_Source\PSoC4/CapSense_1_SensingCSD_LL.c ****     * \return Returns the Number of conversions.
 870:Generated_Source\PSoC4/CapSense_1_SensingCSD_LL.c ****     *
 871:Generated_Source\PSoC4/CapSense_1_SensingCSD_LL.c ****     *******************************************************************************/
 872:Generated_Source\PSoC4/CapSense_1_SensingCSD_LL.c ****     uint32 CapSense_1_SsCSDGetNumberOfConversions(uint32 snsClkDivider, uint32 resolution, uint32 s
 873:Generated_Source\PSoC4/CapSense_1_SensingCSD_LL.c ****     {
 874:Generated_Source\PSoC4/CapSense_1_SensingCSD_LL.c ****         uint32 conversionsNum;
 875:Generated_Source\PSoC4/CapSense_1_SensingCSD_LL.c ****         #if ((CapSense_1_MOD_CSD_CLK_12MHZ < CYDEV_BCLK__HFCLK__HZ) && (CapSense_1_ENABLE != CapSen
 876:Generated_Source\PSoC4/CapSense_1_SensingCSD_LL.c ****             uint32 sampleClkFreqHz;
 877:Generated_Source\PSoC4/CapSense_1_SensingCSD_LL.c ****         #endif /* ((CapSense_1_MOD_CSD_CLK_12MHZ < CYDEV_BCLK__HFCLK__HZ) && (CapSense_1_ENABLE != 
 878:Generated_Source\PSoC4/CapSense_1_SensingCSD_LL.c **** 
 879:Generated_Source\PSoC4/CapSense_1_SensingCSD_LL.c ****         /* Calculate scanning resolution value in register */
 880:Generated_Source\PSoC4/CapSense_1_SensingCSD_LL.c ****         conversionsNum = (uint32)((1uL << resolution) - 1uL);
 881:Generated_Source\PSoC4/CapSense_1_SensingCSD_LL.c **** 
 882:Generated_Source\PSoC4/CapSense_1_SensingCSD_LL.c ****         #if(CapSense_1_ENABLE != CapSense_1_CSDV2_REF9P6UA_EN)
 883:Generated_Source\PSoC4/CapSense_1_SensingCSD_LL.c ****             /* Apply correction to oveflow for 16 bit resolution */
 884:Generated_Source\PSoC4/CapSense_1_SensingCSD_LL.c ****             if (CapSense_1_RES16BIT == resolution)
 885:Generated_Source\PSoC4/CapSense_1_SensingCSD_LL.c ****             {
 886:Generated_Source\PSoC4/CapSense_1_SensingCSD_LL.c ****                 conversionsNum -= ((snsClkDivider + 1u) >> 1u);
 887:Generated_Source\PSoC4/CapSense_1_SensingCSD_LL.c **** 
 888:Generated_Source\PSoC4/CapSense_1_SensingCSD_LL.c ****                 #if (CapSense_1_MOD_CSD_CLK_12MHZ < CYDEV_BCLK__HFCLK__HZ)
 889:Generated_Source\PSoC4/CapSense_1_SensingCSD_LL.c ****                     sampleClkFreqHz = CYDEV_BCLK__HFCLK__HZ / (uint32)CapSense_1_dsRam.modCsdClk;
 890:Generated_Source\PSoC4/CapSense_1_SensingCSD_LL.c **** 
 891:Generated_Source\PSoC4/CapSense_1_SensingCSD_LL.c ****                     if (sampleClkFreqHz <= CapSense_1_MOD_CSD_CLK_12MHZ)
 892:Generated_Source\PSoC4/CapSense_1_SensingCSD_LL.c ****                     {
 893:Generated_Source\PSoC4/CapSense_1_SensingCSD_LL.c ****                         conversionsNum -= CapSense_1_CONFIG_FILTER_DELAY_2_CYCLES;
 894:Generated_Source\PSoC4/CapSense_1_SensingCSD_LL.c ****                     }
 895:Generated_Source\PSoC4/CapSense_1_SensingCSD_LL.c ****                     else if (sampleClkFreqHz <= CapSense_1_MOD_CSD_CLK_24MHZ)
 896:Generated_Source\PSoC4/CapSense_1_SensingCSD_LL.c ****                     {
 897:Generated_Source\PSoC4/CapSense_1_SensingCSD_LL.c ****                         conversionsNum -= CapSense_1_CONFIG_FILTER_DELAY_3_CYCLES;
 898:Generated_Source\PSoC4/CapSense_1_SensingCSD_LL.c ****                     }
 899:Generated_Source\PSoC4/CapSense_1_SensingCSD_LL.c ****                     else
 900:Generated_Source\PSoC4/CapSense_1_SensingCSD_LL.c ****                     {
 901:Generated_Source\PSoC4/CapSense_1_SensingCSD_LL.c ****                         conversionsNum -= CapSense_1_CONFIG_FILTER_DELAY_4_CYCLES;
 902:Generated_Source\PSoC4/CapSense_1_SensingCSD_LL.c ****                     }
 903:Generated_Source\PSoC4/CapSense_1_SensingCSD_LL.c ****                 #else
 904:Generated_Source\PSoC4/CapSense_1_SensingCSD_LL.c ****                     conversionsNum -= CapSense_1_CONFIG_FILTER_DELAY_2_CYCLES;
 905:Generated_Source\PSoC4/CapSense_1_SensingCSD_LL.c ****                 #endif /* (INSTANCE_NAME`_MOD_CSD_CLK_12MHZ < CYDEV_BCLK__HFCLK__HZ) */
 906:Generated_Source\PSoC4/CapSense_1_SensingCSD_LL.c ****             }
 907:Generated_Source\PSoC4/CapSense_1_SensingCSD_LL.c ****         #endif /* (CapSense_1_ENABLE != CapSense_1_CSDV2_REF9P6UA_EN) */
 908:Generated_Source\PSoC4/CapSense_1_SensingCSD_LL.c **** 
 909:Generated_Source\PSoC4/CapSense_1_SensingCSD_LL.c ****         if (0u < snsClkDivider)
 910:Generated_Source\PSoC4/CapSense_1_SensingCSD_LL.c ****         {
 911:Generated_Source\PSoC4/CapSense_1_SensingCSD_LL.c ****             conversionsNum /= snsClkDivider;
 912:Generated_Source\PSoC4/CapSense_1_SensingCSD_LL.c ****         }
 913:Generated_Source\PSoC4/CapSense_1_SensingCSD_LL.c **** 
 914:Generated_Source\PSoC4/CapSense_1_SensingCSD_LL.c ****     #if((CapSense_1_CLK_SOURCE_PRS8  == CapSense_1_CSD_SNS_CLK_SOURCE) ||\
 915:Generated_Source\PSoC4/CapSense_1_SensingCSD_LL.c ****         (CapSense_1_CLK_SOURCE_PRS12 == CapSense_1_CSD_SNS_CLK_SOURCE) ||\
 916:Generated_Source\PSoC4/CapSense_1_SensingCSD_LL.c ****         (CapSense_1_CLK_SOURCE_PRSAUTO == CapSense_1_CSD_SNS_CLK_SOURCE))
 917:Generated_Source\PSoC4/CapSense_1_SensingCSD_LL.c ****         switch (snsClkSrc)
 918:Generated_Source\PSoC4/CapSense_1_SensingCSD_LL.c ****         {
 919:Generated_Source\PSoC4/CapSense_1_SensingCSD_LL.c ****             case CapSense_1_CLK_SOURCE_PRS8:
 920:Generated_Source\PSoC4/CapSense_1_SensingCSD_LL.c ****             case CapSense_1_CLK_SOURCE_PRS12:
 921:Generated_Source\PSoC4/CapSense_1_SensingCSD_LL.c ****                 /* Divide by 2 for PRS8/PRS12 mode */
 922:Generated_Source\PSoC4/CapSense_1_SensingCSD_LL.c ****                 conversionsNum >>= 1u;
 923:Generated_Source\PSoC4/CapSense_1_SensingCSD_LL.c ****                 break;
 924:Generated_Source\PSoC4/CapSense_1_SensingCSD_LL.c **** 
ARM GAS  C:\Users\MICHAE~1.MAC\AppData\Local\Temp\ccJeyeG1.s 			page 20


 925:Generated_Source\PSoC4/CapSense_1_SensingCSD_LL.c ****             default:
 926:Generated_Source\PSoC4/CapSense_1_SensingCSD_LL.c ****                 break;
 927:Generated_Source\PSoC4/CapSense_1_SensingCSD_LL.c ****         }
 928:Generated_Source\PSoC4/CapSense_1_SensingCSD_LL.c ****     #endif /* ((CapSense_1_CLK_SOURCE_PRS8  == CapSense_1_CSD_SNS_CLK_SOURCE) ||\
 929:Generated_Source\PSoC4/CapSense_1_SensingCSD_LL.c ****                (CapSense_1_CLK_SOURCE_PRS12 == CapSense_1_CSD_SNS_CLK_SOURCE) ||\
 930:Generated_Source\PSoC4/CapSense_1_SensingCSD_LL.c ****                (CapSense_1_CLK_SOURCE_PRSAUTO == CapSense_1_CSD_SNS_CLK_SOURCE)) */
 931:Generated_Source\PSoC4/CapSense_1_SensingCSD_LL.c **** 
 932:Generated_Source\PSoC4/CapSense_1_SensingCSD_LL.c ****     return((conversionsNum > 0uL) ? (conversionsNum) : 1uL);
 933:Generated_Source\PSoC4/CapSense_1_SensingCSD_LL.c ****     }
 934:Generated_Source\PSoC4/CapSense_1_SensingCSD_LL.c **** #endif /* (CapSense_1_ENABLE == CapSense_1_CSDV2) */
 935:Generated_Source\PSoC4/CapSense_1_SensingCSD_LL.c **** 
 936:Generated_Source\PSoC4/CapSense_1_SensingCSD_LL.c **** 
 937:Generated_Source\PSoC4/CapSense_1_SensingCSD_LL.c **** /*******************************************************************************
 938:Generated_Source\PSoC4/CapSense_1_SensingCSD_LL.c **** * Function Name: CapSense_1_SsCSDConfigClock
 939:Generated_Source\PSoC4/CapSense_1_SensingCSD_LL.c **** ****************************************************************************//**
 940:Generated_Source\PSoC4/CapSense_1_SensingCSD_LL.c **** *
 941:Generated_Source\PSoC4/CapSense_1_SensingCSD_LL.c **** * \brief
 942:Generated_Source\PSoC4/CapSense_1_SensingCSD_LL.c **** *  This function configure sense clock for different modes.
 943:Generated_Source\PSoC4/CapSense_1_SensingCSD_LL.c **** *
 944:Generated_Source\PSoC4/CapSense_1_SensingCSD_LL.c **** * \details
 945:Generated_Source\PSoC4/CapSense_1_SensingCSD_LL.c **** *  Function sets the clock divider and configures the mode based on configuration.
 946:Generated_Source\PSoC4/CapSense_1_SensingCSD_LL.c **** *
 947:Generated_Source\PSoC4/CapSense_1_SensingCSD_LL.c **** *******************************************************************************/
 948:Generated_Source\PSoC4/CapSense_1_SensingCSD_LL.c **** void CapSense_1_SsCSDConfigClock(void)
 949:Generated_Source\PSoC4/CapSense_1_SensingCSD_LL.c **** {
 950:Generated_Source\PSoC4/CapSense_1_SensingCSD_LL.c ****     uint32 snsClkDivider;
 951:Generated_Source\PSoC4/CapSense_1_SensingCSD_LL.c ****     uint32 snsClkSrc;
 952:Generated_Source\PSoC4/CapSense_1_SensingCSD_LL.c ****     uint32 newRegValue;
 953:Generated_Source\PSoC4/CapSense_1_SensingCSD_LL.c **** 
 954:Generated_Source\PSoC4/CapSense_1_SensingCSD_LL.c ****     CapSense_1_RAM_WD_BASE_STRUCT const *ptrWdgt = (CapSense_1_RAM_WD_BASE_STRUCT *)
 955:Generated_Source\PSoC4/CapSense_1_SensingCSD_LL.c ****              CapSense_1_dsFlash.wdgtArray[CapSense_1_widgetIndex].ptr2WdgtRam;
 956:Generated_Source\PSoC4/CapSense_1_SensingCSD_LL.c **** 
 957:Generated_Source\PSoC4/CapSense_1_SensingCSD_LL.c ****     /* Get sense divider based on configuration */
 958:Generated_Source\PSoC4/CapSense_1_SensingCSD_LL.c ****     #if (CapSense_1_ENABLE == CapSense_1_CSD_COMMON_SNS_CLK_EN)
 959:Generated_Source\PSoC4/CapSense_1_SensingCSD_LL.c ****         snsClkDivider = (uint32)CapSense_1_dsRam.snsCsdClk;
 960:Generated_Source\PSoC4/CapSense_1_SensingCSD_LL.c ****     #else
 961:Generated_Source\PSoC4/CapSense_1_SensingCSD_LL.c ****         #if (CapSense_1_CSD_MATRIX_WIDGET_EN || CapSense_1_CSD_TOUCHPAD_WIDGET_EN)
 962:Generated_Source\PSoC4/CapSense_1_SensingCSD_LL.c ****             /* Get SnsClck divider for rows or columns */
 963:Generated_Source\PSoC4/CapSense_1_SensingCSD_LL.c ****             if (CapSense_1_dsFlash.wdgtArray[CapSense_1_widgetIndex].numCols <= CapSense_1_sensorIn
 964:Generated_Source\PSoC4/CapSense_1_SensingCSD_LL.c ****             {
 965:Generated_Source\PSoC4/CapSense_1_SensingCSD_LL.c ****                 snsClkDivider = (uint32)(ptrWdgt->rowSnsClk);
 966:Generated_Source\PSoC4/CapSense_1_SensingCSD_LL.c ****             }
 967:Generated_Source\PSoC4/CapSense_1_SensingCSD_LL.c ****             else
 968:Generated_Source\PSoC4/CapSense_1_SensingCSD_LL.c ****             {
 969:Generated_Source\PSoC4/CapSense_1_SensingCSD_LL.c ****                 snsClkDivider = (uint32)(ptrWdgt->snsClk);
 970:Generated_Source\PSoC4/CapSense_1_SensingCSD_LL.c ****             }
 971:Generated_Source\PSoC4/CapSense_1_SensingCSD_LL.c ****         #else
 972:Generated_Source\PSoC4/CapSense_1_SensingCSD_LL.c ****             snsClkDivider = (uint32)(ptrWdgt->snsClk);
 973:Generated_Source\PSoC4/CapSense_1_SensingCSD_LL.c ****         #endif /* (CapSense_1_CSD_MATRIX_WIDGET_EN || CapSense_1_CSD_TOUCHPAD_WIDGET_EN) */
 974:Generated_Source\PSoC4/CapSense_1_SensingCSD_LL.c ****     #endif /* (CapSense_1_ENABLE == CapSense_1_CSD_COMMON_SNS_CLK_EN) */
 975:Generated_Source\PSoC4/CapSense_1_SensingCSD_LL.c **** 
 976:Generated_Source\PSoC4/CapSense_1_SensingCSD_LL.c ****     /* Get sense clk source calculated in CapSense_1_SsCSDInitialize() before */
 977:Generated_Source\PSoC4/CapSense_1_SensingCSD_LL.c ****     #if (CapSense_1_CSD_MATRIX_WIDGET_EN || CapSense_1_CSD_TOUCHPAD_WIDGET_EN)
 978:Generated_Source\PSoC4/CapSense_1_SensingCSD_LL.c ****         /* Get SnsClc Source for rows or columns */
 979:Generated_Source\PSoC4/CapSense_1_SensingCSD_LL.c ****         if (CapSense_1_dsFlash.wdgtArray[CapSense_1_widgetIndex].numCols <= CapSense_1_sensorIndex)
 980:Generated_Source\PSoC4/CapSense_1_SensingCSD_LL.c ****         {
 981:Generated_Source\PSoC4/CapSense_1_SensingCSD_LL.c ****             snsClkSrc = (uint32)ptrWdgt->rowSnsClkSource;
ARM GAS  C:\Users\MICHAE~1.MAC\AppData\Local\Temp\ccJeyeG1.s 			page 21


 982:Generated_Source\PSoC4/CapSense_1_SensingCSD_LL.c ****         }
 983:Generated_Source\PSoC4/CapSense_1_SensingCSD_LL.c ****         else
 984:Generated_Source\PSoC4/CapSense_1_SensingCSD_LL.c ****         {
 985:Generated_Source\PSoC4/CapSense_1_SensingCSD_LL.c ****             snsClkSrc = (uint32)ptrWdgt->snsClkSource;
 986:Generated_Source\PSoC4/CapSense_1_SensingCSD_LL.c ****         }
 987:Generated_Source\PSoC4/CapSense_1_SensingCSD_LL.c ****     #else
 988:Generated_Source\PSoC4/CapSense_1_SensingCSD_LL.c ****         snsClkSrc = (uint32)ptrWdgt->snsClkSource;
 989:Generated_Source\PSoC4/CapSense_1_SensingCSD_LL.c ****     #endif /* (CapSense_1_CSD_MATRIX_WIDGET_EN || CapSense_1_CSD_TOUCHPAD_WIDGET_EN) */
 990:Generated_Source\PSoC4/CapSense_1_SensingCSD_LL.c **** 
 991:Generated_Source\PSoC4/CapSense_1_SensingCSD_LL.c ****     #if (CapSense_1_ENABLE == CapSense_1_CSDV2)
 992:Generated_Source\PSoC4/CapSense_1_SensingCSD_LL.c ****         newRegValue = (snsClkSrc << CYFLD_CSD_LFSR_SIZE__OFFSET);
 993:Generated_Source\PSoC4/CapSense_1_SensingCSD_LL.c **** 
 994:Generated_Source\PSoC4/CapSense_1_SensingCSD_LL.c ****         /* Configuring PRS SEL_BIT */
 995:Generated_Source\PSoC4/CapSense_1_SensingCSD_LL.c ****         if ((CapSense_1_CLK_SOURCE_PRS8 == snsClkSrc) ||
 996:Generated_Source\PSoC4/CapSense_1_SensingCSD_LL.c ****             (CapSense_1_CLK_SOURCE_PRS12 == snsClkSrc))
 997:Generated_Source\PSoC4/CapSense_1_SensingCSD_LL.c ****         {
 998:Generated_Source\PSoC4/CapSense_1_SensingCSD_LL.c ****             newRegValue |= CapSense_1_SENSE_PERIOD_SEL_LFSR_MSB_MASK;
 999:Generated_Source\PSoC4/CapSense_1_SensingCSD_LL.c ****         }
1000:Generated_Source\PSoC4/CapSense_1_SensingCSD_LL.c ****     #else
1001:Generated_Source\PSoC4/CapSense_1_SensingCSD_LL.c ****         newRegValue = snsClkSrc;
1002:Generated_Source\PSoC4/CapSense_1_SensingCSD_LL.c ****     #endif /* (CapSense_1_ENABLE == CapSense_1_CSDV2) */
1003:Generated_Source\PSoC4/CapSense_1_SensingCSD_LL.c **** 
1004:Generated_Source\PSoC4/CapSense_1_SensingCSD_LL.c ****     #if((CapSense_1_CLK_SOURCE_PRS8  == CapSense_1_CSD_SNS_CLK_SOURCE) ||\
1005:Generated_Source\PSoC4/CapSense_1_SensingCSD_LL.c ****         (CapSense_1_CLK_SOURCE_PRS12 == CapSense_1_CSD_SNS_CLK_SOURCE) ||\
1006:Generated_Source\PSoC4/CapSense_1_SensingCSD_LL.c ****         (CapSense_1_CLK_SOURCE_PRSAUTO == CapSense_1_CSD_SNS_CLK_SOURCE))
1007:Generated_Source\PSoC4/CapSense_1_SensingCSD_LL.c ****         switch (snsClkSrc)
1008:Generated_Source\PSoC4/CapSense_1_SensingCSD_LL.c ****         {
1009:Generated_Source\PSoC4/CapSense_1_SensingCSD_LL.c ****         case CapSense_1_CLK_SOURCE_PRS8:
1010:Generated_Source\PSoC4/CapSense_1_SensingCSD_LL.c ****         case CapSense_1_CLK_SOURCE_PRS12:
1011:Generated_Source\PSoC4/CapSense_1_SensingCSD_LL.c ****             /* Divide by 2 for PRS8/PRS12 mode */
1012:Generated_Source\PSoC4/CapSense_1_SensingCSD_LL.c ****             snsClkDivider >>= 1;
1013:Generated_Source\PSoC4/CapSense_1_SensingCSD_LL.c ****             if (snsClkDivider == 0u)
1014:Generated_Source\PSoC4/CapSense_1_SensingCSD_LL.c ****             {
1015:Generated_Source\PSoC4/CapSense_1_SensingCSD_LL.c ****                 snsClkDivider = 1u;
1016:Generated_Source\PSoC4/CapSense_1_SensingCSD_LL.c ****             }
1017:Generated_Source\PSoC4/CapSense_1_SensingCSD_LL.c ****             break;
1018:Generated_Source\PSoC4/CapSense_1_SensingCSD_LL.c **** 
1019:Generated_Source\PSoC4/CapSense_1_SensingCSD_LL.c ****         default:
1020:Generated_Source\PSoC4/CapSense_1_SensingCSD_LL.c ****             break;
1021:Generated_Source\PSoC4/CapSense_1_SensingCSD_LL.c ****         }
1022:Generated_Source\PSoC4/CapSense_1_SensingCSD_LL.c ****     #endif /* ((CapSense_1_CLK_SOURCE_PRS8  == CapSense_1_CSD_SNS_CLK_SOURCE) ||\
1023:Generated_Source\PSoC4/CapSense_1_SensingCSD_LL.c ****                (CapSense_1_CLK_SOURCE_PRS12 == CapSense_1_CSD_SNS_CLK_SOURCE) ||\
1024:Generated_Source\PSoC4/CapSense_1_SensingCSD_LL.c ****                (CapSense_1_CLK_SOURCE_PRSAUTO == CapSense_1_CSD_SNS_CLK_SOURCE)) */
1025:Generated_Source\PSoC4/CapSense_1_SensingCSD_LL.c ****     CapSense_1_SsCSDSetModeSnsClockDivider(newRegValue, snsClkDivider);
1026:Generated_Source\PSoC4/CapSense_1_SensingCSD_LL.c **** }
1027:Generated_Source\PSoC4/CapSense_1_SensingCSD_LL.c **** 
1028:Generated_Source\PSoC4/CapSense_1_SensingCSD_LL.c **** 
1029:Generated_Source\PSoC4/CapSense_1_SensingCSD_LL.c **** /*******************************************************************************
1030:Generated_Source\PSoC4/CapSense_1_SensingCSD_LL.c **** * Function Name: CapSense_1_SsCSDCalculateScanDuration
1031:Generated_Source\PSoC4/CapSense_1_SensingCSD_LL.c **** ****************************************************************************//**
1032:Generated_Source\PSoC4/CapSense_1_SensingCSD_LL.c **** *
1033:Generated_Source\PSoC4/CapSense_1_SensingCSD_LL.c **** * \brief
1034:Generated_Source\PSoC4/CapSense_1_SensingCSD_LL.c **** *   Calculates Scan Duration which is defined by scan resolution
1035:Generated_Source\PSoC4/CapSense_1_SensingCSD_LL.c **** *
1036:Generated_Source\PSoC4/CapSense_1_SensingCSD_LL.c **** * \details
1037:Generated_Source\PSoC4/CapSense_1_SensingCSD_LL.c **** *   For Fourth-generation HW block: The function calculates the number of conversions and updates
1038:Generated_Source\PSoC4/CapSense_1_SensingCSD_LL.c **** *   SEQ_NORM_CNT register. The number of conversions depends on resolution and
ARM GAS  C:\Users\MICHAE~1.MAC\AppData\Local\Temp\ccJeyeG1.s 			page 22


1039:Generated_Source\PSoC4/CapSense_1_SensingCSD_LL.c **** *   snsClk divider.
1040:Generated_Source\PSoC4/CapSense_1_SensingCSD_LL.c **** *   For Third-generation HW block: The function recalculate the resolution using following equation
1041:Generated_Source\PSoC4/CapSense_1_SensingCSD_LL.c **** *   2^resolution - 1. The calculated value is contained in
1042:Generated_Source\PSoC4/CapSense_1_SensingCSD_LL.c **** *   CapSense_1_counterResolution global variable and used in
1043:Generated_Source\PSoC4/CapSense_1_SensingCSD_LL.c **** *   CapSense_1_SsCSDStartSample() function to trigger the scan process.
1044:Generated_Source\PSoC4/CapSense_1_SensingCSD_LL.c **** *
1045:Generated_Source\PSoC4/CapSense_1_SensingCSD_LL.c **** * \param wdgtIndex
1046:Generated_Source\PSoC4/CapSense_1_SensingCSD_LL.c **** *  ptrWdgt The pointer to the RAM_WD_BASE_STRUCT structure.
1047:Generated_Source\PSoC4/CapSense_1_SensingCSD_LL.c **** *
1048:Generated_Source\PSoC4/CapSense_1_SensingCSD_LL.c **** *******************************************************************************/
1049:Generated_Source\PSoC4/CapSense_1_SensingCSD_LL.c **** void CapSense_1_SsCSDCalculateScanDuration(CapSense_1_RAM_WD_BASE_STRUCT const *ptrWdgt)
1050:Generated_Source\PSoC4/CapSense_1_SensingCSD_LL.c **** {
1051:Generated_Source\PSoC4/CapSense_1_SensingCSD_LL.c ****     #if (CapSense_1_ENABLE == CapSense_1_CSDV2)
1052:Generated_Source\PSoC4/CapSense_1_SensingCSD_LL.c ****         uint32 conversionsNum;
1053:Generated_Source\PSoC4/CapSense_1_SensingCSD_LL.c ****         uint32 snsClkDivider;
1054:Generated_Source\PSoC4/CapSense_1_SensingCSD_LL.c **** 
1055:Generated_Source\PSoC4/CapSense_1_SensingCSD_LL.c ****     /* Get Number Of Conversions */
1056:Generated_Source\PSoC4/CapSense_1_SensingCSD_LL.c ****     #if (CapSense_1_ENABLE == CapSense_1_CSD_COMMON_SNS_CLK_EN)
1057:Generated_Source\PSoC4/CapSense_1_SensingCSD_LL.c ****         snsClkDivider = CapSense_1_dsRam.snsCsdClk;
1058:Generated_Source\PSoC4/CapSense_1_SensingCSD_LL.c ****     #else
1059:Generated_Source\PSoC4/CapSense_1_SensingCSD_LL.c ****         #if (CapSense_1_CSD_MATRIX_WIDGET_EN || CapSense_1_CSD_TOUCHPAD_WIDGET_EN)
1060:Generated_Source\PSoC4/CapSense_1_SensingCSD_LL.c ****             /* Get SnsClck divider for rows or columns */
1061:Generated_Source\PSoC4/CapSense_1_SensingCSD_LL.c ****             if (CapSense_1_dsFlash.wdgtArray[CapSense_1_widgetIndex].numCols <= CapSense_1_sensorIn
1062:Generated_Source\PSoC4/CapSense_1_SensingCSD_LL.c ****             {
1063:Generated_Source\PSoC4/CapSense_1_SensingCSD_LL.c ****                 snsClkDivider = (uint32)(ptrWdgt->rowSnsClk);
1064:Generated_Source\PSoC4/CapSense_1_SensingCSD_LL.c ****             }
1065:Generated_Source\PSoC4/CapSense_1_SensingCSD_LL.c ****             else
1066:Generated_Source\PSoC4/CapSense_1_SensingCSD_LL.c ****             {
1067:Generated_Source\PSoC4/CapSense_1_SensingCSD_LL.c ****                 snsClkDivider = (uint32)(ptrWdgt->snsClk);
1068:Generated_Source\PSoC4/CapSense_1_SensingCSD_LL.c ****             }
1069:Generated_Source\PSoC4/CapSense_1_SensingCSD_LL.c ****         #else
1070:Generated_Source\PSoC4/CapSense_1_SensingCSD_LL.c ****             snsClkDivider = (uint32)(ptrWdgt->snsClk);
1071:Generated_Source\PSoC4/CapSense_1_SensingCSD_LL.c ****         #endif /* (CapSense_1_CSD_MATRIX_WIDGET_EN || CapSense_1_CSD_TOUCHPAD_WIDGET_EN) */
1072:Generated_Source\PSoC4/CapSense_1_SensingCSD_LL.c ****     #endif /* (CapSense_1_ENABLE == CapSense_1_CSD_COMMON_SNS_CLK_EN) */
1073:Generated_Source\PSoC4/CapSense_1_SensingCSD_LL.c **** 
1074:Generated_Source\PSoC4/CapSense_1_SensingCSD_LL.c ****     conversionsNum = CapSense_1_SsCSDGetNumberOfConversions(snsClkDivider, (uint32)ptrWdgt->resolut
1075:Generated_Source\PSoC4/CapSense_1_SensingCSD_LL.c **** 
1076:Generated_Source\PSoC4/CapSense_1_SensingCSD_LL.c ****         /* Set Number Of Conversions based on scanning resolution */
1077:Generated_Source\PSoC4/CapSense_1_SensingCSD_LL.c ****         CY_SET_REG32(CapSense_1_SEQ_NORM_CNT_PTR, (conversionsNum & CapSense_1_SEQ_NORM_CNT_CONV_CN
1078:Generated_Source\PSoC4/CapSense_1_SensingCSD_LL.c ****     #else
1079:Generated_Source\PSoC4/CapSense_1_SensingCSD_LL.c ****         /* Set up scanning resolution  */
1080:Generated_Source\PSoC4/CapSense_1_SensingCSD_LL.c ****         CapSense_1_counterResolution = (uint32)((0x00000001Lu << ptrWdgt->resolution) - 1u) << CapS
1081:Generated_Source\PSoC4/CapSense_1_SensingCSD_LL.c ****     #endif /* (CapSense_1_ENABLE == CapSense_1_CSDV2) */
1082:Generated_Source\PSoC4/CapSense_1_SensingCSD_LL.c **** }
1083:Generated_Source\PSoC4/CapSense_1_SensingCSD_LL.c **** 
1084:Generated_Source\PSoC4/CapSense_1_SensingCSD_LL.c **** 
1085:Generated_Source\PSoC4/CapSense_1_SensingCSD_LL.c **** /*******************************************************************************
1086:Generated_Source\PSoC4/CapSense_1_SensingCSD_LL.c **** * Function Name: CapSense_1_CSDSetupWidget
1087:Generated_Source\PSoC4/CapSense_1_SensingCSD_LL.c **** ****************************************************************************//**
1088:Generated_Source\PSoC4/CapSense_1_SensingCSD_LL.c **** *
1089:Generated_Source\PSoC4/CapSense_1_SensingCSD_LL.c **** * \brief
1090:Generated_Source\PSoC4/CapSense_1_SensingCSD_LL.c **** *  Performs hardware and firmware initialization required for scanning sensors
1091:Generated_Source\PSoC4/CapSense_1_SensingCSD_LL.c **** *  in a specific widget using the CSD sensing method. This function requires using
1092:Generated_Source\PSoC4/CapSense_1_SensingCSD_LL.c **** *  the CapSense_1_CSDScan() function to start scanning.
1093:Generated_Source\PSoC4/CapSense_1_SensingCSD_LL.c **** *
1094:Generated_Source\PSoC4/CapSense_1_SensingCSD_LL.c **** * \details
1095:Generated_Source\PSoC4/CapSense_1_SensingCSD_LL.c **** *  This function initializes the specific widget common parameters to perform
ARM GAS  C:\Users\MICHAE~1.MAC\AppData\Local\Temp\ccJeyeG1.s 			page 23


1096:Generated_Source\PSoC4/CapSense_1_SensingCSD_LL.c **** *  the CSD scanning. The initialization includes setting up a Modulator and
1097:Generated_Source\PSoC4/CapSense_1_SensingCSD_LL.c **** *  Sense clock frequency and scanning resolution.
1098:Generated_Source\PSoC4/CapSense_1_SensingCSD_LL.c **** *
1099:Generated_Source\PSoC4/CapSense_1_SensingCSD_LL.c **** *  This function does not connect any specific sensors to the scanning hardware,
1100:Generated_Source\PSoC4/CapSense_1_SensingCSD_LL.c **** *  neither does it start a scanning process. The CapSense_1_CSDScan()
1101:Generated_Source\PSoC4/CapSense_1_SensingCSD_LL.c **** *  API must be called after initializing the widget to start scanning.
1102:Generated_Source\PSoC4/CapSense_1_SensingCSD_LL.c **** *
1103:Generated_Source\PSoC4/CapSense_1_SensingCSD_LL.c **** *  This function is called when no scanning is in progress. I.e.
1104:Generated_Source\PSoC4/CapSense_1_SensingCSD_LL.c **** *  CapSense_1_IsBusy() returns a non-busy status.
1105:Generated_Source\PSoC4/CapSense_1_SensingCSD_LL.c **** *
1106:Generated_Source\PSoC4/CapSense_1_SensingCSD_LL.c **** *  This function is called by the CapSense_1_SetupWidget() API if the
1107:Generated_Source\PSoC4/CapSense_1_SensingCSD_LL.c **** *  given widget uses the CSD sensing method.
1108:Generated_Source\PSoC4/CapSense_1_SensingCSD_LL.c **** *
1109:Generated_Source\PSoC4/CapSense_1_SensingCSD_LL.c **** *  Calling this function directly from the application layer is not
1110:Generated_Source\PSoC4/CapSense_1_SensingCSD_LL.c **** *  recommended. This function is used to implement only the user's specific
1111:Generated_Source\PSoC4/CapSense_1_SensingCSD_LL.c **** *  use cases (for faster execution time or pipeline scanning for example).
1112:Generated_Source\PSoC4/CapSense_1_SensingCSD_LL.c **** *
1113:Generated_Source\PSoC4/CapSense_1_SensingCSD_LL.c **** * \param  widgetId
1114:Generated_Source\PSoC4/CapSense_1_SensingCSD_LL.c **** *  Specifies the ID number of the widget to perform hardware and firmware
1115:Generated_Source\PSoC4/CapSense_1_SensingCSD_LL.c **** *  initialization required for scanning sensors in the specific widget.
1116:Generated_Source\PSoC4/CapSense_1_SensingCSD_LL.c **** *  A macro for the widget ID can be found in the CapSense_1 Configuration header
1117:Generated_Source\PSoC4/CapSense_1_SensingCSD_LL.c **** *  file defined as CapSense_1_<WidgetName>_WDGT_ID.
1118:Generated_Source\PSoC4/CapSense_1_SensingCSD_LL.c **** *
1119:Generated_Source\PSoC4/CapSense_1_SensingCSD_LL.c **** *******************************************************************************/
1120:Generated_Source\PSoC4/CapSense_1_SensingCSD_LL.c **** void CapSense_1_CSDSetupWidget(uint32 widgetId)
1121:Generated_Source\PSoC4/CapSense_1_SensingCSD_LL.c **** {
1122:Generated_Source\PSoC4/CapSense_1_SensingCSD_LL.c **** 
1123:Generated_Source\PSoC4/CapSense_1_SensingCSD_LL.c ****     CapSense_1_RAM_WD_BASE_STRUCT const *ptrWdgt = (CapSense_1_RAM_WD_BASE_STRUCT *)
1124:Generated_Source\PSoC4/CapSense_1_SensingCSD_LL.c ****                                                     CapSense_1_dsFlash.wdgtArray[widgetId].ptr2Wdgt
1125:Generated_Source\PSoC4/CapSense_1_SensingCSD_LL.c **** 
1126:Generated_Source\PSoC4/CapSense_1_SensingCSD_LL.c ****     /* Save widget Id to have assess to it after scanning  */
1127:Generated_Source\PSoC4/CapSense_1_SensingCSD_LL.c ****     CapSense_1_widgetIndex = (uint8)widgetId;
1128:Generated_Source\PSoC4/CapSense_1_SensingCSD_LL.c **** 
1129:Generated_Source\PSoC4/CapSense_1_SensingCSD_LL.c ****     CapSense_1_SsSwitchSensingMode(CapSense_1_SENSE_METHOD_CSD_E);
1130:Generated_Source\PSoC4/CapSense_1_SensingCSD_LL.c **** 
1131:Generated_Source\PSoC4/CapSense_1_SensingCSD_LL.c ****     #if (CapSense_1_ENABLE == CapSense_1_MULTI_FREQ_SCAN_EN)
1132:Generated_Source\PSoC4/CapSense_1_SensingCSD_LL.c ****         /* Reset the frequency scan channel if enabled */
1133:Generated_Source\PSoC4/CapSense_1_SensingCSD_LL.c ****         CapSense_1_scanFreqIndex = CapSense_1_FREQ_CHANNEL_0;
1134:Generated_Source\PSoC4/CapSense_1_SensingCSD_LL.c ****     #endif /* (CapSense_1_ENABLE == CapSense_1_MULTI_FREQ_SCAN_EN) */
1135:Generated_Source\PSoC4/CapSense_1_SensingCSD_LL.c **** 
1136:Generated_Source\PSoC4/CapSense_1_SensingCSD_LL.c ****     /* Disconnect previous electrode if it has been connected */
1137:Generated_Source\PSoC4/CapSense_1_SensingCSD_LL.c ****     CapSense_1_SsCSDElectrodeCheck();
1138:Generated_Source\PSoC4/CapSense_1_SensingCSD_LL.c **** 
1139:Generated_Source\PSoC4/CapSense_1_SensingCSD_LL.c ****     /* Initialize IO Sns electrode structure pointer to current widget */
1140:Generated_Source\PSoC4/CapSense_1_SensingCSD_LL.c ****     CapSense_1_curSnsIOPtr = (CapSense_1_FLASH_IO_STRUCT const *)
1141:Generated_Source\PSoC4/CapSense_1_SensingCSD_LL.c ****                                     CapSense_1_dsFlash.wdgtArray[CapSense_1_widgetIndex].ptr2SnsFla
1142:Generated_Source\PSoC4/CapSense_1_SensingCSD_LL.c **** 
1143:Generated_Source\PSoC4/CapSense_1_SensingCSD_LL.c ****     /* Update status register in Data structure */
1144:Generated_Source\PSoC4/CapSense_1_SensingCSD_LL.c ****     CapSense_1_dsRam.status &= ~CapSense_1_STATUS_WDGT0_MASK;
1145:Generated_Source\PSoC4/CapSense_1_SensingCSD_LL.c ****     CapSense_1_dsRam.status |= CapSense_1_widgetIndex;
1146:Generated_Source\PSoC4/CapSense_1_SensingCSD_LL.c **** 
1147:Generated_Source\PSoC4/CapSense_1_SensingCSD_LL.c ****     /* Set up scanning resolution (Number ofconversion for CSDv2) */
1148:Generated_Source\PSoC4/CapSense_1_SensingCSD_LL.c ****     CapSense_1_SsCSDCalculateScanDuration(ptrWdgt);
1149:Generated_Source\PSoC4/CapSense_1_SensingCSD_LL.c **** 
1150:Generated_Source\PSoC4/CapSense_1_SensingCSD_LL.c ****     #if ((CapSense_1_DISABLE == CapSense_1_CSD_COMMON_SNS_CLK_EN) ||\
1151:Generated_Source\PSoC4/CapSense_1_SensingCSD_LL.c ****          (CapSense_1_CLK_SOURCE_DIRECT != CapSense_1_CSD_SNS_CLK_SOURCE))
1152:Generated_Source\PSoC4/CapSense_1_SensingCSD_LL.c ****         CapSense_1_SsCSDConfigClock();
ARM GAS  C:\Users\MICHAE~1.MAC\AppData\Local\Temp\ccJeyeG1.s 			page 24


1153:Generated_Source\PSoC4/CapSense_1_SensingCSD_LL.c ****     #endif /* ((CapSense_1_DISABLE == CapSense_1_CSD_COMMON_SNS_CLK_EN) ||\
1154:Generated_Source\PSoC4/CapSense_1_SensingCSD_LL.c ****                (CapSense_1_CLK_SOURCE_DIRECT != CapSense_1_CSD_SNS_CLK_SOURCE)) */
1155:Generated_Source\PSoC4/CapSense_1_SensingCSD_LL.c **** }
1156:Generated_Source\PSoC4/CapSense_1_SensingCSD_LL.c **** 
1157:Generated_Source\PSoC4/CapSense_1_SensingCSD_LL.c **** 
1158:Generated_Source\PSoC4/CapSense_1_SensingCSD_LL.c **** /*******************************************************************************
1159:Generated_Source\PSoC4/CapSense_1_SensingCSD_LL.c **** * Function Name: CapSense_1_CSDSetupWidgetExt
1160:Generated_Source\PSoC4/CapSense_1_SensingCSD_LL.c **** ****************************************************************************//**
1161:Generated_Source\PSoC4/CapSense_1_SensingCSD_LL.c **** *
1162:Generated_Source\PSoC4/CapSense_1_SensingCSD_LL.c **** * \brief
1163:Generated_Source\PSoC4/CapSense_1_SensingCSD_LL.c **** *  Performs extended initialization for the CSD widget and also performs
1164:Generated_Source\PSoC4/CapSense_1_SensingCSD_LL.c **** *  initialization required for a specific sensor in the widget. This function
1165:Generated_Source\PSoC4/CapSense_1_SensingCSD_LL.c **** *  requires using the CapSense_1_CSDScanExt() function to initiate a scan.
1166:Generated_Source\PSoC4/CapSense_1_SensingCSD_LL.c **** *
1167:Generated_Source\PSoC4/CapSense_1_SensingCSD_LL.c **** * \details
1168:Generated_Source\PSoC4/CapSense_1_SensingCSD_LL.c **** *  This function does the same as CapSense_1_CSDSetupWidget() and also
1169:Generated_Source\PSoC4/CapSense_1_SensingCSD_LL.c **** *  does the following tasks:
1170:Generated_Source\PSoC4/CapSense_1_SensingCSD_LL.c **** *    1. Connects the first sensor of the widget.
1171:Generated_Source\PSoC4/CapSense_1_SensingCSD_LL.c **** *    2. Configures the IDAC value.
1172:Generated_Source\PSoC4/CapSense_1_SensingCSD_LL.c **** *    3. Initializes an interrupt callback function to initialize a scan of the
1173:Generated_Source\PSoC4/CapSense_1_SensingCSD_LL.c **** *  next sensors in a widget.
1174:Generated_Source\PSoC4/CapSense_1_SensingCSD_LL.c **** *
1175:Generated_Source\PSoC4/CapSense_1_SensingCSD_LL.c **** *  Once this function is called to initialize a widget and a sensor, the
1176:Generated_Source\PSoC4/CapSense_1_SensingCSD_LL.c **** *  CapSense_1_CSDScanExt() function is called to scan the sensor.
1177:Generated_Source\PSoC4/CapSense_1_SensingCSD_LL.c **** *
1178:Generated_Source\PSoC4/CapSense_1_SensingCSD_LL.c **** *  This function is called when no scanning is in progress. I.e.
1179:Generated_Source\PSoC4/CapSense_1_SensingCSD_LL.c **** *  CapSense_1_IsBusy() returns a non-busy status.
1180:Generated_Source\PSoC4/CapSense_1_SensingCSD_LL.c **** *
1181:Generated_Source\PSoC4/CapSense_1_SensingCSD_LL.c **** *  Calling this function directly from the application layer is not
1182:Generated_Source\PSoC4/CapSense_1_SensingCSD_LL.c **** *  recommended. This function is used to implement only the user's specific
1183:Generated_Source\PSoC4/CapSense_1_SensingCSD_LL.c **** *  use cases (for faster execution time or pipeline scanning for example).
1184:Generated_Source\PSoC4/CapSense_1_SensingCSD_LL.c **** *
1185:Generated_Source\PSoC4/CapSense_1_SensingCSD_LL.c **** * \param widgetId
1186:Generated_Source\PSoC4/CapSense_1_SensingCSD_LL.c **** *  Specifies the ID number of the widget to perform hardware and firmware
1187:Generated_Source\PSoC4/CapSense_1_SensingCSD_LL.c **** *  initialization required for scanning the specific sensor in the specific
1188:Generated_Source\PSoC4/CapSense_1_SensingCSD_LL.c **** *  widget.
1189:Generated_Source\PSoC4/CapSense_1_SensingCSD_LL.c **** *  A macro for the widget ID can be found in the CapSense_1 Configuration header
1190:Generated_Source\PSoC4/CapSense_1_SensingCSD_LL.c **** *  file defined as CapSense_1_<WidgetName>_WDGT_ID.
1191:Generated_Source\PSoC4/CapSense_1_SensingCSD_LL.c **** *
1192:Generated_Source\PSoC4/CapSense_1_SensingCSD_LL.c **** * \param sensorId
1193:Generated_Source\PSoC4/CapSense_1_SensingCSD_LL.c **** *  Specifies the ID number of the sensor within the widget to perform hardware
1194:Generated_Source\PSoC4/CapSense_1_SensingCSD_LL.c **** *  and firmware initialization required for scanning a specific sensor in a
1195:Generated_Source\PSoC4/CapSense_1_SensingCSD_LL.c **** *  specific widget.
1196:Generated_Source\PSoC4/CapSense_1_SensingCSD_LL.c **** *  A macro for the sensor ID within a specified widget can be found in the
1197:Generated_Source\PSoC4/CapSense_1_SensingCSD_LL.c **** *  CapSense_1 Configuration header file defined as
1198:Generated_Source\PSoC4/CapSense_1_SensingCSD_LL.c **** *  CapSense_1_<WidgetName>_SNS<SensorNumber>_ID
1199:Generated_Source\PSoC4/CapSense_1_SensingCSD_LL.c **** *
1200:Generated_Source\PSoC4/CapSense_1_SensingCSD_LL.c **** *******************************************************************************/
1201:Generated_Source\PSoC4/CapSense_1_SensingCSD_LL.c **** void CapSense_1_CSDSetupWidgetExt(uint32 widgetId, uint32 sensorId)
1202:Generated_Source\PSoC4/CapSense_1_SensingCSD_LL.c **** {
1203:Generated_Source\PSoC4/CapSense_1_SensingCSD_LL.c ****     CapSense_1_RAM_WD_BASE_STRUCT const *ptrWdgt = (CapSense_1_RAM_WD_BASE_STRUCT *)
1204:Generated_Source\PSoC4/CapSense_1_SensingCSD_LL.c ****                                                     CapSense_1_dsFlash.wdgtArray[widgetId].ptr2Wdgt
1205:Generated_Source\PSoC4/CapSense_1_SensingCSD_LL.c **** 
1206:Generated_Source\PSoC4/CapSense_1_SensingCSD_LL.c ****     /* Save widget and sensor Ids to have access to it after scanning  */
1207:Generated_Source\PSoC4/CapSense_1_SensingCSD_LL.c ****     CapSense_1_sensorIndex = (uint8)sensorId;
1208:Generated_Source\PSoC4/CapSense_1_SensingCSD_LL.c **** 
1209:Generated_Source\PSoC4/CapSense_1_SensingCSD_LL.c ****     /* Update global pointer to CapSense_1_RAM_SNS_STRUCT to current sensor  */
ARM GAS  C:\Users\MICHAE~1.MAC\AppData\Local\Temp\ccJeyeG1.s 			page 25


1210:Generated_Source\PSoC4/CapSense_1_SensingCSD_LL.c ****     CapSense_1_curRamSnsPtr = (CapSense_1_RAM_SNS_STRUCT *)
1211:Generated_Source\PSoC4/CapSense_1_SensingCSD_LL.c ****                                               CapSense_1_dsFlash.wdgtArray[widgetId].ptr2SnsRam
1212:Generated_Source\PSoC4/CapSense_1_SensingCSD_LL.c ****                                               + CapSense_1_sensorIndex;
1213:Generated_Source\PSoC4/CapSense_1_SensingCSD_LL.c **** 
1214:Generated_Source\PSoC4/CapSense_1_SensingCSD_LL.c ****     CapSense_1_CSDSetupWidget(widgetId);
1215:Generated_Source\PSoC4/CapSense_1_SensingCSD_LL.c **** 
1216:Generated_Source\PSoC4/CapSense_1_SensingCSD_LL.c ****      /* Setup Idac Value */
1217:Generated_Source\PSoC4/CapSense_1_SensingCSD_LL.c ****     CapSense_1_SsCSDSetUpIdacs(ptrWdgt);
1218:Generated_Source\PSoC4/CapSense_1_SensingCSD_LL.c **** 
1219:Generated_Source\PSoC4/CapSense_1_SensingCSD_LL.c ****     #if (CapSense_1_ENABLE == CapSense_1_CSD_GANGED_SNS_EN)
1220:Generated_Source\PSoC4/CapSense_1_SensingCSD_LL.c ****         /* initialize access pointers for current pointer to widget configuration in Flash */
1221:Generated_Source\PSoC4/CapSense_1_SensingCSD_LL.c ****         CapSense_1_curFlashWdgtPtr = &CapSense_1_dsFlash.wdgtArray[widgetId];
1222:Generated_Source\PSoC4/CapSense_1_SensingCSD_LL.c ****     #endif /* (CapSense_1_ENABLE == CapSense_1_CSD_GANGED_SNS_EN)  */
1223:Generated_Source\PSoC4/CapSense_1_SensingCSD_LL.c **** 
1224:Generated_Source\PSoC4/CapSense_1_SensingCSD_LL.c ****     #if (CapSense_1_ENABLE == CapSense_1_CSD_GANGED_SNS_EN)
1225:Generated_Source\PSoC4/CapSense_1_SensingCSD_LL.c ****         CapSense_1_SsCSDConnectSensorExt(widgetId, sensorId);
1226:Generated_Source\PSoC4/CapSense_1_SensingCSD_LL.c ****     #else
1227:Generated_Source\PSoC4/CapSense_1_SensingCSD_LL.c ****         /* Enable sensor */
1228:Generated_Source\PSoC4/CapSense_1_SensingCSD_LL.c ****         CapSense_1_curSnsIOPtr += CapSense_1_sensorIndex;
1229:Generated_Source\PSoC4/CapSense_1_SensingCSD_LL.c ****         CapSense_1_CSDConnectSns(CapSense_1_curSnsIOPtr);
1230:Generated_Source\PSoC4/CapSense_1_SensingCSD_LL.c ****     #endif /* (CapSense_1_ENABLE == CapSense_1_CSD_GANGED_SNS_EN)  */
1231:Generated_Source\PSoC4/CapSense_1_SensingCSD_LL.c **** 
1232:Generated_Source\PSoC4/CapSense_1_SensingCSD_LL.c ****     #if (CapSense_1_ENABLE == CapSense_1_CSD_GANGED_SNS_EN)
1233:Generated_Source\PSoC4/CapSense_1_SensingCSD_LL.c ****         /* Save sns pointer */
1234:Generated_Source\PSoC4/CapSense_1_SensingCSD_LL.c ****         CapSense_1_curFlashSnsPtr = (CapSense_1_FLASH_SNS_STRUCT const *)
1235:Generated_Source\PSoC4/CapSense_1_SensingCSD_LL.c ****                                            CapSense_1_dsFlash.wdgtArray[CapSense_1_widgetIndex].ptr
1236:Generated_Source\PSoC4/CapSense_1_SensingCSD_LL.c ****                                            CapSense_1_sensorIndex;
1237:Generated_Source\PSoC4/CapSense_1_SensingCSD_LL.c ****     #endif /* (CapSense_1_ENABLE == CapSense_1_CSD_GANGED_SNS_EN) */
1238:Generated_Source\PSoC4/CapSense_1_SensingCSD_LL.c **** 
1239:Generated_Source\PSoC4/CapSense_1_SensingCSD_LL.c ****     CapSense_1_eleCsdDisconnectFlag = CapSense_1_DISCONNECT_IO_FLAG;
1240:Generated_Source\PSoC4/CapSense_1_SensingCSD_LL.c **** 
1241:Generated_Source\PSoC4/CapSense_1_SensingCSD_LL.c ****     /* Setup ISR handler to single-sensor scan function */
1242:Generated_Source\PSoC4/CapSense_1_SensingCSD_LL.c ****     CapSense_1_ISR_StartEx(&CapSense_1_CSDPostSingleScan);
1243:Generated_Source\PSoC4/CapSense_1_SensingCSD_LL.c **** }
1244:Generated_Source\PSoC4/CapSense_1_SensingCSD_LL.c **** 
1245:Generated_Source\PSoC4/CapSense_1_SensingCSD_LL.c **** /*******************************************************************************
1246:Generated_Source\PSoC4/CapSense_1_SensingCSD_LL.c **** * Function Name: CapSense_1_SsCSDStartSample
1247:Generated_Source\PSoC4/CapSense_1_SensingCSD_LL.c **** ****************************************************************************//**
1248:Generated_Source\PSoC4/CapSense_1_SensingCSD_LL.c **** *
1249:Generated_Source\PSoC4/CapSense_1_SensingCSD_LL.c **** * \brief
1250:Generated_Source\PSoC4/CapSense_1_SensingCSD_LL.c **** *   Starts the CSD conversion.
1251:Generated_Source\PSoC4/CapSense_1_SensingCSD_LL.c **** *
1252:Generated_Source\PSoC4/CapSense_1_SensingCSD_LL.c **** * \details
1253:Generated_Source\PSoC4/CapSense_1_SensingCSD_LL.c **** *   This function assumes that the CSD block is already set up using
1254:Generated_Source\PSoC4/CapSense_1_SensingCSD_LL.c **** *   the CapSense_1_CSDSetupWidget API and the sensor port-pin is connected to the CSD
1255:Generated_Source\PSoC4/CapSense_1_SensingCSD_LL.c **** *   block using CapSense_1_CSDConnectSns.
1256:Generated_Source\PSoC4/CapSense_1_SensingCSD_LL.c **** *   For Third-generation HW block the function performs the following tasks:
1257:Generated_Source\PSoC4/CapSense_1_SensingCSD_LL.c **** *   1. Disconnects the Vref buffer from AMUX;
1258:Generated_Source\PSoC4/CapSense_1_SensingCSD_LL.c **** *   2. Precharges Cmod;
1259:Generated_Source\PSoC4/CapSense_1_SensingCSD_LL.c **** *   3. Makes the PreSettling delay to have a stable Vref voltage;
1260:Generated_Source\PSoC4/CapSense_1_SensingCSD_LL.c **** *   4. Sets the resolution to the Counter register to start scanning.
1261:Generated_Source\PSoC4/CapSense_1_SensingCSD_LL.c **** *
1262:Generated_Source\PSoC4/CapSense_1_SensingCSD_LL.c **** *******************************************************************************/
1263:Generated_Source\PSoC4/CapSense_1_SensingCSD_LL.c **** void CapSense_1_SsCSDStartSample(void)
1264:Generated_Source\PSoC4/CapSense_1_SensingCSD_LL.c **** {
1265:Generated_Source\PSoC4/CapSense_1_SensingCSD_LL.c ****     #if (CapSense_1_ENABLE != CapSense_1_CSDV2)
1266:Generated_Source\PSoC4/CapSense_1_SensingCSD_LL.c ****         uint8 interruptState;
ARM GAS  C:\Users\MICHAE~1.MAC\AppData\Local\Temp\ccJeyeG1.s 			page 26


1267:Generated_Source\PSoC4/CapSense_1_SensingCSD_LL.c ****     #endif
1268:Generated_Source\PSoC4/CapSense_1_SensingCSD_LL.c **** 
1269:Generated_Source\PSoC4/CapSense_1_SensingCSD_LL.c ****     #ifdef CapSense_1_START_SAMPLE_CALLBACK
1270:Generated_Source\PSoC4/CapSense_1_SensingCSD_LL.c ****         CapSense_1_StartSampleCallback(CapSense_1_widgetIndex, CapSense_1_sensorIndex);
1271:Generated_Source\PSoC4/CapSense_1_SensingCSD_LL.c ****     #endif /* CapSense_1_START_SAMPLE_CALLBACK */
1272:Generated_Source\PSoC4/CapSense_1_SensingCSD_LL.c **** 
1273:Generated_Source\PSoC4/CapSense_1_SensingCSD_LL.c ****     #if (CapSense_1_ENABLE == CapSense_1_CSDV2)
1274:Generated_Source\PSoC4/CapSense_1_SensingCSD_LL.c ****         /* Fourth-generation HW block section */
1275:Generated_Source\PSoC4/CapSense_1_SensingCSD_LL.c **** 
1276:Generated_Source\PSoC4/CapSense_1_SensingCSD_LL.c ****         /* Disable CSD interrupt to prevent it during coarse initialization */
1277:Generated_Source\PSoC4/CapSense_1_SensingCSD_LL.c ****         CyIntDisable(CapSense_1_ISR_NUMBER);
1278:Generated_Source\PSoC4/CapSense_1_SensingCSD_LL.c **** 
1279:Generated_Source\PSoC4/CapSense_1_SensingCSD_LL.c ****         /* Enable power to sub-blocks */
1280:Generated_Source\PSoC4/CapSense_1_SensingCSD_LL.c ****         CY_SET_REG32(CapSense_1_HSCMP_PTR, CapSense_1_HSCMP_INIT_MASK);
1281:Generated_Source\PSoC4/CapSense_1_SensingCSD_LL.c **** 
1282:Generated_Source\PSoC4/CapSense_1_SensingCSD_LL.c ****         #if (CapSense_1_ENABLE == CapSense_1_BLOCK_OFF_AFTER_SCAN_EN)
1283:Generated_Source\PSoC4/CapSense_1_SensingCSD_LL.c ****             CY_SET_REG32(CapSense_1_CONFIG_PTR, CapSense_1_configCsd |
1284:Generated_Source\PSoC4/CapSense_1_SensingCSD_LL.c ****                                                       CapSense_1_CONFIG_SENSE_EN_MASK |
1285:Generated_Source\PSoC4/CapSense_1_SensingCSD_LL.c ****                                                       CapSense_1_CONFIG_ENABLE_MASK);
1286:Generated_Source\PSoC4/CapSense_1_SensingCSD_LL.c ****             #if(CapSense_1_CSD_ANALOG_STARTUP_DELAY_US > 0uL)
1287:Generated_Source\PSoC4/CapSense_1_SensingCSD_LL.c ****                 CyDelayUs(CapSense_1_CSD_ANALOG_STARTUP_DELAY_US);
1288:Generated_Source\PSoC4/CapSense_1_SensingCSD_LL.c ****             #endif /* (CapSense_1_CSD_ANALOG_STARTUP_DELAY_US > 0uL) */
1289:Generated_Source\PSoC4/CapSense_1_SensingCSD_LL.c ****         #endif /* (CapSense_1_ENABLE == CapSense_1_BLOCK_OFF_AFTER_SCAN_EN) */
1290:Generated_Source\PSoC4/CapSense_1_SensingCSD_LL.c **** 
1291:Generated_Source\PSoC4/CapSense_1_SensingCSD_LL.c ****         /* Precharging Cmod and Csh */
1292:Generated_Source\PSoC4/CapSense_1_SensingCSD_LL.c ****         CapSense_1_SsCSDCmodPrecharge();
1293:Generated_Source\PSoC4/CapSense_1_SensingCSD_LL.c **** 
1294:Generated_Source\PSoC4/CapSense_1_SensingCSD_LL.c ****         /* Trigger Scan */
1295:Generated_Source\PSoC4/CapSense_1_SensingCSD_LL.c ****         CapSense_1_SsCSDTriggerScan();
1296:Generated_Source\PSoC4/CapSense_1_SensingCSD_LL.c **** 
1297:Generated_Source\PSoC4/CapSense_1_SensingCSD_LL.c ****     #else
1298:Generated_Source\PSoC4/CapSense_1_SensingCSD_LL.c ****         /* Third-generation HW block section */
1299:Generated_Source\PSoC4/CapSense_1_SensingCSD_LL.c ****         interruptState = CyEnterCriticalSection();
1300:Generated_Source\PSoC4/CapSense_1_SensingCSD_LL.c **** 
1301:Generated_Source\PSoC4/CapSense_1_SensingCSD_LL.c ****         /* Enable CSD block. Disconnect Vref Buffer from AMUX */
1302:Generated_Source\PSoC4/CapSense_1_SensingCSD_LL.c ****         #if ((CapSense_1_CSH_PRECHARGE_IO_BUF == CapSense_1_CSD_CSH_PRECHARGE_SRC) &&\
1303:Generated_Source\PSoC4/CapSense_1_SensingCSD_LL.c ****              (CapSense_1_ENABLE == CapSense_1_CSD_SHIELD_TANK_EN))
1304:Generated_Source\PSoC4/CapSense_1_SensingCSD_LL.c ****             CY_SET_REG32(CapSense_1_CONFIG_PTR, CapSense_1_configCsd | CapSense_1_CMOD_PRECHARGE_CO
1305:Generated_Source\PSoC4/CapSense_1_SensingCSD_LL.c ****         #else
1306:Generated_Source\PSoC4/CapSense_1_SensingCSD_LL.c ****             CY_SET_REG32(CapSense_1_CONFIG_PTR, CapSense_1_configCsd | CapSense_1_CTANK_PRECHARGE_C
1307:Generated_Source\PSoC4/CapSense_1_SensingCSD_LL.c ****         #endif /* ((CapSense_1_CSH_PRECHARGE_IO_BUF == CapSense_1_CSD_CSH_PRECHARGE_SRC) &&\
1308:Generated_Source\PSoC4/CapSense_1_SensingCSD_LL.c ****                    (CapSense_1_ENABLE == CapSense_1_CSD_SHIELD_TANK_EN)) */
1309:Generated_Source\PSoC4/CapSense_1_SensingCSD_LL.c **** 
1310:Generated_Source\PSoC4/CapSense_1_SensingCSD_LL.c ****         /* Restart the clocks. Scan one cycle to reset the flip-flop for Direct clock mode */
1311:Generated_Source\PSoC4/CapSense_1_SensingCSD_LL.c ****         CapSense_1_SsCSDClockRestart();
1312:Generated_Source\PSoC4/CapSense_1_SensingCSD_LL.c **** 
1313:Generated_Source\PSoC4/CapSense_1_SensingCSD_LL.c ****         /* Precharging Cmod to Vref */
1314:Generated_Source\PSoC4/CapSense_1_SensingCSD_LL.c ****         CapSense_1_SsCSDCmodPrecharge();
1315:Generated_Source\PSoC4/CapSense_1_SensingCSD_LL.c **** 
1316:Generated_Source\PSoC4/CapSense_1_SensingCSD_LL.c ****         #if (CapSense_1_CLK_SOURCE_DIRECT != CapSense_1_CSD_SNS_CLK_SOURCE)
1317:Generated_Source\PSoC4/CapSense_1_SensingCSD_LL.c ****             /* Set PreSettling delay to skip IDAC glitch before scanning */
1318:Generated_Source\PSoC4/CapSense_1_SensingCSD_LL.c ****             CyDelayCycles(CapSense_1_GLITCH_ELIMINATION_CYCLES);
1319:Generated_Source\PSoC4/CapSense_1_SensingCSD_LL.c ****         #endif /* (CapSense_1_CSD_SNS_CLK_SOURCE != CapSense_1_CLK_SOURCE_DIRECT) */
1320:Generated_Source\PSoC4/CapSense_1_SensingCSD_LL.c **** 
1321:Generated_Source\PSoC4/CapSense_1_SensingCSD_LL.c ****         /* Trigger Scan */
1322:Generated_Source\PSoC4/CapSense_1_SensingCSD_LL.c ****         CapSense_1_SsCSDTriggerScan();
1323:Generated_Source\PSoC4/CapSense_1_SensingCSD_LL.c **** 
ARM GAS  C:\Users\MICHAE~1.MAC\AppData\Local\Temp\ccJeyeG1.s 			page 27


1324:Generated_Source\PSoC4/CapSense_1_SensingCSD_LL.c ****         CyExitCriticalSection(interruptState);
1325:Generated_Source\PSoC4/CapSense_1_SensingCSD_LL.c ****     #endif /* (CapSense_1_ENABLE == CapSense_1_CSDV2) */
1326:Generated_Source\PSoC4/CapSense_1_SensingCSD_LL.c **** }
1327:Generated_Source\PSoC4/CapSense_1_SensingCSD_LL.c **** 
1328:Generated_Source\PSoC4/CapSense_1_SensingCSD_LL.c **** 
1329:Generated_Source\PSoC4/CapSense_1_SensingCSD_LL.c **** /*******************************************************************************
1330:Generated_Source\PSoC4/CapSense_1_SensingCSD_LL.c **** * Function Name: CapSense_1_CSDScanExt
1331:Generated_Source\PSoC4/CapSense_1_SensingCSD_LL.c **** ****************************************************************************//**
1332:Generated_Source\PSoC4/CapSense_1_SensingCSD_LL.c **** *
1333:Generated_Source\PSoC4/CapSense_1_SensingCSD_LL.c **** * \brief
1334:Generated_Source\PSoC4/CapSense_1_SensingCSD_LL.c **** *  Starts the CSD conversion on the preconfigured sensor. This function requires
1335:Generated_Source\PSoC4/CapSense_1_SensingCSD_LL.c **** *  using the CapSense_1_CSDSetupWidgetExt() function to set up the a
1336:Generated_Source\PSoC4/CapSense_1_SensingCSD_LL.c **** *  widget.
1337:Generated_Source\PSoC4/CapSense_1_SensingCSD_LL.c **** *
1338:Generated_Source\PSoC4/CapSense_1_SensingCSD_LL.c **** * \details
1339:Generated_Source\PSoC4/CapSense_1_SensingCSD_LL.c **** *  This function performs single scanning of one sensor in the widget configured
1340:Generated_Source\PSoC4/CapSense_1_SensingCSD_LL.c **** *  by the CapSense_1_CSDSetupWidgetExt() function. It does the following
1341:Generated_Source\PSoC4/CapSense_1_SensingCSD_LL.c **** *  tasks:
1342:Generated_Source\PSoC4/CapSense_1_SensingCSD_LL.c **** *    1. Sets the busy flag in the CapSense_1_dsRam structure.
1343:Generated_Source\PSoC4/CapSense_1_SensingCSD_LL.c **** *    2. Performs the clock-phase alignment of the sense and modulator clocks.
1344:Generated_Source\PSoC4/CapSense_1_SensingCSD_LL.c **** *    3. Performs the Cmod pre-charging.
1345:Generated_Source\PSoC4/CapSense_1_SensingCSD_LL.c **** *    4. Starts single scanning.
1346:Generated_Source\PSoC4/CapSense_1_SensingCSD_LL.c **** *
1347:Generated_Source\PSoC4/CapSense_1_SensingCSD_LL.c **** *  Calling this function directly from the application layer is not
1348:Generated_Source\PSoC4/CapSense_1_SensingCSD_LL.c **** *  recommended. This function is used to implement only the user's specific
1349:Generated_Source\PSoC4/CapSense_1_SensingCSD_LL.c **** *  use cases (for faster execution time or pipeline scanning for example).
1350:Generated_Source\PSoC4/CapSense_1_SensingCSD_LL.c **** *  This function is called when no scanning is in progress. I.e.
1351:Generated_Source\PSoC4/CapSense_1_SensingCSD_LL.c **** *  CapSense_1_IsBusy() returns a non-busy status.
1352:Generated_Source\PSoC4/CapSense_1_SensingCSD_LL.c **** *
1353:Generated_Source\PSoC4/CapSense_1_SensingCSD_LL.c **** *  The sensor must be preconfigured by using the
1354:Generated_Source\PSoC4/CapSense_1_SensingCSD_LL.c **** *  CapSense_1_CSDSetupWidgetExt() API prior to calling this function.
1355:Generated_Source\PSoC4/CapSense_1_SensingCSD_LL.c **** *  The sensor remains ready for a next scan if a previous scan was triggered
1356:Generated_Source\PSoC4/CapSense_1_SensingCSD_LL.c **** *  by using the CapSense_1_CSDScanExt() function. In this case, calling
1357:Generated_Source\PSoC4/CapSense_1_SensingCSD_LL.c **** *  CapSense_1_CSDSetupWidgetExt() is not required every time before the
1358:Generated_Source\PSoC4/CapSense_1_SensingCSD_LL.c **** *  CapSense_1_CSDScanExt() function. If a previous scan was triggered in
1359:Generated_Source\PSoC4/CapSense_1_SensingCSD_LL.c **** *  any other way - CapSense_1_Scan(), CapSense_1_ScanAllWidgets() or
1360:Generated_Source\PSoC4/CapSense_1_SensingCSD_LL.c **** *  CapSense_1_RunTuner() - (see the CapSense_1_RunTuner() function
1361:Generated_Source\PSoC4/CapSense_1_SensingCSD_LL.c **** *  description for more details), the sensor must be preconfigured again by
1362:Generated_Source\PSoC4/CapSense_1_SensingCSD_LL.c **** *  using the CapSense_1_CSDSetupWidgetExt() API prior to calling the
1363:Generated_Source\PSoC4/CapSense_1_SensingCSD_LL.c **** *  CapSense_1_CSDScanExt() function.
1364:Generated_Source\PSoC4/CapSense_1_SensingCSD_LL.c **** *
1365:Generated_Source\PSoC4/CapSense_1_SensingCSD_LL.c **** *  If disconnection of the sensors is required after calling
1366:Generated_Source\PSoC4/CapSense_1_SensingCSD_LL.c **** *  CapSense_1_CSDScanExt(), the CapSense_1_CSDDisconnectSns()
1367:Generated_Source\PSoC4/CapSense_1_SensingCSD_LL.c **** *  function can be used.
1368:Generated_Source\PSoC4/CapSense_1_SensingCSD_LL.c **** *
1369:Generated_Source\PSoC4/CapSense_1_SensingCSD_LL.c **** *******************************************************************************/
1370:Generated_Source\PSoC4/CapSense_1_SensingCSD_LL.c **** void CapSense_1_CSDScanExt(void)
1371:Generated_Source\PSoC4/CapSense_1_SensingCSD_LL.c **** {
1372:Generated_Source\PSoC4/CapSense_1_SensingCSD_LL.c ****     /* Set Start of sensor scan flag */
1373:Generated_Source\PSoC4/CapSense_1_SensingCSD_LL.c ****     CapSense_1_dsRam.status |= (CapSense_1_SW_STS_BUSY | CapSense_1_WDGT_SW_STS_BUSY);
1374:Generated_Source\PSoC4/CapSense_1_SensingCSD_LL.c **** 
1375:Generated_Source\PSoC4/CapSense_1_SensingCSD_LL.c ****     #if (CapSense_1_ENABLE == CapSense_1_MULTI_FREQ_SCAN_EN)
1376:Generated_Source\PSoC4/CapSense_1_SensingCSD_LL.c ****         /* Reset the frequency scan channel if enabled */
1377:Generated_Source\PSoC4/CapSense_1_SensingCSD_LL.c ****         CapSense_1_scanFreqIndex = CapSense_1_FREQ_CHANNEL_0;
1378:Generated_Source\PSoC4/CapSense_1_SensingCSD_LL.c ****     #endif /* (CapSense_1_ENABLE == CapSense_1_MULTI_FREQ_SCAN_EN) */
1379:Generated_Source\PSoC4/CapSense_1_SensingCSD_LL.c **** 
1380:Generated_Source\PSoC4/CapSense_1_SensingCSD_LL.c ****     #if (CapSense_1_ENABLE != CapSense_1_BLOCK_OFF_AFTER_SCAN_EN) &&\
ARM GAS  C:\Users\MICHAE~1.MAC\AppData\Local\Temp\ccJeyeG1.s 			page 28


1381:Generated_Source\PSoC4/CapSense_1_SensingCSD_LL.c ****         (CapSense_1_ENABLE == CapSense_1_CSDV2)
1382:Generated_Source\PSoC4/CapSense_1_SensingCSD_LL.c ****         #if(CapSense_1_CSD_ANALOG_STARTUP_DELAY_US > 0uL)
1383:Generated_Source\PSoC4/CapSense_1_SensingCSD_LL.c ****             CyDelayUs(CapSense_1_CSD_ANALOG_STARTUP_DELAY_US);
1384:Generated_Source\PSoC4/CapSense_1_SensingCSD_LL.c ****         #endif /* (CapSense_1_CSD_ANALOG_STARTUP_DELAY_US > 0uL) */
1385:Generated_Source\PSoC4/CapSense_1_SensingCSD_LL.c ****     #endif /* (CapSense_1_ENABLE != CapSense_1_BLOCK_OFF_AFTER_SCAN_EN) &&\
1386:Generated_Source\PSoC4/CapSense_1_SensingCSD_LL.c ****               (CapSense_1_ENABLE == CapSense_1_CSDV2)*/
1387:Generated_Source\PSoC4/CapSense_1_SensingCSD_LL.c **** 
1388:Generated_Source\PSoC4/CapSense_1_SensingCSD_LL.c ****     CapSense_1_SsCSDStartSample();
1389:Generated_Source\PSoC4/CapSense_1_SensingCSD_LL.c **** }
1390:Generated_Source\PSoC4/CapSense_1_SensingCSD_LL.c **** 
1391:Generated_Source\PSoC4/CapSense_1_SensingCSD_LL.c **** 
1392:Generated_Source\PSoC4/CapSense_1_SensingCSD_LL.c **** /*******************************************************************************
1393:Generated_Source\PSoC4/CapSense_1_SensingCSD_LL.c **** * Function Name: CapSense_1_CSDScan
1394:Generated_Source\PSoC4/CapSense_1_SensingCSD_LL.c **** ****************************************************************************//**
1395:Generated_Source\PSoC4/CapSense_1_SensingCSD_LL.c **** *
1396:Generated_Source\PSoC4/CapSense_1_SensingCSD_LL.c **** * \brief
1397:Generated_Source\PSoC4/CapSense_1_SensingCSD_LL.c **** *  This function initiates a scan for the sensors of the widget initialized by the
1398:Generated_Source\PSoC4/CapSense_1_SensingCSD_LL.c **** *  CapSense_1_CSDSetupWidget() function.
1399:Generated_Source\PSoC4/CapSense_1_SensingCSD_LL.c **** *
1400:Generated_Source\PSoC4/CapSense_1_SensingCSD_LL.c **** * \details
1401:Generated_Source\PSoC4/CapSense_1_SensingCSD_LL.c **** *  This function performs scanning of all the sensors in the widget configured by
1402:Generated_Source\PSoC4/CapSense_1_SensingCSD_LL.c **** *  the CapSense_1_CSDSetupWidget() function. It does the following tasks:
1403:Generated_Source\PSoC4/CapSense_1_SensingCSD_LL.c **** *    1. Connects the first sensor of the widget.
1404:Generated_Source\PSoC4/CapSense_1_SensingCSD_LL.c **** *    2. Configures the IDAC value.
1405:Generated_Source\PSoC4/CapSense_1_SensingCSD_LL.c **** *    3. Initializes the interrupt callback function to initialize a scan of
1406:Generated_Source\PSoC4/CapSense_1_SensingCSD_LL.c **** *       the next sensors in a widget.
1407:Generated_Source\PSoC4/CapSense_1_SensingCSD_LL.c **** *    4. Starts scanning for the first sensor in the widget.
1408:Generated_Source\PSoC4/CapSense_1_SensingCSD_LL.c **** *
1409:Generated_Source\PSoC4/CapSense_1_SensingCSD_LL.c **** *  This function is called by the CapSense_1_Scan() API if the given
1410:Generated_Source\PSoC4/CapSense_1_SensingCSD_LL.c **** *  widget uses the CSD sensing method.
1411:Generated_Source\PSoC4/CapSense_1_SensingCSD_LL.c **** *
1412:Generated_Source\PSoC4/CapSense_1_SensingCSD_LL.c **** *  Calling this function directly from the application layer is not
1413:Generated_Source\PSoC4/CapSense_1_SensingCSD_LL.c **** *  recommended. This function is used to implement only the user's specific
1414:Generated_Source\PSoC4/CapSense_1_SensingCSD_LL.c **** *  use cases (for faster execution time or pipeline scanning for example).
1415:Generated_Source\PSoC4/CapSense_1_SensingCSD_LL.c **** *
1416:Generated_Source\PSoC4/CapSense_1_SensingCSD_LL.c **** *  This function is called when no scanning is in progress. I.e.
1417:Generated_Source\PSoC4/CapSense_1_SensingCSD_LL.c **** *  CapSense_1_IsBusy() returns a non-busy status. The widget must be
1418:Generated_Source\PSoC4/CapSense_1_SensingCSD_LL.c **** *  preconfigured by the CapSense_1_CSDSetupWidget() function if any other
1419:Generated_Source\PSoC4/CapSense_1_SensingCSD_LL.c **** *  widget was previously scanned or any other type of the scan functions was used.
1420:Generated_Source\PSoC4/CapSense_1_SensingCSD_LL.c **** *
1421:Generated_Source\PSoC4/CapSense_1_SensingCSD_LL.c **** *******************************************************************************/
1422:Generated_Source\PSoC4/CapSense_1_SensingCSD_LL.c **** void CapSense_1_CSDScan(void)
1423:Generated_Source\PSoC4/CapSense_1_SensingCSD_LL.c **** {
1424:Generated_Source\PSoC4/CapSense_1_SensingCSD_LL.c ****     CapSense_1_RAM_WD_BASE_STRUCT const *ptrWdgt = (CapSense_1_RAM_WD_BASE_STRUCT *)
1425:Generated_Source\PSoC4/CapSense_1_SensingCSD_LL.c ****                                                     CapSense_1_dsFlash.wdgtArray[CapSense_1_widgetI
1426:Generated_Source\PSoC4/CapSense_1_SensingCSD_LL.c **** 
1427:Generated_Source\PSoC4/CapSense_1_SensingCSD_LL.c ****      /*
1428:Generated_Source\PSoC4/CapSense_1_SensingCSD_LL.c ****       * Update CapSense_1_sensorIndex with the first sensor in
1429:Generated_Source\PSoC4/CapSense_1_SensingCSD_LL.c ****       * widget to use it in ISR handler to configure the next sensor
1430:Generated_Source\PSoC4/CapSense_1_SensingCSD_LL.c ****       */
1431:Generated_Source\PSoC4/CapSense_1_SensingCSD_LL.c ****     CapSense_1_sensorIndex = 0u;
1432:Generated_Source\PSoC4/CapSense_1_SensingCSD_LL.c **** 
1433:Generated_Source\PSoC4/CapSense_1_SensingCSD_LL.c ****     /* Update global pointer to CapSense_1_RAM_SNS_STRUCT to current sensor  */
1434:Generated_Source\PSoC4/CapSense_1_SensingCSD_LL.c ****     CapSense_1_curRamSnsPtr = (CapSense_1_RAM_SNS_STRUCT *)
1435:Generated_Source\PSoC4/CapSense_1_SensingCSD_LL.c ****                                               CapSense_1_dsFlash.wdgtArray[CapSense_1_widgetIndex].
1436:Generated_Source\PSoC4/CapSense_1_SensingCSD_LL.c ****                                               + CapSense_1_sensorIndex;
1437:Generated_Source\PSoC4/CapSense_1_SensingCSD_LL.c **** 
ARM GAS  C:\Users\MICHAE~1.MAC\AppData\Local\Temp\ccJeyeG1.s 			page 29


1438:Generated_Source\PSoC4/CapSense_1_SensingCSD_LL.c ****     #if (CapSense_1_ENABLE == CapSense_1_MULTI_FREQ_SCAN_EN)
1439:Generated_Source\PSoC4/CapSense_1_SensingCSD_LL.c ****         /* Reset the frequency scan channel if enabled */
1440:Generated_Source\PSoC4/CapSense_1_SensingCSD_LL.c ****         CapSense_1_scanFreqIndex = CapSense_1_FREQ_CHANNEL_0;
1441:Generated_Source\PSoC4/CapSense_1_SensingCSD_LL.c ****     #endif /* (CapSense_1_ENABLE == CapSense_1_MULTI_FREQ_SCAN_EN) */
1442:Generated_Source\PSoC4/CapSense_1_SensingCSD_LL.c **** 
1443:Generated_Source\PSoC4/CapSense_1_SensingCSD_LL.c ****     /* Setup Idac Value */
1444:Generated_Source\PSoC4/CapSense_1_SensingCSD_LL.c ****    CapSense_1_SsCSDSetUpIdacs(ptrWdgt);
1445:Generated_Source\PSoC4/CapSense_1_SensingCSD_LL.c **** 
1446:Generated_Source\PSoC4/CapSense_1_SensingCSD_LL.c ****     #if (CapSense_1_ENABLE == CapSense_1_CSD_GANGED_SNS_EN)
1447:Generated_Source\PSoC4/CapSense_1_SensingCSD_LL.c ****         /* Check ganged sns flag  */
1448:Generated_Source\PSoC4/CapSense_1_SensingCSD_LL.c ****         if (CapSense_1_GANGED_SNS_MASK == (CapSense_1_dsFlash.wdgtArray[CapSense_1_widgetIndex].sta
1449:Generated_Source\PSoC4/CapSense_1_SensingCSD_LL.c ****             CapSense_1_GANGED_SNS_MASK))
1450:Generated_Source\PSoC4/CapSense_1_SensingCSD_LL.c ****         {
1451:Generated_Source\PSoC4/CapSense_1_SensingCSD_LL.c ****             /* Setup ISR handler to multiple-sensor scan function with ganged sensors */
1452:Generated_Source\PSoC4/CapSense_1_SensingCSD_LL.c ****             CapSense_1_ISR_StartEx(&CapSense_1_CSDPostMultiScanGanged);
1453:Generated_Source\PSoC4/CapSense_1_SensingCSD_LL.c ****         }
1454:Generated_Source\PSoC4/CapSense_1_SensingCSD_LL.c ****         else
1455:Generated_Source\PSoC4/CapSense_1_SensingCSD_LL.c ****         {
1456:Generated_Source\PSoC4/CapSense_1_SensingCSD_LL.c ****             /* Set up ISR handler to multiple-sensor scan function without ganged sensors */
1457:Generated_Source\PSoC4/CapSense_1_SensingCSD_LL.c ****             CapSense_1_ISR_StartEx(&CapSense_1_CSDPostMultiScan);
1458:Generated_Source\PSoC4/CapSense_1_SensingCSD_LL.c ****         }
1459:Generated_Source\PSoC4/CapSense_1_SensingCSD_LL.c **** 
1460:Generated_Source\PSoC4/CapSense_1_SensingCSD_LL.c ****         CapSense_1_SsCSDConnectSensorExt((uint32)CapSense_1_widgetIndex, (uint32)CapSense_1_sensorI
1461:Generated_Source\PSoC4/CapSense_1_SensingCSD_LL.c ****     #else
1462:Generated_Source\PSoC4/CapSense_1_SensingCSD_LL.c ****         /* initialize ptr to sensor IO structure to appropriate address */
1463:Generated_Source\PSoC4/CapSense_1_SensingCSD_LL.c ****         CapSense_1_curSnsIOPtr = (CapSense_1_FLASH_IO_STRUCT const *)
1464:Generated_Source\PSoC4/CapSense_1_SensingCSD_LL.c ****                                         CapSense_1_dsFlash.wdgtArray[CapSense_1_widgetIndex].ptr2Sn
1465:Generated_Source\PSoC4/CapSense_1_SensingCSD_LL.c ****                                         + CapSense_1_sensorIndex;
1466:Generated_Source\PSoC4/CapSense_1_SensingCSD_LL.c **** 
1467:Generated_Source\PSoC4/CapSense_1_SensingCSD_LL.c ****         /* Enable sensor */
1468:Generated_Source\PSoC4/CapSense_1_SensingCSD_LL.c ****         CapSense_1_CSDConnectSns(CapSense_1_curSnsIOPtr);
1469:Generated_Source\PSoC4/CapSense_1_SensingCSD_LL.c **** 
1470:Generated_Source\PSoC4/CapSense_1_SensingCSD_LL.c ****         /* Set-up ISR handler to multiple-sensor scan function without ganged sensors */
1471:Generated_Source\PSoC4/CapSense_1_SensingCSD_LL.c ****         CapSense_1_ISR_StartEx(&CapSense_1_CSDPostMultiScan);
1472:Generated_Source\PSoC4/CapSense_1_SensingCSD_LL.c ****     #endif /* (CapSense_1_ENABLE == CapSense_1_CSD_GANGED_SNS_EN)  */
1473:Generated_Source\PSoC4/CapSense_1_SensingCSD_LL.c **** 
1474:Generated_Source\PSoC4/CapSense_1_SensingCSD_LL.c ****     /* Start scanning */
1475:Generated_Source\PSoC4/CapSense_1_SensingCSD_LL.c ****     CapSense_1_CSDScanExt();
1476:Generated_Source\PSoC4/CapSense_1_SensingCSD_LL.c **** }
1477:Generated_Source\PSoC4/CapSense_1_SensingCSD_LL.c **** 
1478:Generated_Source\PSoC4/CapSense_1_SensingCSD_LL.c **** 
1479:Generated_Source\PSoC4/CapSense_1_SensingCSD_LL.c **** /*******************************************************************************
1480:Generated_Source\PSoC4/CapSense_1_SensingCSD_LL.c **** * Function Name: CapSense_1_SsCSDConnectSensorExt
1481:Generated_Source\PSoC4/CapSense_1_SensingCSD_LL.c **** ****************************************************************************//**
1482:Generated_Source\PSoC4/CapSense_1_SensingCSD_LL.c **** *
1483:Generated_Source\PSoC4/CapSense_1_SensingCSD_LL.c **** * \brief
1484:Generated_Source\PSoC4/CapSense_1_SensingCSD_LL.c **** *  Connects a ganged sensor port-pin to the sensing HW block via the AMUX bus.
1485:Generated_Source\PSoC4/CapSense_1_SensingCSD_LL.c **** *
1486:Generated_Source\PSoC4/CapSense_1_SensingCSD_LL.c **** * \details
1487:Generated_Source\PSoC4/CapSense_1_SensingCSD_LL.c **** *   The function gets the IO configuration registers addresses, their shifts and
1488:Generated_Source\PSoC4/CapSense_1_SensingCSD_LL.c **** *   masks from the FLASH_IO_STRUCT object. Basing on this data, it updates the HSIOM and
1489:Generated_Source\PSoC4/CapSense_1_SensingCSD_LL.c **** *   PC registers.
1490:Generated_Source\PSoC4/CapSense_1_SensingCSD_LL.c **** *
1491:Generated_Source\PSoC4/CapSense_1_SensingCSD_LL.c **** * \param widgetId
1492:Generated_Source\PSoC4/CapSense_1_SensingCSD_LL.c **** *  Specifies ID of the widget.
1493:Generated_Source\PSoC4/CapSense_1_SensingCSD_LL.c **** *
1494:Generated_Source\PSoC4/CapSense_1_SensingCSD_LL.c **** * \param sensorId
ARM GAS  C:\Users\MICHAE~1.MAC\AppData\Local\Temp\ccJeyeG1.s 			page 30


1495:Generated_Source\PSoC4/CapSense_1_SensingCSD_LL.c **** *  Specifies ID of the sensor in the widget.
1496:Generated_Source\PSoC4/CapSense_1_SensingCSD_LL.c **** *
1497:Generated_Source\PSoC4/CapSense_1_SensingCSD_LL.c **** *******************************************************************************/
1498:Generated_Source\PSoC4/CapSense_1_SensingCSD_LL.c **** void CapSense_1_SsCSDConnectSensorExt(uint32 widgetId, uint32 sensorId)
1499:Generated_Source\PSoC4/CapSense_1_SensingCSD_LL.c **** {
1500:Generated_Source\PSoC4/CapSense_1_SensingCSD_LL.c ****     #if (CapSense_1_ENABLE == CapSense_1_CSD_GANGED_SNS_EN)
1501:Generated_Source\PSoC4/CapSense_1_SensingCSD_LL.c ****         uint32 tempVal;
1502:Generated_Source\PSoC4/CapSense_1_SensingCSD_LL.c ****     #endif /* (CapSense_1_ENABLE == CapSense_1_CSD_GANGED_SNS_EN) */
1503:Generated_Source\PSoC4/CapSense_1_SensingCSD_LL.c **** 
1504:Generated_Source\PSoC4/CapSense_1_SensingCSD_LL.c ****     /* initialize ptr to sensor IO structure to appropriate address */
1505:Generated_Source\PSoC4/CapSense_1_SensingCSD_LL.c ****     CapSense_1_curSnsIOPtr = (CapSense_1_FLASH_IO_STRUCT const *)
1506:Generated_Source\PSoC4/CapSense_1_SensingCSD_LL.c ****                                                       CapSense_1_dsFlash.wdgtArray[widgetId].ptr2Sn
1507:Generated_Source\PSoC4/CapSense_1_SensingCSD_LL.c ****                                                       + sensorId;
1508:Generated_Source\PSoC4/CapSense_1_SensingCSD_LL.c **** 
1509:Generated_Source\PSoC4/CapSense_1_SensingCSD_LL.c ****     #if (CapSense_1_ENABLE == CapSense_1_CSD_GANGED_SNS_EN)
1510:Generated_Source\PSoC4/CapSense_1_SensingCSD_LL.c ****         /* Check ganged sns flag  */
1511:Generated_Source\PSoC4/CapSense_1_SensingCSD_LL.c ****         if (CapSense_1_GANGED_SNS_MASK ==
1512:Generated_Source\PSoC4/CapSense_1_SensingCSD_LL.c ****            (CapSense_1_dsFlash.wdgtArray[widgetId].staticConfig &
1513:Generated_Source\PSoC4/CapSense_1_SensingCSD_LL.c ****             CapSense_1_GANGED_SNS_MASK))
1514:Generated_Source\PSoC4/CapSense_1_SensingCSD_LL.c ****         {
1515:Generated_Source\PSoC4/CapSense_1_SensingCSD_LL.c ****             /* Get sns pointer */
1516:Generated_Source\PSoC4/CapSense_1_SensingCSD_LL.c ****             CapSense_1_curFlashSnsPtr = (CapSense_1_FLASH_SNS_STRUCT const *)
1517:Generated_Source\PSoC4/CapSense_1_SensingCSD_LL.c ****                                                CapSense_1_dsFlash.wdgtArray[widgetId].ptr2SnsFlash 
1518:Generated_Source\PSoC4/CapSense_1_SensingCSD_LL.c ****                                                sensorId;
1519:Generated_Source\PSoC4/CapSense_1_SensingCSD_LL.c **** 
1520:Generated_Source\PSoC4/CapSense_1_SensingCSD_LL.c ****             /* Get number of ganged pins */
1521:Generated_Source\PSoC4/CapSense_1_SensingCSD_LL.c ****             tempVal = CapSense_1_curFlashSnsPtr->numPins;
1522:Generated_Source\PSoC4/CapSense_1_SensingCSD_LL.c **** 
1523:Generated_Source\PSoC4/CapSense_1_SensingCSD_LL.c ****             /* Get IO pointer  */
1524:Generated_Source\PSoC4/CapSense_1_SensingCSD_LL.c ****             CapSense_1_curSnsIOPtr = &CapSense_1_ioList[CapSense_1_curFlashSnsPtr->firstPinId];
1525:Generated_Source\PSoC4/CapSense_1_SensingCSD_LL.c **** 
1526:Generated_Source\PSoC4/CapSense_1_SensingCSD_LL.c ****             /* Connect all ganged sensors  */
1527:Generated_Source\PSoC4/CapSense_1_SensingCSD_LL.c ****             do
1528:Generated_Source\PSoC4/CapSense_1_SensingCSD_LL.c ****             {
1529:Generated_Source\PSoC4/CapSense_1_SensingCSD_LL.c ****                 CapSense_1_CSDConnectSns(CapSense_1_curSnsIOPtr);
1530:Generated_Source\PSoC4/CapSense_1_SensingCSD_LL.c ****                 CapSense_1_curSnsIOPtr++;
1531:Generated_Source\PSoC4/CapSense_1_SensingCSD_LL.c ****                 tempVal--;
1532:Generated_Source\PSoC4/CapSense_1_SensingCSD_LL.c ****             } while (0u != tempVal);
1533:Generated_Source\PSoC4/CapSense_1_SensingCSD_LL.c ****         }
1534:Generated_Source\PSoC4/CapSense_1_SensingCSD_LL.c ****         else
1535:Generated_Source\PSoC4/CapSense_1_SensingCSD_LL.c ****         {
1536:Generated_Source\PSoC4/CapSense_1_SensingCSD_LL.c ****             /* Connect sensor */
1537:Generated_Source\PSoC4/CapSense_1_SensingCSD_LL.c ****             CapSense_1_CSDConnectSns(CapSense_1_curSnsIOPtr);
1538:Generated_Source\PSoC4/CapSense_1_SensingCSD_LL.c ****         }
1539:Generated_Source\PSoC4/CapSense_1_SensingCSD_LL.c ****     #else
1540:Generated_Source\PSoC4/CapSense_1_SensingCSD_LL.c ****         /* Connect sensor */
1541:Generated_Source\PSoC4/CapSense_1_SensingCSD_LL.c ****         CapSense_1_CSDConnectSns(CapSense_1_curSnsIOPtr);
1542:Generated_Source\PSoC4/CapSense_1_SensingCSD_LL.c ****     #endif /* (CapSense_1_ENABLE == CapSense_1_CSD_GANGED_SNS_EN) */
1543:Generated_Source\PSoC4/CapSense_1_SensingCSD_LL.c **** }
1544:Generated_Source\PSoC4/CapSense_1_SensingCSD_LL.c **** 
1545:Generated_Source\PSoC4/CapSense_1_SensingCSD_LL.c **** 
1546:Generated_Source\PSoC4/CapSense_1_SensingCSD_LL.c **** /*******************************************************************************
1547:Generated_Source\PSoC4/CapSense_1_SensingCSD_LL.c **** * Function Name: CapSense_1_SsCSDDisconnectSnsExt
1548:Generated_Source\PSoC4/CapSense_1_SensingCSD_LL.c **** ****************************************************************************//**
1549:Generated_Source\PSoC4/CapSense_1_SensingCSD_LL.c **** *
1550:Generated_Source\PSoC4/CapSense_1_SensingCSD_LL.c **** * \brief
1551:Generated_Source\PSoC4/CapSense_1_SensingCSD_LL.c **** *  Disconnects a ganged sensor port-pin from the sensing HW block and AMUX bus.
ARM GAS  C:\Users\MICHAE~1.MAC\AppData\Local\Temp\ccJeyeG1.s 			page 31


1552:Generated_Source\PSoC4/CapSense_1_SensingCSD_LL.c **** *  Sets the default state of the un-scanned sensor.
1553:Generated_Source\PSoC4/CapSense_1_SensingCSD_LL.c **** *
1554:Generated_Source\PSoC4/CapSense_1_SensingCSD_LL.c **** * \details
1555:Generated_Source\PSoC4/CapSense_1_SensingCSD_LL.c **** *   The function gets the IO configuration registers addresses, their shifts and
1556:Generated_Source\PSoC4/CapSense_1_SensingCSD_LL.c **** *   masks from the FLASH_IO_STRUCT object. Basing on this data and Inactive sensor
1557:Generated_Source\PSoC4/CapSense_1_SensingCSD_LL.c **** *   connection parameter, it updates the HSIOM, PC and DR registers.
1558:Generated_Source\PSoC4/CapSense_1_SensingCSD_LL.c **** *   The HSIOM register is updated only when the Inactive sensor connection parameter
1559:Generated_Source\PSoC4/CapSense_1_SensingCSD_LL.c **** *   is set to Shield.
1560:Generated_Source\PSoC4/CapSense_1_SensingCSD_LL.c **** *
1561:Generated_Source\PSoC4/CapSense_1_SensingCSD_LL.c **** * \param widgetId
1562:Generated_Source\PSoC4/CapSense_1_SensingCSD_LL.c **** *  Specifies ID of the widget.
1563:Generated_Source\PSoC4/CapSense_1_SensingCSD_LL.c **** *
1564:Generated_Source\PSoC4/CapSense_1_SensingCSD_LL.c **** * \param sensorId
1565:Generated_Source\PSoC4/CapSense_1_SensingCSD_LL.c **** *  Specifies ID of the sensor in the widget.
1566:Generated_Source\PSoC4/CapSense_1_SensingCSD_LL.c **** *
1567:Generated_Source\PSoC4/CapSense_1_SensingCSD_LL.c **** *******************************************************************************/
1568:Generated_Source\PSoC4/CapSense_1_SensingCSD_LL.c **** void CapSense_1_SsCSDDisconnectSnsExt(uint32 widgetId, uint32 sensorId)
1569:Generated_Source\PSoC4/CapSense_1_SensingCSD_LL.c **** {
1570:Generated_Source\PSoC4/CapSense_1_SensingCSD_LL.c ****     #if (CapSense_1_ENABLE == CapSense_1_CSD_GANGED_SNS_EN)
1571:Generated_Source\PSoC4/CapSense_1_SensingCSD_LL.c ****         uint32 tempVal;
1572:Generated_Source\PSoC4/CapSense_1_SensingCSD_LL.c ****     #endif /* (CapSense_1_ENABLE == CapSense_1_CSD_GANGED_SNS_EN) */
1573:Generated_Source\PSoC4/CapSense_1_SensingCSD_LL.c **** 
1574:Generated_Source\PSoC4/CapSense_1_SensingCSD_LL.c ****     /* initialize ptr to sensor IO structure to appropriate address        */
1575:Generated_Source\PSoC4/CapSense_1_SensingCSD_LL.c ****     CapSense_1_curSnsIOPtr = (CapSense_1_FLASH_IO_STRUCT const *)
1576:Generated_Source\PSoC4/CapSense_1_SensingCSD_LL.c ****                                                       CapSense_1_dsFlash.wdgtArray[widgetId].ptr2Sn
1577:Generated_Source\PSoC4/CapSense_1_SensingCSD_LL.c ****                                                       + sensorId;
1578:Generated_Source\PSoC4/CapSense_1_SensingCSD_LL.c **** 
1579:Generated_Source\PSoC4/CapSense_1_SensingCSD_LL.c ****     #if (CapSense_1_ENABLE == CapSense_1_CSD_GANGED_SNS_EN)
1580:Generated_Source\PSoC4/CapSense_1_SensingCSD_LL.c ****         /* Check ganged sns flag  */
1581:Generated_Source\PSoC4/CapSense_1_SensingCSD_LL.c ****         if ((CapSense_1_dsFlash.wdgtArray[widgetId].staticConfig &
1582:Generated_Source\PSoC4/CapSense_1_SensingCSD_LL.c ****             CapSense_1_GANGED_SNS_MASK) == CapSense_1_GANGED_SNS_MASK)
1583:Generated_Source\PSoC4/CapSense_1_SensingCSD_LL.c ****         {
1584:Generated_Source\PSoC4/CapSense_1_SensingCSD_LL.c ****             /* Get sns pointer */
1585:Generated_Source\PSoC4/CapSense_1_SensingCSD_LL.c ****             CapSense_1_curFlashSnsPtr = (CapSense_1_FLASH_SNS_STRUCT const *)
1586:Generated_Source\PSoC4/CapSense_1_SensingCSD_LL.c ****                                                CapSense_1_dsFlash.wdgtArray[widgetId].ptr2SnsFlash 
1587:Generated_Source\PSoC4/CapSense_1_SensingCSD_LL.c ****                                                sensorId;
1588:Generated_Source\PSoC4/CapSense_1_SensingCSD_LL.c **** 
1589:Generated_Source\PSoC4/CapSense_1_SensingCSD_LL.c ****             /* Get number of ganged pins */
1590:Generated_Source\PSoC4/CapSense_1_SensingCSD_LL.c ****             tempVal = CapSense_1_curFlashSnsPtr->numPins;
1591:Generated_Source\PSoC4/CapSense_1_SensingCSD_LL.c **** 
1592:Generated_Source\PSoC4/CapSense_1_SensingCSD_LL.c ****             /* Get IO pointer  */
1593:Generated_Source\PSoC4/CapSense_1_SensingCSD_LL.c ****             CapSense_1_curSnsIOPtr = &CapSense_1_ioList[CapSense_1_curFlashSnsPtr->firstPinId];
1594:Generated_Source\PSoC4/CapSense_1_SensingCSD_LL.c **** 
1595:Generated_Source\PSoC4/CapSense_1_SensingCSD_LL.c ****             /* Disconnect all ganged sensors */
1596:Generated_Source\PSoC4/CapSense_1_SensingCSD_LL.c ****             do
1597:Generated_Source\PSoC4/CapSense_1_SensingCSD_LL.c ****             {
1598:Generated_Source\PSoC4/CapSense_1_SensingCSD_LL.c ****                 CapSense_1_CSDDisconnectSns(CapSense_1_curSnsIOPtr);
1599:Generated_Source\PSoC4/CapSense_1_SensingCSD_LL.c ****                 CapSense_1_curSnsIOPtr++;
1600:Generated_Source\PSoC4/CapSense_1_SensingCSD_LL.c ****                 tempVal--;
1601:Generated_Source\PSoC4/CapSense_1_SensingCSD_LL.c ****             } while (0u != tempVal);
1602:Generated_Source\PSoC4/CapSense_1_SensingCSD_LL.c ****         }
1603:Generated_Source\PSoC4/CapSense_1_SensingCSD_LL.c ****         else
1604:Generated_Source\PSoC4/CapSense_1_SensingCSD_LL.c ****         {
1605:Generated_Source\PSoC4/CapSense_1_SensingCSD_LL.c ****             /* Disconnect ganged sensor */
1606:Generated_Source\PSoC4/CapSense_1_SensingCSD_LL.c ****             CapSense_1_CSDDisconnectSns(CapSense_1_curSnsIOPtr);
1607:Generated_Source\PSoC4/CapSense_1_SensingCSD_LL.c ****         }
1608:Generated_Source\PSoC4/CapSense_1_SensingCSD_LL.c ****     #else
ARM GAS  C:\Users\MICHAE~1.MAC\AppData\Local\Temp\ccJeyeG1.s 			page 32


1609:Generated_Source\PSoC4/CapSense_1_SensingCSD_LL.c ****         /* Disconnect ganged sensor */
1610:Generated_Source\PSoC4/CapSense_1_SensingCSD_LL.c ****         CapSense_1_CSDDisconnectSns(CapSense_1_curSnsIOPtr);
1611:Generated_Source\PSoC4/CapSense_1_SensingCSD_LL.c ****     #endif /* (CapSense_1_ENABLE == CapSense_1_CSD_GANGED_SNS_EN) */
1612:Generated_Source\PSoC4/CapSense_1_SensingCSD_LL.c **** }
1613:Generated_Source\PSoC4/CapSense_1_SensingCSD_LL.c **** 
1614:Generated_Source\PSoC4/CapSense_1_SensingCSD_LL.c **** 
1615:Generated_Source\PSoC4/CapSense_1_SensingCSD_LL.c **** /*******************************************************************************
1616:Generated_Source\PSoC4/CapSense_1_SensingCSD_LL.c **** * Function Name: CapSense_1_CSDConnectSns
1617:Generated_Source\PSoC4/CapSense_1_SensingCSD_LL.c **** ****************************************************************************//**
1618:Generated_Source\PSoC4/CapSense_1_SensingCSD_LL.c **** *
1619:Generated_Source\PSoC4/CapSense_1_SensingCSD_LL.c **** * \brief
1620:Generated_Source\PSoC4/CapSense_1_SensingCSD_LL.c **** *  Connects a port pin used by the sensor to the AMUX bus of the sensing HW block.
1621:Generated_Source\PSoC4/CapSense_1_SensingCSD_LL.c **** *
1622:Generated_Source\PSoC4/CapSense_1_SensingCSD_LL.c **** * \details
1623:Generated_Source\PSoC4/CapSense_1_SensingCSD_LL.c **** *  Connects a port pin used by the sensor to the AMUX bus of the sensing HW block
1624:Generated_Source\PSoC4/CapSense_1_SensingCSD_LL.c **** *  while a sensor is being scanned. The function ignores the fact if
1625:Generated_Source\PSoC4/CapSense_1_SensingCSD_LL.c **** *  the sensor is a ganged sensor and connects only a specified pin.
1626:Generated_Source\PSoC4/CapSense_1_SensingCSD_LL.c **** *
1627:Generated_Source\PSoC4/CapSense_1_SensingCSD_LL.c **** *  Scanning should be completed before calling this API.
1628:Generated_Source\PSoC4/CapSense_1_SensingCSD_LL.c **** *
1629:Generated_Source\PSoC4/CapSense_1_SensingCSD_LL.c **** *  Calling this function directly from the application layer is not
1630:Generated_Source\PSoC4/CapSense_1_SensingCSD_LL.c **** *  recommended. This function is used to implement only the user's specific
1631:Generated_Source\PSoC4/CapSense_1_SensingCSD_LL.c **** *  use cases. Functions that perform a setup and scan of a sensor/widget,
1632:Generated_Source\PSoC4/CapSense_1_SensingCSD_LL.c **** *  automatically set the required pin states and perform the sensor connection.
1633:Generated_Source\PSoC4/CapSense_1_SensingCSD_LL.c **** *  They do not take into account changes in the design made by the
1634:Generated_Source\PSoC4/CapSense_1_SensingCSD_LL.c **** *  CapSense_1_CSDConnectSns() function.
1635:Generated_Source\PSoC4/CapSense_1_SensingCSD_LL.c **** *
1636:Generated_Source\PSoC4/CapSense_1_SensingCSD_LL.c **** * \param  snsAddrPtr
1637:Generated_Source\PSoC4/CapSense_1_SensingCSD_LL.c **** *  Specifies the pointer to the FLASH_IO_STRUCT object belonging to a sensor
1638:Generated_Source\PSoC4/CapSense_1_SensingCSD_LL.c **** *  which to be connected to the sensing HW block.
1639:Generated_Source\PSoC4/CapSense_1_SensingCSD_LL.c **** *
1640:Generated_Source\PSoC4/CapSense_1_SensingCSD_LL.c **** *******************************************************************************/
1641:Generated_Source\PSoC4/CapSense_1_SensingCSD_LL.c **** void CapSense_1_CSDConnectSns(CapSense_1_FLASH_IO_STRUCT const *snsAddrPtr)
1642:Generated_Source\PSoC4/CapSense_1_SensingCSD_LL.c **** {
1643:Generated_Source\PSoC4/CapSense_1_SensingCSD_LL.c ****     uint32 newRegisterValue;
1644:Generated_Source\PSoC4/CapSense_1_SensingCSD_LL.c ****     uint8  interruptState;
1645:Generated_Source\PSoC4/CapSense_1_SensingCSD_LL.c ****     uint32 pinModeShift;
1646:Generated_Source\PSoC4/CapSense_1_SensingCSD_LL.c ****     uint32 pinHSIOMShift;
1647:Generated_Source\PSoC4/CapSense_1_SensingCSD_LL.c **** 
1648:Generated_Source\PSoC4/CapSense_1_SensingCSD_LL.c ****     /* Get offsets for sensor */
1649:Generated_Source\PSoC4/CapSense_1_SensingCSD_LL.c ****     pinModeShift = (uint32)snsAddrPtr->shift;
1650:Generated_Source\PSoC4/CapSense_1_SensingCSD_LL.c ****     pinHSIOMShift = (uint32)snsAddrPtr->hsiomShift;
1651:Generated_Source\PSoC4/CapSense_1_SensingCSD_LL.c **** 
1652:Generated_Source\PSoC4/CapSense_1_SensingCSD_LL.c ****     interruptState = CyEnterCriticalSection();
1653:Generated_Source\PSoC4/CapSense_1_SensingCSD_LL.c **** 
1654:Generated_Source\PSoC4/CapSense_1_SensingCSD_LL.c ****     /* Use temporary variable to update registers without multiple writings to them */
1655:Generated_Source\PSoC4/CapSense_1_SensingCSD_LL.c ****     newRegisterValue = CY_GET_REG32(snsAddrPtr->hsiomPtr);
1656:Generated_Source\PSoC4/CapSense_1_SensingCSD_LL.c ****     newRegisterValue &= ~(CapSense_1_HSIOM_SEL_MASK << pinHSIOMShift);
1657:Generated_Source\PSoC4/CapSense_1_SensingCSD_LL.c ****     newRegisterValue |= (uint32)((uint32)CapSense_1_HSIOM_SEL_CSD_SENSE << pinHSIOMShift);
1658:Generated_Source\PSoC4/CapSense_1_SensingCSD_LL.c **** 
1659:Generated_Source\PSoC4/CapSense_1_SensingCSD_LL.c ****     /* Update port configuration register (drive mode) for sensor */
1660:Generated_Source\PSoC4/CapSense_1_SensingCSD_LL.c ****     CY_SET_REG32(snsAddrPtr->pcPtr, CY_GET_REG32(snsAddrPtr->pcPtr) & (uint32)~((uint32)CapSense_1_
1661:Generated_Source\PSoC4/CapSense_1_SensingCSD_LL.c **** 
1662:Generated_Source\PSoC4/CapSense_1_SensingCSD_LL.c ****     /* Update HSIOM register for sensor */
1663:Generated_Source\PSoC4/CapSense_1_SensingCSD_LL.c ****     CY_SET_REG32(snsAddrPtr->hsiomPtr, newRegisterValue);
1664:Generated_Source\PSoC4/CapSense_1_SensingCSD_LL.c **** 
1665:Generated_Source\PSoC4/CapSense_1_SensingCSD_LL.c ****     CyExitCriticalSection(interruptState);
ARM GAS  C:\Users\MICHAE~1.MAC\AppData\Local\Temp\ccJeyeG1.s 			page 33


1666:Generated_Source\PSoC4/CapSense_1_SensingCSD_LL.c **** }
1667:Generated_Source\PSoC4/CapSense_1_SensingCSD_LL.c **** 
1668:Generated_Source\PSoC4/CapSense_1_SensingCSD_LL.c **** 
1669:Generated_Source\PSoC4/CapSense_1_SensingCSD_LL.c **** /*******************************************************************************
1670:Generated_Source\PSoC4/CapSense_1_SensingCSD_LL.c **** * Function Name: CapSense_1_CSDDisconnectSns
1671:Generated_Source\PSoC4/CapSense_1_SensingCSD_LL.c **** ****************************************************************************//**
1672:Generated_Source\PSoC4/CapSense_1_SensingCSD_LL.c **** *
1673:Generated_Source\PSoC4/CapSense_1_SensingCSD_LL.c **** * \brief
1674:Generated_Source\PSoC4/CapSense_1_SensingCSD_LL.c **** *  Disconnects a sensor port pin from the sensing HW block and the AMUX bus. Sets
1675:Generated_Source\PSoC4/CapSense_1_SensingCSD_LL.c **** *  the default state of the un-scanned sensor.
1676:Generated_Source\PSoC4/CapSense_1_SensingCSD_LL.c **** *
1677:Generated_Source\PSoC4/CapSense_1_SensingCSD_LL.c **** * \details
1678:Generated_Source\PSoC4/CapSense_1_SensingCSD_LL.c **** *  This function works identically to CapSense_1_CSDConnectSns() except
1679:Generated_Source\PSoC4/CapSense_1_SensingCSD_LL.c **** *  it disconnects the specified port-pin used by the sensor.
1680:Generated_Source\PSoC4/CapSense_1_SensingCSD_LL.c **** *
1681:Generated_Source\PSoC4/CapSense_1_SensingCSD_LL.c **** *  Calling this function directly from the application layer is not
1682:Generated_Source\PSoC4/CapSense_1_SensingCSD_LL.c **** *  recommended. This function is used to implement only the user's specific
1683:Generated_Source\PSoC4/CapSense_1_SensingCSD_LL.c **** *  use cases. Functions that perform a setup and scan of sensor/widget
1684:Generated_Source\PSoC4/CapSense_1_SensingCSD_LL.c **** *  automatically set the required pin states and perform the sensor connection.
1685:Generated_Source\PSoC4/CapSense_1_SensingCSD_LL.c **** *  They ignore changes in the design made by the
1686:Generated_Source\PSoC4/CapSense_1_SensingCSD_LL.c **** *  CapSense_1_CSDDisconnectSns() function.
1687:Generated_Source\PSoC4/CapSense_1_SensingCSD_LL.c **** *
1688:Generated_Source\PSoC4/CapSense_1_SensingCSD_LL.c **** * \param  snsAddrPtr
1689:Generated_Source\PSoC4/CapSense_1_SensingCSD_LL.c **** *  Specifies the pointer to the FLASH_IO_STRUCT object belonging to a sensor
1690:Generated_Source\PSoC4/CapSense_1_SensingCSD_LL.c **** *  which should be disconnected from the sensing HW block.
1691:Generated_Source\PSoC4/CapSense_1_SensingCSD_LL.c **** *
1692:Generated_Source\PSoC4/CapSense_1_SensingCSD_LL.c **** *******************************************************************************/
1693:Generated_Source\PSoC4/CapSense_1_SensingCSD_LL.c **** void CapSense_1_CSDDisconnectSns(CapSense_1_FLASH_IO_STRUCT const *snsAddrPtr)
1694:Generated_Source\PSoC4/CapSense_1_SensingCSD_LL.c **** {
1695:Generated_Source\PSoC4/CapSense_1_SensingCSD_LL.c ****     uint32 pinHSIOMShift;
1696:Generated_Source\PSoC4/CapSense_1_SensingCSD_LL.c ****     uint32 newRegisterValue;
1697:Generated_Source\PSoC4/CapSense_1_SensingCSD_LL.c ****     uint32 pinModeShift;
1698:Generated_Source\PSoC4/CapSense_1_SensingCSD_LL.c **** 
1699:Generated_Source\PSoC4/CapSense_1_SensingCSD_LL.c ****     #if ((CapSense_1_DISABLE == CapSense_1_CSD_SHIELD_EN) || \
1700:Generated_Source\PSoC4/CapSense_1_SensingCSD_LL.c ****         (CapSense_1_SNS_CONNECTION_SHIELD != CapSense_1_CSD_INACTIVE_SNS_CONNECTION))
1701:Generated_Source\PSoC4/CapSense_1_SensingCSD_LL.c ****         uint8  interruptState;
1702:Generated_Source\PSoC4/CapSense_1_SensingCSD_LL.c ****     #endif /* ((CapSense_1_DISABLE == CapSense_1_CSD_SHIELD_EN) && \
1703:Generated_Source\PSoC4/CapSense_1_SensingCSD_LL.c ****                 (CapSense_1_SNS_CONNECTION_SHIELD != CapSense_1_CSD_INACTIVE_SNS_CONNECTION))) */
1704:Generated_Source\PSoC4/CapSense_1_SensingCSD_LL.c **** 
1705:Generated_Source\PSoC4/CapSense_1_SensingCSD_LL.c ****     pinHSIOMShift = (uint32)snsAddrPtr->hsiomShift;
1706:Generated_Source\PSoC4/CapSense_1_SensingCSD_LL.c ****     pinModeShift = (uint32)snsAddrPtr->shift;
1707:Generated_Source\PSoC4/CapSense_1_SensingCSD_LL.c **** 
1708:Generated_Source\PSoC4/CapSense_1_SensingCSD_LL.c ****     #if ((CapSense_1_DISABLE == CapSense_1_CSD_SHIELD_EN) ||  \
1709:Generated_Source\PSoC4/CapSense_1_SensingCSD_LL.c ****         (CapSense_1_SNS_CONNECTION_SHIELD != CapSense_1_CSD_INACTIVE_SNS_CONNECTION))
1710:Generated_Source\PSoC4/CapSense_1_SensingCSD_LL.c ****         /* Update HSIOM register to disconnect sensor */
1711:Generated_Source\PSoC4/CapSense_1_SensingCSD_LL.c ****         CY_SET_REG32(snsAddrPtr->hsiomPtr, CY_GET_REG32(snsAddrPtr->hsiomPtr) & ~(CapSense_1_HSIOM_
1712:Generated_Source\PSoC4/CapSense_1_SensingCSD_LL.c **** 
1713:Generated_Source\PSoC4/CapSense_1_SensingCSD_LL.c ****         interruptState = CyEnterCriticalSection();
1714:Generated_Source\PSoC4/CapSense_1_SensingCSD_LL.c **** 
1715:Generated_Source\PSoC4/CapSense_1_SensingCSD_LL.c ****         /* Update port configuration register (drive mode) for sensor */
1716:Generated_Source\PSoC4/CapSense_1_SensingCSD_LL.c ****         newRegisterValue = CY_GET_REG32(snsAddrPtr->pcPtr);
1717:Generated_Source\PSoC4/CapSense_1_SensingCSD_LL.c ****         newRegisterValue &= ~(CapSense_1_GPIO_PC_MASK << pinModeShift);
1718:Generated_Source\PSoC4/CapSense_1_SensingCSD_LL.c ****         newRegisterValue |= CapSense_1_CSD_INACTIVE_SNS_CONNECTION << pinModeShift;
1719:Generated_Source\PSoC4/CapSense_1_SensingCSD_LL.c ****         CY_SET_REG32(snsAddrPtr->pcPtr, newRegisterValue);
1720:Generated_Source\PSoC4/CapSense_1_SensingCSD_LL.c **** 
1721:Generated_Source\PSoC4/CapSense_1_SensingCSD_LL.c ****         CyExitCriticalSection(interruptState);
1722:Generated_Source\PSoC4/CapSense_1_SensingCSD_LL.c **** 
ARM GAS  C:\Users\MICHAE~1.MAC\AppData\Local\Temp\ccJeyeG1.s 			page 34


1723:Generated_Source\PSoC4/CapSense_1_SensingCSD_LL.c ****         /* Set logic 0 to port data register */
1724:Generated_Source\PSoC4/CapSense_1_SensingCSD_LL.c ****         CY_SET_REG32(snsAddrPtr->drPtr, CY_GET_REG32(snsAddrPtr->drPtr) & (uint32)~(uint32)((uint32
1725:Generated_Source\PSoC4/CapSense_1_SensingCSD_LL.c ****     #else
1726:Generated_Source\PSoC4/CapSense_1_SensingCSD_LL.c ****         /* Update port configuration register (drive mode to HiZ Analog) for sensor */
1727:Generated_Source\PSoC4/CapSense_1_SensingCSD_LL.c ****         CY_SET_REG32(snsAddrPtr->pcPtr, CY_GET_REG32(snsAddrPtr->pcPtr) & (uint32)~((uint32)CapSens
1728:Generated_Source\PSoC4/CapSense_1_SensingCSD_LL.c **** 
1729:Generated_Source\PSoC4/CapSense_1_SensingCSD_LL.c ****         /* Connect to Shield */
1730:Generated_Source\PSoC4/CapSense_1_SensingCSD_LL.c ****         newRegisterValue = CY_GET_REG32(snsAddrPtr->hsiomPtr) & ~(CapSense_1_HSIOM_SEL_MASK << pinH
1731:Generated_Source\PSoC4/CapSense_1_SensingCSD_LL.c ****         newRegisterValue |= (CapSense_1_HSIOM_SEL_CSD_SHIELD << pinHSIOMShift);
1732:Generated_Source\PSoC4/CapSense_1_SensingCSD_LL.c ****         CY_SET_REG32(snsAddrPtr->hsiomPtr, newRegisterValue);
1733:Generated_Source\PSoC4/CapSense_1_SensingCSD_LL.c ****     #endif /* ((CapSense_1_DISABLE == CapSense_1_CSD_SHIELD_EN) && \
1734:Generated_Source\PSoC4/CapSense_1_SensingCSD_LL.c ****                 (CapSense_1_SNS_CONNECTION_SHIELD != CapSense_1_CSD_INACTIVE_SNS_CONNECTION)) */
1735:Generated_Source\PSoC4/CapSense_1_SensingCSD_LL.c **** }
1736:Generated_Source\PSoC4/CapSense_1_SensingCSD_LL.c **** 
1737:Generated_Source\PSoC4/CapSense_1_SensingCSD_LL.c **** #if ((CapSense_1_CSD_SS_DIS != CapSense_1_CSD_AUTOTUNE) || \
1738:Generated_Source\PSoC4/CapSense_1_SensingCSD_LL.c ****      (CapSense_1_ENABLE == CapSense_1_CSD_IDAC_AUTOCAL_EN))
1739:Generated_Source\PSoC4/CapSense_1_SensingCSD_LL.c ****     #if (CapSense_1_ENABLE == CapSense_1_CSD_IDAC_COMP_EN)
1740:Generated_Source\PSoC4/CapSense_1_SensingCSD_LL.c ****         /*******************************************************************************
1741:Generated_Source\PSoC4/CapSense_1_SensingCSD_LL.c ****         * Function Name: CapSense_1_SsCSDSetSingleIdacMode
1742:Generated_Source\PSoC4/CapSense_1_SensingCSD_LL.c ****         ****************************************************************************//**
1743:Generated_Source\PSoC4/CapSense_1_SensingCSD_LL.c ****         *
1744:Generated_Source\PSoC4/CapSense_1_SensingCSD_LL.c ****         * \brief
1745:Generated_Source\PSoC4/CapSense_1_SensingCSD_LL.c ****         *  This function set single IDAC mode.
1746:Generated_Source\PSoC4/CapSense_1_SensingCSD_LL.c ****         *
1747:Generated_Source\PSoC4/CapSense_1_SensingCSD_LL.c ****         * \details
1748:Generated_Source\PSoC4/CapSense_1_SensingCSD_LL.c ****         *   For Third-generation HW block: The function enables Modulator IDAC only in variable mod
1749:Generated_Source\PSoC4/CapSense_1_SensingCSD_LL.c ****         *   For Fourth-generation HW block: The function enables IDACA LEG1 in CSD mode, IDACA LEG2
1750:Generated_Source\PSoC4/CapSense_1_SensingCSD_LL.c ****         *
1751:Generated_Source\PSoC4/CapSense_1_SensingCSD_LL.c ****         *******************************************************************************/
1752:Generated_Source\PSoC4/CapSense_1_SensingCSD_LL.c ****         static void CapSense_1_SsCSDSetSingleIdacMode(void)
1753:Generated_Source\PSoC4/CapSense_1_SensingCSD_LL.c ****         {
 160              		.loc 1 1753 0
 161              		.cfi_startproc
 162              		@ args = 0, pretend = 0, frame = 0
 163              		@ frame_needed = 0, uses_anonymous_args = 0
 164              		@ link register save eliminated.
1754:Generated_Source\PSoC4/CapSense_1_SensingCSD_LL.c ****             uint32 newRegValue;
1755:Generated_Source\PSoC4/CapSense_1_SensingCSD_LL.c **** 
1756:Generated_Source\PSoC4/CapSense_1_SensingCSD_LL.c ****             #if (CapSense_1_ENABLE == CapSense_1_CSDV2)
1757:Generated_Source\PSoC4/CapSense_1_SensingCSD_LL.c ****                 /* Enable IDACA LEG1 in CSD mode, IDACA LEG2 in GP mode */
1758:Generated_Source\PSoC4/CapSense_1_SensingCSD_LL.c ****                 newRegValue = CY_GET_REG32(CapSense_1_IDAC_MOD_PTR) &
 165              		.loc 1 1758 0
 166 0000 074B     		ldr	r3, .L14
 167 0002 1A68     		ldr	r2, [r3]
 168 0004 7F21     		movs	r1, #127
 169 0006 0A40     		ands	r2, r1
 170              	.LVL4:
1759:Generated_Source\PSoC4/CapSense_1_SensingCSD_LL.c ****                               CapSense_1_IDAC_MOD_VAL_MASK;
1760:Generated_Source\PSoC4/CapSense_1_SensingCSD_LL.c ****                 newRegValue |= CapSense_1_IDAC_MOD_CALIBRATION_CFG;
 171              		.loc 1 1760 0
 172 0008 0648     		ldr	r0, .L14+4
 173 000a 0243     		orrs	r2, r0
 174              	.LVL5:
1761:Generated_Source\PSoC4/CapSense_1_SensingCSD_LL.c ****                 CY_SET_REG32(CapSense_1_IDAC_MOD_PTR, newRegValue);
 175              		.loc 1 1761 0
 176 000c 1A60     		str	r2, [r3]
1762:Generated_Source\PSoC4/CapSense_1_SensingCSD_LL.c ****                 #if (CapSense_1_ENABLE == CapSense_1_CSD_IDAC_COMP_EN) && \
ARM GAS  C:\Users\MICHAE~1.MAC\AppData\Local\Temp\ccJeyeG1.s 			page 35


1763:Generated_Source\PSoC4/CapSense_1_SensingCSD_LL.c ****                     (CapSense_1_ENABLE == CapSense_1_CSD_DEDICATED_IDAC_COMP_EN)
1764:Generated_Source\PSoC4/CapSense_1_SensingCSD_LL.c ****                     newRegValue = CY_GET_REG32(CapSense_1_IDAC_COMP_PTR) & CapSense_1_IDAC_COMP_VAL
 177              		.loc 1 1764 0
 178 000e 064A     		ldr	r2, .L14+8
 179              	.LVL6:
 180 0010 1368     		ldr	r3, [r2]
 181              	.LVL7:
 182 0012 0B40     		ands	r3, r1
 183              	.LVL8:
1765:Generated_Source\PSoC4/CapSense_1_SensingCSD_LL.c ****                     newRegValue |= CapSense_1_IDAC_COMP_CALIBRATION_CFG;
 184              		.loc 1 1765 0
 185 0014 8021     		movs	r1, #128
 186 0016 0904     		lsls	r1, r1, #16
 187 0018 0B43     		orrs	r3, r1
 188              	.LVL9:
1766:Generated_Source\PSoC4/CapSense_1_SensingCSD_LL.c ****                     CY_SET_REG32(CapSense_1_IDAC_COMP_PTR, newRegValue);
 189              		.loc 1 1766 0
 190 001a 1360     		str	r3, [r2]
1767:Generated_Source\PSoC4/CapSense_1_SensingCSD_LL.c ****                 #endif /* (CapSense_1_ENABLE == CapSense_1_CSD_IDAC_COMP_EN) && \
1768:Generated_Source\PSoC4/CapSense_1_SensingCSD_LL.c ****                           (CapSense_1_ENABLE == CapSense_1_CSD_DEDICATED_IDAC_COMP_EN */
1769:Generated_Source\PSoC4/CapSense_1_SensingCSD_LL.c ****             #else
1770:Generated_Source\PSoC4/CapSense_1_SensingCSD_LL.c ****                 /* Enable Modulator IDAC only in variable mode */
1771:Generated_Source\PSoC4/CapSense_1_SensingCSD_LL.c ****                 newRegValue = CY_GET_REG32(CapSense_1_IDAC_PTR) &
1772:Generated_Source\PSoC4/CapSense_1_SensingCSD_LL.c ****                               ~(CapSense_1_IDAC_MOD_MODE_MASK | CapSense_1_IDAC_COMP_MODE_MASK);
1773:Generated_Source\PSoC4/CapSense_1_SensingCSD_LL.c ****                 newRegValue |= CapSense_1_IDAC_MOD_MODE_VARIABLE;
1774:Generated_Source\PSoC4/CapSense_1_SensingCSD_LL.c ****                 CY_SET_REG32(CapSense_1_IDAC_PTR, newRegValue);
1775:Generated_Source\PSoC4/CapSense_1_SensingCSD_LL.c ****             #endif /* (CapSense_1_ENABLE == CapSense_1_CSDV2) */
1776:Generated_Source\PSoC4/CapSense_1_SensingCSD_LL.c ****         }
 191              		.loc 1 1776 0
 192              		@ sp needed
 193 001c 7047     		bx	lr
 194              	.L15:
 195 001e C046     		.align	2
 196              	.L14:
 197 0020 C0010B40 		.word	1074463168
 198 0024 00008301 		.word	25362432
 199 0028 C4010B40 		.word	1074463172
 200              		.cfi_endproc
 201              	.LFE19:
 202              		.size	CapSense_1_SsCSDSetSingleIdacMode, .-CapSense_1_SsCSDSetSingleIdacMode
 203              		.section	.text.CapSense_1_SsCSDRestoreIdacMode,"ax",%progbits
 204              		.align	2
 205              		.code	16
 206              		.thumb_func
 207              		.type	CapSense_1_SsCSDRestoreIdacMode, %function
 208              	CapSense_1_SsCSDRestoreIdacMode:
 209              	.LFB20:
1777:Generated_Source\PSoC4/CapSense_1_SensingCSD_LL.c ****     #endif /* (CapSense_1_ENABLE == CapSense_1_CSD_IDAC_COMP_EN) */
1778:Generated_Source\PSoC4/CapSense_1_SensingCSD_LL.c **** #endif /* ((CapSense_1_CSD_SS_DIS != CapSense_1_CSD_AUTOTUNE) || \
1779:Generated_Source\PSoC4/CapSense_1_SensingCSD_LL.c ****            (CapSense_1_ENABLE == CapSense_1_CSD_IDAC_AUTOCAL_EN)) */
1780:Generated_Source\PSoC4/CapSense_1_SensingCSD_LL.c **** 
1781:Generated_Source\PSoC4/CapSense_1_SensingCSD_LL.c **** #if ((CapSense_1_CSD_SS_DIS != CapSense_1_CSD_AUTOTUNE) || \
1782:Generated_Source\PSoC4/CapSense_1_SensingCSD_LL.c ****      (CapSense_1_ENABLE == CapSense_1_CSD_IDAC_AUTOCAL_EN))
1783:Generated_Source\PSoC4/CapSense_1_SensingCSD_LL.c ****     #if (CapSense_1_ENABLE == CapSense_1_CSD_IDAC_COMP_EN)
1784:Generated_Source\PSoC4/CapSense_1_SensingCSD_LL.c ****         /*******************************************************************************
1785:Generated_Source\PSoC4/CapSense_1_SensingCSD_LL.c ****         * Function Name: CapSense_1_SsCSDRestoreIdacMode
1786:Generated_Source\PSoC4/CapSense_1_SensingCSD_LL.c ****         ****************************************************************************//**
ARM GAS  C:\Users\MICHAE~1.MAC\AppData\Local\Temp\ccJeyeG1.s 			page 36


1787:Generated_Source\PSoC4/CapSense_1_SensingCSD_LL.c ****         *
1788:Generated_Source\PSoC4/CapSense_1_SensingCSD_LL.c ****         * \brief
1789:Generated_Source\PSoC4/CapSense_1_SensingCSD_LL.c ****         *  This function restores IDAC configuration.
1790:Generated_Source\PSoC4/CapSense_1_SensingCSD_LL.c ****         *
1791:Generated_Source\PSoC4/CapSense_1_SensingCSD_LL.c ****         * \details
1792:Generated_Source\PSoC4/CapSense_1_SensingCSD_LL.c ****         *   The function restores Compensation IDAC if it is enabled.
1793:Generated_Source\PSoC4/CapSense_1_SensingCSD_LL.c ****         *
1794:Generated_Source\PSoC4/CapSense_1_SensingCSD_LL.c ****         *******************************************************************************/
1795:Generated_Source\PSoC4/CapSense_1_SensingCSD_LL.c ****         static void CapSense_1_SsCSDRestoreIdacMode(void)
1796:Generated_Source\PSoC4/CapSense_1_SensingCSD_LL.c ****         {
 210              		.loc 1 1796 0
 211              		.cfi_startproc
 212              		@ args = 0, pretend = 0, frame = 0
 213              		@ frame_needed = 0, uses_anonymous_args = 0
 214              		@ link register save eliminated.
1797:Generated_Source\PSoC4/CapSense_1_SensingCSD_LL.c ****             /* Restore IDAC configuration */
1798:Generated_Source\PSoC4/CapSense_1_SensingCSD_LL.c ****             #if (CapSense_1_ENABLE == CapSense_1_CSDV2)
1799:Generated_Source\PSoC4/CapSense_1_SensingCSD_LL.c ****                 uint32 newRegValue;
1800:Generated_Source\PSoC4/CapSense_1_SensingCSD_LL.c **** 
1801:Generated_Source\PSoC4/CapSense_1_SensingCSD_LL.c ****                 newRegValue = CY_GET_REG32(CapSense_1_SW_REFGEN_SEL_PTR);
 215              		.loc 1 1801 0
 216 0000 064A     		ldr	r2, .L17
 217 0002 1368     		ldr	r3, [r2]
 218              	.LVL10:
1802:Generated_Source\PSoC4/CapSense_1_SensingCSD_LL.c ****                 newRegValue |= CapSense_1_DEFAULT_SW_REFGEN_SEL;
 219              		.loc 1 1802 0
 220 0004 0649     		ldr	r1, .L17+4
 221 0006 0B43     		orrs	r3, r1
 222              	.LVL11:
1803:Generated_Source\PSoC4/CapSense_1_SensingCSD_LL.c ****                 CY_SET_REG32(CapSense_1_SW_REFGEN_SEL_PTR, newRegValue);
 223              		.loc 1 1803 0
 224 0008 1360     		str	r3, [r2]
1804:Generated_Source\PSoC4/CapSense_1_SensingCSD_LL.c ****                 CY_SET_REG32(CapSense_1_IDAC_MOD_PTR, CapSense_1_IDAC_MOD_DEFAULT_CFG);
 225              		.loc 1 1804 0
 226 000a 064A     		ldr	r2, .L17+8
 227 000c 064B     		ldr	r3, .L17+12
 228              	.LVL12:
 229 000e 1A60     		str	r2, [r3]
 230              	.LVL13:
1805:Generated_Source\PSoC4/CapSense_1_SensingCSD_LL.c ****                 #if (CapSense_1_ENABLE == CapSense_1_CSD_IDAC_COMP_EN) && \
1806:Generated_Source\PSoC4/CapSense_1_SensingCSD_LL.c ****                     (CapSense_1_ENABLE == CapSense_1_CSD_DEDICATED_IDAC_COMP_EN)
1807:Generated_Source\PSoC4/CapSense_1_SensingCSD_LL.c ****                 CY_SET_REG32(CapSense_1_IDAC_COMP_PTR, CapSense_1_IDAC_COMP_DEFAULT_CFG);
 231              		.loc 1 1807 0
 232 0010 C122     		movs	r2, #193
 233 0012 5204     		lsls	r2, r2, #17
 234 0014 054B     		ldr	r3, .L17+16
 235 0016 1A60     		str	r2, [r3]
1808:Generated_Source\PSoC4/CapSense_1_SensingCSD_LL.c ****                 #endif /* (CapSense_1_ENABLE == CapSense_1_CSD_IDAC_COMP_EN) && \
1809:Generated_Source\PSoC4/CapSense_1_SensingCSD_LL.c ****                           (CapSense_1_ENABLE == CapSense_1_CSD_DEDICATED_IDAC_COMP_EN */
1810:Generated_Source\PSoC4/CapSense_1_SensingCSD_LL.c ****             #else
1811:Generated_Source\PSoC4/CapSense_1_SensingCSD_LL.c ****                 #if (CapSense_1_ENABLE == CapSense_1_CSD_IDAC_COMP_EN)
1812:Generated_Source\PSoC4/CapSense_1_SensingCSD_LL.c ****                     CY_SET_REG32(CapSense_1_IDAC_PTR, CapSense_1_DEFAULT_CSD_IDAC_CONFIG);
1813:Generated_Source\PSoC4/CapSense_1_SensingCSD_LL.c ****                 #else
1814:Generated_Source\PSoC4/CapSense_1_SensingCSD_LL.c ****                     CY_SET_REG32(CapSense_1_IDAC_PTR, CY_GET_REG32(CapSense_1_IDAC_PTR) &
1815:Generated_Source\PSoC4/CapSense_1_SensingCSD_LL.c ****                                                                         ~(CapSense_1_IDAC_MOD_MODE_
1816:Generated_Source\PSoC4/CapSense_1_SensingCSD_LL.c ****                     CY_SET_REG32(CapSense_1_IDAC_PTR, CY_GET_REG32(CapSense_1_IDAC_PTR) | CapSense_
1817:Generated_Source\PSoC4/CapSense_1_SensingCSD_LL.c ****                 #endif /* (CapSense_1_ENABLE == CapSense_1_CSD_IDAC_COMP_EN) */
ARM GAS  C:\Users\MICHAE~1.MAC\AppData\Local\Temp\ccJeyeG1.s 			page 37


1818:Generated_Source\PSoC4/CapSense_1_SensingCSD_LL.c ****             #endif /* (CapSense_1_ENABLE == CapSense_1_CSDV2) */
1819:Generated_Source\PSoC4/CapSense_1_SensingCSD_LL.c ****         }
 236              		.loc 1 1819 0
 237              		@ sp needed
 238 0018 7047     		bx	lr
 239              	.L18:
 240 001a C046     		.align	2
 241              	.L17:
 242 001c A8020B40 		.word	1074463400
 243 0020 01000010 		.word	268435457
 244 0024 00008301 		.word	25362432
 245 0028 C0010B40 		.word	1074463168
 246 002c C4010B40 		.word	1074463172
 247              		.cfi_endproc
 248              	.LFE20:
 249              		.size	CapSense_1_SsCSDRestoreIdacMode, .-CapSense_1_SsCSDRestoreIdacMode
 250              		.section	.text.CapSense_1_SsCSDCalibrateCheck,"ax",%progbits
 251              		.align	2
 252              		.code	16
 253              		.thumb_func
 254              		.type	CapSense_1_SsCSDCalibrateCheck, %function
 255              	CapSense_1_SsCSDCalibrateCheck:
 256              	.LFB21:
1820:Generated_Source\PSoC4/CapSense_1_SensingCSD_LL.c ****     #endif /* (CapSense_1_ENABLE == CapSense_1_CSD_IDAC_COMP_EN) */
1821:Generated_Source\PSoC4/CapSense_1_SensingCSD_LL.c **** 
1822:Generated_Source\PSoC4/CapSense_1_SensingCSD_LL.c ****     /*******************************************************************************
1823:Generated_Source\PSoC4/CapSense_1_SensingCSD_LL.c ****     * Function Name: CapSense_1_SsCSDCalibrateCheck
1824:Generated_Source\PSoC4/CapSense_1_SensingCSD_LL.c ****     ****************************************************************************//**
1825:Generated_Source\PSoC4/CapSense_1_SensingCSD_LL.c ****     *
1826:Generated_Source\PSoC4/CapSense_1_SensingCSD_LL.c ****     * \brief
1827:Generated_Source\PSoC4/CapSense_1_SensingCSD_LL.c ****     *  This internal function checks if the calibration is performed successfully.
1828:Generated_Source\PSoC4/CapSense_1_SensingCSD_LL.c ****     *
1829:Generated_Source\PSoC4/CapSense_1_SensingCSD_LL.c ****     * \details
1830:Generated_Source\PSoC4/CapSense_1_SensingCSD_LL.c ****     *   The function verifies calibration error based on maximum raw count level.
1831:Generated_Source\PSoC4/CapSense_1_SensingCSD_LL.c ****     *
1832:Generated_Source\PSoC4/CapSense_1_SensingCSD_LL.c ****     * \param rawLevel The raw data level which should be reached during the
1833:Generated_Source\PSoC4/CapSense_1_SensingCSD_LL.c ****     *   calibration procedure.
1834:Generated_Source\PSoC4/CapSense_1_SensingCSD_LL.c ****     * \param rawData  Calibrated raw counts.
1835:Generated_Source\PSoC4/CapSense_1_SensingCSD_LL.c ****     *
1836:Generated_Source\PSoC4/CapSense_1_SensingCSD_LL.c ****     * \return Returns the status of the operation:
1837:Generated_Source\PSoC4/CapSense_1_SensingCSD_LL.c ****     *   - Zero     - All the sensors in the widget are calibrated successfully.
1838:Generated_Source\PSoC4/CapSense_1_SensingCSD_LL.c ****     *   - Non-Zero - Calibration failed for any sensor in the widget.
1839:Generated_Source\PSoC4/CapSense_1_SensingCSD_LL.c ****     *
1840:Generated_Source\PSoC4/CapSense_1_SensingCSD_LL.c ****     *******************************************************************************/
1841:Generated_Source\PSoC4/CapSense_1_SensingCSD_LL.c ****     static cystatus CapSense_1_SsCSDCalibrateCheck(CapSense_1_RAM_WD_BASE_STRUCT const *ptrWdgt, ui
1842:Generated_Source\PSoC4/CapSense_1_SensingCSD_LL.c ****     {
 257              		.loc 1 1842 0
 258              		.cfi_startproc
 259              		@ args = 0, pretend = 0, frame = 0
 260              		@ frame_needed = 0, uses_anonymous_args = 0
 261              	.LVL14:
 262 0000 70B5     		push	{r4, r5, r6, lr}
 263              		.cfi_def_cfa_offset 16
 264              		.cfi_offset 4, -16
 265              		.cfi_offset 5, -12
 266              		.cfi_offset 6, -8
 267              		.cfi_offset 14, -4
ARM GAS  C:\Users\MICHAE~1.MAC\AppData\Local\Temp\ccJeyeG1.s 			page 38


 268 0002 0E00     		movs	r6, r1
 269 0004 1500     		movs	r5, r2
 270              	.LVL15:
1843:Generated_Source\PSoC4/CapSense_1_SensingCSD_LL.c ****         cystatus calibrateStatus;
1844:Generated_Source\PSoC4/CapSense_1_SensingCSD_LL.c ****         uint32 rawCountsError;
1845:Generated_Source\PSoC4/CapSense_1_SensingCSD_LL.c ****         uint32 minRawLevel = 0u;
1846:Generated_Source\PSoC4/CapSense_1_SensingCSD_LL.c ****         uint32 maxRawLevel = (0x00000001Lu << ptrWdgt->resolution) - 1u;
 271              		.loc 1 1846 0
 272 0006 0388     		ldrh	r3, [r0]
 273 0008 0124     		movs	r4, #1
 274 000a 9C40     		lsls	r4, r4, r3
 275 000c 013C     		subs	r4, r4, #1
 276              	.LVL16:
1847:Generated_Source\PSoC4/CapSense_1_SensingCSD_LL.c **** 
1848:Generated_Source\PSoC4/CapSense_1_SensingCSD_LL.c ****         /* Calculate the error in rawcounts for given resolution (round to floor) */
1849:Generated_Source\PSoC4/CapSense_1_SensingCSD_LL.c ****         rawCountsError = ((maxRawLevel * CapSense_1_IDAC_MOD_MAX_CALIB_ERROR) /
 277              		.loc 1 1849 0
 278 000e A300     		lsls	r3, r4, #2
 279 0010 1B19     		adds	r3, r3, r4
 280 0012 5800     		lsls	r0, r3, #1
 281              	.LVL17:
 282 0014 6421     		movs	r1, #100
 283              	.LVL18:
 284 0016 FFF7FEFF 		bl	__aeabi_uidiv
 285              	.LVL19:
 286 001a 0130     		adds	r0, r0, #1
 287              	.LVL20:
1850:Generated_Source\PSoC4/CapSense_1_SensingCSD_LL.c ****                           CapSense_1_PERCENTAGE_100) + 1u;
1851:Generated_Source\PSoC4/CapSense_1_SensingCSD_LL.c **** 
1852:Generated_Source\PSoC4/CapSense_1_SensingCSD_LL.c ****         /* Get minimum and maximum range values */
1853:Generated_Source\PSoC4/CapSense_1_SensingCSD_LL.c ****         if ((rawLevel + rawCountsError) <= maxRawLevel)
 288              		.loc 1 1853 0
 289 001c 8319     		adds	r3, r0, r6
 290 001e 9C42     		cmp	r4, r3
 291 0020 00D2     		bcs	.L20
1846:Generated_Source\PSoC4/CapSense_1_SensingCSD_LL.c **** 
 292              		.loc 1 1846 0
 293 0022 2300     		movs	r3, r4
 294              	.L20:
 295              	.LVL21:
1854:Generated_Source\PSoC4/CapSense_1_SensingCSD_LL.c ****         {
1855:Generated_Source\PSoC4/CapSense_1_SensingCSD_LL.c ****             maxRawLevel = rawLevel + rawCountsError;
1856:Generated_Source\PSoC4/CapSense_1_SensingCSD_LL.c ****         }
1857:Generated_Source\PSoC4/CapSense_1_SensingCSD_LL.c ****         if (rawLevel >= rawCountsError)
 296              		.loc 1 1857 0
 297 0024 B042     		cmp	r0, r6
 298 0026 01D8     		bhi	.L23
1858:Generated_Source\PSoC4/CapSense_1_SensingCSD_LL.c ****         {
1859:Generated_Source\PSoC4/CapSense_1_SensingCSD_LL.c ****             minRawLevel = rawLevel - rawCountsError;
 299              		.loc 1 1859 0
 300 0028 301A     		subs	r0, r6, r0
 301              	.LVL22:
 302 002a 00E0     		b	.L21
 303              	.LVL23:
 304              	.L23:
1845:Generated_Source\PSoC4/CapSense_1_SensingCSD_LL.c ****         uint32 maxRawLevel = (0x00000001Lu << ptrWdgt->resolution) - 1u;
 305              		.loc 1 1845 0
ARM GAS  C:\Users\MICHAE~1.MAC\AppData\Local\Temp\ccJeyeG1.s 			page 39


 306 002c 0020     		movs	r0, #0
 307              	.LVL24:
 308              	.L21:
1860:Generated_Source\PSoC4/CapSense_1_SensingCSD_LL.c ****         }
1861:Generated_Source\PSoC4/CapSense_1_SensingCSD_LL.c **** 
1862:Generated_Source\PSoC4/CapSense_1_SensingCSD_LL.c ****         /* Check if calibration is in valid range */
1863:Generated_Source\PSoC4/CapSense_1_SensingCSD_LL.c ****         if ((rawData < minRawLevel) || (rawData > maxRawLevel))
 309              		.loc 1 1863 0
 310 002e A842     		cmp	r0, r5
 311 0030 03D8     		bhi	.L24
 312              		.loc 1 1863 0 is_stmt 0 discriminator 1
 313 0032 AB42     		cmp	r3, r5
 314 0034 03D2     		bcs	.L25
1864:Generated_Source\PSoC4/CapSense_1_SensingCSD_LL.c ****         {
1865:Generated_Source\PSoC4/CapSense_1_SensingCSD_LL.c ****             calibrateStatus = CYRET_BAD_DATA;
 315              		.loc 1 1865 0 is_stmt 1
 316 0036 0620     		movs	r0, #6
 317              	.LVL25:
 318 0038 02E0     		b	.L22
 319              	.LVL26:
 320              	.L24:
 321 003a 0620     		movs	r0, #6
 322              	.LVL27:
 323 003c 00E0     		b	.L22
 324              	.LVL28:
 325              	.L25:
1866:Generated_Source\PSoC4/CapSense_1_SensingCSD_LL.c ****         }
1867:Generated_Source\PSoC4/CapSense_1_SensingCSD_LL.c ****         else
1868:Generated_Source\PSoC4/CapSense_1_SensingCSD_LL.c ****         {
1869:Generated_Source\PSoC4/CapSense_1_SensingCSD_LL.c ****             calibrateStatus = CYRET_SUCCESS;
 326              		.loc 1 1869 0
 327 003e 0020     		movs	r0, #0
 328              	.LVL29:
 329              	.L22:
1870:Generated_Source\PSoC4/CapSense_1_SensingCSD_LL.c ****         }
1871:Generated_Source\PSoC4/CapSense_1_SensingCSD_LL.c **** 
1872:Generated_Source\PSoC4/CapSense_1_SensingCSD_LL.c ****         return (calibrateStatus);
1873:Generated_Source\PSoC4/CapSense_1_SensingCSD_LL.c ****     }
 330              		.loc 1 1873 0
 331              		@ sp needed
 332              	.LVL30:
 333              	.LVL31:
 334 0040 70BD     		pop	{r4, r5, r6, pc}
 335              		.cfi_endproc
 336              	.LFE21:
 337              		.size	CapSense_1_SsCSDCalibrateCheck, .-CapSense_1_SsCSDCalibrateCheck
 338 0042 C046     		.section	.text.CapSense_1_SsCSDInitialize,"ax",%progbits
 339              		.align	2
 340              		.global	CapSense_1_SsCSDInitialize
 341              		.code	16
 342              		.thumb_func
 343              		.type	CapSense_1_SsCSDInitialize, %function
 344              	CapSense_1_SsCSDInitialize:
 345              	.LFB4:
 480:Generated_Source\PSoC4/CapSense_1_SensingCSD_LL.c ****     uint32 newRegValue;
 346              		.loc 1 480 0
 347              		.cfi_startproc
ARM GAS  C:\Users\MICHAE~1.MAC\AppData\Local\Temp\ccJeyeG1.s 			page 40


 348              		@ args = 0, pretend = 0, frame = 0
 349              		@ frame_needed = 0, uses_anonymous_args = 0
 350 0000 70B5     		push	{r4, r5, r6, lr}
 351              		.cfi_def_cfa_offset 16
 352              		.cfi_offset 4, -16
 353              		.cfi_offset 5, -12
 354              		.cfi_offset 6, -8
 355              		.cfi_offset 14, -4
 484:Generated_Source\PSoC4/CapSense_1_SensingCSD_LL.c **** 
 356              		.loc 1 484 0
 357 0002 FFF7FEFF 		bl	CapSense_1_SsClearCSDSensors
 358              	.LVL32:
 487:Generated_Source\PSoC4/CapSense_1_SensingCSD_LL.c ****     #endif /* (CapSense_1_ENABLE == CapSense_1_CSDV2) */
 359              		.loc 1 487 0
 360 0006 FFF7FEFF 		bl	CapSense_1_BistDischargeExtCapacitors
 361              	.LVL33:
 505:Generated_Source\PSoC4/CapSense_1_SensingCSD_LL.c **** 
 362              		.loc 1 505 0
 363 000a C022     		movs	r2, #192
 364 000c 1203     		lsls	r2, r2, #12
 365 000e 274B     		ldr	r3, .L27
 366 0010 1A60     		str	r2, [r3]
 508:Generated_Source\PSoC4/CapSense_1_SensingCSD_LL.c ****         newRegValue |= CapSense_1_DEFAULT_SW_REFGEN_SEL;
 367              		.loc 1 508 0
 368 0012 274B     		ldr	r3, .L27+4
 369 0014 1968     		ldr	r1, [r3]
 370              	.LVL34:
 509:Generated_Source\PSoC4/CapSense_1_SensingCSD_LL.c **** 
 371              		.loc 1 509 0
 372 0016 274E     		ldr	r6, .L27+8
 373 0018 3143     		orrs	r1, r6
 374              	.LVL35:
 511:Generated_Source\PSoC4/CapSense_1_SensingCSD_LL.c ****         CY_SET_REG32(CapSense_1_INTR_SET_PTR,         CapSense_1_DEFAULT_CSD_INTR_SET);
 375              		.loc 1 511 0
 376 001a 1960     		str	r1, [r3]
 512:Generated_Source\PSoC4/CapSense_1_SensingCSD_LL.c ****         CY_SET_REG32(CapSense_1_SW_FW_TANK_SEL_PTR,   CapSense_1_DEFAULT_CSD_SW_FW_TANK_SEL);
 377              		.loc 1 512 0
 378 001c 0024     		movs	r4, #0
 379 001e 264A     		ldr	r2, .L27+12
 380 0020 1460     		str	r4, [r2]
 513:Generated_Source\PSoC4/CapSense_1_SensingCSD_LL.c ****         CY_SET_REG32(CapSense_1_SW_DSI_SEL_PTR,       CapSense_1_DEFAULT_CSD_SW_DSI_SEL);
 381              		.loc 1 513 0
 382 0022 264A     		ldr	r2, .L27+16
 383 0024 1460     		str	r4, [r2]
 514:Generated_Source\PSoC4/CapSense_1_SensingCSD_LL.c ****         CY_SET_REG32(CapSense_1_ADC_CTL_PTR,          CapSense_1_DEFAULT_CSD_ADC_CTL);
 384              		.loc 1 514 0
 385 0026 264A     		ldr	r2, .L27+20
 386 0028 1460     		str	r4, [r2]
 515:Generated_Source\PSoC4/CapSense_1_SensingCSD_LL.c ****         CY_SET_REG32(CapSense_1_AMBUF_PTR,            CapSense_1_AMBUF_PWR_MODE_OFF);
 387              		.loc 1 515 0
 388 002a 264A     		ldr	r2, .L27+24
 389 002c 1460     		str	r4, [r2]
 516:Generated_Source\PSoC4/CapSense_1_SensingCSD_LL.c ****         CY_SET_REG32(CapSense_1_SW_SHIELD_SEL_PTR,    CapSense_1_DEFAULT_SW_SHIELD_SEL);
 390              		.loc 1 516 0
 391 002e 264A     		ldr	r2, .L27+28
 392 0030 1460     		str	r4, [r2]
 517:Generated_Source\PSoC4/CapSense_1_SensingCSD_LL.c ****         CY_SET_REG32(CapSense_1_SW_HS_P_SEL_PTR,      CapSense_1_DEFAULT_SW_HS_P_SEL);
ARM GAS  C:\Users\MICHAE~1.MAC\AppData\Local\Temp\ccJeyeG1.s 			page 41


 393              		.loc 1 517 0
 394 0032 264A     		ldr	r2, .L27+32
 395 0034 1460     		str	r4, [r2]
 518:Generated_Source\PSoC4/CapSense_1_SensingCSD_LL.c ****         CY_SET_REG32(CapSense_1_SW_HS_N_SEL_PTR,      CapSense_1_DEFAULT_SW_HS_N_SEL);
 396              		.loc 1 518 0
 397 0036 264A     		ldr	r2, .L27+36
 398 0038 1460     		str	r4, [r2]
 519:Generated_Source\PSoC4/CapSense_1_SensingCSD_LL.c ****         CY_SET_REG32(CapSense_1_HSCMP_PTR,            CapSense_1_DEFAULT_HSCMP_CFG);
 399              		.loc 1 519 0
 400 003a 264D     		ldr	r5, .L27+40
 401 003c 2C60     		str	r4, [r5]
 520:Generated_Source\PSoC4/CapSense_1_SensingCSD_LL.c **** 
 402              		.loc 1 520 0
 403 003e 264A     		ldr	r2, .L27+44
 404 0040 1460     		str	r4, [r2]
 523:Generated_Source\PSoC4/CapSense_1_SensingCSD_LL.c ****         newRegValue &= (uint32)(~(uint32)CapSense_1_CMOD_HSIOM_MASK);
 405              		.loc 1 523 0
 406 0042 264A     		ldr	r2, .L27+48
 407 0044 1168     		ldr	r1, [r2]
 408              	.LVL36:
 524:Generated_Source\PSoC4/CapSense_1_SensingCSD_LL.c ****         newRegValue |= (CapSense_1_HSIOM_SEL_AMUXA << CapSense_1_CMOD_HSIOM_SHIFT);
 409              		.loc 1 524 0
 410 0046 F020     		movs	r0, #240
 411 0048 8143     		bics	r1, r0
 412              	.LVL37:
 525:Generated_Source\PSoC4/CapSense_1_SensingCSD_LL.c ****         CY_SET_REG32(CapSense_1_CMOD_HSIOM_PTR, newRegValue);
 413              		.loc 1 525 0
 414 004a 9038     		subs	r0, r0, #144
 415 004c 0143     		orrs	r1, r0
 416              	.LVL38:
 526:Generated_Source\PSoC4/CapSense_1_SensingCSD_LL.c **** 
 417              		.loc 1 526 0
 418 004e 1160     		str	r1, [r2]
 529:Generated_Source\PSoC4/CapSense_1_SensingCSD_LL.c ****         newRegValue |= CapSense_1_SW_BYP_SEL_SW_BYA_MASK;
 419              		.loc 1 529 0
 420 0050 234A     		ldr	r2, .L27+52
 421 0052 1168     		ldr	r1, [r2]
 422              	.LVL39:
 530:Generated_Source\PSoC4/CapSense_1_SensingCSD_LL.c ****         CY_SET_REG32(CapSense_1_SW_BYP_SEL_PTR, newRegValue);
 423              		.loc 1 530 0
 424 0054 8020     		movs	r0, #128
 425 0056 4001     		lsls	r0, r0, #5
 426 0058 0143     		orrs	r1, r0
 427              	.LVL40:
 531:Generated_Source\PSoC4/CapSense_1_SensingCSD_LL.c **** 
 428              		.loc 1 531 0
 429 005a 1160     		str	r1, [r2]
 537:Generated_Source\PSoC4/CapSense_1_SensingCSD_LL.c ****         #else
 430              		.loc 1 537 0
 431 005c 8021     		movs	r1, #128
 432              	.LVL41:
 433 005e 4900     		lsls	r1, r1, #1
 434 0060 204A     		ldr	r2, .L27+56
 435              	.LVL42:
 436 0062 1160     		str	r1, [r2]
 437              	.LVL43:
 554:Generated_Source\PSoC4/CapSense_1_SensingCSD_LL.c ****             newRegValue |= CapSense_1_SW_REFGEN_SEL_SW_SGR_MASK | CapSense_1_SW_REFGEN_SEL_SW_IAIB_
ARM GAS  C:\Users\MICHAE~1.MAC\AppData\Local\Temp\ccJeyeG1.s 			page 42


 438              		.loc 1 554 0
 439 0064 1A68     		ldr	r2, [r3]
 440              	.LVL44:
 555:Generated_Source\PSoC4/CapSense_1_SensingCSD_LL.c ****             CY_SET_REG32(CapSense_1_SW_REFGEN_SEL_PTR, newRegValue);
 441              		.loc 1 555 0
 442 0066 3243     		orrs	r2, r6
 443              	.LVL45:
 556:Generated_Source\PSoC4/CapSense_1_SensingCSD_LL.c ****         #else
 444              		.loc 1 556 0
 445 0068 1A60     		str	r2, [r3]
 592:Generated_Source\PSoC4/CapSense_1_SensingCSD_LL.c **** 
 446              		.loc 1 592 0
 447 006a 8023     		movs	r3, #128
 448 006c 5B04     		lsls	r3, r3, #17
 449 006e 1E4A     		ldr	r2, .L27+60
 450              	.LVL46:
 451 0070 1360     		str	r3, [r2]
 452              	.LVL47:
 595:Generated_Source\PSoC4/CapSense_1_SensingCSD_LL.c **** 
 453              		.loc 1 595 0
 454 0072 1E49     		ldr	r1, .L27+64
 455 0074 1E4A     		ldr	r2, .L27+68
 456 0076 1160     		str	r1, [r2]
 608:Generated_Source\PSoC4/CapSense_1_SensingCSD_LL.c ****         #endif /* (CapSense_1_ENABLE == CapSense_1_CSD_SHIELD_EN) */
 457              		.loc 1 608 0
 458 0078 1E4A     		ldr	r2, .L27+72
 459 007a 1460     		str	r4, [r2]
 612:Generated_Source\PSoC4/CapSense_1_SensingCSD_LL.c ****     #endif /* (CapSense_1_2000_MV > CapSense_1_CYDEV_VDDA_MV) */
 460              		.loc 1 612 0
 461 007c 2B60     		str	r3, [r5]
 616:Generated_Source\PSoC4/CapSense_1_SensingCSD_LL.c **** 
 462              		.loc 1 616 0
 463 007e FFF7FEFF 		bl	CapSense_1_SsCSDConfigIDACs
 464              	.LVL48:
 619:Generated_Source\PSoC4/CapSense_1_SensingCSD_LL.c **** 
 465              		.loc 1 619 0
 466 0082 1D4B     		ldr	r3, .L27+76
 467 0084 187F     		ldrb	r0, [r3, #28]
 468 0086 FFF7FEFF 		bl	CapSense_1_SsSetModClkClockDivider
 469              	.LVL49:
 627:Generated_Source\PSoC4/CapSense_1_SensingCSD_LL.c **** 
 470              		.loc 1 627 0
 471 008a FFF7FEFF 		bl	CapSense_1_SsCSDSetFilterDelay
 472              	.LVL50:
 631:Generated_Source\PSoC4/CapSense_1_SensingCSD_LL.c ****                                                   CapSense_1_CONFIG_SENSE_EN_MASK |
 473              		.loc 1 631 0
 474 008e 1B4B     		ldr	r3, .L27+80
 475 0090 1B68     		ldr	r3, [r3]
 476 0092 1B4A     		ldr	r2, .L27+84
 477 0094 1343     		orrs	r3, r2
 478 0096 1B4A     		ldr	r2, .L27+88
 479 0098 1360     		str	r3, [r2]
 637:Generated_Source\PSoC4/CapSense_1_SensingCSD_LL.c **** 
 480              		.loc 1 637 0
 481 009a 0F22     		movs	r2, #15
 482 009c 1A4B     		ldr	r3, .L27+92
 483 009e 1A60     		str	r2, [r3]
ARM GAS  C:\Users\MICHAE~1.MAC\AppData\Local\Temp\ccJeyeG1.s 			page 43


 640:Generated_Source\PSoC4/CapSense_1_SensingCSD_LL.c **** 
 484              		.loc 1 640 0
 485 00a0 1A4B     		ldr	r3, .L27+96
 486 00a2 1C60     		str	r4, [r3]
 643:Generated_Source\PSoC4/CapSense_1_SensingCSD_LL.c ****     #endif /* (CapSense_1_ENABLE == CapSense_1_CSDV2) */
 487              		.loc 1 643 0
 488 00a4 053A     		subs	r2, r2, #5
 489 00a6 1A4B     		ldr	r3, .L27+100
 490 00a8 1A60     		str	r2, [r3]
 675:Generated_Source\PSoC4/CapSense_1_SensingCSD_LL.c **** 
 491              		.loc 1 675 0
 492              		@ sp needed
 493 00aa 70BD     		pop	{r4, r5, r6, pc}
 494              	.L28:
 495              		.align	2
 496              	.L27:
 497 00ac 04020B40 		.word	1074463236
 498 00b0 A8020B40 		.word	1074463400
 499 00b4 01000010 		.word	268435457
 500 00b8 F4000B40 		.word	1074462964
 501 00bc B4020B40 		.word	1074463412
 502 00c0 C0020B40 		.word	1074463424
 503 00c4 20030B40 		.word	1074463520
 504 00c8 84010B40 		.word	1074463108
 505 00cc 88020B40 		.word	1074463368
 506 00d0 80020B40 		.word	1074463360
 507 00d4 84020B40 		.word	1074463364
 508 00d8 80010B40 		.word	1074463104
 509 00dc 00040240 		.word	1073873920
 510 00e0 94020B40 		.word	1074463380
 511 00e4 A0020B40 		.word	1074463392
 512 00e8 A4020B40 		.word	1074463396
 513 00ec 41120000 		.word	4673
 514 00f0 88010B40 		.word	1074463112
 515 00f4 90020B40 		.word	1074463376
 516 00f8 00000000 		.word	CapSense_1_dsRam
 517 00fc 00000000 		.word	.LANCHOR0
 518 0100 00100080 		.word	-2147479552
 519 0104 00000B40 		.word	1074462720
 520 0108 00030B40 		.word	1074463488
 521 010c F0010B40 		.word	1074463216
 522 0110 10030B40 		.word	1074463504
 523              		.cfi_endproc
 524              	.LFE4:
 525              		.size	CapSense_1_SsCSDInitialize, .-CapSense_1_SsCSDInitialize
 526              		.section	.text.CapSense_1_SsCSDSetUpIdacs,"ax",%progbits
 527              		.align	2
 528              		.global	CapSense_1_SsCSDSetUpIdacs
 529              		.code	16
 530              		.thumb_func
 531              		.type	CapSense_1_SsCSDSetUpIdacs, %function
 532              	CapSense_1_SsCSDSetUpIdacs:
 533              	.LFB6:
 756:Generated_Source\PSoC4/CapSense_1_SensingCSD_LL.c **** 
 534              		.loc 1 756 0
 535              		.cfi_startproc
 536              		@ args = 0, pretend = 0, frame = 0
ARM GAS  C:\Users\MICHAE~1.MAC\AppData\Local\Temp\ccJeyeG1.s 			page 44


 537              		@ frame_needed = 0, uses_anonymous_args = 0
 538              	.LVL51:
 539 0000 70B5     		push	{r4, r5, r6, lr}
 540              		.cfi_def_cfa_offset 16
 541              		.cfi_offset 4, -16
 542              		.cfi_offset 5, -12
 543              		.cfi_offset 6, -8
 544              		.cfi_offset 14, -4
 545 0002 0500     		movs	r5, r0
 768:Generated_Source\PSoC4/CapSense_1_SensingCSD_LL.c **** 
 546              		.loc 1 768 0
 547 0004 FFF7FEFF 		bl	CyEnterCriticalSection
 548              	.LVL52:
 771:Generated_Source\PSoC4/CapSense_1_SensingCSD_LL.c **** 
 549              		.loc 1 771 0
 550 0008 0C49     		ldr	r1, .L30
 551 000a 0B68     		ldr	r3, [r1]
 552              	.LVL53:
 774:Generated_Source\PSoC4/CapSense_1_SensingCSD_LL.c **** 
 553              		.loc 1 774 0
 554 000c 7F26     		movs	r6, #127
 555 000e B343     		bics	r3, r6
 556              	.LVL54:
 787:Generated_Source\PSoC4/CapSense_1_SensingCSD_LL.c ****     #endif /* (CapSense_1_CSD_MATRIX_WIDGET_EN | CapSense_1_CSD_TOUCHPAD_WIDGET_EN) */
 557              		.loc 1 787 0
 558 0010 0B4A     		ldr	r2, .L30+4
 559 0012 1478     		ldrb	r4, [r2]
 560 0014 2D19     		adds	r5, r5, r4
 561              	.LVL55:
 562 0016 6A7A     		ldrb	r2, [r5, #9]
 563 0018 1343     		orrs	r3, r2
 564              	.LVL56:
 791:Generated_Source\PSoC4/CapSense_1_SensingCSD_LL.c ****     CyExitCriticalSection(interruptState);
 565              		.loc 1 791 0
 566 001a 0B60     		str	r3, [r1]
 792:Generated_Source\PSoC4/CapSense_1_SensingCSD_LL.c **** 
 567              		.loc 1 792 0
 568 001c FFF7FEFF 		bl	CyExitCriticalSection
 569              	.LVL57:
 796:Generated_Source\PSoC4/CapSense_1_SensingCSD_LL.c ****         /* Get IDACB Value */
 570              		.loc 1 796 0
 571 0020 FFF7FEFF 		bl	CyEnterCriticalSection
 572              	.LVL58:
 798:Generated_Source\PSoC4/CapSense_1_SensingCSD_LL.c **** 
 573              		.loc 1 798 0
 574 0024 0749     		ldr	r1, .L30+8
 575 0026 0B68     		ldr	r3, [r1]
 576              	.LVL59:
 801:Generated_Source\PSoC4/CapSense_1_SensingCSD_LL.c **** 
 577              		.loc 1 801 0
 578 0028 B343     		bics	r3, r6
 579              	.LVL60:
 804:Generated_Source\PSoC4/CapSense_1_SensingCSD_LL.c **** 
 580              		.loc 1 804 0
 581 002a 074A     		ldr	r2, .L30+12
 582 002c 1268     		ldr	r2, [r2]
 583 002e 1419     		adds	r4, r2, r4
ARM GAS  C:\Users\MICHAE~1.MAC\AppData\Local\Temp\ccJeyeG1.s 			page 45


 584 0030 627A     		ldrb	r2, [r4, #9]
 585 0032 1343     		orrs	r3, r2
 586              	.LVL61:
 807:Generated_Source\PSoC4/CapSense_1_SensingCSD_LL.c ****         CyExitCriticalSection(interruptState);
 587              		.loc 1 807 0
 588 0034 0B60     		str	r3, [r1]
 808:Generated_Source\PSoC4/CapSense_1_SensingCSD_LL.c ****     #endif /* ((CapSense_1_ENABLE == CapSense_1_CSD_IDAC_COMP_EN) && \
 589              		.loc 1 808 0
 590 0036 FFF7FEFF 		bl	CyExitCriticalSection
 591              	.LVL62:
 849:Generated_Source\PSoC4/CapSense_1_SensingCSD_LL.c **** 
 592              		.loc 1 849 0
 593              		@ sp needed
 594 003a 70BD     		pop	{r4, r5, r6, pc}
 595              	.L31:
 596              		.align	2
 597              	.L30:
 598 003c C0010B40 		.word	1074463168
 599 0040 00000000 		.word	CapSense_1_scanFreqIndex
 600 0044 C4010B40 		.word	1074463172
 601 0048 00000000 		.word	CapSense_1_curRamSnsPtr
 602              		.cfi_endproc
 603              	.LFE6:
 604              		.size	CapSense_1_SsCSDSetUpIdacs, .-CapSense_1_SsCSDSetUpIdacs
 605              		.section	.text.CapSense_1_SsCSDGetNumberOfConversions,"ax",%progbits
 606              		.align	2
 607              		.global	CapSense_1_SsCSDGetNumberOfConversions
 608              		.code	16
 609              		.thumb_func
 610              		.type	CapSense_1_SsCSDGetNumberOfConversions, %function
 611              	CapSense_1_SsCSDGetNumberOfConversions:
 612              	.LFB7:
 873:Generated_Source\PSoC4/CapSense_1_SensingCSD_LL.c ****         uint32 conversionsNum;
 613              		.loc 1 873 0
 614              		.cfi_startproc
 615              		@ args = 0, pretend = 0, frame = 0
 616              		@ frame_needed = 0, uses_anonymous_args = 0
 617              	.LVL63:
 618 0000 10B5     		push	{r4, lr}
 619              		.cfi_def_cfa_offset 8
 620              		.cfi_offset 4, -8
 621              		.cfi_offset 14, -4
 622 0002 0300     		movs	r3, r0
 623 0004 1400     		movs	r4, r2
 880:Generated_Source\PSoC4/CapSense_1_SensingCSD_LL.c **** 
 624              		.loc 1 880 0
 625 0006 0120     		movs	r0, #1
 626              	.LVL64:
 627 0008 8840     		lsls	r0, r0, r1
 628 000a 0138     		subs	r0, r0, #1
 629              	.LVL65:
 909:Generated_Source\PSoC4/CapSense_1_SensingCSD_LL.c ****         {
 630              		.loc 1 909 0
 631 000c 002B     		cmp	r3, #0
 632 000e 02D0     		beq	.L33
 911:Generated_Source\PSoC4/CapSense_1_SensingCSD_LL.c ****         }
 633              		.loc 1 911 0
ARM GAS  C:\Users\MICHAE~1.MAC\AppData\Local\Temp\ccJeyeG1.s 			page 46


 634 0010 1900     		movs	r1, r3
 635              	.LVL66:
 636 0012 FFF7FEFF 		bl	__aeabi_uidiv
 637              	.LVL67:
 638              	.L33:
 917:Generated_Source\PSoC4/CapSense_1_SensingCSD_LL.c ****         {
 639              		.loc 1 917 0
 640 0016 053C     		subs	r4, r4, #5
 641              	.LVL68:
 642 0018 012C     		cmp	r4, #1
 643 001a 00D8     		bhi	.L34
 922:Generated_Source\PSoC4/CapSense_1_SensingCSD_LL.c ****                 break;
 644              		.loc 1 922 0
 645 001c 4008     		lsrs	r0, r0, #1
 646              	.LVL69:
 647              	.L34:
 932:Generated_Source\PSoC4/CapSense_1_SensingCSD_LL.c ****     }
 648              		.loc 1 932 0
 649 001e 0028     		cmp	r0, #0
 650 0020 00D1     		bne	.L36
 651 0022 0130     		adds	r0, r0, #1
 652              	.LVL70:
 653              	.L36:
 933:Generated_Source\PSoC4/CapSense_1_SensingCSD_LL.c **** #endif /* (CapSense_1_ENABLE == CapSense_1_CSDV2) */
 654              		.loc 1 933 0 discriminator 4
 655              		@ sp needed
 656              	.LVL71:
 657 0024 10BD     		pop	{r4, pc}
 658              		.cfi_endproc
 659              	.LFE7:
 660              		.size	CapSense_1_SsCSDGetNumberOfConversions, .-CapSense_1_SsCSDGetNumberOfConversions
 661 0026 C046     		.section	.text.CapSense_1_SsCSDConfigClock,"ax",%progbits
 662              		.align	2
 663              		.global	CapSense_1_SsCSDConfigClock
 664              		.code	16
 665              		.thumb_func
 666              		.type	CapSense_1_SsCSDConfigClock, %function
 667              	CapSense_1_SsCSDConfigClock:
 668              	.LFB8:
 949:Generated_Source\PSoC4/CapSense_1_SensingCSD_LL.c ****     uint32 snsClkDivider;
 669              		.loc 1 949 0
 670              		.cfi_startproc
 671              		@ args = 0, pretend = 0, frame = 0
 672              		@ frame_needed = 0, uses_anonymous_args = 0
 673 0000 10B5     		push	{r4, lr}
 674              		.cfi_def_cfa_offset 8
 675              		.cfi_offset 4, -8
 676              		.cfi_offset 14, -4
 955:Generated_Source\PSoC4/CapSense_1_SensingCSD_LL.c **** 
 677              		.loc 1 955 0
 678 0002 0E4B     		ldr	r3, .L43
 679 0004 1A78     		ldrb	r2, [r3]
 680 0006 D2B2     		uxtb	r2, r2
 954:Generated_Source\PSoC4/CapSense_1_SensingCSD_LL.c ****              CapSense_1_dsFlash.wdgtArray[CapSense_1_widgetIndex].ptr2WdgtRam;
 681              		.loc 1 954 0
 682 0008 D300     		lsls	r3, r2, #3
 683 000a 9A1A     		subs	r2, r3, r2
ARM GAS  C:\Users\MICHAE~1.MAC\AppData\Local\Temp\ccJeyeG1.s 			page 47


 684 000c 9300     		lsls	r3, r2, #2
 685 000e 0C4A     		ldr	r2, .L43+4
 686 0010 D318     		adds	r3, r2, r3
 687 0012 5B68     		ldr	r3, [r3, #4]
 688              	.LVL72:
 972:Generated_Source\PSoC4/CapSense_1_SensingCSD_LL.c ****         #endif /* (CapSense_1_CSD_MATRIX_WIDGET_EN || CapSense_1_CSD_TOUCHPAD_WIDGET_EN) */
 689              		.loc 1 972 0
 690 0014 5989     		ldrh	r1, [r3, #10]
 691              	.LVL73:
 988:Generated_Source\PSoC4/CapSense_1_SensingCSD_LL.c ****     #endif /* (CapSense_1_CSD_MATRIX_WIDGET_EN || CapSense_1_CSD_TOUCHPAD_WIDGET_EN) */
 692              		.loc 1 988 0
 693 0016 1B7B     		ldrb	r3, [r3, #12]
 694              	.LVL74:
 992:Generated_Source\PSoC4/CapSense_1_SensingCSD_LL.c **** 
 695              		.loc 1 992 0
 696 0018 1804     		lsls	r0, r3, #16
 697              	.LVL75:
 995:Generated_Source\PSoC4/CapSense_1_SensingCSD_LL.c ****             (CapSense_1_CLK_SOURCE_PRS12 == snsClkSrc))
 698              		.loc 1 995 0
 699 001a 5A1F     		subs	r2, r3, #5
 700 001c 012A     		cmp	r2, #1
 701 001e 02D8     		bhi	.L39
 998:Generated_Source\PSoC4/CapSense_1_SensingCSD_LL.c ****         }
 702              		.loc 1 998 0
 703 0020 8022     		movs	r2, #128
 704 0022 9204     		lsls	r2, r2, #18
 705 0024 1043     		orrs	r0, r2
 706              	.LVL76:
 707              	.L39:
1007:Generated_Source\PSoC4/CapSense_1_SensingCSD_LL.c ****         {
 708              		.loc 1 1007 0
 709 0026 053B     		subs	r3, r3, #5
 710              	.LVL77:
 711 0028 DBB2     		uxtb	r3, r3
 712              	.LVL78:
 713 002a 012B     		cmp	r3, #1
 714 002c 02D8     		bhi	.L40
1012:Generated_Source\PSoC4/CapSense_1_SensingCSD_LL.c ****             if (snsClkDivider == 0u)
 715              		.loc 1 1012 0
 716 002e 4908     		lsrs	r1, r1, #1
 717              	.LVL79:
1013:Generated_Source\PSoC4/CapSense_1_SensingCSD_LL.c ****             {
 718              		.loc 1 1013 0
 719 0030 00D1     		bne	.L40
1015:Generated_Source\PSoC4/CapSense_1_SensingCSD_LL.c ****             }
 720              		.loc 1 1015 0
 721 0032 0131     		adds	r1, r1, #1
 722              	.LVL80:
 723              	.L40:
1025:Generated_Source\PSoC4/CapSense_1_SensingCSD_LL.c **** }
 724              		.loc 1 1025 0
 725 0034 FFF7FEFF 		bl	CapSense_1_SsCSDSetModeSnsClockDivider
 726              	.LVL81:
1026:Generated_Source\PSoC4/CapSense_1_SensingCSD_LL.c **** 
 727              		.loc 1 1026 0
 728              		@ sp needed
 729 0038 10BD     		pop	{r4, pc}
ARM GAS  C:\Users\MICHAE~1.MAC\AppData\Local\Temp\ccJeyeG1.s 			page 48


 730              	.L44:
 731 003a C046     		.align	2
 732              	.L43:
 733 003c 00000000 		.word	CapSense_1_widgetIndex
 734 0040 00000000 		.word	CapSense_1_dsFlash
 735              		.cfi_endproc
 736              	.LFE8:
 737              		.size	CapSense_1_SsCSDConfigClock, .-CapSense_1_SsCSDConfigClock
 738              		.section	.text.CapSense_1_SsCSDCalculateScanDuration,"ax",%progbits
 739              		.align	2
 740              		.global	CapSense_1_SsCSDCalculateScanDuration
 741              		.code	16
 742              		.thumb_func
 743              		.type	CapSense_1_SsCSDCalculateScanDuration, %function
 744              	CapSense_1_SsCSDCalculateScanDuration:
 745              	.LFB9:
1050:Generated_Source\PSoC4/CapSense_1_SensingCSD_LL.c ****     #if (CapSense_1_ENABLE == CapSense_1_CSDV2)
 746              		.loc 1 1050 0
 747              		.cfi_startproc
 748              		@ args = 0, pretend = 0, frame = 0
 749              		@ frame_needed = 0, uses_anonymous_args = 0
 750              	.LVL82:
 751 0000 10B5     		push	{r4, lr}
 752              		.cfi_def_cfa_offset 8
 753              		.cfi_offset 4, -8
 754              		.cfi_offset 14, -4
 755 0002 0300     		movs	r3, r0
1070:Generated_Source\PSoC4/CapSense_1_SensingCSD_LL.c ****         #endif /* (CapSense_1_CSD_MATRIX_WIDGET_EN || CapSense_1_CSD_TOUCHPAD_WIDGET_EN) */
 756              		.loc 1 1070 0
 757 0004 4089     		ldrh	r0, [r0, #10]
 758              	.LVL83:
1074:Generated_Source\PSoC4/CapSense_1_SensingCSD_LL.c **** 
 759              		.loc 1 1074 0
 760 0006 1988     		ldrh	r1, [r3]
 761 0008 1A7B     		ldrb	r2, [r3, #12]
 762 000a FFF7FEFF 		bl	CapSense_1_SsCSDGetNumberOfConversions
 763              	.LVL84:
1077:Generated_Source\PSoC4/CapSense_1_SensingCSD_LL.c ****     #else
 764              		.loc 1 1077 0
 765 000e 0004     		lsls	r0, r0, #16
 766              	.LVL85:
 767 0010 000C     		lsrs	r0, r0, #16
 768 0012 014B     		ldr	r3, .L46
 769 0014 1860     		str	r0, [r3]
1082:Generated_Source\PSoC4/CapSense_1_SensingCSD_LL.c **** 
 770              		.loc 1 1082 0
 771              		@ sp needed
 772 0016 10BD     		pop	{r4, pc}
 773              	.L47:
 774              		.align	2
 775              	.L46:
 776 0018 14030B40 		.word	1074463508
 777              		.cfi_endproc
 778              	.LFE9:
 779              		.size	CapSense_1_SsCSDCalculateScanDuration, .-CapSense_1_SsCSDCalculateScanDuration
 780              		.section	.text.CapSense_1_SsCSDStartSample,"ax",%progbits
 781              		.align	2
ARM GAS  C:\Users\MICHAE~1.MAC\AppData\Local\Temp\ccJeyeG1.s 			page 49


 782              		.global	CapSense_1_SsCSDStartSample
 783              		.code	16
 784              		.thumb_func
 785              		.type	CapSense_1_SsCSDStartSample, %function
 786              	CapSense_1_SsCSDStartSample:
 787              	.LFB12:
1264:Generated_Source\PSoC4/CapSense_1_SensingCSD_LL.c ****     #if (CapSense_1_ENABLE != CapSense_1_CSDV2)
 788              		.loc 1 1264 0
 789              		.cfi_startproc
 790              		@ args = 0, pretend = 0, frame = 0
 791              		@ frame_needed = 0, uses_anonymous_args = 0
 792 0000 10B5     		push	{r4, lr}
 793              		.cfi_def_cfa_offset 8
 794              		.cfi_offset 4, -8
 795              		.cfi_offset 14, -4
1277:Generated_Source\PSoC4/CapSense_1_SensingCSD_LL.c **** 
 796              		.loc 1 1277 0
 797 0002 0A20     		movs	r0, #10
 798 0004 FFF7FEFF 		bl	CyIntDisable
 799              	.LVL86:
1280:Generated_Source\PSoC4/CapSense_1_SensingCSD_LL.c **** 
 800              		.loc 1 1280 0
 801 0008 0122     		movs	r2, #1
 802 000a 2D4B     		ldr	r3, .L56
 803 000c 1A60     		str	r2, [r3]
 804              	.LBB6:
 805              	.LBB7:
1874:Generated_Source\PSoC4/CapSense_1_SensingCSD_LL.c **** 
1875:Generated_Source\PSoC4/CapSense_1_SensingCSD_LL.c ****     /*******************************************************************************
1876:Generated_Source\PSoC4/CapSense_1_SensingCSD_LL.c ****     * Function Name: CapSense_1_SsCSDCalibrateOneSensor
1877:Generated_Source\PSoC4/CapSense_1_SensingCSD_LL.c ****     ****************************************************************************//**
1878:Generated_Source\PSoC4/CapSense_1_SensingCSD_LL.c ****     *
1879:Generated_Source\PSoC4/CapSense_1_SensingCSD_LL.c ****     * \brief
1880:Generated_Source\PSoC4/CapSense_1_SensingCSD_LL.c ****     *  Computes the Modulator IDAC value for one sensor that provides raw signal at
1881:Generated_Source\PSoC4/CapSense_1_SensingCSD_LL.c ****     *  the specified level.
1882:Generated_Source\PSoC4/CapSense_1_SensingCSD_LL.c ****     *
1883:Generated_Source\PSoC4/CapSense_1_SensingCSD_LL.c ****     * \details
1884:Generated_Source\PSoC4/CapSense_1_SensingCSD_LL.c ****     *   The function performs the following tasks:
1885:Generated_Source\PSoC4/CapSense_1_SensingCSD_LL.c ****     *   1. initializes The Compensation IDAC to zero
1886:Generated_Source\PSoC4/CapSense_1_SensingCSD_LL.c ****     *   2. Enables the calibrated sensor
1887:Generated_Source\PSoC4/CapSense_1_SensingCSD_LL.c ****     *   3. Performs eight iteration steps to get the target = rawLevel
1888:Generated_Source\PSoC4/CapSense_1_SensingCSD_LL.c ****     *      setting and resetting the IDAC value bits beginning from the
1889:Generated_Source\PSoC4/CapSense_1_SensingCSD_LL.c ****     *      MSB bit to an MSB bit.
1890:Generated_Source\PSoC4/CapSense_1_SensingCSD_LL.c ****     *   4. Disables the calibrated sensor
1891:Generated_Source\PSoC4/CapSense_1_SensingCSD_LL.c ****     *   5. Checks if the IDAC is in the correct range
1892:Generated_Source\PSoC4/CapSense_1_SensingCSD_LL.c ****     *   6. Updates the maximum IDAC value in the widget
1893:Generated_Source\PSoC4/CapSense_1_SensingCSD_LL.c ****     *   7. Stores the temporary ModIDAC8 value (in the single-IDAC mode).
1894:Generated_Source\PSoC4/CapSense_1_SensingCSD_LL.c ****     *
1895:Generated_Source\PSoC4/CapSense_1_SensingCSD_LL.c ****     *  The CSD block should be initialized with the CapSense_1_SsCSDInitialize()
1896:Generated_Source\PSoC4/CapSense_1_SensingCSD_LL.c ****     *  API before using this function.
1897:Generated_Source\PSoC4/CapSense_1_SensingCSD_LL.c ****     *
1898:Generated_Source\PSoC4/CapSense_1_SensingCSD_LL.c ****     * \param  rawLevel
1899:Generated_Source\PSoC4/CapSense_1_SensingCSD_LL.c ****     *   The raw data level which should be reached during the calibration procedure.
1900:Generated_Source\PSoC4/CapSense_1_SensingCSD_LL.c ****     * \param  ptrIdac  The pointer to IDAC.
1901:Generated_Source\PSoC4/CapSense_1_SensingCSD_LL.c ****     * \param  iDAC8Max The pointer to the maximum IDAC value in the widget.
1902:Generated_Source\PSoC4/CapSense_1_SensingCSD_LL.c ****     *
1903:Generated_Source\PSoC4/CapSense_1_SensingCSD_LL.c ****     * \return Returns the status of the operation:
ARM GAS  C:\Users\MICHAE~1.MAC\AppData\Local\Temp\ccJeyeG1.s 			page 50


1904:Generated_Source\PSoC4/CapSense_1_SensingCSD_LL.c ****     *  - Zero     - All the sensors in the widget are calibrated successfully.
1905:Generated_Source\PSoC4/CapSense_1_SensingCSD_LL.c ****     *  - Non-Zero - Calibration failed for any sensor in the widget.
1906:Generated_Source\PSoC4/CapSense_1_SensingCSD_LL.c ****     *
1907:Generated_Source\PSoC4/CapSense_1_SensingCSD_LL.c ****     *******************************************************************************/
1908:Generated_Source\PSoC4/CapSense_1_SensingCSD_LL.c ****     static cystatus CapSense_1_SsCSDCalibrateOneSensor(uint32 rawLevel,
1909:Generated_Source\PSoC4/CapSense_1_SensingCSD_LL.c ****                                                            uint8 *ptrIdac,
1910:Generated_Source\PSoC4/CapSense_1_SensingCSD_LL.c ****                                                            uint8 *iDAC8Max)
1911:Generated_Source\PSoC4/CapSense_1_SensingCSD_LL.c ****     {
1912:Generated_Source\PSoC4/CapSense_1_SensingCSD_LL.c ****         cystatus calibrateStatus;
1913:Generated_Source\PSoC4/CapSense_1_SensingCSD_LL.c ****         uint32 calMask = ((uint32)CapSense_1_CAL_MIDDLE_BIT << 1uL);
1914:Generated_Source\PSoC4/CapSense_1_SensingCSD_LL.c ****         uint32 watchdogCounter;
1915:Generated_Source\PSoC4/CapSense_1_SensingCSD_LL.c **** 
1916:Generated_Source\PSoC4/CapSense_1_SensingCSD_LL.c ****         uint16 rawData0 = 0u;
1917:Generated_Source\PSoC4/CapSense_1_SensingCSD_LL.c ****         #if (CapSense_1_ENABLE == CapSense_1_MULTI_FREQ_SCAN_EN)
1918:Generated_Source\PSoC4/CapSense_1_SensingCSD_LL.c ****             uint16 rawData1 = 0u;
1919:Generated_Source\PSoC4/CapSense_1_SensingCSD_LL.c ****             uint16 rawData2 = 0u;
1920:Generated_Source\PSoC4/CapSense_1_SensingCSD_LL.c ****         #endif /* (CapSense_1_ENABLE == CapSense_1_MULTI_FREQ_SCAN_EN) */
1921:Generated_Source\PSoC4/CapSense_1_SensingCSD_LL.c **** 
1922:Generated_Source\PSoC4/CapSense_1_SensingCSD_LL.c ****         /* Declare and initialize ptr to widget and sensor structures to appropriate address */
1923:Generated_Source\PSoC4/CapSense_1_SensingCSD_LL.c ****         CapSense_1_RAM_WD_BASE_STRUCT *ptrWdgt = (CapSense_1_RAM_WD_BASE_STRUCT *)
1924:Generated_Source\PSoC4/CapSense_1_SensingCSD_LL.c ****                                                         CapSense_1_dsFlash.wdgtArray[CapSense_1_wid
1925:Generated_Source\PSoC4/CapSense_1_SensingCSD_LL.c **** 
1926:Generated_Source\PSoC4/CapSense_1_SensingCSD_LL.c ****         ptrIdac[0u] = 0u;
1927:Generated_Source\PSoC4/CapSense_1_SensingCSD_LL.c ****         #if (CapSense_1_ENABLE == CapSense_1_MULTI_FREQ_SCAN_EN)
1928:Generated_Source\PSoC4/CapSense_1_SensingCSD_LL.c ****             ptrIdac[CapSense_1_FREQ_CHANNEL_1] = 0u;
1929:Generated_Source\PSoC4/CapSense_1_SensingCSD_LL.c ****             ptrIdac[CapSense_1_FREQ_CHANNEL_2] = 0u;
1930:Generated_Source\PSoC4/CapSense_1_SensingCSD_LL.c ****         #endif /* (CapSense_1_ENABLE == CapSense_1_MULTI_FREQ_SCAN_EN) */
1931:Generated_Source\PSoC4/CapSense_1_SensingCSD_LL.c **** 
1932:Generated_Source\PSoC4/CapSense_1_SensingCSD_LL.c ****         /* Setup the calibrated sensor of the widget (Set IDAC = calMask and connect the sensor) */
1933:Generated_Source\PSoC4/CapSense_1_SensingCSD_LL.c ****         CapSense_1_CSDSetupWidgetExt((uint32)CapSense_1_widgetIndex, (uint32)CapSense_1_sensorIndex
1934:Generated_Source\PSoC4/CapSense_1_SensingCSD_LL.c **** 
1935:Generated_Source\PSoC4/CapSense_1_SensingCSD_LL.c ****         #if (CapSense_1_ENABLE == CapSense_1_CSD_IDAC_COMP_EN)
1936:Generated_Source\PSoC4/CapSense_1_SensingCSD_LL.c ****             /* Set single IDAC mode */
1937:Generated_Source\PSoC4/CapSense_1_SensingCSD_LL.c ****             CapSense_1_SsCSDSetSingleIdacMode();
1938:Generated_Source\PSoC4/CapSense_1_SensingCSD_LL.c ****         #endif /* (CapSense_1_ENABLE == CapSense_1_CSD_IDAC_COMP_EN) */
1939:Generated_Source\PSoC4/CapSense_1_SensingCSD_LL.c **** 
1940:Generated_Source\PSoC4/CapSense_1_SensingCSD_LL.c ****         /*
1941:Generated_Source\PSoC4/CapSense_1_SensingCSD_LL.c ****          * Perform the iteration steps to get target = rawLevel.
1942:Generated_Source\PSoC4/CapSense_1_SensingCSD_LL.c ****          * The number of iteration steps is defined by calMask and depend on IDAC resolution.
1943:Generated_Source\PSoC4/CapSense_1_SensingCSD_LL.c ****          */
1944:Generated_Source\PSoC4/CapSense_1_SensingCSD_LL.c ****         do
1945:Generated_Source\PSoC4/CapSense_1_SensingCSD_LL.c ****         {
1946:Generated_Source\PSoC4/CapSense_1_SensingCSD_LL.c ****             /* Decrease IDAC until rawData reaches rawLevel */
1947:Generated_Source\PSoC4/CapSense_1_SensingCSD_LL.c ****             if (rawData0 < rawLevel)
1948:Generated_Source\PSoC4/CapSense_1_SensingCSD_LL.c ****             {
1949:Generated_Source\PSoC4/CapSense_1_SensingCSD_LL.c ****                 /* Reset bit for null channel (decrease IDAC -> will increase rawData) */
1950:Generated_Source\PSoC4/CapSense_1_SensingCSD_LL.c ****                 ptrIdac[0u] &= (uint8)(~calMask);
1951:Generated_Source\PSoC4/CapSense_1_SensingCSD_LL.c ****             }
1952:Generated_Source\PSoC4/CapSense_1_SensingCSD_LL.c ****             #if (CapSense_1_ENABLE == CapSense_1_MULTI_FREQ_SCAN_EN)
1953:Generated_Source\PSoC4/CapSense_1_SensingCSD_LL.c ****                 if (rawData1 < rawLevel)
1954:Generated_Source\PSoC4/CapSense_1_SensingCSD_LL.c ****                 {
1955:Generated_Source\PSoC4/CapSense_1_SensingCSD_LL.c ****                     ptrIdac[CapSense_1_FREQ_CHANNEL_1] &= (uint8)(~calMask);
1956:Generated_Source\PSoC4/CapSense_1_SensingCSD_LL.c ****                 }
1957:Generated_Source\PSoC4/CapSense_1_SensingCSD_LL.c ****                 if (rawData2 < rawLevel)
1958:Generated_Source\PSoC4/CapSense_1_SensingCSD_LL.c ****                 {
1959:Generated_Source\PSoC4/CapSense_1_SensingCSD_LL.c ****                     ptrIdac[CapSense_1_FREQ_CHANNEL_2] &= (uint8)(~calMask);
1960:Generated_Source\PSoC4/CapSense_1_SensingCSD_LL.c ****                 }
ARM GAS  C:\Users\MICHAE~1.MAC\AppData\Local\Temp\ccJeyeG1.s 			page 51


1961:Generated_Source\PSoC4/CapSense_1_SensingCSD_LL.c ****             #endif /* (CapSense_1_ENABLE == CapSense_1_MULTI_FREQ_SCAN_EN) */
1962:Generated_Source\PSoC4/CapSense_1_SensingCSD_LL.c **** 
1963:Generated_Source\PSoC4/CapSense_1_SensingCSD_LL.c ****             /*
1964:Generated_Source\PSoC4/CapSense_1_SensingCSD_LL.c ****             * Shift calMask to set or reset next bit.
1965:Generated_Source\PSoC4/CapSense_1_SensingCSD_LL.c ****             * Perform scan even if callibration mask is equal to zero.
1966:Generated_Source\PSoC4/CapSense_1_SensingCSD_LL.c ****             * It gives raw counts for the last changed IDAC.
1967:Generated_Source\PSoC4/CapSense_1_SensingCSD_LL.c ****             */
1968:Generated_Source\PSoC4/CapSense_1_SensingCSD_LL.c ****             calMask >>= 1u;
1969:Generated_Source\PSoC4/CapSense_1_SensingCSD_LL.c **** 
1970:Generated_Source\PSoC4/CapSense_1_SensingCSD_LL.c ****             /* Set bit for null channel */
1971:Generated_Source\PSoC4/CapSense_1_SensingCSD_LL.c ****             ptrIdac[0u] |= (uint8)calMask;
1972:Generated_Source\PSoC4/CapSense_1_SensingCSD_LL.c ****             #if (CapSense_1_ENABLE == CapSense_1_MULTI_FREQ_SCAN_EN)
