ARM GAS  C:\Users\MICHAE~1.MAC\AppData\Local\Temp\ccPFa5AJ.s 			page 1


   1              		.syntax unified
   2              		.cpu cortex-m0plus
   3              		.fpu softvfp
   4              		.eabi_attribute 20, 1
   5              		.eabi_attribute 21, 1
   6              		.eabi_attribute 23, 3
   7              		.eabi_attribute 24, 1
   8              		.eabi_attribute 25, 1
   9              		.eabi_attribute 26, 1
  10              		.eabi_attribute 30, 1
  11              		.eabi_attribute 34, 0
  12              		.eabi_attribute 18, 4
  13              		.thumb
  14              		.syntax unified
  15              		.file	"CapSense_1_INT.c"
  16              		.text
  17              	.Ltext0:
  18              		.cfi_sections	.debug_frame
  19              		.section	.text.CapSense_1_SsCSDPostScan,"ax",%progbits
  20              		.align	2
  21              		.code	16
  22              		.thumb_func
  23              		.type	CapSense_1_SsCSDPostScan, %function
  24              	CapSense_1_SsCSDPostScan:
  25              	.LFB3:
  26              		.file 1 "Generated_Source\\PSoC4\\CapSense_1_INT.c"
   1:Generated_Source\PSoC4/CapSense_1_INT.c **** /***************************************************************************//**
   2:Generated_Source\PSoC4/CapSense_1_INT.c **** * \file CapSense_1_INT.c
   3:Generated_Source\PSoC4/CapSense_1_INT.c **** * \version 5.20
   4:Generated_Source\PSoC4/CapSense_1_INT.c **** *
   5:Generated_Source\PSoC4/CapSense_1_INT.c **** * \brief
   6:Generated_Source\PSoC4/CapSense_1_INT.c **** *   This file contains the source code for implementation of the Component's
   7:Generated_Source\PSoC4/CapSense_1_INT.c **** *   Interrupt Service Routine (ISR).
   8:Generated_Source\PSoC4/CapSense_1_INT.c **** *
   9:Generated_Source\PSoC4/CapSense_1_INT.c **** * \see CapSense_1 v5.20 Datasheet
  10:Generated_Source\PSoC4/CapSense_1_INT.c **** *
  11:Generated_Source\PSoC4/CapSense_1_INT.c **** *//*****************************************************************************
  12:Generated_Source\PSoC4/CapSense_1_INT.c **** * Copyright (2016-2018), Cypress Semiconductor Corporation.
  13:Generated_Source\PSoC4/CapSense_1_INT.c **** ********************************************************************************
  14:Generated_Source\PSoC4/CapSense_1_INT.c **** * This software is owned by Cypress Semiconductor Corporation (Cypress) and is
  15:Generated_Source\PSoC4/CapSense_1_INT.c **** * protected by and subject to worldwide patent protection (United States and
  16:Generated_Source\PSoC4/CapSense_1_INT.c **** * foreign), United States copyright laws and international treaty provisions.
  17:Generated_Source\PSoC4/CapSense_1_INT.c **** * Cypress hereby grants to licensee a personal, non-exclusive, non-transferable
  18:Generated_Source\PSoC4/CapSense_1_INT.c **** * license to copy, use, modify, create derivative works of, and compile the
  19:Generated_Source\PSoC4/CapSense_1_INT.c **** * Cypress Source Code and derivative works for the sole purpose of creating
  20:Generated_Source\PSoC4/CapSense_1_INT.c **** * custom software in support of licensee product to be used only in conjunction
  21:Generated_Source\PSoC4/CapSense_1_INT.c **** * with a Cypress integrated circuit as specified in the applicable agreement.
  22:Generated_Source\PSoC4/CapSense_1_INT.c **** * Any reproduction, modification, translation, compilation, or representation of
  23:Generated_Source\PSoC4/CapSense_1_INT.c **** * this software except as specified above is prohibited without the express
  24:Generated_Source\PSoC4/CapSense_1_INT.c **** * written permission of Cypress.
  25:Generated_Source\PSoC4/CapSense_1_INT.c **** *
  26:Generated_Source\PSoC4/CapSense_1_INT.c **** * Disclaimer: CYPRESS MAKES NO WARRANTY OF ANY KIND, EXPRESS OR IMPLIED, WITH
  27:Generated_Source\PSoC4/CapSense_1_INT.c **** * REGARD TO THIS MATERIAL, INCLUDING, BUT NOT LIMITED TO, THE IMPLIED
  28:Generated_Source\PSoC4/CapSense_1_INT.c **** * WARRANTIES OF MERCHANTABILITY AND FITNESS FOR A PARTICULAR PURPOSE.
  29:Generated_Source\PSoC4/CapSense_1_INT.c **** * Cypress reserves the right to make changes without further notice to the
  30:Generated_Source\PSoC4/CapSense_1_INT.c **** * materials described herein. Cypress does not assume any liability arising out
  31:Generated_Source\PSoC4/CapSense_1_INT.c **** * of the application or use of any product or circuit described herein. Cypress
ARM GAS  C:\Users\MICHAE~1.MAC\AppData\Local\Temp\ccPFa5AJ.s 			page 2


  32:Generated_Source\PSoC4/CapSense_1_INT.c **** * does not authorize its products for use as critical components in life-support
  33:Generated_Source\PSoC4/CapSense_1_INT.c **** * systems where a malfunction or failure may reasonably be expected to result in
  34:Generated_Source\PSoC4/CapSense_1_INT.c **** * significant injury to the user. The inclusion of Cypress' product in a life-
  35:Generated_Source\PSoC4/CapSense_1_INT.c **** * support systems application implies that the manufacturer assumes all risk of
  36:Generated_Source\PSoC4/CapSense_1_INT.c **** * such use and in doing so indemnifies Cypress against all charges. Use may be
  37:Generated_Source\PSoC4/CapSense_1_INT.c **** * limited by and subject to the applicable Cypress software license agreement.
  38:Generated_Source\PSoC4/CapSense_1_INT.c **** *******************************************************************************/
  39:Generated_Source\PSoC4/CapSense_1_INT.c **** #include "cytypes.h"
  40:Generated_Source\PSoC4/CapSense_1_INT.c **** #include "cyfitter.h"
  41:Generated_Source\PSoC4/CapSense_1_INT.c **** #include "CapSense_1_Configuration.h"
  42:Generated_Source\PSoC4/CapSense_1_INT.c **** #include "CapSense_1_Structure.h"
  43:Generated_Source\PSoC4/CapSense_1_INT.c **** #include "CapSense_1_Sensing.h"
  44:Generated_Source\PSoC4/CapSense_1_INT.c **** #if (CapSense_1_ENABLE == CapSense_1_CSD_EN)
  45:Generated_Source\PSoC4/CapSense_1_INT.c ****     #include "CapSense_1_SensingCSD_LL.h"
  46:Generated_Source\PSoC4/CapSense_1_INT.c **** #endif /* (CapSense_1_ENABLE == CapSense_1_CSD_EN) */
  47:Generated_Source\PSoC4/CapSense_1_INT.c **** #include "cyapicallbacks.h"
  48:Generated_Source\PSoC4/CapSense_1_INT.c **** 
  49:Generated_Source\PSoC4/CapSense_1_INT.c **** /*******************************************************************************
  50:Generated_Source\PSoC4/CapSense_1_INT.c **** * Static Function Prototypes
  51:Generated_Source\PSoC4/CapSense_1_INT.c **** *******************************************************************************/
  52:Generated_Source\PSoC4/CapSense_1_INT.c **** /**
  53:Generated_Source\PSoC4/CapSense_1_INT.c **** * \cond SECTION_C_INTERNAL
  54:Generated_Source\PSoC4/CapSense_1_INT.c **** * \addtogroup group_c_internal
  55:Generated_Source\PSoC4/CapSense_1_INT.c **** * \{
  56:Generated_Source\PSoC4/CapSense_1_INT.c **** */
  57:Generated_Source\PSoC4/CapSense_1_INT.c **** 
  58:Generated_Source\PSoC4/CapSense_1_INT.c **** #if (((CapSense_1_ENABLE == CapSense_1_CSD_EN) || (CapSense_1_ENABLE == CapSense_1_CSD_CSX_EN)) && 
  59:Generated_Source\PSoC4/CapSense_1_INT.c ****      (CapSense_1_ENABLE == CapSense_1_MULTI_FREQ_SCAN_EN))
  60:Generated_Source\PSoC4/CapSense_1_INT.c ****     static void CapSense_1_SsNextFrequencyScan(void);
  61:Generated_Source\PSoC4/CapSense_1_INT.c **** #endif /* (((CapSense_1_ENABLE == CapSense_1_CSD_EN) || (CapSense_1_ENABLE == CapSense_1_CSD_CSX_EN
  62:Generated_Source\PSoC4/CapSense_1_INT.c ****             (CapSense_1_ENABLE == CapSense_1_MULTI_FREQ_SCAN_EN)) */
  63:Generated_Source\PSoC4/CapSense_1_INT.c **** 
  64:Generated_Source\PSoC4/CapSense_1_INT.c **** #if ((CapSense_1_ENABLE == CapSense_1_CSD_EN) || (CapSense_1_ENABLE == CapSense_1_CSD_CSX_EN))
  65:Generated_Source\PSoC4/CapSense_1_INT.c ****     static void CapSense_1_SsCSDPostScan(void);
  66:Generated_Source\PSoC4/CapSense_1_INT.c ****     static void CapSense_1_SsCSDInitNextScan(void);
  67:Generated_Source\PSoC4/CapSense_1_INT.c **** #endif /* ((CapSense_1_ENABLE == CapSense_1_CSD_EN) || (CapSense_1_ENABLE == CapSense_1_CSD_CSX_EN)
  68:Generated_Source\PSoC4/CapSense_1_INT.c **** /** \}
  69:Generated_Source\PSoC4/CapSense_1_INT.c **** * \endcond */
  70:Generated_Source\PSoC4/CapSense_1_INT.c **** 
  71:Generated_Source\PSoC4/CapSense_1_INT.c **** 
  72:Generated_Source\PSoC4/CapSense_1_INT.c **** /**
  73:Generated_Source\PSoC4/CapSense_1_INT.c **** * \cond SECTION_C_INTERRUPT
  74:Generated_Source\PSoC4/CapSense_1_INT.c **** * \addtogroup group_c_interrupt
  75:Generated_Source\PSoC4/CapSense_1_INT.c **** * \{
  76:Generated_Source\PSoC4/CapSense_1_INT.c **** */
  77:Generated_Source\PSoC4/CapSense_1_INT.c **** 
  78:Generated_Source\PSoC4/CapSense_1_INT.c **** 
  79:Generated_Source\PSoC4/CapSense_1_INT.c **** #if ((CapSense_1_ENABLE == CapSense_1_CSD_EN) || (CapSense_1_ENABLE == CapSense_1_CSD_CSX_EN))
  80:Generated_Source\PSoC4/CapSense_1_INT.c **** 
  81:Generated_Source\PSoC4/CapSense_1_INT.c **** #if (CapSense_1_ENABLE == CapSense_1_CSDV2)
  82:Generated_Source\PSoC4/CapSense_1_INT.c ****     /* Fourth-generation HW block part */
  83:Generated_Source\PSoC4/CapSense_1_INT.c **** 
  84:Generated_Source\PSoC4/CapSense_1_INT.c ****     /*******************************************************************************
  85:Generated_Source\PSoC4/CapSense_1_INT.c ****     * Function Name: CapSense_1_CSDPostSingleScan
  86:Generated_Source\PSoC4/CapSense_1_INT.c ****     ****************************************************************************//**
  87:Generated_Source\PSoC4/CapSense_1_INT.c ****     *
  88:Generated_Source\PSoC4/CapSense_1_INT.c ****     * \brief
ARM GAS  C:\Users\MICHAE~1.MAC\AppData\Local\Temp\ccPFa5AJ.s 			page 3


  89:Generated_Source\PSoC4/CapSense_1_INT.c ****     *  This is an internal ISR function for the single-sensor scanning implementation.
  90:Generated_Source\PSoC4/CapSense_1_INT.c ****     *
  91:Generated_Source\PSoC4/CapSense_1_INT.c ****     * \details
  92:Generated_Source\PSoC4/CapSense_1_INT.c ****     *  This ISR handler is triggered when the user calls the
  93:Generated_Source\PSoC4/CapSense_1_INT.c ****     *  CapSense_1_CSDScanExt() function.
  94:Generated_Source\PSoC4/CapSense_1_INT.c ****     *
  95:Generated_Source\PSoC4/CapSense_1_INT.c ****     *  The following tasks are performed for Third-generation HW block:
  96:Generated_Source\PSoC4/CapSense_1_INT.c ****     *    1. Disable the CSD interrupt.
  97:Generated_Source\PSoC4/CapSense_1_INT.c ****     *    2. Read the Counter register and update the data structure with raw data.
  98:Generated_Source\PSoC4/CapSense_1_INT.c ****     *    3. Connect the Vref buffer to the AMUX bus.
  99:Generated_Source\PSoC4/CapSense_1_INT.c ****     *    4. Update the Scan Counter.
 100:Generated_Source\PSoC4/CapSense_1_INT.c ****     *    5. Reset the BUSY flag.
 101:Generated_Source\PSoC4/CapSense_1_INT.c ****     *    6. Enable the CSD interrupt.
 102:Generated_Source\PSoC4/CapSense_1_INT.c ****     *
 103:Generated_Source\PSoC4/CapSense_1_INT.c ****     *  The following tasks are performed for Fourth-generation HW block:
 104:Generated_Source\PSoC4/CapSense_1_INT.c ****     *    1. Check if the raw data is not noisy.
 105:Generated_Source\PSoC4/CapSense_1_INT.c ****     *    2. Read the Counter register and update the data structure with raw data.
 106:Generated_Source\PSoC4/CapSense_1_INT.c ****     *    3. Configure and start the scan for the next frequency if the
 107:Generated_Source\PSoC4/CapSense_1_INT.c ****     *      multi-frequency is enabled.
 108:Generated_Source\PSoC4/CapSense_1_INT.c ****     *    4. Update the Scan Counter.
 109:Generated_Source\PSoC4/CapSense_1_INT.c ****     *    5. Reset the BUSY flag.
 110:Generated_Source\PSoC4/CapSense_1_INT.c ****     *    6. Enable the CSD interrupt.
 111:Generated_Source\PSoC4/CapSense_1_INT.c ****     *
 112:Generated_Source\PSoC4/CapSense_1_INT.c ****     *  The ISR handler changes the IMO and initializes scanning for the next frequency
 113:Generated_Source\PSoC4/CapSense_1_INT.c ****     *  channels when multi-frequency scanning is enabled.
 114:Generated_Source\PSoC4/CapSense_1_INT.c ****     *
 115:Generated_Source\PSoC4/CapSense_1_INT.c ****     *  This function has two Macro Callbacks that allow calling the user code
 116:Generated_Source\PSoC4/CapSense_1_INT.c ****     *  from macros specified in Component's generated code. Refer to the
 117:Generated_Source\PSoC4/CapSense_1_INT.c ****     *  \ref group_c_macrocallbacks section of the PSoC Creator User Guide
 118:Generated_Source\PSoC4/CapSense_1_INT.c ****     *  for details.
 119:Generated_Source\PSoC4/CapSense_1_INT.c ****     *
 120:Generated_Source\PSoC4/CapSense_1_INT.c ****     *******************************************************************************/
 121:Generated_Source\PSoC4/CapSense_1_INT.c ****     CY_ISR(CapSense_1_CSDPostSingleScan)
 122:Generated_Source\PSoC4/CapSense_1_INT.c ****     {
 123:Generated_Source\PSoC4/CapSense_1_INT.c ****         #ifdef CapSense_1_ENTRY_CALLBACK
 124:Generated_Source\PSoC4/CapSense_1_INT.c ****             CapSense_1_EntryCallback();
 125:Generated_Source\PSoC4/CapSense_1_INT.c ****         #endif /* CapSense_1_ENTRY_CALLBACK */
 126:Generated_Source\PSoC4/CapSense_1_INT.c **** 
 127:Generated_Source\PSoC4/CapSense_1_INT.c ****         /* Clear pending interrupt */
 128:Generated_Source\PSoC4/CapSense_1_INT.c ****         CY_SET_REG32(CapSense_1_INTR_PTR, CapSense_1_INTR_SET_MASK);
 129:Generated_Source\PSoC4/CapSense_1_INT.c **** 
 130:Generated_Source\PSoC4/CapSense_1_INT.c ****         #if (CapSense_1_ENABLE == CapSense_1_CSD_NOISE_METRIC_EN)
 131:Generated_Source\PSoC4/CapSense_1_INT.c ****             if ((CapSense_1_CSD_NOISE_METRIC_TH < ((CY_GET_REG32(CapSense_1_RESULT_VAL1_PTR) &
 132:Generated_Source\PSoC4/CapSense_1_INT.c ****                                                         CapSense_1_RESULT_VAL1_BAD_CONVS_MASK) >>
 133:Generated_Source\PSoC4/CapSense_1_INT.c ****                                                         CapSense_1_RESULT_VAL1_BAD_CONVS_SHIFT)) &&
 134:Generated_Source\PSoC4/CapSense_1_INT.c ****                                                         (0u < CapSense_1_badConversionsNum))
 135:Generated_Source\PSoC4/CapSense_1_INT.c ****             {
 136:Generated_Source\PSoC4/CapSense_1_INT.c ****                 /* Decrement bad conversions number */
 137:Generated_Source\PSoC4/CapSense_1_INT.c ****                 CapSense_1_badConversionsNum--;
 138:Generated_Source\PSoC4/CapSense_1_INT.c **** 
 139:Generated_Source\PSoC4/CapSense_1_INT.c ****                 /* Start the re-scan */
 140:Generated_Source\PSoC4/CapSense_1_INT.c ****                 CY_SET_REG32(CapSense_1_SEQ_START_PTR, CapSense_1_SEQ_START_AZ0_SKIP_MASK |
 141:Generated_Source\PSoC4/CapSense_1_INT.c ****                                                              CapSense_1_SEQ_START_AZ1_SKIP_MASK |
 142:Generated_Source\PSoC4/CapSense_1_INT.c ****                                                              CapSense_1_SEQ_START_START_MASK);
 143:Generated_Source\PSoC4/CapSense_1_INT.c ****             }
 144:Generated_Source\PSoC4/CapSense_1_INT.c ****             else
 145:Generated_Source\PSoC4/CapSense_1_INT.c ****             {
ARM GAS  C:\Users\MICHAE~1.MAC\AppData\Local\Temp\ccPFa5AJ.s 			page 4


 146:Generated_Source\PSoC4/CapSense_1_INT.c ****         #endif /* (CapSense_1_ENABLE == CapSense_1_CSD_NOISE_METRIC_EN) */
 147:Generated_Source\PSoC4/CapSense_1_INT.c **** 
 148:Generated_Source\PSoC4/CapSense_1_INT.c ****             CapSense_1_SsCSDPostScan();
 149:Generated_Source\PSoC4/CapSense_1_INT.c **** 
 150:Generated_Source\PSoC4/CapSense_1_INT.c ****             #if (CapSense_1_ENABLE == CapSense_1_MULTI_FREQ_SCAN_EN)
 151:Generated_Source\PSoC4/CapSense_1_INT.c ****                 if (CapSense_1_FREQ_CHANNEL_2 > CapSense_1_scanFreqIndex)
 152:Generated_Source\PSoC4/CapSense_1_INT.c ****                 {
 153:Generated_Source\PSoC4/CapSense_1_INT.c ****                     /* Scan the next channel */
 154:Generated_Source\PSoC4/CapSense_1_INT.c ****                     CapSense_1_SsNextFrequencyScan();
 155:Generated_Source\PSoC4/CapSense_1_INT.c ****                 }
 156:Generated_Source\PSoC4/CapSense_1_INT.c ****                 else
 157:Generated_Source\PSoC4/CapSense_1_INT.c ****                 {
 158:Generated_Source\PSoC4/CapSense_1_INT.c ****                     /* All channels are scanned. Set IMO to zero channel */
 159:Generated_Source\PSoC4/CapSense_1_INT.c ****                     CapSense_1_scanFreqIndex = CapSense_1_FREQ_CHANNEL_0;
 160:Generated_Source\PSoC4/CapSense_1_INT.c **** 
 161:Generated_Source\PSoC4/CapSense_1_INT.c ****                     #if (CapSense_1_MFS_IMO == CapSense_1_MFS_METHOD)
 162:Generated_Source\PSoC4/CapSense_1_INT.c ****                         CapSense_1_SsChangeImoFreq(CapSense_1_FREQ_CHANNEL_0);
 163:Generated_Source\PSoC4/CapSense_1_INT.c ****                     #else
 164:Generated_Source\PSoC4/CapSense_1_INT.c ****                         CapSense_1_SsChangeClkFreq(CapSense_1_FREQ_CHANNEL_0);
 165:Generated_Source\PSoC4/CapSense_1_INT.c ****                     #endif /* (CapSense_1_MFS_IMO == CapSense_1_MFS_METHOD) */
 166:Generated_Source\PSoC4/CapSense_1_INT.c **** 
 167:Generated_Source\PSoC4/CapSense_1_INT.c ****                     #if (CapSense_1_ENABLE == CapSense_1_BLOCK_OFF_AFTER_SCAN_EN)
 168:Generated_Source\PSoC4/CapSense_1_INT.c ****                         /* Disable Fourth-generation HW block */
 169:Generated_Source\PSoC4/CapSense_1_INT.c ****                         CY_SET_REG32(CapSense_1_CONFIG_PTR, CapSense_1_configCsd);
 170:Generated_Source\PSoC4/CapSense_1_INT.c ****                     #endif /* (CapSense_1_ENABLE == CapSense_1_BLOCK_OFF_AFTER_SCAN_EN) */
 171:Generated_Source\PSoC4/CapSense_1_INT.c **** 
 172:Generated_Source\PSoC4/CapSense_1_INT.c ****                     /* Update Scan Counter */
 173:Generated_Source\PSoC4/CapSense_1_INT.c ****                     CapSense_1_dsRam.scanCounter++;
 174:Generated_Source\PSoC4/CapSense_1_INT.c **** 
 175:Generated_Source\PSoC4/CapSense_1_INT.c ****                     /* Sensor is totally scanned. Reset BUSY flag */
 176:Generated_Source\PSoC4/CapSense_1_INT.c ****                     CapSense_1_dsRam.status &= ~(CapSense_1_SW_STS_BUSY | CapSense_1_WDGT_SW_STS_BU
 177:Generated_Source\PSoC4/CapSense_1_INT.c ****                 }
 178:Generated_Source\PSoC4/CapSense_1_INT.c ****             #else
 179:Generated_Source\PSoC4/CapSense_1_INT.c ****                 {
 180:Generated_Source\PSoC4/CapSense_1_INT.c ****                     #if (CapSense_1_ENABLE == CapSense_1_BLOCK_OFF_AFTER_SCAN_EN)
 181:Generated_Source\PSoC4/CapSense_1_INT.c ****                         /* Disable Fourth-generation HW block */
 182:Generated_Source\PSoC4/CapSense_1_INT.c ****                         CY_SET_REG32(CapSense_1_CONFIG_PTR, CapSense_1_configCsd);
 183:Generated_Source\PSoC4/CapSense_1_INT.c ****                     #endif /* (CapSense_1_ENABLE == CapSense_1_BLOCK_OFF_AFTER_SCAN_EN) */
 184:Generated_Source\PSoC4/CapSense_1_INT.c **** 
 185:Generated_Source\PSoC4/CapSense_1_INT.c ****                     /* Update Scan Counter */
 186:Generated_Source\PSoC4/CapSense_1_INT.c ****                     CapSense_1_dsRam.scanCounter++;
 187:Generated_Source\PSoC4/CapSense_1_INT.c **** 
 188:Generated_Source\PSoC4/CapSense_1_INT.c ****                     /* Sensor is totally scanned. Reset BUSY flag */
 189:Generated_Source\PSoC4/CapSense_1_INT.c ****                     CapSense_1_dsRam.status &= ~(CapSense_1_SW_STS_BUSY | CapSense_1_WDGT_SW_STS_BU
 190:Generated_Source\PSoC4/CapSense_1_INT.c ****                 }
 191:Generated_Source\PSoC4/CapSense_1_INT.c ****             #endif /* (CapSense_1_ENABLE == CapSense_1_MULTI_FREQ_SCAN_EN) */
 192:Generated_Source\PSoC4/CapSense_1_INT.c ****     #if (CapSense_1_ENABLE == CapSense_1_CSD_NOISE_METRIC_EN)
 193:Generated_Source\PSoC4/CapSense_1_INT.c ****         }
 194:Generated_Source\PSoC4/CapSense_1_INT.c ****     #endif /* (CapSense_1_ENABLE == CapSense_1_CSD_NOISE_METRIC_EN) */
 195:Generated_Source\PSoC4/CapSense_1_INT.c **** 
 196:Generated_Source\PSoC4/CapSense_1_INT.c ****         #ifdef CapSense_1_EXIT_CALLBACK
 197:Generated_Source\PSoC4/CapSense_1_INT.c ****             CapSense_1_ExitCallback();
 198:Generated_Source\PSoC4/CapSense_1_INT.c ****         #endif /* CapSense_1_EXIT_CALLBACK */
 199:Generated_Source\PSoC4/CapSense_1_INT.c ****     }
 200:Generated_Source\PSoC4/CapSense_1_INT.c **** 
 201:Generated_Source\PSoC4/CapSense_1_INT.c **** 
 202:Generated_Source\PSoC4/CapSense_1_INT.c ****     /*******************************************************************************
ARM GAS  C:\Users\MICHAE~1.MAC\AppData\Local\Temp\ccPFa5AJ.s 			page 5


 203:Generated_Source\PSoC4/CapSense_1_INT.c ****     * Function Name: CapSense_1_CSDPostMultiScan
 204:Generated_Source\PSoC4/CapSense_1_INT.c ****     ****************************************************************************//**
 205:Generated_Source\PSoC4/CapSense_1_INT.c ****     *
 206:Generated_Source\PSoC4/CapSense_1_INT.c ****     * \brief
 207:Generated_Source\PSoC4/CapSense_1_INT.c ****     *  This is an internal ISR function for the multiple-sensor scanning
 208:Generated_Source\PSoC4/CapSense_1_INT.c ****     *  implementation.
 209:Generated_Source\PSoC4/CapSense_1_INT.c ****     *
 210:Generated_Source\PSoC4/CapSense_1_INT.c ****     * \details
 211:Generated_Source\PSoC4/CapSense_1_INT.c ****     *  This ISR handler is triggered when the user calls the
 212:Generated_Source\PSoC4/CapSense_1_INT.c ****     *  CapSense_1_Scan() or CapSense_1_ScanAllWidgets() APIs.
 213:Generated_Source\PSoC4/CapSense_1_INT.c ****     *
 214:Generated_Source\PSoC4/CapSense_1_INT.c ****     *  The following tasks are performed:
 215:Generated_Source\PSoC4/CapSense_1_INT.c ****     *    1. Disable the CSD interrupt.
 216:Generated_Source\PSoC4/CapSense_1_INT.c ****     *    2. Read the Counter register and update the data structure with raw data.
 217:Generated_Source\PSoC4/CapSense_1_INT.c ****     *    3. Connect the Vref buffer to the AMUX bus.
 218:Generated_Source\PSoC4/CapSense_1_INT.c ****     *    4. Disable the CSD block (after the widget has been scanned).
 219:Generated_Source\PSoC4/CapSense_1_INT.c ****     *    5. Update the Scan Counter.
 220:Generated_Source\PSoC4/CapSense_1_INT.c ****     *    6. Reset the BUSY flag.
 221:Generated_Source\PSoC4/CapSense_1_INT.c ****     *    7. Enable the CSD interrupt.
 222:Generated_Source\PSoC4/CapSense_1_INT.c ****     *
 223:Generated_Source\PSoC4/CapSense_1_INT.c ****     *  The ISR handler initializes scanning for the previous sensor when the
 224:Generated_Source\PSoC4/CapSense_1_INT.c ****     *  widget has more than one sensor.
 225:Generated_Source\PSoC4/CapSense_1_INT.c ****     *  The ISR handler initializes scanning for the next widget when the
 226:Generated_Source\PSoC4/CapSense_1_INT.c ****     *  CapSense_1_ScanAllWidgets() APIs are called and the project has
 227:Generated_Source\PSoC4/CapSense_1_INT.c ****     *  more than one widget.
 228:Generated_Source\PSoC4/CapSense_1_INT.c ****     *  The ISR handler changes the IMO and initializes scanning for the next
 229:Generated_Source\PSoC4/CapSense_1_INT.c ****     *  frequency channels when multi-frequency scanning is enabled.
 230:Generated_Source\PSoC4/CapSense_1_INT.c ****     *
 231:Generated_Source\PSoC4/CapSense_1_INT.c ****     *  This function has two Macro Callbacks that allow calling the user
 232:Generated_Source\PSoC4/CapSense_1_INT.c ****     *  code from macros specified in Component's generated code. Refer to the
 233:Generated_Source\PSoC4/CapSense_1_INT.c ****     *  \ref group_c_macrocallbacks section of the PSoC Creator User Guide
 234:Generated_Source\PSoC4/CapSense_1_INT.c ****     *  for details.
 235:Generated_Source\PSoC4/CapSense_1_INT.c ****     *
 236:Generated_Source\PSoC4/CapSense_1_INT.c ****     *******************************************************************************/
 237:Generated_Source\PSoC4/CapSense_1_INT.c ****     CY_ISR(CapSense_1_CSDPostMultiScan)
 238:Generated_Source\PSoC4/CapSense_1_INT.c ****     {
 239:Generated_Source\PSoC4/CapSense_1_INT.c ****         /* Declare and initialize ptr to sensor IO structure to appropriate address */
 240:Generated_Source\PSoC4/CapSense_1_INT.c ****         CapSense_1_FLASH_IO_STRUCT const *curSnsIOPtr = (CapSense_1_FLASH_IO_STRUCT const *)
 241:Generated_Source\PSoC4/CapSense_1_INT.c ****                                                           CapSense_1_dsFlash.wdgtArray[CapSense_1_w
 242:Generated_Source\PSoC4/CapSense_1_INT.c ****                                                           + CapSense_1_sensorIndex;
 243:Generated_Source\PSoC4/CapSense_1_INT.c **** 
 244:Generated_Source\PSoC4/CapSense_1_INT.c ****         #ifdef CapSense_1_ENTRY_CALLBACK
 245:Generated_Source\PSoC4/CapSense_1_INT.c ****             CapSense_1_EntryCallback();
 246:Generated_Source\PSoC4/CapSense_1_INT.c ****         #endif /* CapSense_1_ENTRY_CALLBACK */
 247:Generated_Source\PSoC4/CapSense_1_INT.c **** 
 248:Generated_Source\PSoC4/CapSense_1_INT.c ****         /* Clear pending interrupt */
 249:Generated_Source\PSoC4/CapSense_1_INT.c ****         CY_SET_REG32(CapSense_1_INTR_PTR, CapSense_1_INTR_SET_MASK);
 250:Generated_Source\PSoC4/CapSense_1_INT.c **** 
 251:Generated_Source\PSoC4/CapSense_1_INT.c ****         #if (CapSense_1_ENABLE == CapSense_1_CSD_NOISE_METRIC_EN)
 252:Generated_Source\PSoC4/CapSense_1_INT.c ****             if ((CapSense_1_CSD_NOISE_METRIC_TH < ((CY_GET_REG32(CapSense_1_RESULT_VAL1_PTR) &
 253:Generated_Source\PSoC4/CapSense_1_INT.c ****                                                       CapSense_1_RESULT_VAL1_BAD_CONVS_MASK) >>
 254:Generated_Source\PSoC4/CapSense_1_INT.c ****                                                       CapSense_1_RESULT_VAL1_BAD_CONVS_SHIFT)) &&
 255:Generated_Source\PSoC4/CapSense_1_INT.c ****                                                       (0u < CapSense_1_badConversionsNum))
 256:Generated_Source\PSoC4/CapSense_1_INT.c ****             {
 257:Generated_Source\PSoC4/CapSense_1_INT.c ****                 /* Decrement bad conversions number */
 258:Generated_Source\PSoC4/CapSense_1_INT.c ****                 CapSense_1_badConversionsNum--;
 259:Generated_Source\PSoC4/CapSense_1_INT.c **** 
ARM GAS  C:\Users\MICHAE~1.MAC\AppData\Local\Temp\ccPFa5AJ.s 			page 6


 260:Generated_Source\PSoC4/CapSense_1_INT.c ****                 /* Start the re-scan */
 261:Generated_Source\PSoC4/CapSense_1_INT.c ****                 CY_SET_REG32(CapSense_1_SEQ_START_PTR, CapSense_1_SEQ_START_AZ0_SKIP_MASK |
 262:Generated_Source\PSoC4/CapSense_1_INT.c ****                                                              CapSense_1_SEQ_START_AZ1_SKIP_MASK |
 263:Generated_Source\PSoC4/CapSense_1_INT.c ****                                                              CapSense_1_SEQ_START_START_MASK);
 264:Generated_Source\PSoC4/CapSense_1_INT.c ****             }
 265:Generated_Source\PSoC4/CapSense_1_INT.c ****             else
 266:Generated_Source\PSoC4/CapSense_1_INT.c ****             {
 267:Generated_Source\PSoC4/CapSense_1_INT.c ****         #endif /* (CapSense_1_ENABLE == CapSense_1_CSD_NOISE_METRIC_EN) */
 268:Generated_Source\PSoC4/CapSense_1_INT.c **** 
 269:Generated_Source\PSoC4/CapSense_1_INT.c ****             CapSense_1_SsCSDPostScan();
 270:Generated_Source\PSoC4/CapSense_1_INT.c **** 
 271:Generated_Source\PSoC4/CapSense_1_INT.c ****             /* Disable sensor when all frequency channels are scanned */
 272:Generated_Source\PSoC4/CapSense_1_INT.c ****             #if (CapSense_1_ENABLE == CapSense_1_MULTI_FREQ_SCAN_EN)
 273:Generated_Source\PSoC4/CapSense_1_INT.c ****                 if (CapSense_1_FREQ_CHANNEL_2 == CapSense_1_scanFreqIndex)
 274:Generated_Source\PSoC4/CapSense_1_INT.c ****             #endif /* (CapSense_1_ENABLE == CapSense_1_MULTI_FREQ_SCAN_EN) */
 275:Generated_Source\PSoC4/CapSense_1_INT.c ****             {
 276:Generated_Source\PSoC4/CapSense_1_INT.c ****                 /* Disable sensor */
 277:Generated_Source\PSoC4/CapSense_1_INT.c ****                 CapSense_1_CSDDisconnectSns(curSnsIOPtr);
 278:Generated_Source\PSoC4/CapSense_1_INT.c ****             }
 279:Generated_Source\PSoC4/CapSense_1_INT.c **** 
 280:Generated_Source\PSoC4/CapSense_1_INT.c ****             #if (CapSense_1_ENABLE == CapSense_1_MULTI_FREQ_SCAN_EN)
 281:Generated_Source\PSoC4/CapSense_1_INT.c ****                 if (CapSense_1_FREQ_CHANNEL_2 > CapSense_1_scanFreqIndex)
 282:Generated_Source\PSoC4/CapSense_1_INT.c ****                 {
 283:Generated_Source\PSoC4/CapSense_1_INT.c ****                      /* Scan the next channel */
 284:Generated_Source\PSoC4/CapSense_1_INT.c ****                     CapSense_1_SsNextFrequencyScan();
 285:Generated_Source\PSoC4/CapSense_1_INT.c ****                 }
 286:Generated_Source\PSoC4/CapSense_1_INT.c ****                 else
 287:Generated_Source\PSoC4/CapSense_1_INT.c ****                 {
 288:Generated_Source\PSoC4/CapSense_1_INT.c ****                      /* All channels are scanned. Set IMO to zero channel */
 289:Generated_Source\PSoC4/CapSense_1_INT.c ****                     CapSense_1_scanFreqIndex = CapSense_1_FREQ_CHANNEL_0;
 290:Generated_Source\PSoC4/CapSense_1_INT.c **** 
 291:Generated_Source\PSoC4/CapSense_1_INT.c ****                     #if (CapSense_1_MFS_IMO == CapSense_1_MFS_METHOD)
 292:Generated_Source\PSoC4/CapSense_1_INT.c ****                         CapSense_1_SsChangeImoFreq(CapSense_1_FREQ_CHANNEL_0);
 293:Generated_Source\PSoC4/CapSense_1_INT.c ****                     #else
 294:Generated_Source\PSoC4/CapSense_1_INT.c ****                         CapSense_1_SsChangeClkFreq(CapSense_1_FREQ_CHANNEL_0);
 295:Generated_Source\PSoC4/CapSense_1_INT.c ****                     #endif /* (CapSense_1_MFS_IMO == CapSense_1_MFS_METHOD) */
 296:Generated_Source\PSoC4/CapSense_1_INT.c **** 
 297:Generated_Source\PSoC4/CapSense_1_INT.c ****                      /* Scan the next sensor */
 298:Generated_Source\PSoC4/CapSense_1_INT.c ****                     CapSense_1_SsCSDInitNextScan();
 299:Generated_Source\PSoC4/CapSense_1_INT.c ****                 }
 300:Generated_Source\PSoC4/CapSense_1_INT.c ****             #else
 301:Generated_Source\PSoC4/CapSense_1_INT.c ****                 /* Scan the next sensor */
 302:Generated_Source\PSoC4/CapSense_1_INT.c ****                 CapSense_1_SsCSDInitNextScan();
 303:Generated_Source\PSoC4/CapSense_1_INT.c ****             #endif /* (CapSense_1_ENABLE == CapSense_1_MULTI_FREQ_SCAN_EN) */
 304:Generated_Source\PSoC4/CapSense_1_INT.c ****         #if (CapSense_1_ENABLE == CapSense_1_CSD_NOISE_METRIC_EN)
 305:Generated_Source\PSoC4/CapSense_1_INT.c ****             }
 306:Generated_Source\PSoC4/CapSense_1_INT.c ****         #endif /* (CapSense_1_ENABLE == CapSense_1_CSD_NOISE_METRIC_EN) */
 307:Generated_Source\PSoC4/CapSense_1_INT.c **** 
 308:Generated_Source\PSoC4/CapSense_1_INT.c ****         #ifdef CapSense_1_EXIT_CALLBACK
 309:Generated_Source\PSoC4/CapSense_1_INT.c ****             CapSense_1_ExitCallback();
 310:Generated_Source\PSoC4/CapSense_1_INT.c ****         #endif /* CapSense_1_EXIT_CALLBACK */
 311:Generated_Source\PSoC4/CapSense_1_INT.c ****     }
 312:Generated_Source\PSoC4/CapSense_1_INT.c **** 
 313:Generated_Source\PSoC4/CapSense_1_INT.c **** 
 314:Generated_Source\PSoC4/CapSense_1_INT.c ****     #if (CapSense_1_ENABLE == CapSense_1_CSD_GANGED_SNS_EN)
 315:Generated_Source\PSoC4/CapSense_1_INT.c ****     /*******************************************************************************
 316:Generated_Source\PSoC4/CapSense_1_INT.c ****     * Function Name: CapSense_1_CSDPostMultiScanGanged
ARM GAS  C:\Users\MICHAE~1.MAC\AppData\Local\Temp\ccPFa5AJ.s 			page 7


 317:Generated_Source\PSoC4/CapSense_1_INT.c ****     ****************************************************************************//**
 318:Generated_Source\PSoC4/CapSense_1_INT.c ****     *
 319:Generated_Source\PSoC4/CapSense_1_INT.c ****     * \brief
 320:Generated_Source\PSoC4/CapSense_1_INT.c ****     *  This is an internal ISR function for the multiple-sensor scanning
 321:Generated_Source\PSoC4/CapSense_1_INT.c ****     *  implementation for ganged sensors.
 322:Generated_Source\PSoC4/CapSense_1_INT.c ****     *
 323:Generated_Source\PSoC4/CapSense_1_INT.c ****     * \details
 324:Generated_Source\PSoC4/CapSense_1_INT.c ****     *  This ISR handler is triggered when the user calls the
 325:Generated_Source\PSoC4/CapSense_1_INT.c ****     *  CapSense_1_Scan() API for a ganged sensor or the
 326:Generated_Source\PSoC4/CapSense_1_INT.c ****     *  CapSense_1_ScanAllWidgets() API in the project with ganged sensors.
 327:Generated_Source\PSoC4/CapSense_1_INT.c ****     *
 328:Generated_Source\PSoC4/CapSense_1_INT.c ****     *  The following tasks are performed:
 329:Generated_Source\PSoC4/CapSense_1_INT.c ****     *    1. Disable the CSD interrupt.
 330:Generated_Source\PSoC4/CapSense_1_INT.c ****     *    2. Read the Counter register and update the data structure with raw data.
 331:Generated_Source\PSoC4/CapSense_1_INT.c ****     *    3. Connect the Vref buffer to the AMUX bus.
 332:Generated_Source\PSoC4/CapSense_1_INT.c ****     *    4. Disable the CSD block (after the widget has been scanned).
 333:Generated_Source\PSoC4/CapSense_1_INT.c ****     *    5. Update the Scan Counter.
 334:Generated_Source\PSoC4/CapSense_1_INT.c ****     *    6. Reset the BUSY flag.
 335:Generated_Source\PSoC4/CapSense_1_INT.c ****     *    7. Enable the CSD interrupt.
 336:Generated_Source\PSoC4/CapSense_1_INT.c ****     *
 337:Generated_Source\PSoC4/CapSense_1_INT.c ****     *  The ISR handler initializes scanning for the previous sensor when the
 338:Generated_Source\PSoC4/CapSense_1_INT.c ****     *  widget has more than one sensor.
 339:Generated_Source\PSoC4/CapSense_1_INT.c ****     *  The ISR handler initializes scanning for the next widget when the
 340:Generated_Source\PSoC4/CapSense_1_INT.c ****     *  CapSense_1_ScanAllWidgets() APIs are called and the project has
 341:Generated_Source\PSoC4/CapSense_1_INT.c ****     *  more than one widget.
 342:Generated_Source\PSoC4/CapSense_1_INT.c ****     *  The ISR handler changes the IMO and initializes scanning for the next
 343:Generated_Source\PSoC4/CapSense_1_INT.c ****     *  frequency channels when multi-frequency scanning is enabled.
 344:Generated_Source\PSoC4/CapSense_1_INT.c ****     *
 345:Generated_Source\PSoC4/CapSense_1_INT.c ****     *  This function has two Macro Callbacks that allow calling the user
 346:Generated_Source\PSoC4/CapSense_1_INT.c ****     *  code from macros specified in Component's generated code. Refer to the
 347:Generated_Source\PSoC4/CapSense_1_INT.c ****     *  \ref group_c_macrocallbacks section of the PSoC Creator User Guide
 348:Generated_Source\PSoC4/CapSense_1_INT.c ****     *  for details.
 349:Generated_Source\PSoC4/CapSense_1_INT.c ****     *
 350:Generated_Source\PSoC4/CapSense_1_INT.c ****     *******************************************************************************/
 351:Generated_Source\PSoC4/CapSense_1_INT.c ****     CY_ISR(CapSense_1_CSDPostMultiScanGanged)
 352:Generated_Source\PSoC4/CapSense_1_INT.c ****     {
 353:Generated_Source\PSoC4/CapSense_1_INT.c ****         #ifdef CapSense_1_ENTRY_CALLBACK
 354:Generated_Source\PSoC4/CapSense_1_INT.c ****             CapSense_1_EntryCallback();
 355:Generated_Source\PSoC4/CapSense_1_INT.c ****         #endif /* CapSense_1_ENTRY_CALLBACK */
 356:Generated_Source\PSoC4/CapSense_1_INT.c **** 
 357:Generated_Source\PSoC4/CapSense_1_INT.c ****         /* Clear pending interrupt */
 358:Generated_Source\PSoC4/CapSense_1_INT.c ****         CY_SET_REG32(CapSense_1_INTR_PTR, CapSense_1_INTR_SET_MASK);
 359:Generated_Source\PSoC4/CapSense_1_INT.c **** 
 360:Generated_Source\PSoC4/CapSense_1_INT.c ****         #if (CapSense_1_ENABLE == CapSense_1_CSD_NOISE_METRIC_EN)
 361:Generated_Source\PSoC4/CapSense_1_INT.c ****             if ((CapSense_1_CSD_NOISE_METRIC_TH < ((CY_GET_REG32(CapSense_1_RESULT_VAL1_PTR) &
 362:Generated_Source\PSoC4/CapSense_1_INT.c ****                                                       CapSense_1_RESULT_VAL1_BAD_CONVS_MASK) >>
 363:Generated_Source\PSoC4/CapSense_1_INT.c ****                                                       CapSense_1_RESULT_VAL1_BAD_CONVS_SHIFT)) &&
 364:Generated_Source\PSoC4/CapSense_1_INT.c ****                                                       (0u < CapSense_1_badConversionsNum))
 365:Generated_Source\PSoC4/CapSense_1_INT.c ****             {
 366:Generated_Source\PSoC4/CapSense_1_INT.c ****                 /* Decrement bad conversions number */
 367:Generated_Source\PSoC4/CapSense_1_INT.c ****                 CapSense_1_badConversionsNum--;
 368:Generated_Source\PSoC4/CapSense_1_INT.c **** 
 369:Generated_Source\PSoC4/CapSense_1_INT.c ****                 /* Start the re-scan */
 370:Generated_Source\PSoC4/CapSense_1_INT.c ****                 CY_SET_REG32(CapSense_1_SEQ_START_PTR, CapSense_1_SEQ_START_AZ0_SKIP_MASK |
 371:Generated_Source\PSoC4/CapSense_1_INT.c ****                                                              CapSense_1_SEQ_START_AZ1_SKIP_MASK |
 372:Generated_Source\PSoC4/CapSense_1_INT.c ****                                                              CapSense_1_SEQ_START_START_MASK);
 373:Generated_Source\PSoC4/CapSense_1_INT.c ****             }
ARM GAS  C:\Users\MICHAE~1.MAC\AppData\Local\Temp\ccPFa5AJ.s 			page 8


 374:Generated_Source\PSoC4/CapSense_1_INT.c ****             else
 375:Generated_Source\PSoC4/CapSense_1_INT.c ****             {
 376:Generated_Source\PSoC4/CapSense_1_INT.c ****         #endif /* (CapSense_1_ENABLE == CapSense_1_CSD_NOISE_METRIC_EN) */
 377:Generated_Source\PSoC4/CapSense_1_INT.c **** 
 378:Generated_Source\PSoC4/CapSense_1_INT.c ****             CapSense_1_SsCSDPostScan();
 379:Generated_Source\PSoC4/CapSense_1_INT.c **** 
 380:Generated_Source\PSoC4/CapSense_1_INT.c ****             #if (CapSense_1_ENABLE == CapSense_1_MULTI_FREQ_SCAN_EN)
 381:Generated_Source\PSoC4/CapSense_1_INT.c ****                 if (CapSense_1_FREQ_CHANNEL_2 == CapSense_1_scanFreqIndex)
 382:Generated_Source\PSoC4/CapSense_1_INT.c ****             #endif /* (CapSense_1_ENABLE == CapSense_1_MULTI_FREQ_SCAN_EN) */
 383:Generated_Source\PSoC4/CapSense_1_INT.c ****             {
 384:Generated_Source\PSoC4/CapSense_1_INT.c ****                 CapSense_1_SsCSDDisconnectSnsExt((uint32)CapSense_1_widgetIndex, (uint32)CapSense_1
 385:Generated_Source\PSoC4/CapSense_1_INT.c ****             }
 386:Generated_Source\PSoC4/CapSense_1_INT.c **** 
 387:Generated_Source\PSoC4/CapSense_1_INT.c ****             #if (CapSense_1_ENABLE == CapSense_1_MULTI_FREQ_SCAN_EN)
 388:Generated_Source\PSoC4/CapSense_1_INT.c ****                 if (CapSense_1_FREQ_CHANNEL_2 > CapSense_1_scanFreqIndex)
 389:Generated_Source\PSoC4/CapSense_1_INT.c ****                 {
 390:Generated_Source\PSoC4/CapSense_1_INT.c ****                      /* Scan the next channel */
 391:Generated_Source\PSoC4/CapSense_1_INT.c ****                     CapSense_1_SsNextFrequencyScan();
 392:Generated_Source\PSoC4/CapSense_1_INT.c ****                 }
 393:Generated_Source\PSoC4/CapSense_1_INT.c ****                 else
 394:Generated_Source\PSoC4/CapSense_1_INT.c ****                 {
 395:Generated_Source\PSoC4/CapSense_1_INT.c ****                     /* All channels are scanned. Set IMO to zero channel */
 396:Generated_Source\PSoC4/CapSense_1_INT.c ****                     CapSense_1_scanFreqIndex = CapSense_1_FREQ_CHANNEL_0;
 397:Generated_Source\PSoC4/CapSense_1_INT.c **** 
 398:Generated_Source\PSoC4/CapSense_1_INT.c ****                     #if (CapSense_1_MFS_IMO == CapSense_1_MFS_METHOD)
 399:Generated_Source\PSoC4/CapSense_1_INT.c ****                         CapSense_1_SsChangeImoFreq(CapSense_1_FREQ_CHANNEL_0);
 400:Generated_Source\PSoC4/CapSense_1_INT.c ****                     #else
 401:Generated_Source\PSoC4/CapSense_1_INT.c ****                         CapSense_1_SsChangeClkFreq(CapSense_1_FREQ_CHANNEL_0);
 402:Generated_Source\PSoC4/CapSense_1_INT.c ****                     #endif /* (CapSense_1_MFS_IMO == CapSense_1_MFS_METHOD) */
 403:Generated_Source\PSoC4/CapSense_1_INT.c **** 
 404:Generated_Source\PSoC4/CapSense_1_INT.c ****                      /* Scan the next sensor */
 405:Generated_Source\PSoC4/CapSense_1_INT.c ****                     CapSense_1_SsCSDInitNextScan();
 406:Generated_Source\PSoC4/CapSense_1_INT.c ****                 }
 407:Generated_Source\PSoC4/CapSense_1_INT.c ****             #else
 408:Generated_Source\PSoC4/CapSense_1_INT.c ****                  /* Scan the next sensor */
 409:Generated_Source\PSoC4/CapSense_1_INT.c ****                 CapSense_1_SsCSDInitNextScan();
 410:Generated_Source\PSoC4/CapSense_1_INT.c ****             #endif /* (CapSense_1_ENABLE == CapSense_1_MULTI_FREQ_SCAN_EN) */
 411:Generated_Source\PSoC4/CapSense_1_INT.c ****         #if (CapSense_1_ENABLE == CapSense_1_CSD_NOISE_METRIC_EN)
 412:Generated_Source\PSoC4/CapSense_1_INT.c ****             }
 413:Generated_Source\PSoC4/CapSense_1_INT.c ****         #endif /* (CapSense_1_ENABLE == CapSense_1_CSD_NOISE_METRIC_EN) */
 414:Generated_Source\PSoC4/CapSense_1_INT.c **** 
 415:Generated_Source\PSoC4/CapSense_1_INT.c ****         #ifdef CapSense_1_EXIT_CALLBACK
 416:Generated_Source\PSoC4/CapSense_1_INT.c ****             CapSense_1_ExitCallback();
 417:Generated_Source\PSoC4/CapSense_1_INT.c ****         #endif /* CapSense_1_EXIT_CALLBACK */
 418:Generated_Source\PSoC4/CapSense_1_INT.c ****     }
 419:Generated_Source\PSoC4/CapSense_1_INT.c ****     #endif /* (CapSense_1_ENABLE == CapSense_1_CSD_GANGED_SNS_EN) */
 420:Generated_Source\PSoC4/CapSense_1_INT.c **** 
 421:Generated_Source\PSoC4/CapSense_1_INT.c **** #else
 422:Generated_Source\PSoC4/CapSense_1_INT.c **** 
 423:Generated_Source\PSoC4/CapSense_1_INT.c ****     /* Third-generation HW block part */
 424:Generated_Source\PSoC4/CapSense_1_INT.c **** 
 425:Generated_Source\PSoC4/CapSense_1_INT.c ****     /*******************************************************************************
 426:Generated_Source\PSoC4/CapSense_1_INT.c ****     * Function Name: CapSense_1_CSDPostSingleScan
 427:Generated_Source\PSoC4/CapSense_1_INT.c ****     ****************************************************************************//**
 428:Generated_Source\PSoC4/CapSense_1_INT.c ****     *
 429:Generated_Source\PSoC4/CapSense_1_INT.c ****     * \brief
 430:Generated_Source\PSoC4/CapSense_1_INT.c ****     *  This is an internal ISR function for the single-sensor scanning implementation.
ARM GAS  C:\Users\MICHAE~1.MAC\AppData\Local\Temp\ccPFa5AJ.s 			page 9


 431:Generated_Source\PSoC4/CapSense_1_INT.c ****     *
 432:Generated_Source\PSoC4/CapSense_1_INT.c ****     * \details
 433:Generated_Source\PSoC4/CapSense_1_INT.c ****     *  This ISR handler is triggered when the user calls the
 434:Generated_Source\PSoC4/CapSense_1_INT.c ****     *  CapSense_1_CSDScanExt() function.
 435:Generated_Source\PSoC4/CapSense_1_INT.c ****     *
 436:Generated_Source\PSoC4/CapSense_1_INT.c ****     *  The following tasks are performed for Third-generation HW block:
 437:Generated_Source\PSoC4/CapSense_1_INT.c ****     *    1. Disable the CSD interrupt.
 438:Generated_Source\PSoC4/CapSense_1_INT.c ****     *    2. Read the Counter register and update the data structure with raw data.
 439:Generated_Source\PSoC4/CapSense_1_INT.c ****     *    3. Connect the Vref buffer to the AMUX bus.
 440:Generated_Source\PSoC4/CapSense_1_INT.c ****     *    4. Update the Scan Counter.
 441:Generated_Source\PSoC4/CapSense_1_INT.c ****     *    5. Reset the BUSY flag.
 442:Generated_Source\PSoC4/CapSense_1_INT.c ****     *    6. Enable the CSD interrupt.
 443:Generated_Source\PSoC4/CapSense_1_INT.c ****     *
 444:Generated_Source\PSoC4/CapSense_1_INT.c ****     *  The following tasks are performed for Fourth-generation HW block:
 445:Generated_Source\PSoC4/CapSense_1_INT.c ****     *    1. Check if the raw data is not noisy.
 446:Generated_Source\PSoC4/CapSense_1_INT.c ****     *    2. Read the Counter register and update the data structure with raw data.
 447:Generated_Source\PSoC4/CapSense_1_INT.c ****     *    3. Configure and start the scan for the next frequency if the
 448:Generated_Source\PSoC4/CapSense_1_INT.c ****     *      multi-frequency is enabled.
 449:Generated_Source\PSoC4/CapSense_1_INT.c ****     *    4. Update the Scan Counter.
 450:Generated_Source\PSoC4/CapSense_1_INT.c ****     *    5. Reset the BUSY flag.
 451:Generated_Source\PSoC4/CapSense_1_INT.c ****     *    6. Enable the CSD interrupt.
 452:Generated_Source\PSoC4/CapSense_1_INT.c ****     *
 453:Generated_Source\PSoC4/CapSense_1_INT.c ****     *  The ISR handler changes the IMO and initializes scanning for the next frequency
 454:Generated_Source\PSoC4/CapSense_1_INT.c ****     *  channels when multi-frequency scanning is enabled.
 455:Generated_Source\PSoC4/CapSense_1_INT.c ****     *
 456:Generated_Source\PSoC4/CapSense_1_INT.c ****     *  This function has two Macro Callbacks that allow calling the user code
 457:Generated_Source\PSoC4/CapSense_1_INT.c ****     *  from macros specified in Component's generated code. Refer to the
 458:Generated_Source\PSoC4/CapSense_1_INT.c ****     *  \ref group_c_macrocallbacks section of the PSoC Creator User Guide
 459:Generated_Source\PSoC4/CapSense_1_INT.c ****     *  for details.
 460:Generated_Source\PSoC4/CapSense_1_INT.c ****     *
 461:Generated_Source\PSoC4/CapSense_1_INT.c ****     *******************************************************************************/
 462:Generated_Source\PSoC4/CapSense_1_INT.c ****     CY_ISR(CapSense_1_CSDPostSingleScan)
 463:Generated_Source\PSoC4/CapSense_1_INT.c ****     {
 464:Generated_Source\PSoC4/CapSense_1_INT.c ****         #ifdef CapSense_1_ENTRY_CALLBACK
 465:Generated_Source\PSoC4/CapSense_1_INT.c ****             CapSense_1_EntryCallback();
 466:Generated_Source\PSoC4/CapSense_1_INT.c ****         #endif /* CapSense_1_ENTRY_CALLBACK */
 467:Generated_Source\PSoC4/CapSense_1_INT.c **** 
 468:Generated_Source\PSoC4/CapSense_1_INT.c ****         /* Clear pending interrupt */
 469:Generated_Source\PSoC4/CapSense_1_INT.c ****         CY_SET_REG32(CapSense_1_INTR_PTR, CapSense_1_INTR_SET_MASK);
 470:Generated_Source\PSoC4/CapSense_1_INT.c **** 
 471:Generated_Source\PSoC4/CapSense_1_INT.c ****         /* Read Rawdata */
 472:Generated_Source\PSoC4/CapSense_1_INT.c ****         CapSense_1_SsCSDPostScan();
 473:Generated_Source\PSoC4/CapSense_1_INT.c **** 
 474:Generated_Source\PSoC4/CapSense_1_INT.c ****         #if (CapSense_1_ENABLE == CapSense_1_MULTI_FREQ_SCAN_EN)
 475:Generated_Source\PSoC4/CapSense_1_INT.c ****             if (CapSense_1_FREQ_CHANNEL_2 > CapSense_1_scanFreqIndex)
 476:Generated_Source\PSoC4/CapSense_1_INT.c ****             {
 477:Generated_Source\PSoC4/CapSense_1_INT.c ****                 /* Connect Vref Buffer to AMUX bus. Third-generation HW block is enabled */
 478:Generated_Source\PSoC4/CapSense_1_INT.c ****                 CY_SET_REG32(CapSense_1_CONFIG_PTR, CapSense_1_configCsd | CapSense_1_CTANK_PRECHAR
 479:Generated_Source\PSoC4/CapSense_1_INT.c **** 
 480:Generated_Source\PSoC4/CapSense_1_INT.c ****                 CapSense_1_SsNextFrequencyScan();
 481:Generated_Source\PSoC4/CapSense_1_INT.c ****             }
 482:Generated_Source\PSoC4/CapSense_1_INT.c ****             else
 483:Generated_Source\PSoC4/CapSense_1_INT.c ****             {
 484:Generated_Source\PSoC4/CapSense_1_INT.c ****                 CapSense_1_scanFreqIndex = CapSense_1_FREQ_CHANNEL_0;
 485:Generated_Source\PSoC4/CapSense_1_INT.c **** 
 486:Generated_Source\PSoC4/CapSense_1_INT.c ****                 #if (CapSense_1_MFS_IMO == CapSense_1_MFS_METHOD)
 487:Generated_Source\PSoC4/CapSense_1_INT.c ****                     CapSense_1_SsChangeImoFreq(CapSense_1_FREQ_CHANNEL_0);
ARM GAS  C:\Users\MICHAE~1.MAC\AppData\Local\Temp\ccPFa5AJ.s 			page 10


 488:Generated_Source\PSoC4/CapSense_1_INT.c ****                 #else
 489:Generated_Source\PSoC4/CapSense_1_INT.c ****                     CapSense_1_SsChangeClkFreq(CapSense_1_FREQ_CHANNEL_0);
 490:Generated_Source\PSoC4/CapSense_1_INT.c ****                 #endif /* (CapSense_1_MFS_IMO == CapSense_1_MFS_METHOD) */
 491:Generated_Source\PSoC4/CapSense_1_INT.c **** 
 492:Generated_Source\PSoC4/CapSense_1_INT.c ****                 #if (CapSense_1_ENABLE == CapSense_1_BLOCK_OFF_AFTER_SCAN_EN)
 493:Generated_Source\PSoC4/CapSense_1_INT.c ****                     /* Disable Third-generation HW block. Connect Vref Buffer to AMUX bus */
 494:Generated_Source\PSoC4/CapSense_1_INT.c ****                     #if ((CapSense_1_CSH_PRECHARGE_IO_BUF == CapSense_1_CSD_CSH_PRECHARGE_SRC) &&\
 495:Generated_Source\PSoC4/CapSense_1_INT.c ****                          (CapSense_1_ENABLE == CapSense_1_CSD_SHIELD_TANK_EN))
 496:Generated_Source\PSoC4/CapSense_1_INT.c ****                         CY_SET_REG32(CapSense_1_CONFIG_PTR, CapSense_1_configCsd | CapSense_1_CMOD_
 497:Generated_Source\PSoC4/CapSense_1_INT.c ****                     #else
 498:Generated_Source\PSoC4/CapSense_1_INT.c ****                         CY_SET_REG32(CapSense_1_CONFIG_PTR, CapSense_1_configCsd | CapSense_1_CTANK
 499:Generated_Source\PSoC4/CapSense_1_INT.c ****                     #endif /* ((CapSense_1_CSH_PRECHARGE_IO_BUF == CapSense_1_CSD_CSH_PRECHARGE_SRC
 500:Generated_Source\PSoC4/CapSense_1_INT.c ****                                (CapSense_1_ENABLE == CapSense_1_CSD_SHIELD_TANK_EN)) */
 501:Generated_Source\PSoC4/CapSense_1_INT.c ****                 #else
 502:Generated_Source\PSoC4/CapSense_1_INT.c ****                     /* Connect Vref Buffer to AMUX bus. Third-generation HW block is enabled */
 503:Generated_Source\PSoC4/CapSense_1_INT.c ****                     CY_SET_REG32(CapSense_1_CONFIG_PTR, CapSense_1_configCsd | CapSense_1_CTANK_PRE
 504:Generated_Source\PSoC4/CapSense_1_INT.c ****                 #endif /* (CapSense_1_ENABLE == CapSense_1_BLOCK_OFF_AFTER_SCAN_EN) */
 505:Generated_Source\PSoC4/CapSense_1_INT.c **** 
 506:Generated_Source\PSoC4/CapSense_1_INT.c ****                 /* Update Scan Counter */
 507:Generated_Source\PSoC4/CapSense_1_INT.c ****                 CapSense_1_dsRam.scanCounter++;
 508:Generated_Source\PSoC4/CapSense_1_INT.c **** 
 509:Generated_Source\PSoC4/CapSense_1_INT.c ****                 /* Sensor is totally scanned. Reset BUSY flag */
 510:Generated_Source\PSoC4/CapSense_1_INT.c ****                 CapSense_1_dsRam.status &= ~(CapSense_1_SW_STS_BUSY | CapSense_1_WDGT_SW_STS_BUSY);
 511:Generated_Source\PSoC4/CapSense_1_INT.c ****             }
 512:Generated_Source\PSoC4/CapSense_1_INT.c ****         #else
 513:Generated_Source\PSoC4/CapSense_1_INT.c ****             {
 514:Generated_Source\PSoC4/CapSense_1_INT.c ****                 #if (CapSense_1_ENABLE == CapSense_1_BLOCK_OFF_AFTER_SCAN_EN)
 515:Generated_Source\PSoC4/CapSense_1_INT.c ****                     /* Disable Third-generation HW block. Connect Vref Buffer to AMUX bus */
 516:Generated_Source\PSoC4/CapSense_1_INT.c ****                     #if ((CapSense_1_CSH_PRECHARGE_IO_BUF == CapSense_1_CSD_CSH_PRECHARGE_SRC) &&\
 517:Generated_Source\PSoC4/CapSense_1_INT.c ****                          (CapSense_1_ENABLE == CapSense_1_CSD_SHIELD_TANK_EN))
 518:Generated_Source\PSoC4/CapSense_1_INT.c ****                         CY_SET_REG32(CapSense_1_CONFIG_PTR, CapSense_1_configCsd | CapSense_1_CMOD_
 519:Generated_Source\PSoC4/CapSense_1_INT.c ****                     #else
 520:Generated_Source\PSoC4/CapSense_1_INT.c ****                         CY_SET_REG32(CapSense_1_CONFIG_PTR, CapSense_1_configCsd | CapSense_1_CTANK
 521:Generated_Source\PSoC4/CapSense_1_INT.c ****                     #endif /* ((CapSense_1_CSH_PRECHARGE_IO_BUF == CapSense_1_CSD_CSH_PRECHARGE_SRC
 522:Generated_Source\PSoC4/CapSense_1_INT.c ****                                (CapSense_1_ENABLE == CapSense_1_CSD_SHIELD_TANK_EN)) */
 523:Generated_Source\PSoC4/CapSense_1_INT.c ****                 #else
 524:Generated_Source\PSoC4/CapSense_1_INT.c ****                     /* Connect Vref Buffer to AMUX bus. Third-generation HW block is enabled */
 525:Generated_Source\PSoC4/CapSense_1_INT.c ****                     CY_SET_REG32(CapSense_1_CONFIG_PTR, CapSense_1_configCsd | CapSense_1_CTANK_PRE
 526:Generated_Source\PSoC4/CapSense_1_INT.c ****                 #endif /* (CapSense_1_ENABLE == CapSense_1_BLOCK_OFF_AFTER_SCAN_EN) */
 527:Generated_Source\PSoC4/CapSense_1_INT.c **** 
 528:Generated_Source\PSoC4/CapSense_1_INT.c ****                 /* Update Scan Counter */
 529:Generated_Source\PSoC4/CapSense_1_INT.c ****                 CapSense_1_dsRam.scanCounter++;
 530:Generated_Source\PSoC4/CapSense_1_INT.c **** 
 531:Generated_Source\PSoC4/CapSense_1_INT.c ****                 /* Sensor is totally scanned. Reset BUSY flag */
 532:Generated_Source\PSoC4/CapSense_1_INT.c ****                 CapSense_1_dsRam.status &= ~(CapSense_1_SW_STS_BUSY | CapSense_1_WDGT_SW_STS_BUSY);
 533:Generated_Source\PSoC4/CapSense_1_INT.c ****             }
 534:Generated_Source\PSoC4/CapSense_1_INT.c ****         #endif /* (CapSense_1_ENABLE == CapSense_1_MULTI_FREQ_SCAN_EN) */
 535:Generated_Source\PSoC4/CapSense_1_INT.c **** 
 536:Generated_Source\PSoC4/CapSense_1_INT.c ****         #ifdef CapSense_1_EXIT_CALLBACK
 537:Generated_Source\PSoC4/CapSense_1_INT.c ****             CapSense_1_ExitCallback();
 538:Generated_Source\PSoC4/CapSense_1_INT.c ****         #endif /* CapSense_1_EXIT_CALLBACK */
 539:Generated_Source\PSoC4/CapSense_1_INT.c ****     }
 540:Generated_Source\PSoC4/CapSense_1_INT.c **** 
 541:Generated_Source\PSoC4/CapSense_1_INT.c **** 
 542:Generated_Source\PSoC4/CapSense_1_INT.c ****     /*******************************************************************************
 543:Generated_Source\PSoC4/CapSense_1_INT.c ****     * Function Name: CapSense_1_CSDPostMultiScan
 544:Generated_Source\PSoC4/CapSense_1_INT.c ****     ****************************************************************************//**
ARM GAS  C:\Users\MICHAE~1.MAC\AppData\Local\Temp\ccPFa5AJ.s 			page 11


 545:Generated_Source\PSoC4/CapSense_1_INT.c ****     *
 546:Generated_Source\PSoC4/CapSense_1_INT.c ****     * \brief
 547:Generated_Source\PSoC4/CapSense_1_INT.c ****     *  This is an internal ISR function for the multiple-sensor scanning
 548:Generated_Source\PSoC4/CapSense_1_INT.c ****     *  implementation.
 549:Generated_Source\PSoC4/CapSense_1_INT.c ****     *
 550:Generated_Source\PSoC4/CapSense_1_INT.c ****     * \details
 551:Generated_Source\PSoC4/CapSense_1_INT.c ****     *  This ISR handler is triggered when the user calls the
 552:Generated_Source\PSoC4/CapSense_1_INT.c ****     *  CapSense_1_Scan() or CapSense_1_ScanAllWidgets() APIs.
 553:Generated_Source\PSoC4/CapSense_1_INT.c ****     *
 554:Generated_Source\PSoC4/CapSense_1_INT.c ****     *  The following tasks are performed:
 555:Generated_Source\PSoC4/CapSense_1_INT.c ****     *    1. Disable the CSD interrupt.
 556:Generated_Source\PSoC4/CapSense_1_INT.c ****     *    2. Read the Counter register and update the data structure with raw data.
 557:Generated_Source\PSoC4/CapSense_1_INT.c ****     *    3. Connect the Vref buffer to the AMUX bus.
 558:Generated_Source\PSoC4/CapSense_1_INT.c ****     *    4. Disable the CSD block (after the widget has been scanned).
 559:Generated_Source\PSoC4/CapSense_1_INT.c ****     *    5. Update the Scan Counter.
 560:Generated_Source\PSoC4/CapSense_1_INT.c ****     *    6. Reset the BUSY flag.
 561:Generated_Source\PSoC4/CapSense_1_INT.c ****     *    7. Enable the CSD interrupt.
 562:Generated_Source\PSoC4/CapSense_1_INT.c ****     *
 563:Generated_Source\PSoC4/CapSense_1_INT.c ****     *  The ISR handler initializes scanning for the previous sensor when the
 564:Generated_Source\PSoC4/CapSense_1_INT.c ****     *  widget has more than one sensor.
 565:Generated_Source\PSoC4/CapSense_1_INT.c ****     *  The ISR handler initializes scanning for the next widget when the
 566:Generated_Source\PSoC4/CapSense_1_INT.c ****     *  CapSense_1_ScanAllWidgets() APIs are called and the project has
 567:Generated_Source\PSoC4/CapSense_1_INT.c ****     *  more than one widget.
 568:Generated_Source\PSoC4/CapSense_1_INT.c ****     *  The ISR handler changes the IMO and initializes scanning for the next
 569:Generated_Source\PSoC4/CapSense_1_INT.c ****     *  frequency channels when multi-frequency scanning is enabled.
 570:Generated_Source\PSoC4/CapSense_1_INT.c ****     *
 571:Generated_Source\PSoC4/CapSense_1_INT.c ****     *  This function has two Macro Callbacks that allow calling the user
 572:Generated_Source\PSoC4/CapSense_1_INT.c ****     *  code from macros specified in Component's generated code. Refer to the
 573:Generated_Source\PSoC4/CapSense_1_INT.c ****     *  \ref group_c_macrocallbacks section of the PSoC Creator User Guide
 574:Generated_Source\PSoC4/CapSense_1_INT.c ****     *  for details.
 575:Generated_Source\PSoC4/CapSense_1_INT.c ****     *
 576:Generated_Source\PSoC4/CapSense_1_INT.c ****     *******************************************************************************/
 577:Generated_Source\PSoC4/CapSense_1_INT.c ****     CY_ISR(CapSense_1_CSDPostMultiScan)
 578:Generated_Source\PSoC4/CapSense_1_INT.c ****     {
 579:Generated_Source\PSoC4/CapSense_1_INT.c ****         /* Declare and initialize ptr to sensor IO structure to appropriate address        */
 580:Generated_Source\PSoC4/CapSense_1_INT.c ****         CapSense_1_FLASH_IO_STRUCT const *curSnsIOPtr = (CapSense_1_FLASH_IO_STRUCT const *)
 581:Generated_Source\PSoC4/CapSense_1_INT.c ****                                                           CapSense_1_dsFlash.wdgtArray[CapSense_1_w
 582:Generated_Source\PSoC4/CapSense_1_INT.c ****                                                           + CapSense_1_sensorIndex;
 583:Generated_Source\PSoC4/CapSense_1_INT.c **** 
 584:Generated_Source\PSoC4/CapSense_1_INT.c ****         #ifdef CapSense_1_ENTRY_CALLBACK
 585:Generated_Source\PSoC4/CapSense_1_INT.c ****             CapSense_1_EntryCallback();
 586:Generated_Source\PSoC4/CapSense_1_INT.c ****         #endif /* CapSense_1_ENTRY_CALLBACK */
 587:Generated_Source\PSoC4/CapSense_1_INT.c **** 
 588:Generated_Source\PSoC4/CapSense_1_INT.c ****         /* Clear pending interrupt */
 589:Generated_Source\PSoC4/CapSense_1_INT.c ****         CY_SET_REG32(CapSense_1_INTR_PTR, CapSense_1_INTR_SET_MASK);
 590:Generated_Source\PSoC4/CapSense_1_INT.c **** 
 591:Generated_Source\PSoC4/CapSense_1_INT.c ****          /* Read Rawdata */
 592:Generated_Source\PSoC4/CapSense_1_INT.c ****         CapSense_1_SsCSDPostScan();
 593:Generated_Source\PSoC4/CapSense_1_INT.c **** 
 594:Generated_Source\PSoC4/CapSense_1_INT.c ****         /* Connect Vref Buffer to AMUX bus */
 595:Generated_Source\PSoC4/CapSense_1_INT.c ****         CY_SET_REG32(CapSense_1_CONFIG_PTR, CapSense_1_configCsd | CapSense_1_CTANK_PRECHARGE_CONFI
 596:Generated_Source\PSoC4/CapSense_1_INT.c **** 
 597:Generated_Source\PSoC4/CapSense_1_INT.c ****         #if (CapSense_1_ENABLE == CapSense_1_MULTI_FREQ_SCAN_EN)
 598:Generated_Source\PSoC4/CapSense_1_INT.c ****             /* Disable sensor when all frequency channels are scanned */
 599:Generated_Source\PSoC4/CapSense_1_INT.c ****             if (CapSense_1_FREQ_CHANNEL_2 == CapSense_1_scanFreqIndex)
 600:Generated_Source\PSoC4/CapSense_1_INT.c ****             {
 601:Generated_Source\PSoC4/CapSense_1_INT.c ****                 /* Disable sensor */
ARM GAS  C:\Users\MICHAE~1.MAC\AppData\Local\Temp\ccPFa5AJ.s 			page 12


 602:Generated_Source\PSoC4/CapSense_1_INT.c ****                 CapSense_1_CSDDisconnectSns(curSnsIOPtr);
 603:Generated_Source\PSoC4/CapSense_1_INT.c ****             }
 604:Generated_Source\PSoC4/CapSense_1_INT.c ****         #else
 605:Generated_Source\PSoC4/CapSense_1_INT.c ****             /* Disable sensor */
 606:Generated_Source\PSoC4/CapSense_1_INT.c ****             CapSense_1_CSDDisconnectSns(curSnsIOPtr);
 607:Generated_Source\PSoC4/CapSense_1_INT.c ****         #endif /* (CapSense_1_ENABLE == CapSense_1_MULTI_FREQ_SCAN_EN) */
 608:Generated_Source\PSoC4/CapSense_1_INT.c **** 
 609:Generated_Source\PSoC4/CapSense_1_INT.c ****         #if (CapSense_1_ENABLE == CapSense_1_MULTI_FREQ_SCAN_EN)
 610:Generated_Source\PSoC4/CapSense_1_INT.c ****             if (CapSense_1_FREQ_CHANNEL_2 > CapSense_1_scanFreqIndex)
 611:Generated_Source\PSoC4/CapSense_1_INT.c ****             {
 612:Generated_Source\PSoC4/CapSense_1_INT.c ****                  /* Scan the next channel */
 613:Generated_Source\PSoC4/CapSense_1_INT.c ****                 CapSense_1_SsNextFrequencyScan();
 614:Generated_Source\PSoC4/CapSense_1_INT.c ****             }
 615:Generated_Source\PSoC4/CapSense_1_INT.c ****             else
 616:Generated_Source\PSoC4/CapSense_1_INT.c ****             {
 617:Generated_Source\PSoC4/CapSense_1_INT.c ****                  /* All channels are scanned. Set IMO to zero channel */
 618:Generated_Source\PSoC4/CapSense_1_INT.c ****                 CapSense_1_scanFreqIndex = CapSense_1_FREQ_CHANNEL_0;
 619:Generated_Source\PSoC4/CapSense_1_INT.c **** 
 620:Generated_Source\PSoC4/CapSense_1_INT.c ****                 #if (CapSense_1_MFS_IMO == CapSense_1_MFS_METHOD)
 621:Generated_Source\PSoC4/CapSense_1_INT.c ****                     CapSense_1_SsChangeImoFreq(CapSense_1_FREQ_CHANNEL_0);
 622:Generated_Source\PSoC4/CapSense_1_INT.c ****                 #else
 623:Generated_Source\PSoC4/CapSense_1_INT.c ****                     CapSense_1_SsChangeClkFreq(CapSense_1_FREQ_CHANNEL_0);
 624:Generated_Source\PSoC4/CapSense_1_INT.c ****                 #endif /* (CapSense_1_MFS_IMO == CapSense_1_MFS_METHOD) */
 625:Generated_Source\PSoC4/CapSense_1_INT.c **** 
 626:Generated_Source\PSoC4/CapSense_1_INT.c ****                  /* Scan the next sensor */
 627:Generated_Source\PSoC4/CapSense_1_INT.c ****                 CapSense_1_SsCSDInitNextScan();
 628:Generated_Source\PSoC4/CapSense_1_INT.c ****             }
 629:Generated_Source\PSoC4/CapSense_1_INT.c ****         #else
 630:Generated_Source\PSoC4/CapSense_1_INT.c ****             /* Scan the next sensor */
 631:Generated_Source\PSoC4/CapSense_1_INT.c ****             CapSense_1_SsCSDInitNextScan();
 632:Generated_Source\PSoC4/CapSense_1_INT.c ****         #endif /* (CapSense_1_ENABLE == CapSense_1_MULTI_FREQ_SCAN_EN) */
 633:Generated_Source\PSoC4/CapSense_1_INT.c **** 
 634:Generated_Source\PSoC4/CapSense_1_INT.c ****         #ifdef CapSense_1_EXIT_CALLBACK
 635:Generated_Source\PSoC4/CapSense_1_INT.c ****             CapSense_1_ExitCallback();
 636:Generated_Source\PSoC4/CapSense_1_INT.c ****         #endif /* CapSense_1_EXIT_CALLBACK */
 637:Generated_Source\PSoC4/CapSense_1_INT.c ****     }
 638:Generated_Source\PSoC4/CapSense_1_INT.c **** 
 639:Generated_Source\PSoC4/CapSense_1_INT.c **** 
 640:Generated_Source\PSoC4/CapSense_1_INT.c ****     #if (CapSense_1_ENABLE == CapSense_1_CSD_GANGED_SNS_EN)
 641:Generated_Source\PSoC4/CapSense_1_INT.c ****     /*******************************************************************************
 642:Generated_Source\PSoC4/CapSense_1_INT.c ****     * Function Name: CapSense_1_CSDPostMultiScanGanged
 643:Generated_Source\PSoC4/CapSense_1_INT.c ****     ****************************************************************************//**
 644:Generated_Source\PSoC4/CapSense_1_INT.c ****     *
 645:Generated_Source\PSoC4/CapSense_1_INT.c ****     * \brief
 646:Generated_Source\PSoC4/CapSense_1_INT.c ****     *  This is an internal ISR function for the multiple-sensor scanning
 647:Generated_Source\PSoC4/CapSense_1_INT.c ****     *  implementation for ganged sensors.
 648:Generated_Source\PSoC4/CapSense_1_INT.c ****     *
 649:Generated_Source\PSoC4/CapSense_1_INT.c ****     * \details
 650:Generated_Source\PSoC4/CapSense_1_INT.c ****     *  This ISR handler is triggered when the user calls the
 651:Generated_Source\PSoC4/CapSense_1_INT.c ****     *  CapSense_1_Scan() API for a ganged sensor or the
 652:Generated_Source\PSoC4/CapSense_1_INT.c ****     *  CapSense_1_ScanAllWidgets() API in the project with ganged sensors.
 653:Generated_Source\PSoC4/CapSense_1_INT.c ****     *
 654:Generated_Source\PSoC4/CapSense_1_INT.c ****     *  The following tasks are performed:
 655:Generated_Source\PSoC4/CapSense_1_INT.c ****     *    1. Disable the CSD interrupt.
 656:Generated_Source\PSoC4/CapSense_1_INT.c ****     *    2. Read the Counter register and update the data structure with raw data.
 657:Generated_Source\PSoC4/CapSense_1_INT.c ****     *    3. Connect the Vref buffer to the AMUX bus.
 658:Generated_Source\PSoC4/CapSense_1_INT.c ****     *    4. Disable the CSD block (after the widget has been scanned).
ARM GAS  C:\Users\MICHAE~1.MAC\AppData\Local\Temp\ccPFa5AJ.s 			page 13


 659:Generated_Source\PSoC4/CapSense_1_INT.c ****     *    5. Update the Scan Counter.
 660:Generated_Source\PSoC4/CapSense_1_INT.c ****     *    6. Reset the BUSY flag.
 661:Generated_Source\PSoC4/CapSense_1_INT.c ****     *    7. Enable the CSD interrupt.
 662:Generated_Source\PSoC4/CapSense_1_INT.c ****     *
 663:Generated_Source\PSoC4/CapSense_1_INT.c ****     *  The ISR handler initializes scanning for the previous sensor when the
 664:Generated_Source\PSoC4/CapSense_1_INT.c ****     *  widget has more than one sensor.
 665:Generated_Source\PSoC4/CapSense_1_INT.c ****     *  The ISR handler initializes scanning for the next widget when the
 666:Generated_Source\PSoC4/CapSense_1_INT.c ****     *  CapSense_1_ScanAllWidgets() APIs are called and the project has
 667:Generated_Source\PSoC4/CapSense_1_INT.c ****     *  more than one widget.
 668:Generated_Source\PSoC4/CapSense_1_INT.c ****     *  The ISR handler changes the IMO and initializes scanning for the next
 669:Generated_Source\PSoC4/CapSense_1_INT.c ****     *  frequency channels when multi-frequency scanning is enabled.
 670:Generated_Source\PSoC4/CapSense_1_INT.c ****     *
 671:Generated_Source\PSoC4/CapSense_1_INT.c ****     *  This function has two Macro Callbacks that allow calling the user
 672:Generated_Source\PSoC4/CapSense_1_INT.c ****     *  code from macros specified in Component's generated code. Refer to the
 673:Generated_Source\PSoC4/CapSense_1_INT.c ****     *  \ref group_c_macrocallbacks section of the PSoC Creator User Guide
 674:Generated_Source\PSoC4/CapSense_1_INT.c ****     *  for details.
 675:Generated_Source\PSoC4/CapSense_1_INT.c ****     *
 676:Generated_Source\PSoC4/CapSense_1_INT.c ****     *******************************************************************************/
 677:Generated_Source\PSoC4/CapSense_1_INT.c ****     CY_ISR(CapSense_1_CSDPostMultiScanGanged)
 678:Generated_Source\PSoC4/CapSense_1_INT.c ****     {
 679:Generated_Source\PSoC4/CapSense_1_INT.c ****         #ifdef CapSense_1_ENTRY_CALLBACK
 680:Generated_Source\PSoC4/CapSense_1_INT.c ****             CapSense_1_EntryCallback();
 681:Generated_Source\PSoC4/CapSense_1_INT.c ****         #endif /* CapSense_1_ENTRY_CALLBACK */
 682:Generated_Source\PSoC4/CapSense_1_INT.c **** 
 683:Generated_Source\PSoC4/CapSense_1_INT.c ****         /* Clear pending interrupt */
 684:Generated_Source\PSoC4/CapSense_1_INT.c ****         CY_SET_REG32(CapSense_1_INTR_PTR, CapSense_1_INTR_SET_MASK);
 685:Generated_Source\PSoC4/CapSense_1_INT.c **** 
 686:Generated_Source\PSoC4/CapSense_1_INT.c ****          /* Read Rawdata */
 687:Generated_Source\PSoC4/CapSense_1_INT.c ****         CapSense_1_SsCSDPostScan();
 688:Generated_Source\PSoC4/CapSense_1_INT.c **** 
 689:Generated_Source\PSoC4/CapSense_1_INT.c ****         /* Connect Vref Buffer to AMUX bus */
 690:Generated_Source\PSoC4/CapSense_1_INT.c ****         CY_SET_REG32(CapSense_1_CONFIG_PTR, CapSense_1_configCsd | CapSense_1_CTANK_PRECHARGE_CONFI
 691:Generated_Source\PSoC4/CapSense_1_INT.c **** 
 692:Generated_Source\PSoC4/CapSense_1_INT.c ****         #if (CapSense_1_ENABLE == CapSense_1_MULTI_FREQ_SCAN_EN)
 693:Generated_Source\PSoC4/CapSense_1_INT.c ****             if (CapSense_1_FREQ_CHANNEL_2 == CapSense_1_scanFreqIndex)
 694:Generated_Source\PSoC4/CapSense_1_INT.c ****             {
 695:Generated_Source\PSoC4/CapSense_1_INT.c ****                 CapSense_1_SsCSDDisconnectSnsExt((uint32)CapSense_1_widgetIndex, (uint32)CapSense_1
 696:Generated_Source\PSoC4/CapSense_1_INT.c ****             }
 697:Generated_Source\PSoC4/CapSense_1_INT.c ****         #else
 698:Generated_Source\PSoC4/CapSense_1_INT.c ****             CapSense_1_SsCSDDisconnectSnsExt((uint32)CapSense_1_widgetIndex, (uint32)CapSense_1_sen
 699:Generated_Source\PSoC4/CapSense_1_INT.c ****         #endif /* (CapSense_1_ENABLE == CapSense_1_MULTI_FREQ_SCAN_EN) */
 700:Generated_Source\PSoC4/CapSense_1_INT.c **** 
 701:Generated_Source\PSoC4/CapSense_1_INT.c ****         #if (CapSense_1_ENABLE == CapSense_1_MULTI_FREQ_SCAN_EN)
 702:Generated_Source\PSoC4/CapSense_1_INT.c ****             if (CapSense_1_FREQ_CHANNEL_2 > CapSense_1_scanFreqIndex)
 703:Generated_Source\PSoC4/CapSense_1_INT.c ****             {
 704:Generated_Source\PSoC4/CapSense_1_INT.c ****                  /* Scan the next channel */
 705:Generated_Source\PSoC4/CapSense_1_INT.c ****                 CapSense_1_SsNextFrequencyScan();
 706:Generated_Source\PSoC4/CapSense_1_INT.c ****             }
 707:Generated_Source\PSoC4/CapSense_1_INT.c ****             else
 708:Generated_Source\PSoC4/CapSense_1_INT.c ****             {
 709:Generated_Source\PSoC4/CapSense_1_INT.c ****                 /* All channels are scanned. Set IMO to zero channel */
 710:Generated_Source\PSoC4/CapSense_1_INT.c ****                 CapSense_1_scanFreqIndex = CapSense_1_FREQ_CHANNEL_0;
 711:Generated_Source\PSoC4/CapSense_1_INT.c **** 
 712:Generated_Source\PSoC4/CapSense_1_INT.c ****                 #if (CapSense_1_MFS_IMO == CapSense_1_MFS_METHOD)
 713:Generated_Source\PSoC4/CapSense_1_INT.c ****                     CapSense_1_SsChangeImoFreq(CapSense_1_FREQ_CHANNEL_0);
 714:Generated_Source\PSoC4/CapSense_1_INT.c ****                 #else
 715:Generated_Source\PSoC4/CapSense_1_INT.c ****                     CapSense_1_SsChangeClkFreq(CapSense_1_FREQ_CHANNEL_0);
ARM GAS  C:\Users\MICHAE~1.MAC\AppData\Local\Temp\ccPFa5AJ.s 			page 14


 716:Generated_Source\PSoC4/CapSense_1_INT.c ****                 #endif /* (CapSense_1_MFS_IMO == CapSense_1_MFS_METHOD) */
 717:Generated_Source\PSoC4/CapSense_1_INT.c **** 
 718:Generated_Source\PSoC4/CapSense_1_INT.c ****                  /* Scan the next sensor */
 719:Generated_Source\PSoC4/CapSense_1_INT.c ****                 CapSense_1_SsCSDInitNextScan();
 720:Generated_Source\PSoC4/CapSense_1_INT.c ****             }
 721:Generated_Source\PSoC4/CapSense_1_INT.c ****         #else
 722:Generated_Source\PSoC4/CapSense_1_INT.c ****              /* Scan the next sensor */
 723:Generated_Source\PSoC4/CapSense_1_INT.c ****             CapSense_1_SsCSDInitNextScan();
 724:Generated_Source\PSoC4/CapSense_1_INT.c ****         #endif /* (CapSense_1_ENABLE == CapSense_1_MULTI_FREQ_SCAN_EN) */
 725:Generated_Source\PSoC4/CapSense_1_INT.c **** 
 726:Generated_Source\PSoC4/CapSense_1_INT.c ****         #ifdef CapSense_1_EXIT_CALLBACK
 727:Generated_Source\PSoC4/CapSense_1_INT.c ****             CapSense_1_ExitCallback();
 728:Generated_Source\PSoC4/CapSense_1_INT.c ****         #endif /* CapSense_1_EXIT_CALLBACK */
 729:Generated_Source\PSoC4/CapSense_1_INT.c ****     }
 730:Generated_Source\PSoC4/CapSense_1_INT.c ****     #endif /* (CapSense_1_ENABLE == CapSense_1_CSD_GANGED_SNS_EN) */
 731:Generated_Source\PSoC4/CapSense_1_INT.c **** 
 732:Generated_Source\PSoC4/CapSense_1_INT.c **** #endif /* (CapSense_1_ENABLE == CapSense_1_CSDV2) */
 733:Generated_Source\PSoC4/CapSense_1_INT.c **** 
 734:Generated_Source\PSoC4/CapSense_1_INT.c **** #endif /* ((CapSense_1_ENABLE == CapSense_1_CSD_EN) || (CapSense_1_ENABLE == CapSense_1_CSD_CSX_EN)
 735:Generated_Source\PSoC4/CapSense_1_INT.c **** 
 736:Generated_Source\PSoC4/CapSense_1_INT.c **** /** \}
 737:Generated_Source\PSoC4/CapSense_1_INT.c ****  * \endcond */
 738:Generated_Source\PSoC4/CapSense_1_INT.c **** 
 739:Generated_Source\PSoC4/CapSense_1_INT.c **** 
 740:Generated_Source\PSoC4/CapSense_1_INT.c **** #if ((CapSense_1_ENABLE == CapSense_1_CSD_EN) || (CapSense_1_ENABLE == CapSense_1_CSD_CSX_EN))
 741:Generated_Source\PSoC4/CapSense_1_INT.c **** 
 742:Generated_Source\PSoC4/CapSense_1_INT.c **** /*******************************************************************************
 743:Generated_Source\PSoC4/CapSense_1_INT.c **** * Function Name: CapSense_1_SsCSDPostScan
 744:Generated_Source\PSoC4/CapSense_1_INT.c **** ****************************************************************************//**
 745:Generated_Source\PSoC4/CapSense_1_INT.c **** *
 746:Generated_Source\PSoC4/CapSense_1_INT.c **** * \brief
 747:Generated_Source\PSoC4/CapSense_1_INT.c **** *   This function reads rawdata and releases required HW resources after scan.
 748:Generated_Source\PSoC4/CapSense_1_INT.c **** *
 749:Generated_Source\PSoC4/CapSense_1_INT.c **** * \details
 750:Generated_Source\PSoC4/CapSense_1_INT.c **** *   This function performs following tasks after scan:
 751:Generated_Source\PSoC4/CapSense_1_INT.c **** *   - Reads SlotResult from Raw Counter;
 752:Generated_Source\PSoC4/CapSense_1_INT.c **** *   - Inits bad Conversions number;
 753:Generated_Source\PSoC4/CapSense_1_INT.c **** *   - Disconnects Vrefhi from AMUBUF positive input;
 754:Generated_Source\PSoC4/CapSense_1_INT.c **** *   - Disconnects AMUBUF output from CSDBUSB with sych PHI2+HSCMP;
 755:Generated_Source\PSoC4/CapSense_1_INT.c **** *   - Opens HCBV and HCBG switches.
 756:Generated_Source\PSoC4/CapSense_1_INT.c **** *
 757:Generated_Source\PSoC4/CapSense_1_INT.c **** *******************************************************************************/
 758:Generated_Source\PSoC4/CapSense_1_INT.c **** static void CapSense_1_SsCSDPostScan(void)
 759:Generated_Source\PSoC4/CapSense_1_INT.c **** {
  27              		.loc 1 759 0
  28              		.cfi_startproc
  29              		@ args = 0, pretend = 0, frame = 0
  30              		@ frame_needed = 0, uses_anonymous_args = 0
  31              		@ link register save eliminated.
 760:Generated_Source\PSoC4/CapSense_1_INT.c ****     #if (CapSense_1_ENABLE == CapSense_1_CSDV2)
 761:Generated_Source\PSoC4/CapSense_1_INT.c **** 
 762:Generated_Source\PSoC4/CapSense_1_INT.c ****         uint32 tmpRawData;
 763:Generated_Source\PSoC4/CapSense_1_INT.c ****         uint32 tmpMaxCount;
 764:Generated_Source\PSoC4/CapSense_1_INT.c ****         CapSense_1_RAM_WD_BASE_STRUCT const *ptrWdgt = (CapSense_1_RAM_WD_BASE_STRUCT *)
 765:Generated_Source\PSoC4/CapSense_1_INT.c ****                                             CapSense_1_dsFlash.wdgtArray[CapSense_1_widgetIndex].pt
  32              		.loc 1 765 0
  33 0000 104B     		ldr	r3, .L4
ARM GAS  C:\Users\MICHAE~1.MAC\AppData\Local\Temp\ccPFa5AJ.s 			page 15


  34 0002 1A78     		ldrb	r2, [r3]
  35 0004 D2B2     		uxtb	r2, r2
 764:Generated_Source\PSoC4/CapSense_1_INT.c ****                                             CapSense_1_dsFlash.wdgtArray[CapSense_1_widgetIndex].pt
  36              		.loc 1 764 0
  37 0006 D300     		lsls	r3, r2, #3
  38 0008 9A1A     		subs	r2, r3, r2
  39 000a 9300     		lsls	r3, r2, #2
  40 000c 0E4A     		ldr	r2, .L4+4
  41 000e D318     		adds	r3, r2, r3
  42 0010 5B68     		ldr	r3, [r3, #4]
  43              	.LVL0:
 766:Generated_Source\PSoC4/CapSense_1_INT.c **** 
 767:Generated_Source\PSoC4/CapSense_1_INT.c ****         /* Read SlotResult from Raw Counter */
 768:Generated_Source\PSoC4/CapSense_1_INT.c ****         tmpRawData = CapSense_1_RESULT_VAL1_VALUE_MASK & CY_GET_REG32(CapSense_1_COUNTER_PTR);
  44              		.loc 1 768 0
  45 0012 0E4A     		ldr	r2, .L4+8
  46 0014 1168     		ldr	r1, [r2]
  47 0016 0A04     		lsls	r2, r1, #16
  48 0018 120C     		lsrs	r2, r2, #16
  49              	.LVL1:
 769:Generated_Source\PSoC4/CapSense_1_INT.c **** 
 770:Generated_Source\PSoC4/CapSense_1_INT.c ****         tmpMaxCount = ((1uL << ptrWdgt->resolution) - 1uL);
  50              		.loc 1 770 0
  51 001a 1888     		ldrh	r0, [r3]
  52 001c 0123     		movs	r3, #1
  53              	.LVL2:
  54 001e 8340     		lsls	r3, r3, r0
  55 0020 013B     		subs	r3, r3, #1
  56              	.LVL3:
 771:Generated_Source\PSoC4/CapSense_1_INT.c ****         if(tmpRawData < tmpMaxCount)
  57              		.loc 1 771 0
  58 0022 9A42     		cmp	r2, r3
  59 0024 06D2     		bcs	.L2
 772:Generated_Source\PSoC4/CapSense_1_INT.c ****         {
 773:Generated_Source\PSoC4/CapSense_1_INT.c ****             CapSense_1_curRamSnsPtr->raw[CapSense_1_scanFreqIndex] = LO16(tmpRawData);
  60              		.loc 1 773 0
  61 0026 0A4B     		ldr	r3, .L4+12
  62              	.LVL4:
  63 0028 1A68     		ldr	r2, [r3]
  64              	.LVL5:
  65 002a 0A4B     		ldr	r3, .L4+16
  66 002c 1B78     		ldrb	r3, [r3]
  67 002e 5B00     		lsls	r3, r3, #1
  68 0030 D152     		strh	r1, [r2, r3]
  69 0032 05E0     		b	.L1
  70              	.LVL6:
  71              	.L2:
 774:Generated_Source\PSoC4/CapSense_1_INT.c ****         }
 775:Generated_Source\PSoC4/CapSense_1_INT.c ****         else
 776:Generated_Source\PSoC4/CapSense_1_INT.c ****         {
 777:Generated_Source\PSoC4/CapSense_1_INT.c ****             CapSense_1_curRamSnsPtr->raw[CapSense_1_scanFreqIndex] = LO16(tmpMaxCount);
  72              		.loc 1 777 0
  73 0034 064A     		ldr	r2, .L4+12
  74              	.LVL7:
  75 0036 1168     		ldr	r1, [r2]
  76              	.LVL8:
  77 0038 064A     		ldr	r2, .L4+16
ARM GAS  C:\Users\MICHAE~1.MAC\AppData\Local\Temp\ccPFa5AJ.s 			page 16


  78 003a 1278     		ldrb	r2, [r2]
  79 003c 5200     		lsls	r2, r2, #1
  80 003e 8B52     		strh	r3, [r1, r2]
  81              	.LVL9:
  82              	.L1:
 778:Generated_Source\PSoC4/CapSense_1_INT.c ****         }
 779:Generated_Source\PSoC4/CapSense_1_INT.c **** 
 780:Generated_Source\PSoC4/CapSense_1_INT.c ****         #if (CapSense_1_ENABLE == CapSense_1_CSD_NOISE_METRIC_EN)
 781:Generated_Source\PSoC4/CapSense_1_INT.c ****             /* Init bad Conversions number */
 782:Generated_Source\PSoC4/CapSense_1_INT.c ****             CapSense_1_badConversionsNum = CapSense_1_BAD_CONVERSIONS_NUM;
 783:Generated_Source\PSoC4/CapSense_1_INT.c ****         #endif /* (CapSense_1_ENABLE == CapSense_1_CSD_NOISE_METRIC_EN) */
 784:Generated_Source\PSoC4/CapSense_1_INT.c **** 
 785:Generated_Source\PSoC4/CapSense_1_INT.c ****         #if (CapSense_1_ENABLE == CapSense_1_CSD_SHIELD_EN)
 786:Generated_Source\PSoC4/CapSense_1_INT.c ****             /* Open HCBV and HCBG switches */
 787:Generated_Source\PSoC4/CapSense_1_INT.c ****             CY_SET_REG32(CapSense_1_SW_SHIELD_SEL_PTR, CapSense_1_SW_SHIELD_SEL_SW_HCBV_STATIC_OPEN
 788:Generated_Source\PSoC4/CapSense_1_INT.c ****                                                              CapSense_1_SW_SHIELD_SEL_SW_HCBG_STATI
 789:Generated_Source\PSoC4/CapSense_1_INT.c ****         #endif /* (CapSense_1_ENABLE == CapSense_1_CSD_SHIELD_EN) */
 790:Generated_Source\PSoC4/CapSense_1_INT.c **** 
 791:Generated_Source\PSoC4/CapSense_1_INT.c ****     #else
 792:Generated_Source\PSoC4/CapSense_1_INT.c **** 
 793:Generated_Source\PSoC4/CapSense_1_INT.c ****         /* Read SlotResult from Raw Counter */
 794:Generated_Source\PSoC4/CapSense_1_INT.c ****        CapSense_1_curRamSnsPtr->raw[CapSense_1_scanFreqIndex] = (uint16)CY_GET_REG32(CapSense_1_COU
 795:Generated_Source\PSoC4/CapSense_1_INT.c **** 
 796:Generated_Source\PSoC4/CapSense_1_INT.c ****     #endif /* (CapSense_1_ENABLE == CapSense_1_CSDV2) */
 797:Generated_Source\PSoC4/CapSense_1_INT.c **** }
  83              		.loc 1 797 0
  84              		@ sp needed
  85 0040 7047     		bx	lr
  86              	.L5:
  87 0042 C046     		.align	2
  88              	.L4:
  89 0044 00000000 		.word	CapSense_1_widgetIndex
  90 0048 00000000 		.word	CapSense_1_dsFlash
  91 004c D0000B40 		.word	1074462928
  92 0050 00000000 		.word	CapSense_1_curRamSnsPtr
  93 0054 00000000 		.word	CapSense_1_scanFreqIndex
  94              		.cfi_endproc
  95              	.LFE3:
  96              		.size	CapSense_1_SsCSDPostScan, .-CapSense_1_SsCSDPostScan
  97              		.section	.text.CapSense_1_SsCSDInitNextScan,"ax",%progbits
  98              		.align	2
  99              		.code	16
 100              		.thumb_func
 101              		.type	CapSense_1_SsCSDInitNextScan, %function
 102              	CapSense_1_SsCSDInitNextScan:
 103              	.LFB4:
 798:Generated_Source\PSoC4/CapSense_1_INT.c **** 
 799:Generated_Source\PSoC4/CapSense_1_INT.c **** 
 800:Generated_Source\PSoC4/CapSense_1_INT.c **** /*******************************************************************************
 801:Generated_Source\PSoC4/CapSense_1_INT.c **** * Function Name: CapSense_1_SsCSDInitNextScan
 802:Generated_Source\PSoC4/CapSense_1_INT.c **** ****************************************************************************//**
 803:Generated_Source\PSoC4/CapSense_1_INT.c **** *
 804:Generated_Source\PSoC4/CapSense_1_INT.c **** * \brief
 805:Generated_Source\PSoC4/CapSense_1_INT.c **** *   This function initializes the next sensor scan.
 806:Generated_Source\PSoC4/CapSense_1_INT.c **** *
 807:Generated_Source\PSoC4/CapSense_1_INT.c **** * \details
 808:Generated_Source\PSoC4/CapSense_1_INT.c **** *   The function increments the sensor index, updates sense clock for matrix
ARM GAS  C:\Users\MICHAE~1.MAC\AppData\Local\Temp\ccPFa5AJ.s 			page 17


 809:Generated_Source\PSoC4/CapSense_1_INT.c **** *   or touchpad widgets only, sets up Compensation IDAC, enables the sensor and
 810:Generated_Source\PSoC4/CapSense_1_INT.c **** *   scans it. When all the sensors are scanned it continues to set up the next widget
 811:Generated_Source\PSoC4/CapSense_1_INT.c **** *   until all the widgets are scanned. The CSD block is disabled when all the widgets are
 812:Generated_Source\PSoC4/CapSense_1_INT.c **** *   scanned.
 813:Generated_Source\PSoC4/CapSense_1_INT.c **** *
 814:Generated_Source\PSoC4/CapSense_1_INT.c **** *******************************************************************************/
 815:Generated_Source\PSoC4/CapSense_1_INT.c **** static void CapSense_1_SsCSDInitNextScan(void)
 816:Generated_Source\PSoC4/CapSense_1_INT.c **** {
 104              		.loc 1 816 0
 105              		.cfi_startproc
 106              		@ args = 0, pretend = 0, frame = 0
 107              		@ frame_needed = 0, uses_anonymous_args = 0
 108 0000 70B5     		push	{r4, r5, r6, lr}
 109              		.cfi_def_cfa_offset 16
 110              		.cfi_offset 4, -16
 111              		.cfi_offset 5, -12
 112              		.cfi_offset 6, -8
 113              		.cfi_offset 14, -4
 817:Generated_Source\PSoC4/CapSense_1_INT.c ****     /* Declare and initialize ptr to widget and sensor structures to appropriate address */
 818:Generated_Source\PSoC4/CapSense_1_INT.c ****     #if (((CapSense_1_ENABLE == CapSense_1_CSD_IDAC_COMP_EN) || \
 819:Generated_Source\PSoC4/CapSense_1_INT.c ****           (CapSense_1_CSD_MATRIX_WIDGET_EN || CapSense_1_CSD_TOUCHPAD_WIDGET_EN)) || \
 820:Generated_Source\PSoC4/CapSense_1_INT.c ****           (((CapSense_1_DISABLE == CapSense_1_CSD_COMMON_SNS_CLK_EN) && \
 821:Generated_Source\PSoC4/CapSense_1_INT.c ****           (CapSense_1_ENABLE == CapSense_1_CSDV2) && \
 822:Generated_Source\PSoC4/CapSense_1_INT.c ****           (CapSense_1_CSD_MATRIX_WIDGET_EN || CapSense_1_CSD_TOUCHPAD_WIDGET_EN))))
 823:Generated_Source\PSoC4/CapSense_1_INT.c ****         CapSense_1_RAM_WD_BASE_STRUCT *ptrWdgt = (CapSense_1_RAM_WD_BASE_STRUCT *)
 824:Generated_Source\PSoC4/CapSense_1_INT.c ****                                                         CapSense_1_dsFlash.wdgtArray[CapSense_1_wid
 114              		.loc 1 824 0
 115 0002 274B     		ldr	r3, .L10
 116 0004 1978     		ldrb	r1, [r3]
 117 0006 C9B2     		uxtb	r1, r1
 823:Generated_Source\PSoC4/CapSense_1_INT.c ****                                                         CapSense_1_dsFlash.wdgtArray[CapSense_1_wid
 118              		.loc 1 823 0
 119 0008 264C     		ldr	r4, .L10+4
 120 000a CA00     		lsls	r2, r1, #3
 121 000c 511A     		subs	r1, r2, r1
 122 000e 8A00     		lsls	r2, r1, #2
 123 0010 A218     		adds	r2, r4, r2
 124 0012 5068     		ldr	r0, [r2, #4]
 125              	.LVL10:
 825:Generated_Source\PSoC4/CapSense_1_INT.c ****     #endif
 826:Generated_Source\PSoC4/CapSense_1_INT.c **** 
 827:Generated_Source\PSoC4/CapSense_1_INT.c ****     /* Check if all the sensors are scanned in widget */
 828:Generated_Source\PSoC4/CapSense_1_INT.c ****     if (((uint8)CapSense_1_dsFlash.wdgtArray[(CapSense_1_widgetIndex)].totalNumSns - 1u) > CapSense
 126              		.loc 1 828 0
 127 0014 1A78     		ldrb	r2, [r3]
 128 0016 D2B2     		uxtb	r2, r2
 129 0018 D100     		lsls	r1, r2, #3
 130 001a 8A1A     		subs	r2, r1, r2
 131 001c 9300     		lsls	r3, r2, #2
 132 001e E318     		adds	r3, r4, r3
 133 0020 1A7E     		ldrb	r2, [r3, #24]
 134 0022 013A     		subs	r2, r2, #1
 135 0024 204B     		ldr	r3, .L10+8
 136 0026 1B78     		ldrb	r3, [r3]
 137 0028 DBB2     		uxtb	r3, r3
 138 002a 9A42     		cmp	r2, r3
 139 002c 20D9     		bls	.L7
ARM GAS  C:\Users\MICHAE~1.MAC\AppData\Local\Temp\ccPFa5AJ.s 			page 18


 829:Generated_Source\PSoC4/CapSense_1_INT.c ****     {
 830:Generated_Source\PSoC4/CapSense_1_INT.c ****         /* Increment sensor index to configure next sensor in widget */
 831:Generated_Source\PSoC4/CapSense_1_INT.c ****         CapSense_1_sensorIndex++;
 140              		.loc 1 831 0
 141 002e 1E4C     		ldr	r4, .L10+8
 142 0030 2378     		ldrb	r3, [r4]
 143 0032 0133     		adds	r3, r3, #1
 144 0034 DBB2     		uxtb	r3, r3
 145 0036 2370     		strb	r3, [r4]
 832:Generated_Source\PSoC4/CapSense_1_INT.c **** 
 833:Generated_Source\PSoC4/CapSense_1_INT.c ****         /* Update global pointer to CapSense_1_RAM_SNS_STRUCT to current sensor  */
 834:Generated_Source\PSoC4/CapSense_1_INT.c ****         CapSense_1_curRamSnsPtr = (CapSense_1_RAM_SNS_STRUCT *)
 146              		.loc 1 834 0
 147 0038 194D     		ldr	r5, .L10
 148 003a 2A78     		ldrb	r2, [r5]
 149 003c D2B2     		uxtb	r2, r2
 835:Generated_Source\PSoC4/CapSense_1_INT.c ****                                                   CapSense_1_dsFlash.wdgtArray[CapSense_1_widgetInd
 150              		.loc 1 835 0
 151 003e D300     		lsls	r3, r2, #3
 152 0040 9A1A     		subs	r2, r3, r2
 153 0042 9300     		lsls	r3, r2, #2
 154 0044 174A     		ldr	r2, .L10+4
 155 0046 D318     		adds	r3, r2, r3
 156 0048 9968     		ldr	r1, [r3, #8]
 836:Generated_Source\PSoC4/CapSense_1_INT.c ****                                                   + CapSense_1_sensorIndex;
 157              		.loc 1 836 0
 158 004a 2378     		ldrb	r3, [r4]
 159 004c DBB2     		uxtb	r3, r3
 160 004e 9A00     		lsls	r2, r3, #2
 161 0050 D318     		adds	r3, r2, r3
 162 0052 5A00     		lsls	r2, r3, #1
 163 0054 8A18     		adds	r2, r1, r2
 834:Generated_Source\PSoC4/CapSense_1_INT.c ****                                                   CapSense_1_dsFlash.wdgtArray[CapSense_1_widgetInd
 164              		.loc 1 834 0
 165 0056 154B     		ldr	r3, .L10+12
 166 0058 1A60     		str	r2, [r3]
 837:Generated_Source\PSoC4/CapSense_1_INT.c **** 
 838:Generated_Source\PSoC4/CapSense_1_INT.c ****         /* Configure clock divider to row or column */
 839:Generated_Source\PSoC4/CapSense_1_INT.c ****         #if ((CapSense_1_DISABLE == CapSense_1_CSD_COMMON_SNS_CLK_EN) && \
 840:Generated_Source\PSoC4/CapSense_1_INT.c ****              (CapSense_1_CSD_MATRIX_WIDGET_EN || CapSense_1_CSD_TOUCHPAD_WIDGET_EN))
 841:Generated_Source\PSoC4/CapSense_1_INT.c ****             if ((CapSense_1_WD_TOUCHPAD_E == (CapSense_1_WD_TYPE_ENUM)CapSense_1_dsFlash.wdgtArray[
 842:Generated_Source\PSoC4/CapSense_1_INT.c ****                 (CapSense_1_WD_MATRIX_BUTTON_E == (CapSense_1_WD_TYPE_ENUM)CapSense_1_dsFlash.wdgtA
 843:Generated_Source\PSoC4/CapSense_1_INT.c ****             {
 844:Generated_Source\PSoC4/CapSense_1_INT.c ****                 CapSense_1_SsCSDConfigClock();
 845:Generated_Source\PSoC4/CapSense_1_INT.c **** 
 846:Generated_Source\PSoC4/CapSense_1_INT.c ****                 #if (CapSense_1_ENABLE == CapSense_1_CSDV2)
 847:Generated_Source\PSoC4/CapSense_1_INT.c ****                      /* Set up scanning resolution */
 848:Generated_Source\PSoC4/CapSense_1_INT.c ****                     CapSense_1_SsCSDCalculateScanDuration(ptrWdgt);
 849:Generated_Source\PSoC4/CapSense_1_INT.c ****                 #endif /* (CapSense_1_ENABLE == CapSense_1_CSDV2) */
 850:Generated_Source\PSoC4/CapSense_1_INT.c ****             }
 851:Generated_Source\PSoC4/CapSense_1_INT.c ****         #endif /* ((CapSense_1_DISABLE == CapSense_1_CSD_COMMON_SNS_CLK_EN) && \
 852:Generated_Source\PSoC4/CapSense_1_INT.c ****                    (CapSense_1_CSD_MATRIX_WIDGET_EN || CapSense_1_CSD_TOUCHPAD_WIDGET_EN))) */
 853:Generated_Source\PSoC4/CapSense_1_INT.c **** 
 854:Generated_Source\PSoC4/CapSense_1_INT.c ****         /* Setup Compensation IDAC for next sensor in widget */
 855:Generated_Source\PSoC4/CapSense_1_INT.c ****         #if ((CapSense_1_ENABLE == CapSense_1_CSD_IDAC_COMP_EN) || \
 856:Generated_Source\PSoC4/CapSense_1_INT.c ****              (CapSense_1_CSD_MATRIX_WIDGET_EN || CapSense_1_CSD_TOUCHPAD_WIDGET_EN))
 857:Generated_Source\PSoC4/CapSense_1_INT.c ****             CapSense_1_SsCSDSetUpIdacs(ptrWdgt);
ARM GAS  C:\Users\MICHAE~1.MAC\AppData\Local\Temp\ccPFa5AJ.s 			page 19


 167              		.loc 1 857 0
 168 005a FFF7FEFF 		bl	CapSense_1_SsCSDSetUpIdacs
 169              	.LVL11:
 858:Generated_Source\PSoC4/CapSense_1_INT.c ****         #endif /* ((CapSense_1_ENABLE == CapSense_1_CSD_IDAC_COMP_EN) || \
 859:Generated_Source\PSoC4/CapSense_1_INT.c ****                    (CapSense_1_CSD_MATRIX_WIDGET_EN || CapSense_1_CSD_TOUCHPAD_WIDGET_EN)) */
 860:Generated_Source\PSoC4/CapSense_1_INT.c **** 
 861:Generated_Source\PSoC4/CapSense_1_INT.c ****         /* Enable sensor */
 862:Generated_Source\PSoC4/CapSense_1_INT.c ****         CapSense_1_SsCSDConnectSensorExt((uint32)CapSense_1_widgetIndex, (uint32)CapSense_1_sensorI
 170              		.loc 1 862 0
 171 005e 2878     		ldrb	r0, [r5]
 172 0060 C0B2     		uxtb	r0, r0
 173 0062 2178     		ldrb	r1, [r4]
 174 0064 C9B2     		uxtb	r1, r1
 175 0066 FFF7FEFF 		bl	CapSense_1_SsCSDConnectSensorExt
 176              	.LVL12:
 863:Generated_Source\PSoC4/CapSense_1_INT.c **** 
 864:Generated_Source\PSoC4/CapSense_1_INT.c ****         /* Proceed scanning */
 865:Generated_Source\PSoC4/CapSense_1_INT.c ****         CapSense_1_SsCSDStartSample();
 177              		.loc 1 865 0
 178 006a FFF7FEFF 		bl	CapSense_1_SsCSDStartSample
 179              	.LVL13:
 180 006e 16E0     		b	.L6
 181              	.LVL14:
 182              	.L7:
 866:Generated_Source\PSoC4/CapSense_1_INT.c ****     }
 867:Generated_Source\PSoC4/CapSense_1_INT.c ****     /* Call scan next widget API if requested, if not, complete the scan  */
 868:Generated_Source\PSoC4/CapSense_1_INT.c ****     else
 869:Generated_Source\PSoC4/CapSense_1_INT.c ****     {
 870:Generated_Source\PSoC4/CapSense_1_INT.c ****         CapSense_1_sensorIndex = 0u;
 183              		.loc 1 870 0
 184 0070 0022     		movs	r2, #0
 185 0072 0D4B     		ldr	r3, .L10+8
 186 0074 1A70     		strb	r2, [r3]
 871:Generated_Source\PSoC4/CapSense_1_INT.c **** 
 872:Generated_Source\PSoC4/CapSense_1_INT.c ****         /* Current widget is totally scanned. Reset WIDGET BUSY flag */
 873:Generated_Source\PSoC4/CapSense_1_INT.c ****         CapSense_1_dsRam.status &= ~CapSense_1_WDGT_SW_STS_BUSY;
 187              		.loc 1 873 0
 188 0076 0E4A     		ldr	r2, .L10+16
 189 0078 D168     		ldr	r1, [r2, #12]
 190 007a 0E4B     		ldr	r3, .L10+20
 191 007c 0B40     		ands	r3, r1
 192 007e D360     		str	r3, [r2, #12]
 874:Generated_Source\PSoC4/CapSense_1_INT.c **** 
 875:Generated_Source\PSoC4/CapSense_1_INT.c ****         /* Check if all the widgets have been scanned */
 876:Generated_Source\PSoC4/CapSense_1_INT.c ****         if (CapSense_1_ENABLE == CapSense_1_requestScanAllWidget)
 193              		.loc 1 876 0
 194 0080 0D4B     		ldr	r3, .L10+24
 195 0082 1B78     		ldrb	r3, [r3]
 196 0084 012B     		cmp	r3, #1
 197 0086 02D1     		bne	.L9
 877:Generated_Source\PSoC4/CapSense_1_INT.c ****         {
 878:Generated_Source\PSoC4/CapSense_1_INT.c ****             /* Configure and begin scanning next widget */
 879:Generated_Source\PSoC4/CapSense_1_INT.c ****             CapSense_1_SsPostAllWidgetsScan();
 198              		.loc 1 879 0
 199 0088 FFF7FEFF 		bl	CapSense_1_SsPostAllWidgetsScan
 200              	.LVL15:
 201 008c 07E0     		b	.L6
ARM GAS  C:\Users\MICHAE~1.MAC\AppData\Local\Temp\ccPFa5AJ.s 			page 20


 202              	.LVL16:
 203              	.L9:
 880:Generated_Source\PSoC4/CapSense_1_INT.c ****         }
 881:Generated_Source\PSoC4/CapSense_1_INT.c ****         else
 882:Generated_Source\PSoC4/CapSense_1_INT.c ****         {
 883:Generated_Source\PSoC4/CapSense_1_INT.c ****             #if (CapSense_1_ENABLE == CapSense_1_BLOCK_OFF_AFTER_SCAN_EN)
 884:Generated_Source\PSoC4/CapSense_1_INT.c ****                 #if (CapSense_1_ENABLE == CapSense_1_CSDV2)
 885:Generated_Source\PSoC4/CapSense_1_INT.c ****                     /* Disable the CSD block */
 886:Generated_Source\PSoC4/CapSense_1_INT.c ****                     CY_SET_REG32(CapSense_1_CONFIG_PTR, CapSense_1_configCsd);
 887:Generated_Source\PSoC4/CapSense_1_INT.c ****                 #else
 888:Generated_Source\PSoC4/CapSense_1_INT.c ****                     /* Disable the CSD block. Connect Vref Buffer to AMUX bus */
 889:Generated_Source\PSoC4/CapSense_1_INT.c ****                     #if ((CapSense_1_CSH_PRECHARGE_IO_BUF == CapSense_1_CSD_CSH_PRECHARGE_SRC) &&\
 890:Generated_Source\PSoC4/CapSense_1_INT.c ****                          (CapSense_1_ENABLE == CapSense_1_CSD_SHIELD_TANK_EN))
 891:Generated_Source\PSoC4/CapSense_1_INT.c ****                         CY_SET_REG32(CapSense_1_CONFIG_PTR, CapSense_1_configCsd | CapSense_1_CMOD_
 892:Generated_Source\PSoC4/CapSense_1_INT.c ****                     #else
 893:Generated_Source\PSoC4/CapSense_1_INT.c ****                         CY_SET_REG32(CapSense_1_CONFIG_PTR, CapSense_1_configCsd | CapSense_1_CTANK
 894:Generated_Source\PSoC4/CapSense_1_INT.c ****                     #endif /* ((CapSense_1_CSH_PRECHARGE_IO_BUF == CapSense_1_CSD_CSH_PRECHARGE_SRC
 895:Generated_Source\PSoC4/CapSense_1_INT.c ****                                (CapSense_1_ENABLE == CapSense_1_CSD_SHIELD_TANK_EN)) */
 896:Generated_Source\PSoC4/CapSense_1_INT.c ****                 #endif /* (CapSense_1_ENABLE == CapSense_1_CSDV2) */
 897:Generated_Source\PSoC4/CapSense_1_INT.c ****             #endif /* (CapSense_1_ENABLE == CapSense_1_BLOCK_OFF_AFTER_SCAN_EN) */
 898:Generated_Source\PSoC4/CapSense_1_INT.c **** 
 899:Generated_Source\PSoC4/CapSense_1_INT.c ****             /* All widgets are totally scanned. Reset BUSY flag */
 900:Generated_Source\PSoC4/CapSense_1_INT.c ****             CapSense_1_dsRam.status &= ~CapSense_1_SW_STS_BUSY;
 204              		.loc 1 900 0
 205 008e 084B     		ldr	r3, .L10+16
 206 0090 DA68     		ldr	r2, [r3, #12]
 207 0092 8021     		movs	r1, #128
 208 0094 8A43     		bics	r2, r1
 209 0096 DA60     		str	r2, [r3, #12]
 901:Generated_Source\PSoC4/CapSense_1_INT.c **** 
 902:Generated_Source\PSoC4/CapSense_1_INT.c ****             /* Update scan Counter */
 903:Generated_Source\PSoC4/CapSense_1_INT.c ****             CapSense_1_dsRam.scanCounter++;
 210              		.loc 1 903 0
 211 0098 1A89     		ldrh	r2, [r3, #8]
 212 009a 0132     		adds	r2, r2, #1
 213 009c 1A81     		strh	r2, [r3, #8]
 214              	.LVL17:
 215              	.L6:
 904:Generated_Source\PSoC4/CapSense_1_INT.c ****         }
 905:Generated_Source\PSoC4/CapSense_1_INT.c ****     }
 906:Generated_Source\PSoC4/CapSense_1_INT.c **** }
 216              		.loc 1 906 0
 217              		@ sp needed
 218 009e 70BD     		pop	{r4, r5, r6, pc}
 219              	.L11:
 220              		.align	2
 221              	.L10:
 222 00a0 00000000 		.word	CapSense_1_widgetIndex
 223 00a4 00000000 		.word	CapSense_1_dsFlash
 224 00a8 00000000 		.word	CapSense_1_sensorIndex
 225 00ac 00000000 		.word	CapSense_1_curRamSnsPtr
 226 00b0 00000000 		.word	CapSense_1_dsRam
 227 00b4 FFFFFEFF 		.word	-65537
 228 00b8 00000000 		.word	CapSense_1_requestScanAllWidget
 229              		.cfi_endproc
 230              	.LFE4:
 231              		.size	CapSense_1_SsCSDInitNextScan, .-CapSense_1_SsCSDInitNextScan
ARM GAS  C:\Users\MICHAE~1.MAC\AppData\Local\Temp\ccPFa5AJ.s 			page 21


 232              		.section	.text.CapSense_1_CSDPostSingleScan,"ax",%progbits
 233              		.align	2
 234              		.global	CapSense_1_CSDPostSingleScan
 235              		.code	16
 236              		.thumb_func
 237              		.type	CapSense_1_CSDPostSingleScan, %function
 238              	CapSense_1_CSDPostSingleScan:
 239              	.LFB1:
 122:Generated_Source\PSoC4/CapSense_1_INT.c ****         #ifdef CapSense_1_ENTRY_CALLBACK
 240              		.loc 1 122 0
 241              		.cfi_startproc
 242              		@ args = 0, pretend = 0, frame = 0
 243              		@ frame_needed = 0, uses_anonymous_args = 0
 244 0000 10B5     		push	{r4, lr}
 245              		.cfi_def_cfa_offset 8
 246              		.cfi_offset 4, -8
 247              		.cfi_offset 14, -4
 128:Generated_Source\PSoC4/CapSense_1_INT.c **** 
 248              		.loc 1 128 0
 249 0002 8322     		movs	r2, #131
 250 0004 5200     		lsls	r2, r2, #1
 251 0006 064B     		ldr	r3, .L13
 252 0008 1A60     		str	r2, [r3]
 148:Generated_Source\PSoC4/CapSense_1_INT.c **** 
 253              		.loc 1 148 0
 254 000a FFF7FEFF 		bl	CapSense_1_SsCSDPostScan
 255              	.LVL18:
 186:Generated_Source\PSoC4/CapSense_1_INT.c **** 
 256              		.loc 1 186 0
 257 000e 054B     		ldr	r3, .L13+4
 258 0010 1A89     		ldrh	r2, [r3, #8]
 259 0012 0132     		adds	r2, r2, #1
 260 0014 1A81     		strh	r2, [r3, #8]
 189:Generated_Source\PSoC4/CapSense_1_INT.c ****                 }
 261              		.loc 1 189 0
 262 0016 D968     		ldr	r1, [r3, #12]
 263 0018 034A     		ldr	r2, .L13+8
 264 001a 0A40     		ands	r2, r1
 265 001c DA60     		str	r2, [r3, #12]
 199:Generated_Source\PSoC4/CapSense_1_INT.c **** 
 266              		.loc 1 199 0
 267              		@ sp needed
 268 001e 10BD     		pop	{r4, pc}
 269              	.L14:
 270              		.align	2
 271              	.L13:
 272 0020 F0000B40 		.word	1074462960
 273 0024 00000000 		.word	CapSense_1_dsRam
 274 0028 7FFFFEFF 		.word	-65665
 275              		.cfi_endproc
 276              	.LFE1:
 277              		.size	CapSense_1_CSDPostSingleScan, .-CapSense_1_CSDPostSingleScan
 278              		.section	.text.CapSense_1_CSDPostMultiScan,"ax",%progbits
 279              		.align	2
 280              		.global	CapSense_1_CSDPostMultiScan
 281              		.code	16
 282              		.thumb_func
ARM GAS  C:\Users\MICHAE~1.MAC\AppData\Local\Temp\ccPFa5AJ.s 			page 22


 283              		.type	CapSense_1_CSDPostMultiScan, %function
 284              	CapSense_1_CSDPostMultiScan:
 285              	.LFB2:
 238:Generated_Source\PSoC4/CapSense_1_INT.c ****         /* Declare and initialize ptr to sensor IO structure to appropriate address */
 286              		.loc 1 238 0
 287              		.cfi_startproc
 288              		@ args = 0, pretend = 0, frame = 0
 289              		@ frame_needed = 0, uses_anonymous_args = 0
 290 0000 10B5     		push	{r4, lr}
 291              		.cfi_def_cfa_offset 8
 292              		.cfi_offset 4, -8
 293              		.cfi_offset 14, -4
 240:Generated_Source\PSoC4/CapSense_1_INT.c ****                                                           CapSense_1_dsFlash.wdgtArray[CapSense_1_w
 294              		.loc 1 240 0
 295 0002 0D4B     		ldr	r3, .L16
 296 0004 1B78     		ldrb	r3, [r3]
 297 0006 DBB2     		uxtb	r3, r3
 241:Generated_Source\PSoC4/CapSense_1_INT.c ****                                                           + CapSense_1_sensorIndex;
 298              		.loc 1 241 0
 299 0008 DA00     		lsls	r2, r3, #3
 300 000a D31A     		subs	r3, r2, r3
 301 000c 9A00     		lsls	r2, r3, #2
 302 000e 0B4B     		ldr	r3, .L16+4
 303 0010 D458     		ldr	r4, [r2, r3]
 242:Generated_Source\PSoC4/CapSense_1_INT.c **** 
 304              		.loc 1 242 0
 305 0012 0B4B     		ldr	r3, .L16+8
 306 0014 1A78     		ldrb	r2, [r3]
 307 0016 D2B2     		uxtb	r2, r2
 308 0018 D100     		lsls	r1, r2, #3
 309 001a 8A1A     		subs	r2, r1, r2
 310 001c 9300     		lsls	r3, r2, #2
 240:Generated_Source\PSoC4/CapSense_1_INT.c ****                                                           CapSense_1_dsFlash.wdgtArray[CapSense_1_w
 311              		.loc 1 240 0
 312 001e E418     		adds	r4, r4, r3
 313              	.LVL19:
 249:Generated_Source\PSoC4/CapSense_1_INT.c **** 
 314              		.loc 1 249 0
 315 0020 8322     		movs	r2, #131
 316 0022 5200     		lsls	r2, r2, #1
 317 0024 074B     		ldr	r3, .L16+12
 318 0026 1A60     		str	r2, [r3]
 269:Generated_Source\PSoC4/CapSense_1_INT.c **** 
 319              		.loc 1 269 0
 320 0028 FFF7FEFF 		bl	CapSense_1_SsCSDPostScan
 321              	.LVL20:
 277:Generated_Source\PSoC4/CapSense_1_INT.c ****             }
 322              		.loc 1 277 0
 323 002c 2000     		movs	r0, r4
 324 002e FFF7FEFF 		bl	CapSense_1_CSDDisconnectSns
 325              	.LVL21:
 302:Generated_Source\PSoC4/CapSense_1_INT.c ****             #endif /* (CapSense_1_ENABLE == CapSense_1_MULTI_FREQ_SCAN_EN) */
 326              		.loc 1 302 0
 327 0032 FFF7FEFF 		bl	CapSense_1_SsCSDInitNextScan
 328              	.LVL22:
 311:Generated_Source\PSoC4/CapSense_1_INT.c **** 
 329              		.loc 1 311 0
ARM GAS  C:\Users\MICHAE~1.MAC\AppData\Local\Temp\ccPFa5AJ.s 			page 23


 330              		@ sp needed
 331              	.LVL23:
 332 0036 10BD     		pop	{r4, pc}
 333              	.L17:
 334              		.align	2
 335              	.L16:
 336 0038 00000000 		.word	CapSense_1_widgetIndex
 337 003c 00000000 		.word	CapSense_1_dsFlash
 338 0040 00000000 		.word	CapSense_1_sensorIndex
 339 0044 F0000B40 		.word	1074462960
 340              		.cfi_endproc
 341              	.LFE2:
 342              		.size	CapSense_1_CSDPostMultiScan, .-CapSense_1_CSDPostMultiScan
 343              		.text
 344              	.Letext0:
 345              		.file 2 "Generated_Source\\PSoC4\\cytypes.h"
 346              		.file 3 "Generated_Source\\PSoC4\\CapSense_1_Configuration.h"
 347              		.file 4 "Generated_Source\\PSoC4\\CapSense_1_Structure.h"
 348              		.file 5 "Generated_Source\\PSoC4\\CapSense_1_Sensing.h"
 349              		.file 6 "Generated_Source\\PSoC4\\CapSense_1_SensingCSD_LL.h"