ARM GAS  C:\Users\MICHAE~1.MAC\AppData\Local\Temp\ccr99qdP.s 			page 1


   1              		.syntax unified
   2              		.cpu cortex-m0plus
   3              		.fpu softvfp
   4              		.eabi_attribute 20, 1
   5              		.eabi_attribute 21, 1
   6              		.eabi_attribute 23, 3
   7              		.eabi_attribute 24, 1
   8              		.eabi_attribute 25, 1
   9              		.eabi_attribute 26, 1
  10              		.eabi_attribute 30, 1
  11              		.eabi_attribute 34, 0
  12              		.eabi_attribute 18, 4
  13              		.thumb
  14              		.syntax unified
  15              		.file	"CapSense_1_Processing.c"
  16              		.text
  17              	.Ltext0:
  18              		.cfi_sections	.debug_frame
  19              		.section	.text.CapSense_1_DpInitialize,"ax",%progbits
  20              		.align	2
  21              		.global	CapSense_1_DpInitialize
  22              		.code	16
  23              		.thumb_func
  24              		.type	CapSense_1_DpInitialize, %function
  25              	CapSense_1_DpInitialize:
  26              	.LFB1:
  27              		.file 1 "Generated_Source\\PSoC4\\CapSense_1_Processing.c"
   1:Generated_Source\PSoC4/CapSense_1_Processing.c **** /***************************************************************************//**
   2:Generated_Source\PSoC4/CapSense_1_Processing.c **** * \file CapSense_1_Processing.c
   3:Generated_Source\PSoC4/CapSense_1_Processing.c **** * \version 5.20
   4:Generated_Source\PSoC4/CapSense_1_Processing.c **** *
   5:Generated_Source\PSoC4/CapSense_1_Processing.c **** * \brief
   6:Generated_Source\PSoC4/CapSense_1_Processing.c **** *   This file provides the source code for the Data Processing module APIs
   7:Generated_Source\PSoC4/CapSense_1_Processing.c **** *   of the Component. The Data Processing module is responsible for the
   8:Generated_Source\PSoC4/CapSense_1_Processing.c **** *   low level raw counts processing provided by the sensing module, maintaining
   9:Generated_Source\PSoC4/CapSense_1_Processing.c **** *   baseline and difference values and performing high-level widget processing
  10:Generated_Source\PSoC4/CapSense_1_Processing.c **** *   like updating button status or calculating slider position.
  11:Generated_Source\PSoC4/CapSense_1_Processing.c **** *
  12:Generated_Source\PSoC4/CapSense_1_Processing.c **** * \see CapSense_1 v5.20 Datasheet
  13:Generated_Source\PSoC4/CapSense_1_Processing.c **** *
  14:Generated_Source\PSoC4/CapSense_1_Processing.c **** *//*****************************************************************************
  15:Generated_Source\PSoC4/CapSense_1_Processing.c **** * Copyright (2016-2018), Cypress Semiconductor Corporation.
  16:Generated_Source\PSoC4/CapSense_1_Processing.c **** ********************************************************************************
  17:Generated_Source\PSoC4/CapSense_1_Processing.c **** * This software is owned by Cypress Semiconductor Corporation (Cypress) and is
  18:Generated_Source\PSoC4/CapSense_1_Processing.c **** * protected by and subject to worldwide patent protection (United States and
  19:Generated_Source\PSoC4/CapSense_1_Processing.c **** * foreign), United States copyright laws and international treaty provisions.
  20:Generated_Source\PSoC4/CapSense_1_Processing.c **** * Cypress hereby grants to licensee a personal, non-exclusive, non-transferable
  21:Generated_Source\PSoC4/CapSense_1_Processing.c **** * license to copy, use, modify, create derivative works of, and compile the
  22:Generated_Source\PSoC4/CapSense_1_Processing.c **** * Cypress Source Code and derivative works for the sole purpose of creating
  23:Generated_Source\PSoC4/CapSense_1_Processing.c **** * custom software in support of licensee product to be used only in conjunction
  24:Generated_Source\PSoC4/CapSense_1_Processing.c **** * with a Cypress integrated circuit as specified in the applicable agreement.
  25:Generated_Source\PSoC4/CapSense_1_Processing.c **** * Any reproduction, modification, translation, compilation, or representation of
  26:Generated_Source\PSoC4/CapSense_1_Processing.c **** * this software except as specified above is prohibited without the express
  27:Generated_Source\PSoC4/CapSense_1_Processing.c **** * written permission of Cypress.
  28:Generated_Source\PSoC4/CapSense_1_Processing.c **** *
  29:Generated_Source\PSoC4/CapSense_1_Processing.c **** * Disclaimer: CYPRESS MAKES NO WARRANTY OF ANY KIND, EXPRESS OR IMPLIED, WITH
  30:Generated_Source\PSoC4/CapSense_1_Processing.c **** * REGARD TO THIS MATERIAL, INCLUDING, BUT NOT LIMITED TO, THE IMPLIED
ARM GAS  C:\Users\MICHAE~1.MAC\AppData\Local\Temp\ccr99qdP.s 			page 2


  31:Generated_Source\PSoC4/CapSense_1_Processing.c **** * WARRANTIES OF MERCHANTABILITY AND FITNESS FOR A PARTICULAR PURPOSE.
  32:Generated_Source\PSoC4/CapSense_1_Processing.c **** * Cypress reserves the right to make changes without further notice to the
  33:Generated_Source\PSoC4/CapSense_1_Processing.c **** * materials described herein. Cypress does not assume any liability arising out
  34:Generated_Source\PSoC4/CapSense_1_Processing.c **** * of the application or use of any product or circuit described herein. Cypress
  35:Generated_Source\PSoC4/CapSense_1_Processing.c **** * does not authorize its products for use as critical components in life-support
  36:Generated_Source\PSoC4/CapSense_1_Processing.c **** * systems where a malfunction or failure may reasonably be expected to result in
  37:Generated_Source\PSoC4/CapSense_1_Processing.c **** * significant injury to the user. The inclusion of Cypress' product in a life-
  38:Generated_Source\PSoC4/CapSense_1_Processing.c **** * support systems application implies that the manufacturer assumes all risk of
  39:Generated_Source\PSoC4/CapSense_1_Processing.c **** * such use and in doing so indemnifies Cypress against all charges. Use may be
  40:Generated_Source\PSoC4/CapSense_1_Processing.c **** * limited by and subject to the applicable Cypress software license agreement.
  41:Generated_Source\PSoC4/CapSense_1_Processing.c **** *******************************************************************************/
  42:Generated_Source\PSoC4/CapSense_1_Processing.c **** 
  43:Generated_Source\PSoC4/CapSense_1_Processing.c **** #include "CyLib.h"
  44:Generated_Source\PSoC4/CapSense_1_Processing.c **** #include "cytypes.h"
  45:Generated_Source\PSoC4/CapSense_1_Processing.c **** #include "CapSense_1_Configuration.h"
  46:Generated_Source\PSoC4/CapSense_1_Processing.c **** #include "CapSense_1_Processing.h"
  47:Generated_Source\PSoC4/CapSense_1_Processing.c **** #include "CapSense_1_Filter.h"
  48:Generated_Source\PSoC4/CapSense_1_Processing.c **** 
  49:Generated_Source\PSoC4/CapSense_1_Processing.c **** #if (0u != CapSense_1_CENTROID_EN)
  50:Generated_Source\PSoC4/CapSense_1_Processing.c ****     #include "CapSense_1_Centroid_LL.h"
  51:Generated_Source\PSoC4/CapSense_1_Processing.c **** #endif /* (0 != CapSense_1_CENTROID_EN) */
  52:Generated_Source\PSoC4/CapSense_1_Processing.c **** 
  53:Generated_Source\PSoC4/CapSense_1_Processing.c **** #if (0 != (CapSense_1_CSD_AUTOTUNE & CapSense_1_CSD_SS_TH_EN))
  54:Generated_Source\PSoC4/CapSense_1_Processing.c ****     #include "CapSense_1_SmartSense_LL.h"
  55:Generated_Source\PSoC4/CapSense_1_Processing.c **** #endif /* (0 != (CapSense_1_CSD_AUTOTUNE & CapSense_1_CSD_SS_TH_EN)) */
  56:Generated_Source\PSoC4/CapSense_1_Processing.c **** 
  57:Generated_Source\PSoC4/CapSense_1_Processing.c **** #if (CapSense_1_ENABLE == CapSense_1_SELF_TEST_EN)
  58:Generated_Source\PSoC4/CapSense_1_Processing.c ****     #include "CapSense_1_SelfTest.h"
  59:Generated_Source\PSoC4/CapSense_1_Processing.c **** #endif
  60:Generated_Source\PSoC4/CapSense_1_Processing.c **** 
  61:Generated_Source\PSoC4/CapSense_1_Processing.c **** #if (CapSense_1_ENABLE == CapSense_1_CENTROID_5X5_CSD_EN)
  62:Generated_Source\PSoC4/CapSense_1_Processing.c ****     #include "CapSense_1_AdvancedCentroid_LL.h"
  63:Generated_Source\PSoC4/CapSense_1_Processing.c **** #endif
  64:Generated_Source\PSoC4/CapSense_1_Processing.c **** 
  65:Generated_Source\PSoC4/CapSense_1_Processing.c **** #if (CapSense_1_ENABLE == CapSense_1_POS_ADAPTIVE_IIR_FILTER_EN)
  66:Generated_Source\PSoC4/CapSense_1_Processing.c ****     #include "CapSense_1_AdaptiveFilter_LL.h"
  67:Generated_Source\PSoC4/CapSense_1_Processing.c **** #endif
  68:Generated_Source\PSoC4/CapSense_1_Processing.c **** 
  69:Generated_Source\PSoC4/CapSense_1_Processing.c **** #if(CapSense_1_ENABLE == CapSense_1_BALLISTIC_MULTIPLIER_EN)
  70:Generated_Source\PSoC4/CapSense_1_Processing.c ****     #include "CapSense_1_Gesture.h"
  71:Generated_Source\PSoC4/CapSense_1_Processing.c **** #endif
  72:Generated_Source\PSoC4/CapSense_1_Processing.c **** 
  73:Generated_Source\PSoC4/CapSense_1_Processing.c **** /**************************************************************************************************
  74:Generated_Source\PSoC4/CapSense_1_Processing.c **** * Local definition
  75:Generated_Source\PSoC4/CapSense_1_Processing.c **** ***************************************************************************************************
  76:Generated_Source\PSoC4/CapSense_1_Processing.c **** 
  77:Generated_Source\PSoC4/CapSense_1_Processing.c **** /* UINT32 constant with all odd bits set. It is used by the processing function of the Proximity wi
  78:Generated_Source\PSoC4/CapSense_1_Processing.c **** *  determine type of the status bit: odd bits report proximity status; even bits report touch statu
  79:Generated_Source\PSoC4/CapSense_1_Processing.c **** */
  80:Generated_Source\PSoC4/CapSense_1_Processing.c **** #define UINT32_ODD_BITS_CONST       (0x55555555u)
  81:Generated_Source\PSoC4/CapSense_1_Processing.c **** 
  82:Generated_Source\PSoC4/CapSense_1_Processing.c **** /* Default value for the Off Debounce counter when the Off Debounce is disabled */
  83:Generated_Source\PSoC4/CapSense_1_Processing.c **** #define DEFAULT_OFF_DEBOUNCE_VALUE  (1u)
  84:Generated_Source\PSoC4/CapSense_1_Processing.c **** #define PERCENTAGE_100              (100u)
  85:Generated_Source\PSoC4/CapSense_1_Processing.c **** #define TEMP_BUFFER_MSB_SHIFT       (16)
  86:Generated_Source\PSoC4/CapSense_1_Processing.c **** 
  87:Generated_Source\PSoC4/CapSense_1_Processing.c **** /**************************************************************************************************
ARM GAS  C:\Users\MICHAE~1.MAC\AppData\Local\Temp\ccr99qdP.s 			page 3


  88:Generated_Source\PSoC4/CapSense_1_Processing.c **** * Local variables
  89:Generated_Source\PSoC4/CapSense_1_Processing.c **** ***************************************************************************************************
  90:Generated_Source\PSoC4/CapSense_1_Processing.c **** #if (0u != CapSense_1_CSX_MULTIPHASE_TX_EN)
  91:Generated_Source\PSoC4/CapSense_1_Processing.c ****     static uint16 deconvRowData[CapSense_1_CSX_MAX_TX_PHASE_LENGTH];
  92:Generated_Source\PSoC4/CapSense_1_Processing.c **** #endif
  93:Generated_Source\PSoC4/CapSense_1_Processing.c **** 
  94:Generated_Source\PSoC4/CapSense_1_Processing.c **** 
  95:Generated_Source\PSoC4/CapSense_1_Processing.c **** /**************************************************************************************************
  96:Generated_Source\PSoC4/CapSense_1_Processing.c **** * Static Function Prototypes
  97:Generated_Source\PSoC4/CapSense_1_Processing.c **** ***************************************************************************************************
  98:Generated_Source\PSoC4/CapSense_1_Processing.c **** /**
  99:Generated_Source\PSoC4/CapSense_1_Processing.c **** * \cond SECTION_C_INTERNAL
 100:Generated_Source\PSoC4/CapSense_1_Processing.c **** * \addtogroup group_c_internal
 101:Generated_Source\PSoC4/CapSense_1_Processing.c **** * \{
 102:Generated_Source\PSoC4/CapSense_1_Processing.c **** */
 103:Generated_Source\PSoC4/CapSense_1_Processing.c **** #if (0u != CapSense_1_TOTAL_LINEAR_SLIDERS)
 104:Generated_Source\PSoC4/CapSense_1_Processing.c ****     static CY_INLINE void DpUpdateLinSlider(
 105:Generated_Source\PSoC4/CapSense_1_Processing.c ****                         const uint16 newPos[], uint32 numTouches,
 106:Generated_Source\PSoC4/CapSense_1_Processing.c ****                         CapSense_1_FLASH_WD_STRUCT const *ptrFlashWdgt,
 107:Generated_Source\PSoC4/CapSense_1_Processing.c ****                         CapSense_1_RAM_WD_SLIDER_STRUCT *ptrRamWdgt);
 108:Generated_Source\PSoC4/CapSense_1_Processing.c **** #endif /* #if (0u != CapSense_1_TOTAL_LINEAR_SLIDERS) */
 109:Generated_Source\PSoC4/CapSense_1_Processing.c **** 
 110:Generated_Source\PSoC4/CapSense_1_Processing.c **** #if (0u != CapSense_1_TOTAL_RADIAL_SLIDERS)
 111:Generated_Source\PSoC4/CapSense_1_Processing.c ****     static CY_INLINE void DpUpdateRadSlider(
 112:Generated_Source\PSoC4/CapSense_1_Processing.c ****                         const uint16 newPos[], uint32 numTouches,
 113:Generated_Source\PSoC4/CapSense_1_Processing.c ****                         CapSense_1_FLASH_WD_STRUCT const * ptrFlashWdgt,
 114:Generated_Source\PSoC4/CapSense_1_Processing.c ****                         CapSense_1_RAM_WD_SLIDER_STRUCT *ptrRamWdgt);
 115:Generated_Source\PSoC4/CapSense_1_Processing.c **** #endif /* #if (0u != CapSense_1_TOTAL_RADIAL_SLIDERS) */
 116:Generated_Source\PSoC4/CapSense_1_Processing.c **** 
 117:Generated_Source\PSoC4/CapSense_1_Processing.c **** #if (0u != CapSense_1_CSD_TOUCHPAD_WIDGET_EN)
 118:Generated_Source\PSoC4/CapSense_1_Processing.c ****     static CY_INLINE void CapSense_1_DpInitCsdTouchpad(CapSense_1_FLASH_WD_STRUCT const * ptrFlashW
 119:Generated_Source\PSoC4/CapSense_1_Processing.c **** #endif /* #if (0u != CapSense_1_CSD_TOUCHPAD_WIDGET_EN) */
 120:Generated_Source\PSoC4/CapSense_1_Processing.c **** 
 121:Generated_Source\PSoC4/CapSense_1_Processing.c **** #if (0u != CapSense_1_CSX_TOUCHPAD_WIDGET_EN)
 122:Generated_Source\PSoC4/CapSense_1_Processing.c ****     static CY_INLINE void CapSense_1_DpInitCsxTouchpad(CapSense_1_FLASH_WD_STRUCT const * ptrFlashW
 123:Generated_Source\PSoC4/CapSense_1_Processing.c **** #endif /* #if (0u != CapSense_1_CSX_TOUCHPAD_WIDGET_EN) */
 124:Generated_Source\PSoC4/CapSense_1_Processing.c **** 
 125:Generated_Source\PSoC4/CapSense_1_Processing.c **** #if (0u != CapSense_1_SLIDER_WIDGET_EN)
 126:Generated_Source\PSoC4/CapSense_1_Processing.c ****     static CY_INLINE void CapSense_1_DpInitSlider(CapSense_1_FLASH_WD_STRUCT const * ptrFlashWdgt);
 127:Generated_Source\PSoC4/CapSense_1_Processing.c **** #endif /* #if (0u != CapSense_1_SLIDER_WIDGET_EN) */
 128:Generated_Source\PSoC4/CapSense_1_Processing.c **** 
 129:Generated_Source\PSoC4/CapSense_1_Processing.c **** #if (0u != CapSense_1_CSD_MATRIX_WIDGET_EN)
 130:Generated_Source\PSoC4/CapSense_1_Processing.c ****     static CY_INLINE void CapSense_1_DpInitCsdMatrix(CapSense_1_FLASH_WD_STRUCT const * ptrFlashWdg
 131:Generated_Source\PSoC4/CapSense_1_Processing.c **** #endif /* #if (0u != CapSense_1_CSD_MATRIX_WIDGET_EN) */
 132:Generated_Source\PSoC4/CapSense_1_Processing.c **** 
 133:Generated_Source\PSoC4/CapSense_1_Processing.c **** /** \}
 134:Generated_Source\PSoC4/CapSense_1_Processing.c **** * \endcond */
 135:Generated_Source\PSoC4/CapSense_1_Processing.c **** 
 136:Generated_Source\PSoC4/CapSense_1_Processing.c **** #if (0u != CapSense_1_CSD_TOUCHPAD_WIDGET_EN)
 137:Generated_Source\PSoC4/CapSense_1_Processing.c **** /*******************************************************************************
 138:Generated_Source\PSoC4/CapSense_1_Processing.c **** * Function Name: CapSense_1_DpInitCsdTouchpad
 139:Generated_Source\PSoC4/CapSense_1_Processing.c **** ****************************************************************************//**
 140:Generated_Source\PSoC4/CapSense_1_Processing.c **** *
 141:Generated_Source\PSoC4/CapSense_1_Processing.c **** * \brief
 142:Generated_Source\PSoC4/CapSense_1_Processing.c **** *  Performs initialization of the CSD touchpad widget.
 143:Generated_Source\PSoC4/CapSense_1_Processing.c **** *   - Resets the position data to NONE
 144:Generated_Source\PSoC4/CapSense_1_Processing.c **** *   - Initializes the position filter history if enabled.
ARM GAS  C:\Users\MICHAE~1.MAC\AppData\Local\Temp\ccr99qdP.s 			page 4


 145:Generated_Source\PSoC4/CapSense_1_Processing.c **** *
 146:Generated_Source\PSoC4/CapSense_1_Processing.c **** * \details
 147:Generated_Source\PSoC4/CapSense_1_Processing.c **** *  The position data is always reset to the CapSense_1_TOUCHPAD_POS_NONE value.
 148:Generated_Source\PSoC4/CapSense_1_Processing.c **** *  The same happens to the position filter history data if enabled.
 149:Generated_Source\PSoC4/CapSense_1_Processing.c **** *
 150:Generated_Source\PSoC4/CapSense_1_Processing.c **** *******************************************************************************/
 151:Generated_Source\PSoC4/CapSense_1_Processing.c **** static CY_INLINE void CapSense_1_DpInitCsdTouchpad(CapSense_1_FLASH_WD_STRUCT const * ptrFlashWdgt)
 152:Generated_Source\PSoC4/CapSense_1_Processing.c **** {
 153:Generated_Source\PSoC4/CapSense_1_Processing.c ****     #if (CapSense_1_ENABLE == CapSense_1_CENTROID_5X5_CSD_EN)
 154:Generated_Source\PSoC4/CapSense_1_Processing.c ****         uint32 touchIndex;
 155:Generated_Source\PSoC4/CapSense_1_Processing.c ****     #endif
 156:Generated_Source\PSoC4/CapSense_1_Processing.c **** 
 157:Generated_Source\PSoC4/CapSense_1_Processing.c ****     CapSense_1_RAM_WD_CSD_TOUCHPAD_STRUCT *ptrWdTouchpad;
 158:Generated_Source\PSoC4/CapSense_1_Processing.c **** 
 159:Generated_Source\PSoC4/CapSense_1_Processing.c ****     #if (0u != CapSense_1_POSITION_FILTER_EN)
 160:Generated_Source\PSoC4/CapSense_1_Processing.c ****         CapSense_1_TOUCHPAD_POS_HISTORY_STRUCT *ptrHistory;
 161:Generated_Source\PSoC4/CapSense_1_Processing.c ****     #endif  /* #if (0u != CapSense_1_POSITION_FILTER_EN) */
 162:Generated_Source\PSoC4/CapSense_1_Processing.c **** 
 163:Generated_Source\PSoC4/CapSense_1_Processing.c ****     #if (0u != CapSense_1_POS_ADAPTIVE_IIR_FILTER_EN)
 164:Generated_Source\PSoC4/CapSense_1_Processing.c ****         ADAPTIVE_FILTER_CONTEXT_STRUCT adpContext;
 165:Generated_Source\PSoC4/CapSense_1_Processing.c ****     #endif /* (0u != CapSense_1_POS_ADAPTIVE_IIR_FILTER_EN) */
 166:Generated_Source\PSoC4/CapSense_1_Processing.c **** 
 167:Generated_Source\PSoC4/CapSense_1_Processing.c ****     ptrWdTouchpad = ptrFlashWdgt->ptr2WdgtRam;
 168:Generated_Source\PSoC4/CapSense_1_Processing.c **** 
 169:Generated_Source\PSoC4/CapSense_1_Processing.c ****     /* Reset position data */
 170:Generated_Source\PSoC4/CapSense_1_Processing.c ****     #if (CapSense_1_ENABLE == CapSense_1_CENTROID_5X5_CSD_EN)
 171:Generated_Source\PSoC4/CapSense_1_Processing.c ****         #if (CapSense_1_ENABLE == CapSense_1_CENTROID_3X3_CSD_EN)
 172:Generated_Source\PSoC4/CapSense_1_Processing.c ****             if (0u != (ptrFlashWdgt->staticConfig & CapSense_1_CENTROID_5X5_MASK))
 173:Generated_Source\PSoC4/CapSense_1_Processing.c ****             {
 174:Generated_Source\PSoC4/CapSense_1_Processing.c ****         #endif
 175:Generated_Source\PSoC4/CapSense_1_Processing.c **** 
 176:Generated_Source\PSoC4/CapSense_1_Processing.c ****         ptrWdTouchpad->position.touchNum = 0u;
 177:Generated_Source\PSoC4/CapSense_1_Processing.c **** 
 178:Generated_Source\PSoC4/CapSense_1_Processing.c ****         #if (0u != CapSense_1_POSITION_FILTER_EN)
 179:Generated_Source\PSoC4/CapSense_1_Processing.c ****             ptrHistory = ptrFlashWdgt->ptr2PosHistory;
 180:Generated_Source\PSoC4/CapSense_1_Processing.c ****         #endif /* (0u != CapSense_1_POSITION_FILTER_EN) */
 181:Generated_Source\PSoC4/CapSense_1_Processing.c **** 
 182:Generated_Source\PSoC4/CapSense_1_Processing.c ****         for (touchIndex = 0u; touchIndex < ADVANCED_CENTROID_MAX_TOUCHES; touchIndex++)
 183:Generated_Source\PSoC4/CapSense_1_Processing.c ****         {
 184:Generated_Source\PSoC4/CapSense_1_Processing.c ****             ptrWdTouchpad->position.pos[touchIndex].x = ADVANCED_CENTROID_POSITION_NONE;
 185:Generated_Source\PSoC4/CapSense_1_Processing.c ****             ptrWdTouchpad->position.pos[touchIndex].y = ADVANCED_CENTROID_POSITION_NONE;
 186:Generated_Source\PSoC4/CapSense_1_Processing.c ****             ptrWdTouchpad->position.pos[touchIndex].zX = ADVANCED_CENTROID_POSITION_NONE;
 187:Generated_Source\PSoC4/CapSense_1_Processing.c ****             ptrWdTouchpad->position.pos[touchIndex].zY = ADVANCED_CENTROID_POSITION_NONE;
 188:Generated_Source\PSoC4/CapSense_1_Processing.c **** 
 189:Generated_Source\PSoC4/CapSense_1_Processing.c ****             /* Clear position filter history data if available */
 190:Generated_Source\PSoC4/CapSense_1_Processing.c ****             #if (0u != CapSense_1_POSITION_FILTER_EN)
 191:Generated_Source\PSoC4/CapSense_1_Processing.c ****                 if (NULL != ptrHistory)
 192:Generated_Source\PSoC4/CapSense_1_Processing.c ****                 {
 193:Generated_Source\PSoC4/CapSense_1_Processing.c ****                     CapSense_1_InitPosFiltersDd(&ptrHistory[touchIndex], CapSense_1_TOUCHPAD_POS_NO
 194:Generated_Source\PSoC4/CapSense_1_Processing.c ****                     #if (0u != CapSense_1_POS_ADAPTIVE_IIR_FILTER_EN)
 195:Generated_Source\PSoC4/CapSense_1_Processing.c ****                         AdaptiveFilter_Initialize(&ptrWdTouchpad->aiirConfig, &adpContext);
 196:Generated_Source\PSoC4/CapSense_1_Processing.c ****                         ptrHistory[touchIndex].xPos.posAIIRCoeff = adpContext.coefficient;
 197:Generated_Source\PSoC4/CapSense_1_Processing.c ****                         ptrHistory[touchIndex].yPos.posAIIRCoeff = adpContext.coefficient;
 198:Generated_Source\PSoC4/CapSense_1_Processing.c ****                     #endif /* (0u != CapSense_1_POS_ADAPTIVE_IIR_FILTER_EN) */
 199:Generated_Source\PSoC4/CapSense_1_Processing.c ****                 }
 200:Generated_Source\PSoC4/CapSense_1_Processing.c ****             #endif /* (0u != CapSense_1_POSITION_FILTER_EN) */
 201:Generated_Source\PSoC4/CapSense_1_Processing.c ****         }
ARM GAS  C:\Users\MICHAE~1.MAC\AppData\Local\Temp\ccr99qdP.s 			page 5


 202:Generated_Source\PSoC4/CapSense_1_Processing.c **** 
 203:Generated_Source\PSoC4/CapSense_1_Processing.c ****         #if (CapSense_1_ENABLE == CapSense_1_CENTROID_3X3_CSD_EN)
 204:Generated_Source\PSoC4/CapSense_1_Processing.c ****             }
 205:Generated_Source\PSoC4/CapSense_1_Processing.c ****         #endif
 206:Generated_Source\PSoC4/CapSense_1_Processing.c ****     #endif
 207:Generated_Source\PSoC4/CapSense_1_Processing.c **** 
 208:Generated_Source\PSoC4/CapSense_1_Processing.c ****     #if (CapSense_1_ENABLE == CapSense_1_CENTROID_3X3_CSD_EN)
 209:Generated_Source\PSoC4/CapSense_1_Processing.c ****         if (0u != (ptrFlashWdgt->staticConfig & CapSense_1_CENTROID_3X3_MASK))
 210:Generated_Source\PSoC4/CapSense_1_Processing.c ****         {
 211:Generated_Source\PSoC4/CapSense_1_Processing.c ****             ptrWdTouchpad->posX = CapSense_1_TOUCHPAD_POS_NONE;
 212:Generated_Source\PSoC4/CapSense_1_Processing.c ****             ptrWdTouchpad->posY = CapSense_1_TOUCHPAD_POS_NONE;
 213:Generated_Source\PSoC4/CapSense_1_Processing.c **** 
 214:Generated_Source\PSoC4/CapSense_1_Processing.c ****             /* Clear position filter history data if available */
 215:Generated_Source\PSoC4/CapSense_1_Processing.c ****             #if (0u != CapSense_1_POSITION_FILTER_EN)
 216:Generated_Source\PSoC4/CapSense_1_Processing.c ****                 ptrHistory = ptrFlashWdgt->ptr2PosHistory;
 217:Generated_Source\PSoC4/CapSense_1_Processing.c ****                 CapSense_1_InitPosFiltersDd(ptrHistory, CapSense_1_TOUCHPAD_POS_NONE, CapSense_1_TO
 218:Generated_Source\PSoC4/CapSense_1_Processing.c **** 
 219:Generated_Source\PSoC4/CapSense_1_Processing.c ****                 #if (0u != CapSense_1_POS_ADAPTIVE_IIR_FILTER_EN)
 220:Generated_Source\PSoC4/CapSense_1_Processing.c ****                     if (NULL != ptrHistory)
 221:Generated_Source\PSoC4/CapSense_1_Processing.c ****                     {
 222:Generated_Source\PSoC4/CapSense_1_Processing.c ****                         AdaptiveFilter_Initialize(&ptrWdTouchpad->aiirConfig, &adpContext);
 223:Generated_Source\PSoC4/CapSense_1_Processing.c ****                         ptrHistory->xPos.posAIIRCoeff = adpContext.coefficient;
 224:Generated_Source\PSoC4/CapSense_1_Processing.c ****                         ptrHistory->yPos.posAIIRCoeff = adpContext.coefficient;
 225:Generated_Source\PSoC4/CapSense_1_Processing.c ****                     }
 226:Generated_Source\PSoC4/CapSense_1_Processing.c ****                 #endif /* (0u != CapSense_1_POS_ADAPTIVE_IIR_FILTER_EN) */
 227:Generated_Source\PSoC4/CapSense_1_Processing.c ****             #endif /* (0u != CapSense_1_POSITION_FILTER_EN) */
 228:Generated_Source\PSoC4/CapSense_1_Processing.c ****         }
 229:Generated_Source\PSoC4/CapSense_1_Processing.c ****     #endif
 230:Generated_Source\PSoC4/CapSense_1_Processing.c **** }
 231:Generated_Source\PSoC4/CapSense_1_Processing.c **** #endif /* #if (0u != CapSense_1_CSD_TOUCHPAD_WIDGET_EN) */
 232:Generated_Source\PSoC4/CapSense_1_Processing.c **** 
 233:Generated_Source\PSoC4/CapSense_1_Processing.c **** #if (0u != CapSense_1_CSX_TOUCHPAD_WIDGET_EN)
 234:Generated_Source\PSoC4/CapSense_1_Processing.c **** /*******************************************************************************
 235:Generated_Source\PSoC4/CapSense_1_Processing.c **** * Function Name: CapSense_1_DpInitCsxTouchpad
 236:Generated_Source\PSoC4/CapSense_1_Processing.c **** ****************************************************************************//**
 237:Generated_Source\PSoC4/CapSense_1_Processing.c **** *
 238:Generated_Source\PSoC4/CapSense_1_Processing.c **** * \brief
 239:Generated_Source\PSoC4/CapSense_1_Processing.c **** *  Performs initialization of the CSX touchpad widget i.e. Resets the position data to NONE.
 240:Generated_Source\PSoC4/CapSense_1_Processing.c **** *
 241:Generated_Source\PSoC4/CapSense_1_Processing.c **** * \details
 242:Generated_Source\PSoC4/CapSense_1_Processing.c **** *  The position data is always reset to the CapSense_1_TOUCHPAD_POS_NONE value.
 243:Generated_Source\PSoC4/CapSense_1_Processing.c **** *
 244:Generated_Source\PSoC4/CapSense_1_Processing.c **** *******************************************************************************/
 245:Generated_Source\PSoC4/CapSense_1_Processing.c **** static CY_INLINE void CapSense_1_DpInitCsxTouchpad(CapSense_1_FLASH_WD_STRUCT const * ptrFlashWdgt)
 246:Generated_Source\PSoC4/CapSense_1_Processing.c **** {
 247:Generated_Source\PSoC4/CapSense_1_Processing.c ****     CapSense_1_RAM_WD_CSX_TOUCHPAD_STRUCT *ptrWdTouchpad;
 248:Generated_Source\PSoC4/CapSense_1_Processing.c **** 
 249:Generated_Source\PSoC4/CapSense_1_Processing.c ****     #if (0u != CapSense_1_POSITION_FILTER_EN)
 250:Generated_Source\PSoC4/CapSense_1_Processing.c ****         uint32 touchIndex;
 251:Generated_Source\PSoC4/CapSense_1_Processing.c ****         CapSense_1_TOUCHPAD_POS_HISTORY_STRUCT *ptrHistory;
 252:Generated_Source\PSoC4/CapSense_1_Processing.c ****     #endif  /* #if (0u != CapSense_1_POSITION_FILTER_EN) */
 253:Generated_Source\PSoC4/CapSense_1_Processing.c **** 
 254:Generated_Source\PSoC4/CapSense_1_Processing.c ****     #if (0u != CapSense_1_POS_ADAPTIVE_IIR_FILTER_EN)
 255:Generated_Source\PSoC4/CapSense_1_Processing.c ****         ADAPTIVE_FILTER_CONTEXT_STRUCT adpContext;
 256:Generated_Source\PSoC4/CapSense_1_Processing.c ****     #endif /* (0u != CapSense_1_POS_ADAPTIVE_IIR_FILTER_EN) */
 257:Generated_Source\PSoC4/CapSense_1_Processing.c **** 
 258:Generated_Source\PSoC4/CapSense_1_Processing.c ****     ptrWdTouchpad = ptrFlashWdgt->ptr2WdgtRam;
ARM GAS  C:\Users\MICHAE~1.MAC\AppData\Local\Temp\ccr99qdP.s 			page 6


 259:Generated_Source\PSoC4/CapSense_1_Processing.c **** 
 260:Generated_Source\PSoC4/CapSense_1_Processing.c ****     #if (0u != CapSense_1_POSITION_FILTER_EN)
 261:Generated_Source\PSoC4/CapSense_1_Processing.c ****         ptrHistory = ptrFlashWdgt->ptr2PosHistory;
 262:Generated_Source\PSoC4/CapSense_1_Processing.c ****     #endif /* (0u != CapSense_1_POSITION_FILTER_EN) */
 263:Generated_Source\PSoC4/CapSense_1_Processing.c **** 
 264:Generated_Source\PSoC4/CapSense_1_Processing.c ****     /* Reset position data for finger */
 265:Generated_Source\PSoC4/CapSense_1_Processing.c ****     ptrWdTouchpad->touch[0u].x = CapSense_1_TOUCHPAD_POS_NONE;
 266:Generated_Source\PSoC4/CapSense_1_Processing.c ****     ptrWdTouchpad->touch[0u].y = CapSense_1_TOUCHPAD_POS_NONE;
 267:Generated_Source\PSoC4/CapSense_1_Processing.c ****     ptrWdTouchpad->touch[0u].z = LO8(CapSense_1_TOUCHPAD_POS_NONE);
 268:Generated_Source\PSoC4/CapSense_1_Processing.c **** 
 269:Generated_Source\PSoC4/CapSense_1_Processing.c ****     #if (CapSense_1_CSX_MAX_FINGERS > 1u)
 270:Generated_Source\PSoC4/CapSense_1_Processing.c ****         ptrWdTouchpad->touch[1u].x = CapSense_1_TOUCHPAD_POS_NONE;
 271:Generated_Source\PSoC4/CapSense_1_Processing.c ****         ptrWdTouchpad->touch[1u].y = CapSense_1_TOUCHPAD_POS_NONE;
 272:Generated_Source\PSoC4/CapSense_1_Processing.c ****         ptrWdTouchpad->touch[1u].z = LO8(CapSense_1_TOUCHPAD_POS_NONE);
 273:Generated_Source\PSoC4/CapSense_1_Processing.c ****     #endif /* #if (CapSense_1_CSX_MAX_FINGERS > 1u) */
 274:Generated_Source\PSoC4/CapSense_1_Processing.c **** 
 275:Generated_Source\PSoC4/CapSense_1_Processing.c ****     #if (CapSense_1_CSX_MAX_FINGERS > 2u)
 276:Generated_Source\PSoC4/CapSense_1_Processing.c ****         ptrWdTouchpad->touch[2u].x = CapSense_1_TOUCHPAD_POS_NONE;
 277:Generated_Source\PSoC4/CapSense_1_Processing.c ****         ptrWdTouchpad->touch[2u].y = CapSense_1_TOUCHPAD_POS_NONE;
 278:Generated_Source\PSoC4/CapSense_1_Processing.c ****         ptrWdTouchpad->touch[2u].z = LO8(CapSense_1_TOUCHPAD_POS_NONE);
 279:Generated_Source\PSoC4/CapSense_1_Processing.c ****     #endif /* #if (CapSense_1_CSX_MAX_FINGERS > 2u) */
 280:Generated_Source\PSoC4/CapSense_1_Processing.c **** 
 281:Generated_Source\PSoC4/CapSense_1_Processing.c ****     #if (0u != CapSense_1_POSITION_FILTER_EN)
 282:Generated_Source\PSoC4/CapSense_1_Processing.c ****         for (touchIndex = 0u; touchIndex < CapSense_1_CSX_MAX_FINGERS; touchIndex++)
 283:Generated_Source\PSoC4/CapSense_1_Processing.c ****         {
 284:Generated_Source\PSoC4/CapSense_1_Processing.c ****             if (NULL != ptrHistory)
 285:Generated_Source\PSoC4/CapSense_1_Processing.c ****             {
 286:Generated_Source\PSoC4/CapSense_1_Processing.c ****                 /* Clear position filter history data if available */
 287:Generated_Source\PSoC4/CapSense_1_Processing.c ****                 CapSense_1_InitPosFiltersDd(&ptrHistory[touchIndex], CapSense_1_TOUCHPAD_POS_NONE, 
 288:Generated_Source\PSoC4/CapSense_1_Processing.c ****                 #if (0u != CapSense_1_POS_ADAPTIVE_IIR_FILTER_EN)
 289:Generated_Source\PSoC4/CapSense_1_Processing.c ****                     AdaptiveFilter_Initialize(&ptrWdTouchpad->aiirConfig, &adpContext);
 290:Generated_Source\PSoC4/CapSense_1_Processing.c ****                     ptrHistory[touchIndex].xPos.posAIIRCoeff = adpContext.coefficient;
 291:Generated_Source\PSoC4/CapSense_1_Processing.c ****                     ptrHistory[touchIndex].yPos.posAIIRCoeff = adpContext.coefficient;
 292:Generated_Source\PSoC4/CapSense_1_Processing.c ****                 #endif /* (0u != CapSense_1_POS_ADAPTIVE_IIR_FILTER_EN) */
 293:Generated_Source\PSoC4/CapSense_1_Processing.c ****             }
 294:Generated_Source\PSoC4/CapSense_1_Processing.c ****         }
 295:Generated_Source\PSoC4/CapSense_1_Processing.c ****     #endif /* (0u != CapSense_1_POSITION_FILTER_EN) */
 296:Generated_Source\PSoC4/CapSense_1_Processing.c **** }
 297:Generated_Source\PSoC4/CapSense_1_Processing.c **** #endif /* #if (0u != CapSense_1_CSX_TOUCHPAD_WIDGET_EN) */
 298:Generated_Source\PSoC4/CapSense_1_Processing.c **** 
 299:Generated_Source\PSoC4/CapSense_1_Processing.c **** #if (0u != CapSense_1_SLIDER_WIDGET_EN)
 300:Generated_Source\PSoC4/CapSense_1_Processing.c **** /*******************************************************************************
 301:Generated_Source\PSoC4/CapSense_1_Processing.c **** * Function Name: CapSense_1_DpInitSlider
 302:Generated_Source\PSoC4/CapSense_1_Processing.c **** ****************************************************************************//**
 303:Generated_Source\PSoC4/CapSense_1_Processing.c **** *
 304:Generated_Source\PSoC4/CapSense_1_Processing.c **** * \brief
 305:Generated_Source\PSoC4/CapSense_1_Processing.c **** *  Performs initialization of the Radial and Linear Slider widget.
 306:Generated_Source\PSoC4/CapSense_1_Processing.c **** *   - Resets the position data to NONE
 307:Generated_Source\PSoC4/CapSense_1_Processing.c **** *   - Initializes the position filter history to NONE if enabled.
 308:Generated_Source\PSoC4/CapSense_1_Processing.c **** *
 309:Generated_Source\PSoC4/CapSense_1_Processing.c **** * \details
 310:Generated_Source\PSoC4/CapSense_1_Processing.c **** *  Position data is always reset to the CapSense_1_SLIDER_POS_NONE value.
 311:Generated_Source\PSoC4/CapSense_1_Processing.c **** *  The same happens to the position filter history data if enabled.
 312:Generated_Source\PSoC4/CapSense_1_Processing.c **** *
 313:Generated_Source\PSoC4/CapSense_1_Processing.c **** *******************************************************************************/
 314:Generated_Source\PSoC4/CapSense_1_Processing.c **** static CY_INLINE void CapSense_1_DpInitSlider(CapSense_1_FLASH_WD_STRUCT const * ptrFlashWdgt)
 315:Generated_Source\PSoC4/CapSense_1_Processing.c **** {
ARM GAS  C:\Users\MICHAE~1.MAC\AppData\Local\Temp\ccr99qdP.s 			page 7


 316:Generated_Source\PSoC4/CapSense_1_Processing.c ****     uint32 idx;
 317:Generated_Source\PSoC4/CapSense_1_Processing.c ****     CapSense_1_RAM_WD_SLIDER_STRUCT *ptrWdSlider;
 318:Generated_Source\PSoC4/CapSense_1_Processing.c **** 
 319:Generated_Source\PSoC4/CapSense_1_Processing.c ****     #if (0u != CapSense_1_POSITION_FILTER_EN)
 320:Generated_Source\PSoC4/CapSense_1_Processing.c ****         CapSense_1_SLIDER_POS_HISTORY_STRUCT *ptrHistory;
 321:Generated_Source\PSoC4/CapSense_1_Processing.c ****     #endif /* #if (0u != CapSense_1_POSITION_FILTER_EN) */
 322:Generated_Source\PSoC4/CapSense_1_Processing.c **** 
 323:Generated_Source\PSoC4/CapSense_1_Processing.c ****     #if (0u != CapSense_1_POS_ADAPTIVE_IIR_FILTER_EN)
 324:Generated_Source\PSoC4/CapSense_1_Processing.c ****         ADAPTIVE_FILTER_CONTEXT_STRUCT context;
 325:Generated_Source\PSoC4/CapSense_1_Processing.c ****     #endif /* (0u != CapSense_1_POS_ADAPTIVE_IIR_FILTER_EN) */
 326:Generated_Source\PSoC4/CapSense_1_Processing.c **** 
 327:Generated_Source\PSoC4/CapSense_1_Processing.c ****     ptrWdSlider = ptrFlashWdgt->ptr2WdgtRam;
 328:Generated_Source\PSoC4/CapSense_1_Processing.c **** 
 329:Generated_Source\PSoC4/CapSense_1_Processing.c ****     /* Reset slider position data to NONE */
 330:Generated_Source\PSoC4/CapSense_1_Processing.c ****     for (idx = 0u; idx < CapSense_1_NUM_CENTROIDS; idx++)
 331:Generated_Source\PSoC4/CapSense_1_Processing.c ****     {
 332:Generated_Source\PSoC4/CapSense_1_Processing.c ****         ptrWdSlider->position[idx] = CapSense_1_SLIDER_POS_NONE;
 333:Generated_Source\PSoC4/CapSense_1_Processing.c **** 
 334:Generated_Source\PSoC4/CapSense_1_Processing.c ****         #if (0u != CapSense_1_POSITION_FILTER_EN)
 335:Generated_Source\PSoC4/CapSense_1_Processing.c ****             ptrHistory = ptrFlashWdgt->ptr2PosHistory;
 336:Generated_Source\PSoC4/CapSense_1_Processing.c ****             if (NULL != ptrHistory)
 337:Generated_Source\PSoC4/CapSense_1_Processing.c ****             {
 338:Generated_Source\PSoC4/CapSense_1_Processing.c ****                 CapSense_1_InitPosFiltersSd(&ptrHistory[idx], CapSense_1_SLIDER_POS_NONE);
 339:Generated_Source\PSoC4/CapSense_1_Processing.c ****                 #if (0u != CapSense_1_POS_ADAPTIVE_IIR_FILTER_EN)
 340:Generated_Source\PSoC4/CapSense_1_Processing.c ****                     AdaptiveFilter_Initialize(&ptrWdSlider->aiirConfig, &context);
 341:Generated_Source\PSoC4/CapSense_1_Processing.c ****                     ptrHistory->posAIIRCoeff = context.coefficient;
 342:Generated_Source\PSoC4/CapSense_1_Processing.c ****                 #endif /* (0u != CapSense_1_POS_ADAPTIVE_IIR_FILTER_EN) */
 343:Generated_Source\PSoC4/CapSense_1_Processing.c ****             }
 344:Generated_Source\PSoC4/CapSense_1_Processing.c **** 
 345:Generated_Source\PSoC4/CapSense_1_Processing.c ****         #endif /* #if (0u != CapSense_1_POSITION_FILTER_EN) */
 346:Generated_Source\PSoC4/CapSense_1_Processing.c ****     }
 347:Generated_Source\PSoC4/CapSense_1_Processing.c **** }
 348:Generated_Source\PSoC4/CapSense_1_Processing.c **** #endif /* #if (0u != CapSense_1_SLIDER_WIDGET_EN) */
 349:Generated_Source\PSoC4/CapSense_1_Processing.c **** 
 350:Generated_Source\PSoC4/CapSense_1_Processing.c **** #if (0u != CapSense_1_CSD_MATRIX_WIDGET_EN)
 351:Generated_Source\PSoC4/CapSense_1_Processing.c **** /*******************************************************************************
 352:Generated_Source\PSoC4/CapSense_1_Processing.c **** * Function Name: CapSense_1_DpInitCsdMatrix
 353:Generated_Source\PSoC4/CapSense_1_Processing.c **** ****************************************************************************//**
 354:Generated_Source\PSoC4/CapSense_1_Processing.c **** *
 355:Generated_Source\PSoC4/CapSense_1_Processing.c **** * \brief
 356:Generated_Source\PSoC4/CapSense_1_Processing.c **** *  Performs initialization of the CSD Matrix Buttons widget.
 357:Generated_Source\PSoC4/CapSense_1_Processing.c **** *   - Resets the active button position data to NONE.
 358:Generated_Source\PSoC4/CapSense_1_Processing.c **** *
 359:Generated_Source\PSoC4/CapSense_1_Processing.c **** * \details
 360:Generated_Source\PSoC4/CapSense_1_Processing.c **** *  Position data is always reset to the CapSense_1_MATRIX_POS_NONE value.
 361:Generated_Source\PSoC4/CapSense_1_Processing.c **** *
 362:Generated_Source\PSoC4/CapSense_1_Processing.c **** *******************************************************************************/
 363:Generated_Source\PSoC4/CapSense_1_Processing.c **** static CY_INLINE void CapSense_1_DpInitCsdMatrix(CapSense_1_FLASH_WD_STRUCT const * ptrFlashWdgt)
 364:Generated_Source\PSoC4/CapSense_1_Processing.c **** {
 365:Generated_Source\PSoC4/CapSense_1_Processing.c ****     CapSense_1_RAM_WD_CSD_MATRIX_STRUCT *ptrRamWdgt;
 366:Generated_Source\PSoC4/CapSense_1_Processing.c **** 
 367:Generated_Source\PSoC4/CapSense_1_Processing.c ****     ptrRamWdgt = (CapSense_1_RAM_WD_CSD_MATRIX_STRUCT *)ptrFlashWdgt->ptr2WdgtRam;
 368:Generated_Source\PSoC4/CapSense_1_Processing.c **** 
 369:Generated_Source\PSoC4/CapSense_1_Processing.c ****     /* Reset sensor id, row and col registers in data structure */
 370:Generated_Source\PSoC4/CapSense_1_Processing.c ****     ptrRamWdgt->posRow   = CapSense_1_MATRIX_POS_NONE;
 371:Generated_Source\PSoC4/CapSense_1_Processing.c ****     ptrRamWdgt->posCol   = CapSense_1_MATRIX_POS_NONE;
 372:Generated_Source\PSoC4/CapSense_1_Processing.c ****     ptrRamWdgt->posSnsId = CapSense_1_MATRIX_POS_NONE;
ARM GAS  C:\Users\MICHAE~1.MAC\AppData\Local\Temp\ccr99qdP.s 			page 8


 373:Generated_Source\PSoC4/CapSense_1_Processing.c **** }
 374:Generated_Source\PSoC4/CapSense_1_Processing.c **** #endif /* #if (0u != CapSense_1_CSD_MATRIX_WIDGET_EN) */
 375:Generated_Source\PSoC4/CapSense_1_Processing.c **** 
 376:Generated_Source\PSoC4/CapSense_1_Processing.c **** /*******************************************************************************
 377:Generated_Source\PSoC4/CapSense_1_Processing.c **** * Function Name: CapSense_1_DpInitialize
 378:Generated_Source\PSoC4/CapSense_1_Processing.c **** ****************************************************************************//**
 379:Generated_Source\PSoC4/CapSense_1_Processing.c **** *
 380:Generated_Source\PSoC4/CapSense_1_Processing.c **** * \brief
 381:Generated_Source\PSoC4/CapSense_1_Processing.c **** *  Performs initialization of the data processing FW module:
 382:Generated_Source\PSoC4/CapSense_1_Processing.c **** *   - Resets the de-bounce counters of all the widgets
 383:Generated_Source\PSoC4/CapSense_1_Processing.c **** *   - Resets the position filter history for slider and touchpad widgets
 384:Generated_Source\PSoC4/CapSense_1_Processing.c **** *   - Clears widget and sensor statuses
 385:Generated_Source\PSoC4/CapSense_1_Processing.c **** *   - Enables all the widgets.
 386:Generated_Source\PSoC4/CapSense_1_Processing.c **** *
 387:Generated_Source\PSoC4/CapSense_1_Processing.c **** * \details
 388:Generated_Source\PSoC4/CapSense_1_Processing.c **** *  The Button and Matrix Button widgets have individual de-bounce counter per
 389:Generated_Source\PSoC4/CapSense_1_Processing.c **** *  sensor for the CSD widgets and per node for the CSX widgets.
 390:Generated_Source\PSoC4/CapSense_1_Processing.c **** *
 391:Generated_Source\PSoC4/CapSense_1_Processing.c **** *  The Slider and Touchpad widgets have a single de-bounce counter per widget.
 392:Generated_Source\PSoC4/CapSense_1_Processing.c **** *
 393:Generated_Source\PSoC4/CapSense_1_Processing.c **** *  The Proximity widget has two de-bounce counters per sensor. One for the
 394:Generated_Source\PSoC4/CapSense_1_Processing.c **** *  proximity event and second for the touch event.
 395:Generated_Source\PSoC4/CapSense_1_Processing.c **** *
 396:Generated_Source\PSoC4/CapSense_1_Processing.c **** *  All debounce counters during initialization are set to the value of the
 397:Generated_Source\PSoC4/CapSense_1_Processing.c **** *  onDebounce widget parameter.
 398:Generated_Source\PSoC4/CapSense_1_Processing.c **** *
 399:Generated_Source\PSoC4/CapSense_1_Processing.c **** *******************************************************************************/
 400:Generated_Source\PSoC4/CapSense_1_Processing.c **** void CapSense_1_DpInitialize(void)
 401:Generated_Source\PSoC4/CapSense_1_Processing.c **** {
  28              		.loc 1 401 0
  29              		.cfi_startproc
  30              		@ args = 0, pretend = 0, frame = 0
  31              		@ frame_needed = 0, uses_anonymous_args = 0
  32 0000 70B5     		push	{r4, r5, r6, lr}
  33              		.cfi_def_cfa_offset 16
  34              		.cfi_offset 4, -16
  35              		.cfi_offset 5, -12
  36              		.cfi_offset 6, -8
  37              		.cfi_offset 14, -4
  38              	.LVL0:
 402:Generated_Source\PSoC4/CapSense_1_Processing.c ****     uint32 wdgtId;
 403:Generated_Source\PSoC4/CapSense_1_Processing.c ****     CapSense_1_WD_TYPE_ENUM widgetType;
 404:Generated_Source\PSoC4/CapSense_1_Processing.c ****     CapSense_1_RAM_WD_BASE_STRUCT * ptrRamWdgt;
 405:Generated_Source\PSoC4/CapSense_1_Processing.c ****     CapSense_1_FLASH_WD_STRUCT const * ptrFlashWdgt;
 406:Generated_Source\PSoC4/CapSense_1_Processing.c **** 
 407:Generated_Source\PSoC4/CapSense_1_Processing.c ****     for (wdgtId = 0u; wdgtId < CapSense_1_WDGT_STATUS_WORDS; wdgtId++)
  39              		.loc 1 407 0
  40 0002 0023     		movs	r3, #0
  41 0004 09E0     		b	.L2
  42              	.LVL1:
  43              	.L3:
 408:Generated_Source\PSoC4/CapSense_1_Processing.c ****     {
 409:Generated_Source\PSoC4/CapSense_1_Processing.c ****         /* Clear widget status */
 410:Generated_Source\PSoC4/CapSense_1_Processing.c ****         CapSense_1_dsRam.wdgtStatus[wdgtId] = 0u;
  44              		.loc 1 410 0 discriminator 3
  45 0006 1249     		ldr	r1, .L8
  46 0008 1A1D     		adds	r2, r3, #4
ARM GAS  C:\Users\MICHAE~1.MAC\AppData\Local\Temp\ccr99qdP.s 			page 9


  47 000a 9200     		lsls	r2, r2, #2
  48 000c 8818     		adds	r0, r1, r2
  49 000e 0024     		movs	r4, #0
  50 0010 4460     		str	r4, [r0, #4]
 411:Generated_Source\PSoC4/CapSense_1_Processing.c **** 
 412:Generated_Source\PSoC4/CapSense_1_Processing.c ****         /* Enable all the widgets */
 413:Generated_Source\PSoC4/CapSense_1_Processing.c ****         CapSense_1_dsRam.wdgtEnable[wdgtId] = 0xFFFFFFFFLu;
  51              		.loc 1 413 0 discriminator 3
  52 0012 0120     		movs	r0, #1
  53 0014 4042     		rsbs	r0, r0, #0
  54 0016 5050     		str	r0, [r2, r1]
 407:Generated_Source\PSoC4/CapSense_1_Processing.c ****     {
  55              		.loc 1 407 0 discriminator 3
  56 0018 0133     		adds	r3, r3, #1
  57              	.LVL2:
  58              	.L2:
 407:Generated_Source\PSoC4/CapSense_1_Processing.c ****     {
  59              		.loc 1 407 0 is_stmt 0 discriminator 1
  60 001a 002B     		cmp	r3, #0
  61 001c F3D0     		beq	.L3
  62 001e 0D4C     		ldr	r4, .L8+4
  63 0020 0523     		movs	r3, #5
  64              	.LVL3:
  65 0022 10E0     		b	.L4
  66              	.LVL4:
  67              	.L7:
 414:Generated_Source\PSoC4/CapSense_1_Processing.c **** 
 415:Generated_Source\PSoC4/CapSense_1_Processing.c ****         /* Set all the widgets to working state if the Self-Test is not enabled */
 416:Generated_Source\PSoC4/CapSense_1_Processing.c ****         #if (0u != CapSense_1_SELF_TEST_EN)
 417:Generated_Source\PSoC4/CapSense_1_Processing.c ****             CapSense_1_dsRam.wdgtWorking[wdgtId] = 0xFFFFFFFFLu;
 418:Generated_Source\PSoC4/CapSense_1_Processing.c ****         #endif /* #if (0u == CapSense_1_SELF_TEST_EN) */
 419:Generated_Source\PSoC4/CapSense_1_Processing.c ****     }
 420:Generated_Source\PSoC4/CapSense_1_Processing.c **** 
 421:Generated_Source\PSoC4/CapSense_1_Processing.c ****     ptrFlashWdgt = CapSense_1_dsFlash.wdgtArray;
 422:Generated_Source\PSoC4/CapSense_1_Processing.c **** 
 423:Generated_Source\PSoC4/CapSense_1_Processing.c ****     for (wdgtId = CapSense_1_TOTAL_WIDGETS; wdgtId-- > 0u; )
 424:Generated_Source\PSoC4/CapSense_1_Processing.c ****     {
 425:Generated_Source\PSoC4/CapSense_1_Processing.c ****         ptrRamWdgt = (CapSense_1_RAM_WD_BASE_STRUCT *)ptrFlashWdgt->ptr2WdgtRam;
  68              		.loc 1 425 0 is_stmt 1
  69 0024 6668     		ldr	r6, [r4, #4]
  70              	.LVL5:
 426:Generated_Source\PSoC4/CapSense_1_Processing.c ****         widgetType = (CapSense_1_WD_TYPE_ENUM)ptrFlashWdgt->wdgtType;
  71              		.loc 1 426 0
  72 0026 A27E     		ldrb	r2, [r4, #26]
  73              	.LVL6:
 427:Generated_Source\PSoC4/CapSense_1_Processing.c **** 
 428:Generated_Source\PSoC4/CapSense_1_Processing.c ****         /* Clear all sensor statuses */
 429:Generated_Source\PSoC4/CapSense_1_Processing.c ****         CapSense_1_dsRam.snsStatus[wdgtId] = 0u;
  74              		.loc 1 429 0
  75 0028 094B     		ldr	r3, .L8
  76 002a 5B19     		adds	r3, r3, r5
  77 002c 0021     		movs	r1, #0
  78 002e 1976     		strb	r1, [r3, #24]
 430:Generated_Source\PSoC4/CapSense_1_Processing.c **** 
 431:Generated_Source\PSoC4/CapSense_1_Processing.c ****         /* Reset de-bounce counters */
 432:Generated_Source\PSoC4/CapSense_1_Processing.c ****         switch (widgetType)
  79              		.loc 1 432 0
ARM GAS  C:\Users\MICHAE~1.MAC\AppData\Local\Temp\ccr99qdP.s 			page 10


  80 0030 012A     		cmp	r2, #1
  81 0032 06D1     		bne	.L5
 433:Generated_Source\PSoC4/CapSense_1_Processing.c ****         {
 434:Generated_Source\PSoC4/CapSense_1_Processing.c ****         #if (0u != CapSense_1_MATRIX_WIDGET_EN)
 435:Generated_Source\PSoC4/CapSense_1_Processing.c ****             case CapSense_1_WD_MATRIX_BUTTON_E:
 436:Generated_Source\PSoC4/CapSense_1_Processing.c ****                 #if (0u != CapSense_1_CSD_MATRIX_WIDGET_EN)
 437:Generated_Source\PSoC4/CapSense_1_Processing.c ****                     if (CapSense_1_SENSE_METHOD_CSD_E == CapSense_1_GET_SENSE_METHOD(ptrFlashWdgt))
 438:Generated_Source\PSoC4/CapSense_1_Processing.c ****                     {
 439:Generated_Source\PSoC4/CapSense_1_Processing.c ****                         CapSense_1_DpInitCsdMatrix(ptrFlashWdgt);
 440:Generated_Source\PSoC4/CapSense_1_Processing.c ****                     }
 441:Generated_Source\PSoC4/CapSense_1_Processing.c ****                 #endif /* #if (0u != CapSense_1_CSD_MATRIX_WIDGET_EN) */
 442:Generated_Source\PSoC4/CapSense_1_Processing.c **** 
 443:Generated_Source\PSoC4/CapSense_1_Processing.c ****                 if (NULL != ptrFlashWdgt->ptr2DebounceArr)
 444:Generated_Source\PSoC4/CapSense_1_Processing.c ****                 {
 445:Generated_Source\PSoC4/CapSense_1_Processing.c ****                     /* Initialize array of debounce counters */
 446:Generated_Source\PSoC4/CapSense_1_Processing.c ****                     (void)memset(ptrFlashWdgt->ptr2DebounceArr,
 447:Generated_Source\PSoC4/CapSense_1_Processing.c ****                                  (int32)ptrRamWdgt->onDebounce,
 448:Generated_Source\PSoC4/CapSense_1_Processing.c ****                                  (size_t)ptrFlashWdgt->totalNumSns);
 449:Generated_Source\PSoC4/CapSense_1_Processing.c ****                 }
 450:Generated_Source\PSoC4/CapSense_1_Processing.c ****                 break;
 451:Generated_Source\PSoC4/CapSense_1_Processing.c ****         #endif /* #if (0u != CapSense_1_MATRIX_WIDGET_EN) */
 452:Generated_Source\PSoC4/CapSense_1_Processing.c **** 
 453:Generated_Source\PSoC4/CapSense_1_Processing.c ****         #if (0u != CapSense_1_BUTTON_WIDGET_EN)
 454:Generated_Source\PSoC4/CapSense_1_Processing.c ****             case CapSense_1_WD_BUTTON_E:
 455:Generated_Source\PSoC4/CapSense_1_Processing.c ****                 if (NULL != ptrFlashWdgt->ptr2DebounceArr)
  82              		.loc 1 455 0
  83 0034 2069     		ldr	r0, [r4, #16]
  84 0036 0028     		cmp	r0, #0
  85 0038 03D0     		beq	.L5
 456:Generated_Source\PSoC4/CapSense_1_Processing.c ****                 {
 457:Generated_Source\PSoC4/CapSense_1_Processing.c ****                     /* Initialize array of debounce counters */
 458:Generated_Source\PSoC4/CapSense_1_Processing.c ****                     (void)memset(ptrFlashWdgt->ptr2DebounceArr,
 459:Generated_Source\PSoC4/CapSense_1_Processing.c ****                                  (int32)ptrRamWdgt->onDebounce,
  86              		.loc 1 459 0
  87 003a F179     		ldrb	r1, [r6, #7]
 460:Generated_Source\PSoC4/CapSense_1_Processing.c ****                                  (size_t)ptrFlashWdgt->totalNumSns);
  88              		.loc 1 460 0
  89 003c 228B     		ldrh	r2, [r4, #24]
  90              	.LVL7:
 458:Generated_Source\PSoC4/CapSense_1_Processing.c ****                                  (int32)ptrRamWdgt->onDebounce,
  91              		.loc 1 458 0
  92 003e FFF7FEFF 		bl	memset
  93              	.LVL8:
  94              	.L5:
 461:Generated_Source\PSoC4/CapSense_1_Processing.c ****                 }
 462:Generated_Source\PSoC4/CapSense_1_Processing.c ****                 break;
 463:Generated_Source\PSoC4/CapSense_1_Processing.c ****         #endif /* #if (0u != CapSense_1_BUTTON_WIDGET_EN) */
 464:Generated_Source\PSoC4/CapSense_1_Processing.c **** 
 465:Generated_Source\PSoC4/CapSense_1_Processing.c ****         #if (0u != CapSense_1_SLIDER_WIDGET_EN)
 466:Generated_Source\PSoC4/CapSense_1_Processing.c ****             case CapSense_1_WD_LINEAR_SLIDER_E:
 467:Generated_Source\PSoC4/CapSense_1_Processing.c ****             case CapSense_1_WD_RADIAL_SLIDER_E:
 468:Generated_Source\PSoC4/CapSense_1_Processing.c ****                 if (NULL != ptrFlashWdgt->ptr2DebounceArr)
 469:Generated_Source\PSoC4/CapSense_1_Processing.c ****                 {
 470:Generated_Source\PSoC4/CapSense_1_Processing.c ****                     /* Initialize single debounce counter of slider */
 471:Generated_Source\PSoC4/CapSense_1_Processing.c ****                     *(uint8 *)(ptrFlashWdgt->ptr2DebounceArr) = ptrRamWdgt->onDebounce;
 472:Generated_Source\PSoC4/CapSense_1_Processing.c ****                 }
 473:Generated_Source\PSoC4/CapSense_1_Processing.c **** 
ARM GAS  C:\Users\MICHAE~1.MAC\AppData\Local\Temp\ccr99qdP.s 			page 11


 474:Generated_Source\PSoC4/CapSense_1_Processing.c ****                 CapSense_1_DpInitSlider(ptrFlashWdgt);
 475:Generated_Source\PSoC4/CapSense_1_Processing.c **** 
 476:Generated_Source\PSoC4/CapSense_1_Processing.c ****                 break;
 477:Generated_Source\PSoC4/CapSense_1_Processing.c ****         #endif /* #if (0u != CapSense_1_SLIDER_WIDGET_EN) */
 478:Generated_Source\PSoC4/CapSense_1_Processing.c **** 
 479:Generated_Source\PSoC4/CapSense_1_Processing.c ****         #if (0u != CapSense_1_TOUCHPAD_WIDGET_EN)
 480:Generated_Source\PSoC4/CapSense_1_Processing.c ****             case CapSense_1_WD_TOUCHPAD_E:
 481:Generated_Source\PSoC4/CapSense_1_Processing.c ****                 if (NULL != ptrFlashWdgt->ptr2DebounceArr)
 482:Generated_Source\PSoC4/CapSense_1_Processing.c ****                 {
 483:Generated_Source\PSoC4/CapSense_1_Processing.c ****                     /* Initialize single debounce counter of touchpad */
 484:Generated_Source\PSoC4/CapSense_1_Processing.c ****                     *(uint8 *)(ptrFlashWdgt->ptr2DebounceArr) = ptrRamWdgt->onDebounce;
 485:Generated_Source\PSoC4/CapSense_1_Processing.c ****                 }
 486:Generated_Source\PSoC4/CapSense_1_Processing.c **** 
 487:Generated_Source\PSoC4/CapSense_1_Processing.c ****                 #if (0u != CapSense_1_CSD_TOUCHPAD_WIDGET_EN)
 488:Generated_Source\PSoC4/CapSense_1_Processing.c ****                     if (CapSense_1_SENSE_METHOD_CSD_E == CapSense_1_GET_SENSE_METHOD(ptrFlashWdgt))
 489:Generated_Source\PSoC4/CapSense_1_Processing.c ****                     {
 490:Generated_Source\PSoC4/CapSense_1_Processing.c ****                         CapSense_1_DpInitCsdTouchpad(ptrFlashWdgt);
 491:Generated_Source\PSoC4/CapSense_1_Processing.c ****                     }
 492:Generated_Source\PSoC4/CapSense_1_Processing.c ****                 #endif /* #if (0u != CapSense_1_CSD_TOUCHPAD_WIDGET_EN) */
 493:Generated_Source\PSoC4/CapSense_1_Processing.c **** 
 494:Generated_Source\PSoC4/CapSense_1_Processing.c ****                 #if (0u != CapSense_1_CSX_TOUCHPAD_WIDGET_EN)
 495:Generated_Source\PSoC4/CapSense_1_Processing.c ****                     if (CapSense_1_SENSE_METHOD_CSX_E == CapSense_1_GET_SENSE_METHOD(ptrFlashWdgt))
 496:Generated_Source\PSoC4/CapSense_1_Processing.c ****                     {
 497:Generated_Source\PSoC4/CapSense_1_Processing.c ****                         CapSense_1_DpInitCsxTouchpad(ptrFlashWdgt);
 498:Generated_Source\PSoC4/CapSense_1_Processing.c ****                     }
 499:Generated_Source\PSoC4/CapSense_1_Processing.c ****                 #endif /* #if (0u != CapSense_1_CSX_TOUCHPAD_WIDGET_EN) */
 500:Generated_Source\PSoC4/CapSense_1_Processing.c **** 
 501:Generated_Source\PSoC4/CapSense_1_Processing.c ****                 break;
 502:Generated_Source\PSoC4/CapSense_1_Processing.c ****         #endif /* #if (0u != CapSense_1_TOUCHPAD_WIDGET_EN) */
 503:Generated_Source\PSoC4/CapSense_1_Processing.c **** 
 504:Generated_Source\PSoC4/CapSense_1_Processing.c ****         #if (0u != CapSense_1_PROXIMITY_WIDGET_EN)
 505:Generated_Source\PSoC4/CapSense_1_Processing.c ****             case CapSense_1_WD_PROXIMITY_E:
 506:Generated_Source\PSoC4/CapSense_1_Processing.c ****                 if (NULL != ptrFlashWdgt->ptr2DebounceArr)
 507:Generated_Source\PSoC4/CapSense_1_Processing.c ****                 {
 508:Generated_Source\PSoC4/CapSense_1_Processing.c ****                     /* Proximity widgets have 2 de-bounce counters per sensor.
 509:Generated_Source\PSoC4/CapSense_1_Processing.c ****                      * Therefore the number of sensors is multiplied by 2.
 510:Generated_Source\PSoC4/CapSense_1_Processing.c ****                      */
 511:Generated_Source\PSoC4/CapSense_1_Processing.c ****                    (void)memset(ptrFlashWdgt->ptr2DebounceArr,
 512:Generated_Source\PSoC4/CapSense_1_Processing.c ****                                 (int32)ptrRamWdgt->onDebounce,
 513:Generated_Source\PSoC4/CapSense_1_Processing.c ****                                 (size_t)ptrFlashWdgt->totalNumSns * 2u);
 514:Generated_Source\PSoC4/CapSense_1_Processing.c ****                 }
 515:Generated_Source\PSoC4/CapSense_1_Processing.c ****                 break;
 516:Generated_Source\PSoC4/CapSense_1_Processing.c ****         #endif /* #if (0u != CapSense_1_PROXIMITY_WIDGET_EN) */
 517:Generated_Source\PSoC4/CapSense_1_Processing.c **** 
 518:Generated_Source\PSoC4/CapSense_1_Processing.c ****         #if (0u != CapSense_1_ENCODERDIAL_WIDGET_EN)
 519:Generated_Source\PSoC4/CapSense_1_Processing.c ****             case CapSense_1_WD_ENCODERDIAL_E:
 520:Generated_Source\PSoC4/CapSense_1_Processing.c ****                 if (NULL != ptrFlashWdgt->ptr2DebounceArr)
 521:Generated_Source\PSoC4/CapSense_1_Processing.c ****                 {
 522:Generated_Source\PSoC4/CapSense_1_Processing.c ****                     /* Proximity widgets have 2 de-bounce counters per sensor.
 523:Generated_Source\PSoC4/CapSense_1_Processing.c ****                      * Therefore the number of sensors is multiplied by 2.
 524:Generated_Source\PSoC4/CapSense_1_Processing.c ****                      */
 525:Generated_Source\PSoC4/CapSense_1_Processing.c ****                    (void)memset(ptrFlashWdgt->ptr2DebounceArr,
 526:Generated_Source\PSoC4/CapSense_1_Processing.c ****                                 (int32)ptrRamWdgt->onDebounce,
 527:Generated_Source\PSoC4/CapSense_1_Processing.c ****                                 (size_t)ptrFlashWdgt->totalNumSns);
 528:Generated_Source\PSoC4/CapSense_1_Processing.c ****                 }
 529:Generated_Source\PSoC4/CapSense_1_Processing.c ****                 break;
 530:Generated_Source\PSoC4/CapSense_1_Processing.c ****         #endif /* (0u != CapSense_1_ENCODERDIAL_WIDGET_EN) */
ARM GAS  C:\Users\MICHAE~1.MAC\AppData\Local\Temp\ccr99qdP.s 			page 12


 531:Generated_Source\PSoC4/CapSense_1_Processing.c ****             default:
 532:Generated_Source\PSoC4/CapSense_1_Processing.c ****                 break;
 533:Generated_Source\PSoC4/CapSense_1_Processing.c ****         }
 534:Generated_Source\PSoC4/CapSense_1_Processing.c **** 
 535:Generated_Source\PSoC4/CapSense_1_Processing.c ****         /* Move to next widget */
 536:Generated_Source\PSoC4/CapSense_1_Processing.c ****         ptrFlashWdgt++;
  95              		.loc 1 536 0
  96 0042 1C34     		adds	r4, r4, #28
  97              	.LVL9:
 423:Generated_Source\PSoC4/CapSense_1_Processing.c ****     {
  98              		.loc 1 423 0
  99 0044 2B00     		movs	r3, r5
 100              	.LVL10:
 101              	.L4:
 423:Generated_Source\PSoC4/CapSense_1_Processing.c ****     {
 102              		.loc 1 423 0 is_stmt 0 discriminator 1
 103 0046 5D1E     		subs	r5, r3, #1
 104              	.LVL11:
 105 0048 002B     		cmp	r3, #0
 106 004a EBD1     		bne	.L7
 537:Generated_Source\PSoC4/CapSense_1_Processing.c ****     }
 538:Generated_Source\PSoC4/CapSense_1_Processing.c **** }
 107              		.loc 1 538 0 is_stmt 1
 108              		@ sp needed
 109              	.LVL12:
 110              	.LVL13:
 111 004c 70BD     		pop	{r4, r5, r6, pc}
 112              	.L9:
 113 004e C046     		.align	2
 114              	.L8:
 115 0050 00000000 		.word	CapSense_1_dsRam
 116 0054 00000000 		.word	CapSense_1_dsFlash
 117              		.cfi_endproc
 118              	.LFE1:
 119              		.size	CapSense_1_DpInitialize, .-CapSense_1_DpInitialize
 120              		.section	.text.CapSense_1_DpUpdateDifferences,"ax",%progbits
 121              		.align	2
 122              		.global	CapSense_1_DpUpdateDifferences
 123              		.code	16
 124              		.thumb_func
 125              		.type	CapSense_1_DpUpdateDifferences, %function
 126              	CapSense_1_DpUpdateDifferences:
 127              	.LFB5:
 539:Generated_Source\PSoC4/CapSense_1_Processing.c **** 
 540:Generated_Source\PSoC4/CapSense_1_Processing.c **** #if (0u != CapSense_1_TOTAL_CSX_WIDGETS)
 541:Generated_Source\PSoC4/CapSense_1_Processing.c **** /*******************************************************************************
 542:Generated_Source\PSoC4/CapSense_1_Processing.c **** * Function Name: CapSense_1_DpProcessCsxWidgetRawCounts
 543:Generated_Source\PSoC4/CapSense_1_Processing.c **** ****************************************************************************//**
 544:Generated_Source\PSoC4/CapSense_1_Processing.c **** *
 545:Generated_Source\PSoC4/CapSense_1_Processing.c **** * \brief
 546:Generated_Source\PSoC4/CapSense_1_Processing.c **** *  Performs default processing of the CSX raw counts.
 547:Generated_Source\PSoC4/CapSense_1_Processing.c **** *
 548:Generated_Source\PSoC4/CapSense_1_Processing.c **** * \details
 549:Generated_Source\PSoC4/CapSense_1_Processing.c **** *  Performs default processing of the CSX raw counts:
 550:Generated_Source\PSoC4/CapSense_1_Processing.c **** *   - Run Filters
 551:Generated_Source\PSoC4/CapSense_1_Processing.c **** *   - Update Baselines
 552:Generated_Source\PSoC4/CapSense_1_Processing.c **** *   - Update Differences
ARM GAS  C:\Users\MICHAE~1.MAC\AppData\Local\Temp\ccr99qdP.s 			page 13


 553:Generated_Source\PSoC4/CapSense_1_Processing.c **** *   - Update Status.
 554:Generated_Source\PSoC4/CapSense_1_Processing.c **** *  The same process is applied to all the sensors of the specified widget.
 555:Generated_Source\PSoC4/CapSense_1_Processing.c **** *
 556:Generated_Source\PSoC4/CapSense_1_Processing.c **** * \param ptrFlashWdgt The pointer to the Flash widget structure.
 557:Generated_Source\PSoC4/CapSense_1_Processing.c **** *
 558:Generated_Source\PSoC4/CapSense_1_Processing.c **** * \return
 559:Generated_Source\PSoC4/CapSense_1_Processing.c **** *  Returns the status of the specified widget processing operation:
 560:Generated_Source\PSoC4/CapSense_1_Processing.c **** *  - CYRET_SUCCESS if operation was successfully completed;
 561:Generated_Source\PSoC4/CapSense_1_Processing.c **** *  - CapSense_1_PROCESS_BASELINE_FAILED if baseline processing of any
 562:Generated_Source\PSoC4/CapSense_1_Processing.c **** *    sensor of the specified widget failed. The result is concatenated with the index
 563:Generated_Source\PSoC4/CapSense_1_Processing.c **** *    of failed sensor.
 564:Generated_Source\PSoC4/CapSense_1_Processing.c **** *
 565:Generated_Source\PSoC4/CapSense_1_Processing.c **** *******************************************************************************/
 566:Generated_Source\PSoC4/CapSense_1_Processing.c **** uint32 CapSense_1_DpProcessCsxWidgetRawCounts(CapSense_1_FLASH_WD_STRUCT const *ptrFlashWdgt)
 567:Generated_Source\PSoC4/CapSense_1_Processing.c **** {
 568:Generated_Source\PSoC4/CapSense_1_Processing.c ****     uint32 result = CYRET_SUCCESS;
 569:Generated_Source\PSoC4/CapSense_1_Processing.c ****     uint32 widgetType;
 570:Generated_Source\PSoC4/CapSense_1_Processing.c ****     uint32 snsCount;
 571:Generated_Source\PSoC4/CapSense_1_Processing.c ****     CapSense_1_RAM_SNS_STRUCT *ptrSnsTmp;
 572:Generated_Source\PSoC4/CapSense_1_Processing.c ****     CapSense_1_RAM_WD_BASE_STRUCT *ptrRamWdgt;
 573:Generated_Source\PSoC4/CapSense_1_Processing.c **** 
 574:Generated_Source\PSoC4/CapSense_1_Processing.c ****     #if (CapSense_1_ENABLE == CapSense_1_RC_FILTER_EN)
 575:Generated_Source\PSoC4/CapSense_1_Processing.c ****         CapSense_1_PTR_FILTER_VARIANT fltrHistV;
 576:Generated_Source\PSoC4/CapSense_1_Processing.c **** 
 577:Generated_Source\PSoC4/CapSense_1_Processing.c ****         fltrHistV.ptr = ptrFlashWdgt->ptr2FltrHistory;
 578:Generated_Source\PSoC4/CapSense_1_Processing.c ****     #endif /* #if (CapSense_1_ENABLE == CapSense_1_RC_FILTER_EN) */
 579:Generated_Source\PSoC4/CapSense_1_Processing.c **** 
 580:Generated_Source\PSoC4/CapSense_1_Processing.c ****     ptrSnsTmp = ptrFlashWdgt->ptr2SnsRam;
 581:Generated_Source\PSoC4/CapSense_1_Processing.c ****     snsCount = ptrFlashWdgt->totalNumSns;
 582:Generated_Source\PSoC4/CapSense_1_Processing.c ****     ptrRamWdgt = (CapSense_1_RAM_WD_BASE_STRUCT *)ptrFlashWdgt->ptr2WdgtRam;
 583:Generated_Source\PSoC4/CapSense_1_Processing.c ****     widgetType = ptrFlashWdgt->wdgtType;
 584:Generated_Source\PSoC4/CapSense_1_Processing.c **** 
 585:Generated_Source\PSoC4/CapSense_1_Processing.c ****     /* Run deconvolution algorithm for the widgets with multiphase TX support */
 586:Generated_Source\PSoC4/CapSense_1_Processing.c ****     #if (0u != CapSense_1_CSX_MULTIPHASE_TX_EN)
 587:Generated_Source\PSoC4/CapSense_1_Processing.c ****         if (0u != (ptrFlashWdgt->staticConfig & CapSense_1_MULTIPHASE_TX_MASK))
 588:Generated_Source\PSoC4/CapSense_1_Processing.c ****         {
 589:Generated_Source\PSoC4/CapSense_1_Processing.c ****             CapSense_1_DpDeconvolution(ptrFlashWdgt);
 590:Generated_Source\PSoC4/CapSense_1_Processing.c ****         }
 591:Generated_Source\PSoC4/CapSense_1_Processing.c ****     #endif  /* #if (0u != CapSense_1_CSX_MULTIPHASE_TX_EN) */
 592:Generated_Source\PSoC4/CapSense_1_Processing.c **** 
 593:Generated_Source\PSoC4/CapSense_1_Processing.c ****     for (;snsCount-- > 0u;)
 594:Generated_Source\PSoC4/CapSense_1_Processing.c ****     {
 595:Generated_Source\PSoC4/CapSense_1_Processing.c ****         #if (CapSense_1_ENABLE == CapSense_1_RC_FILTER_EN)
 596:Generated_Source\PSoC4/CapSense_1_Processing.c ****             CapSense_1_FtRunEnabledFiltersInternal(fltrHistV, ptrSnsTmp, widgetType);
 597:Generated_Source\PSoC4/CapSense_1_Processing.c ****             #if (CapSense_1_ALP_FILTER_EN)
 598:Generated_Source\PSoC4/CapSense_1_Processing.c ****                 CapSense_1_ConfigRunALPInternal(fltrHistV, ptrRamWdgt, ptrSnsTmp, widgetType);
 599:Generated_Source\PSoC4/CapSense_1_Processing.c ****             #endif
 600:Generated_Source\PSoC4/CapSense_1_Processing.c ****         #endif /* #if (CapSense_1_ENABLE == CapSense_1_RC_FILTER_EN) */
 601:Generated_Source\PSoC4/CapSense_1_Processing.c **** 
 602:Generated_Source\PSoC4/CapSense_1_Processing.c ****         result = CapSense_1_FtUpdateBaseline(ptrRamWdgt, ptrSnsTmp, widgetType);
 603:Generated_Source\PSoC4/CapSense_1_Processing.c **** 
 604:Generated_Source\PSoC4/CapSense_1_Processing.c ****         #if (CapSense_1_ENABLE == CapSense_1_TST_BSLN_DUPLICATION_EN)
 605:Generated_Source\PSoC4/CapSense_1_Processing.c ****             if (CYRET_SUCCESS != result)
 606:Generated_Source\PSoC4/CapSense_1_Processing.c ****             {
 607:Generated_Source\PSoC4/CapSense_1_Processing.c ****                 result = snsCount | CapSense_1_PROCESS_BASELINE_FAILED;
 608:Generated_Source\PSoC4/CapSense_1_Processing.c ****             }
 609:Generated_Source\PSoC4/CapSense_1_Processing.c ****         #endif /* (CapSense_1_ENABLE == CapSense_1_TST_BSLN_DUPLICATION_EN) */
ARM GAS  C:\Users\MICHAE~1.MAC\AppData\Local\Temp\ccr99qdP.s 			page 14


 610:Generated_Source\PSoC4/CapSense_1_Processing.c **** 
 611:Generated_Source\PSoC4/CapSense_1_Processing.c ****         CapSense_1_DpUpdateDifferences(ptrRamWdgt, ptrSnsTmp);
 612:Generated_Source\PSoC4/CapSense_1_Processing.c **** 
 613:Generated_Source\PSoC4/CapSense_1_Processing.c ****         /* Move pointers to the next sensor and filter history objects */
 614:Generated_Source\PSoC4/CapSense_1_Processing.c ****         ptrSnsTmp++;
 615:Generated_Source\PSoC4/CapSense_1_Processing.c **** 
 616:Generated_Source\PSoC4/CapSense_1_Processing.c ****         #if (CapSense_1_ENABLE == CapSense_1_RC_FILTER_EN)
 617:Generated_Source\PSoC4/CapSense_1_Processing.c ****             CapSense_1_INC_REG_FLTR_OBJ(fltrHistV);
 618:Generated_Source\PSoC4/CapSense_1_Processing.c ****         #endif /* #if (CapSense_1_ENABLE == CapSense_1_RC_FILTER_EN) */
 619:Generated_Source\PSoC4/CapSense_1_Processing.c ****     }
 620:Generated_Source\PSoC4/CapSense_1_Processing.c ****     return result;
 621:Generated_Source\PSoC4/CapSense_1_Processing.c **** }
 622:Generated_Source\PSoC4/CapSense_1_Processing.c **** 
 623:Generated_Source\PSoC4/CapSense_1_Processing.c **** /*******************************************************************************
 624:Generated_Source\PSoC4/CapSense_1_Processing.c **** * Function Name: CapSense_1_DpProcessCsxSensorRawCountsExt
 625:Generated_Source\PSoC4/CapSense_1_Processing.c **** ****************************************************************************//**
 626:Generated_Source\PSoC4/CapSense_1_Processing.c **** *
 627:Generated_Source\PSoC4/CapSense_1_Processing.c **** * \brief
 628:Generated_Source\PSoC4/CapSense_1_Processing.c **** *   Performs customized processing of the CSX sensor raw counts.
 629:Generated_Source\PSoC4/CapSense_1_Processing.c **** *
 630:Generated_Source\PSoC4/CapSense_1_Processing.c **** * \details
 631:Generated_Source\PSoC4/CapSense_1_Processing.c **** *   Performs customized processing of the CSX sensor raw counts.
 632:Generated_Source\PSoC4/CapSense_1_Processing.c **** *
 633:Generated_Source\PSoC4/CapSense_1_Processing.c **** *   If all bits are set at once the default processing order will take place.
 634:Generated_Source\PSoC4/CapSense_1_Processing.c **** *   For the custom order this API can be called multiple times and execute one task at a time.
 635:Generated_Source\PSoC4/CapSense_1_Processing.c **** *
 636:Generated_Source\PSoC4/CapSense_1_Processing.c **** * \param ptrFlashWdgt The pointer to the Flash Widget Object.
 637:Generated_Source\PSoC4/CapSense_1_Processing.c **** * \param curSnsPtr    The pointer to the specific RAM Sensor Object.
 638:Generated_Source\PSoC4/CapSense_1_Processing.c **** * \param fltrHistV    The pointer to the Filter History Object in RAM associated with specific sens
 639:Generated_Source\PSoC4/CapSense_1_Processing.c **** * \param mode         The bit-mask with the data processing tasks to be executed.
 640:Generated_Source\PSoC4/CapSense_1_Processing.c **** *   The mode parameters can take the following values:
 641:Generated_Source\PSoC4/CapSense_1_Processing.c **** *    - CapSense_1_PROCESS_FILTER     (0x01) Run Firmware Filter
 642:Generated_Source\PSoC4/CapSense_1_Processing.c **** *    - CapSense_1_PROCESS_BASELINE   (0x02) Update Baselines
 643:Generated_Source\PSoC4/CapSense_1_Processing.c **** *    - CapSense_1_PROCESS_DIFFCOUNTS (0x04) Update Difference Counts
 644:Generated_Source\PSoC4/CapSense_1_Processing.c **** *    - CapSense_1_PROCESS_ALL               Execute all tasks
 645:Generated_Source\PSoC4/CapSense_1_Processing.c **** *
 646:Generated_Source\PSoC4/CapSense_1_Processing.c **** * \return
 647:Generated_Source\PSoC4/CapSense_1_Processing.c **** *  Returns the status of the specified sensor processing operation:
 648:Generated_Source\PSoC4/CapSense_1_Processing.c **** *  - CYRET_SUCCESS if operation was successfully completed;
 649:Generated_Source\PSoC4/CapSense_1_Processing.c **** *  - CapSense_1_PROCESS_BASELINE_FAILED if baseline processing of any
 650:Generated_Source\PSoC4/CapSense_1_Processing.c **** *    sensor of the specified widget failed. The result is concatenated with the index
 651:Generated_Source\PSoC4/CapSense_1_Processing.c **** *    of failed sensor.
 652:Generated_Source\PSoC4/CapSense_1_Processing.c **** *
 653:Generated_Source\PSoC4/CapSense_1_Processing.c **** *******************************************************************************/
 654:Generated_Source\PSoC4/CapSense_1_Processing.c **** uint32 CapSense_1_DpProcessCsxSensorRawCountsExt(
 655:Generated_Source\PSoC4/CapSense_1_Processing.c ****                 CapSense_1_FLASH_WD_STRUCT const *ptrFlashWdgt,
 656:Generated_Source\PSoC4/CapSense_1_Processing.c ****                 CapSense_1_RAM_SNS_STRUCT *curSnsPtr,
 657:Generated_Source\PSoC4/CapSense_1_Processing.c ****                 CapSense_1_PTR_FILTER_VARIANT fltrHistV,
 658:Generated_Source\PSoC4/CapSense_1_Processing.c ****                 uint32 mode)
 659:Generated_Source\PSoC4/CapSense_1_Processing.c **** {
 660:Generated_Source\PSoC4/CapSense_1_Processing.c ****     uint32  result = CYRET_SUCCESS;
 661:Generated_Source\PSoC4/CapSense_1_Processing.c ****     uint32  widgetType;
 662:Generated_Source\PSoC4/CapSense_1_Processing.c ****     CapSense_1_RAM_WD_BASE_STRUCT *ptrRamWdgt;
 663:Generated_Source\PSoC4/CapSense_1_Processing.c **** 
 664:Generated_Source\PSoC4/CapSense_1_Processing.c ****     widgetType = ptrFlashWdgt->wdgtType;
 665:Generated_Source\PSoC4/CapSense_1_Processing.c ****     ptrRamWdgt = (CapSense_1_RAM_WD_BASE_STRUCT *)ptrFlashWdgt->ptr2WdgtRam;
 666:Generated_Source\PSoC4/CapSense_1_Processing.c **** 
ARM GAS  C:\Users\MICHAE~1.MAC\AppData\Local\Temp\ccr99qdP.s 			page 15


 667:Generated_Source\PSoC4/CapSense_1_Processing.c ****     #if (CapSense_1_ENABLE == CapSense_1_RC_FILTER_EN)
 668:Generated_Source\PSoC4/CapSense_1_Processing.c ****         if (0u != (mode & CapSense_1_PROCESS_FILTER))
 669:Generated_Source\PSoC4/CapSense_1_Processing.c ****         {
 670:Generated_Source\PSoC4/CapSense_1_Processing.c ****             CapSense_1_FtRunEnabledFiltersInternal(fltrHistV, curSnsPtr, widgetType);
 671:Generated_Source\PSoC4/CapSense_1_Processing.c ****             #if (CapSense_1_ALP_FILTER_EN)
 672:Generated_Source\PSoC4/CapSense_1_Processing.c ****                 CapSense_1_ConfigRunALPInternal(fltrHistV, ptrRamWdgt, curSnsPtr, widgetType);
 673:Generated_Source\PSoC4/CapSense_1_Processing.c ****             #endif
 674:Generated_Source\PSoC4/CapSense_1_Processing.c ****         }
 675:Generated_Source\PSoC4/CapSense_1_Processing.c ****     #else
 676:Generated_Source\PSoC4/CapSense_1_Processing.c ****         (void)fltrHistV; /* This parameter is unused in such configurations */
 677:Generated_Source\PSoC4/CapSense_1_Processing.c ****     #endif /* #if (CapSense_1_ENABLE == CapSense_1_RC_FILTER_EN) */
 678:Generated_Source\PSoC4/CapSense_1_Processing.c **** 
 679:Generated_Source\PSoC4/CapSense_1_Processing.c ****     if (0u != (mode & CapSense_1_PROCESS_BASELINE))
 680:Generated_Source\PSoC4/CapSense_1_Processing.c ****     {
 681:Generated_Source\PSoC4/CapSense_1_Processing.c ****         result = CapSense_1_FtUpdateBaseline(ptrRamWdgt, curSnsPtr, widgetType);
 682:Generated_Source\PSoC4/CapSense_1_Processing.c ****     }
 683:Generated_Source\PSoC4/CapSense_1_Processing.c **** 
 684:Generated_Source\PSoC4/CapSense_1_Processing.c ****     if (0u != (mode & CapSense_1_PROCESS_DIFFCOUNTS))
 685:Generated_Source\PSoC4/CapSense_1_Processing.c ****     {
 686:Generated_Source\PSoC4/CapSense_1_Processing.c ****         CapSense_1_DpUpdateDifferences(ptrRamWdgt, curSnsPtr);
 687:Generated_Source\PSoC4/CapSense_1_Processing.c ****     }
 688:Generated_Source\PSoC4/CapSense_1_Processing.c ****     return result;
 689:Generated_Source\PSoC4/CapSense_1_Processing.c **** }
 690:Generated_Source\PSoC4/CapSense_1_Processing.c **** 
 691:Generated_Source\PSoC4/CapSense_1_Processing.c **** 
 692:Generated_Source\PSoC4/CapSense_1_Processing.c **** /*******************************************************************************
 693:Generated_Source\PSoC4/CapSense_1_Processing.c **** * Function Name: CapSense_1_DpProcessCsxWidgetStatus
 694:Generated_Source\PSoC4/CapSense_1_Processing.c **** ****************************************************************************//**
 695:Generated_Source\PSoC4/CapSense_1_Processing.c **** *
 696:Generated_Source\PSoC4/CapSense_1_Processing.c **** * \brief
 697:Generated_Source\PSoC4/CapSense_1_Processing.c **** *   Updates the status of the CSX widget in the Data Structure.
 698:Generated_Source\PSoC4/CapSense_1_Processing.c **** *
 699:Generated_Source\PSoC4/CapSense_1_Processing.c **** * \details
 700:Generated_Source\PSoC4/CapSense_1_Processing.c **** *  This API determines the type of widget and runs the appropriate function
 701:Generated_Source\PSoC4/CapSense_1_Processing.c **** *  that implements the status update algorithm for this type of widget.
 702:Generated_Source\PSoC4/CapSense_1_Processing.c **** *
 703:Generated_Source\PSoC4/CapSense_1_Processing.c **** *  When the widget-specific processing completes this API updates the snsStatus
 704:Generated_Source\PSoC4/CapSense_1_Processing.c **** *  and wdgtStatus registers in the data structure. The wdgtStatus register
 705:Generated_Source\PSoC4/CapSense_1_Processing.c **** *  is a bitmask were each bit corresponds to the specific widget identified by
 706:Generated_Source\PSoC4/CapSense_1_Processing.c **** *  the widget index. When the bit is set the widget is active (touched);
 707:Generated_Source\PSoC4/CapSense_1_Processing.c **** *
 708:Generated_Source\PSoC4/CapSense_1_Processing.c **** *  Depending on the type of widget the snsStatus register may contain either
 709:Generated_Source\PSoC4/CapSense_1_Processing.c **** *  status of each widget node (active/non-active) or in case of the CSX Touchpad
 710:Generated_Source\PSoC4/CapSense_1_Processing.c **** *  is contains the number of touches. In both cases 0 means that widget is not
 711:Generated_Source\PSoC4/CapSense_1_Processing.c **** *  active.
 712:Generated_Source\PSoC4/CapSense_1_Processing.c **** *
 713:Generated_Source\PSoC4/CapSense_1_Processing.c **** * \param widgetId     The widget ID number.
 714:Generated_Source\PSoC4/CapSense_1_Processing.c **** * \param ptrFlashWdgt The pointer to the Flash Widget Object.
 715:Generated_Source\PSoC4/CapSense_1_Processing.c **** *
 716:Generated_Source\PSoC4/CapSense_1_Processing.c **** *******************************************************************************/
 717:Generated_Source\PSoC4/CapSense_1_Processing.c **** void CapSense_1_DpProcessCsxWidgetStatus(uint32 widgetId, CapSense_1_FLASH_WD_STRUCT const *ptrFlas
 718:Generated_Source\PSoC4/CapSense_1_Processing.c **** {
 719:Generated_Source\PSoC4/CapSense_1_Processing.c ****     uint32 sensorStatus;
 720:Generated_Source\PSoC4/CapSense_1_Processing.c ****     uint32 wdStatusIndex;
 721:Generated_Source\PSoC4/CapSense_1_Processing.c ****     uint32 wdStatusMask;
 722:Generated_Source\PSoC4/CapSense_1_Processing.c ****     CapSense_1_WD_TYPE_ENUM widgetType;
 723:Generated_Source\PSoC4/CapSense_1_Processing.c **** 
ARM GAS  C:\Users\MICHAE~1.MAC\AppData\Local\Temp\ccr99qdP.s 			page 16


 724:Generated_Source\PSoC4/CapSense_1_Processing.c ****     widgetType = (CapSense_1_WD_TYPE_ENUM)ptrFlashWdgt->wdgtType;
 725:Generated_Source\PSoC4/CapSense_1_Processing.c ****     sensorStatus = CapSense_1_dsRam.snsStatus[widgetId];
 726:Generated_Source\PSoC4/CapSense_1_Processing.c **** 
 727:Generated_Source\PSoC4/CapSense_1_Processing.c ****     switch (widgetType)
 728:Generated_Source\PSoC4/CapSense_1_Processing.c ****     {
 729:Generated_Source\PSoC4/CapSense_1_Processing.c ****     #if (0u != CapSense_1_BUTTON_WIDGET_EN)
 730:Generated_Source\PSoC4/CapSense_1_Processing.c ****         case CapSense_1_WD_BUTTON_E:
 731:Generated_Source\PSoC4/CapSense_1_Processing.c ****             sensorStatus = CapSense_1_DpProcessButton(sensorStatus, ptrFlashWdgt);
 732:Generated_Source\PSoC4/CapSense_1_Processing.c ****             break;
 733:Generated_Source\PSoC4/CapSense_1_Processing.c ****     #endif /* #if (0u != CapSense_1_BUTTON_WIDGET_EN) */
 734:Generated_Source\PSoC4/CapSense_1_Processing.c **** 
 735:Generated_Source\PSoC4/CapSense_1_Processing.c ****     #if (0u != CapSense_1_CSX_MATRIX_WIDGET_EN)
 736:Generated_Source\PSoC4/CapSense_1_Processing.c ****         case CapSense_1_WD_MATRIX_BUTTON_E:
 737:Generated_Source\PSoC4/CapSense_1_Processing.c ****             sensorStatus = CapSense_1_DpProcessButton(sensorStatus, ptrFlashWdgt);
 738:Generated_Source\PSoC4/CapSense_1_Processing.c ****             break;
 739:Generated_Source\PSoC4/CapSense_1_Processing.c ****     #endif /* #if (0u != CapSense_1_CSX_MATRIX_WIDGET_EN) */
 740:Generated_Source\PSoC4/CapSense_1_Processing.c **** 
 741:Generated_Source\PSoC4/CapSense_1_Processing.c ****     #if (0u != CapSense_1_CSX_TOUCHPAD_WIDGET_EN)
 742:Generated_Source\PSoC4/CapSense_1_Processing.c ****         case CapSense_1_WD_TOUCHPAD_E:
 743:Generated_Source\PSoC4/CapSense_1_Processing.c ****             sensorStatus = CapSense_1_DpProcessCsxTouchpad(sensorStatus, ptrFlashWdgt);
 744:Generated_Source\PSoC4/CapSense_1_Processing.c ****             break;
 745:Generated_Source\PSoC4/CapSense_1_Processing.c ****     #endif /* #if (0u != CapSense_1_CSX_TOUCHPAD_WIDGET_EN) */
 746:Generated_Source\PSoC4/CapSense_1_Processing.c **** 
 747:Generated_Source\PSoC4/CapSense_1_Processing.c ****     default:
 748:Generated_Source\PSoC4/CapSense_1_Processing.c ****         CYASSERT(0u);
 749:Generated_Source\PSoC4/CapSense_1_Processing.c ****         break;
 750:Generated_Source\PSoC4/CapSense_1_Processing.c ****     }
 751:Generated_Source\PSoC4/CapSense_1_Processing.c **** 
 752:Generated_Source\PSoC4/CapSense_1_Processing.c ****     /* Update sensor status in the data structure */
 753:Generated_Source\PSoC4/CapSense_1_Processing.c ****     CapSense_1_dsRam.snsStatus[widgetId] = (CapSense_1_SNS_STS_TYPE)sensorStatus;
 754:Generated_Source\PSoC4/CapSense_1_Processing.c **** 
 755:Generated_Source\PSoC4/CapSense_1_Processing.c ****     /* The next two lines calculate index and bitmask of the widget status bit in the wdgtStatus ar
 756:Generated_Source\PSoC4/CapSense_1_Processing.c ****     wdStatusIndex = CapSense_1_GET_WDGT_STATUS_INDEX(widgetId);
 757:Generated_Source\PSoC4/CapSense_1_Processing.c ****     wdStatusMask = CapSense_1_GET_WDGT_STATUS_MASK(widgetId);
 758:Generated_Source\PSoC4/CapSense_1_Processing.c **** 
 759:Generated_Source\PSoC4/CapSense_1_Processing.c ****     /* Check if there are active sensors and update widget status accordingly */
 760:Generated_Source\PSoC4/CapSense_1_Processing.c ****     if (0u == sensorStatus)
 761:Generated_Source\PSoC4/CapSense_1_Processing.c ****     {
 762:Generated_Source\PSoC4/CapSense_1_Processing.c ****         CapSense_1_dsRam.wdgtStatus[wdStatusIndex] &= ~wdStatusMask;
 763:Generated_Source\PSoC4/CapSense_1_Processing.c ****     }
 764:Generated_Source\PSoC4/CapSense_1_Processing.c ****     else
 765:Generated_Source\PSoC4/CapSense_1_Processing.c ****     {
 766:Generated_Source\PSoC4/CapSense_1_Processing.c ****         CapSense_1_dsRam.wdgtStatus[wdStatusIndex] |= wdStatusMask;
 767:Generated_Source\PSoC4/CapSense_1_Processing.c ****     }
 768:Generated_Source\PSoC4/CapSense_1_Processing.c **** }
 769:Generated_Source\PSoC4/CapSense_1_Processing.c **** #endif /* #if CapSense_1_TOTAL_CSX_WIDGETS */
 770:Generated_Source\PSoC4/CapSense_1_Processing.c **** 
 771:Generated_Source\PSoC4/CapSense_1_Processing.c **** #if (0u != CapSense_1_TOTAL_ISX_WIDGETS)
 772:Generated_Source\PSoC4/CapSense_1_Processing.c **** /*******************************************************************************
 773:Generated_Source\PSoC4/CapSense_1_Processing.c **** * Function Name: CapSense_1_DpProcessIsxWidgetRawCounts
 774:Generated_Source\PSoC4/CapSense_1_Processing.c **** ****************************************************************************//**
 775:Generated_Source\PSoC4/CapSense_1_Processing.c **** *
 776:Generated_Source\PSoC4/CapSense_1_Processing.c **** * \brief
 777:Generated_Source\PSoC4/CapSense_1_Processing.c **** *  Performs default processing of the ISX raw counts.
 778:Generated_Source\PSoC4/CapSense_1_Processing.c **** *
 779:Generated_Source\PSoC4/CapSense_1_Processing.c **** * \details
 780:Generated_Source\PSoC4/CapSense_1_Processing.c **** *  Performs default processing of the ISX raw counts:
ARM GAS  C:\Users\MICHAE~1.MAC\AppData\Local\Temp\ccr99qdP.s 			page 17


 781:Generated_Source\PSoC4/CapSense_1_Processing.c **** *   - Run Filters
 782:Generated_Source\PSoC4/CapSense_1_Processing.c **** *   - Update Baselines
 783:Generated_Source\PSoC4/CapSense_1_Processing.c **** *   - Update Differences
 784:Generated_Source\PSoC4/CapSense_1_Processing.c **** *   - Update Status.
 785:Generated_Source\PSoC4/CapSense_1_Processing.c **** *  The same process is applied to all the sensors of the specified widget.
 786:Generated_Source\PSoC4/CapSense_1_Processing.c **** *
 787:Generated_Source\PSoC4/CapSense_1_Processing.c **** * \param ptrFlashWdgt The pointer to the Flash widget structure.
 788:Generated_Source\PSoC4/CapSense_1_Processing.c **** *
 789:Generated_Source\PSoC4/CapSense_1_Processing.c **** * \return
 790:Generated_Source\PSoC4/CapSense_1_Processing.c **** *  Returns the status of the specified widget processing operation:
 791:Generated_Source\PSoC4/CapSense_1_Processing.c **** *  - CYRET_SUCCESS if operation was successfully completed;
 792:Generated_Source\PSoC4/CapSense_1_Processing.c **** *  - CapSense_1_PROCESS_BASELINE_FAILED if baseline processing of any
 793:Generated_Source\PSoC4/CapSense_1_Processing.c **** *    sensor of the specified widget failed. The result is concatenated with the index
 794:Generated_Source\PSoC4/CapSense_1_Processing.c **** *    of failed sensor.
 795:Generated_Source\PSoC4/CapSense_1_Processing.c **** *
 796:Generated_Source\PSoC4/CapSense_1_Processing.c **** *******************************************************************************/
 797:Generated_Source\PSoC4/CapSense_1_Processing.c **** uint32 CapSense_1_DpProcessIsxWidgetRawCounts(CapSense_1_FLASH_WD_STRUCT const *ptrFlashWdgt)
 798:Generated_Source\PSoC4/CapSense_1_Processing.c **** {
 799:Generated_Source\PSoC4/CapSense_1_Processing.c ****     uint32 result = CYRET_SUCCESS;
 800:Generated_Source\PSoC4/CapSense_1_Processing.c ****     uint32 widgetType;
 801:Generated_Source\PSoC4/CapSense_1_Processing.c ****     uint32 snsCount;
 802:Generated_Source\PSoC4/CapSense_1_Processing.c ****     CapSense_1_RAM_SNS_STRUCT *ptrSns;
 803:Generated_Source\PSoC4/CapSense_1_Processing.c ****     CapSense_1_RAM_WD_BASE_STRUCT *ptrRamWdgt;
 804:Generated_Source\PSoC4/CapSense_1_Processing.c **** 
 805:Generated_Source\PSoC4/CapSense_1_Processing.c ****     #if (CapSense_1_ENABLE == CapSense_1_RC_FILTER_EN)
 806:Generated_Source\PSoC4/CapSense_1_Processing.c ****         CapSense_1_PTR_FILTER_VARIANT fltrHistV;
 807:Generated_Source\PSoC4/CapSense_1_Processing.c **** 
 808:Generated_Source\PSoC4/CapSense_1_Processing.c ****         fltrHistV.ptr = ptrFlashWdgt->ptr2FltrHistory;
 809:Generated_Source\PSoC4/CapSense_1_Processing.c ****     #endif /* #if (CapSense_1_ENABLE == CapSense_1_RC_FILTER_EN) */
 810:Generated_Source\PSoC4/CapSense_1_Processing.c **** 
 811:Generated_Source\PSoC4/CapSense_1_Processing.c ****     ptrSns = ptrFlashWdgt->ptr2SnsRam;
 812:Generated_Source\PSoC4/CapSense_1_Processing.c ****     snsCount = ptrFlashWdgt->totalNumSns;
 813:Generated_Source\PSoC4/CapSense_1_Processing.c ****     ptrRamWdgt = ptrFlashWdgt->ptr2WdgtRam;
 814:Generated_Source\PSoC4/CapSense_1_Processing.c ****     widgetType = ptrFlashWdgt->wdgtType;
 815:Generated_Source\PSoC4/CapSense_1_Processing.c **** 
 816:Generated_Source\PSoC4/CapSense_1_Processing.c ****     #if (0u != CapSense_1_ISX_SKIP_OVSMPL_SPECIFIC_NODES)
 817:Generated_Source\PSoC4/CapSense_1_Processing.c ****         if (0u != ptrSns->resolution)
 818:Generated_Source\PSoC4/CapSense_1_Processing.c ****     #endif
 819:Generated_Source\PSoC4/CapSense_1_Processing.c ****     {
 820:Generated_Source\PSoC4/CapSense_1_Processing.c ****         for(;snsCount-- > 0u;)
 821:Generated_Source\PSoC4/CapSense_1_Processing.c ****         {
 822:Generated_Source\PSoC4/CapSense_1_Processing.c ****             #if (CapSense_1_ENABLE == CapSense_1_RC_FILTER_EN)
 823:Generated_Source\PSoC4/CapSense_1_Processing.c ****                 CapSense_1_FtRunEnabledFiltersInternal(fltrHistV, ptrSns, widgetType);
 824:Generated_Source\PSoC4/CapSense_1_Processing.c ****             #endif /* #if (CapSense_1_ENABLE == CapSense_1_RC_FILTER_EN) */
 825:Generated_Source\PSoC4/CapSense_1_Processing.c **** 
 826:Generated_Source\PSoC4/CapSense_1_Processing.c ****             result = CapSense_1_FtUpdateBaseline(ptrRamWdgt, ptrSns, widgetType);
 827:Generated_Source\PSoC4/CapSense_1_Processing.c **** 
 828:Generated_Source\PSoC4/CapSense_1_Processing.c ****             #if (CapSense_1_ENABLE == CapSense_1_TST_BSLN_DUPLICATION_EN)
 829:Generated_Source\PSoC4/CapSense_1_Processing.c ****                 if (CYRET_SUCCESS != result)
 830:Generated_Source\PSoC4/CapSense_1_Processing.c ****                 {
 831:Generated_Source\PSoC4/CapSense_1_Processing.c ****                     result = CapSense_1_PROCESS_BASELINE_FAILED;
 832:Generated_Source\PSoC4/CapSense_1_Processing.c ****                 }
 833:Generated_Source\PSoC4/CapSense_1_Processing.c ****             #endif /* (CapSense_1_ENABLE == CapSense_1_TST_BSLN_DUPLICATION_EN) */
 834:Generated_Source\PSoC4/CapSense_1_Processing.c **** 
 835:Generated_Source\PSoC4/CapSense_1_Processing.c ****             CapSense_1_DpUpdateDifferences(ptrRamWdgt, ptrSns);
 836:Generated_Source\PSoC4/CapSense_1_Processing.c ****             ptrSns++;
 837:Generated_Source\PSoC4/CapSense_1_Processing.c ****         }
ARM GAS  C:\Users\MICHAE~1.MAC\AppData\Local\Temp\ccr99qdP.s 			page 18


 838:Generated_Source\PSoC4/CapSense_1_Processing.c ****     }
 839:Generated_Source\PSoC4/CapSense_1_Processing.c **** 
 840:Generated_Source\PSoC4/CapSense_1_Processing.c ****     #if (CapSense_1_ENABLE == CapSense_1_RC_FILTER_EN)
 841:Generated_Source\PSoC4/CapSense_1_Processing.c ****         CapSense_1_INC_FLTR_OBJ_VARIANT(0u, fltrHistV);
 842:Generated_Source\PSoC4/CapSense_1_Processing.c ****     #endif /* #if (CapSense_1_ENABLE == CapSense_1_RC_FILTER_EN) */
 843:Generated_Source\PSoC4/CapSense_1_Processing.c **** 
 844:Generated_Source\PSoC4/CapSense_1_Processing.c ****     return result;
 845:Generated_Source\PSoC4/CapSense_1_Processing.c **** }
 846:Generated_Source\PSoC4/CapSense_1_Processing.c **** 
 847:Generated_Source\PSoC4/CapSense_1_Processing.c **** /*******************************************************************************
 848:Generated_Source\PSoC4/CapSense_1_Processing.c **** * Function Name: CapSense_1_DpProcessIsxSensorRawCountsExt
 849:Generated_Source\PSoC4/CapSense_1_Processing.c **** ****************************************************************************//**
 850:Generated_Source\PSoC4/CapSense_1_Processing.c **** *
 851:Generated_Source\PSoC4/CapSense_1_Processing.c **** * \brief
 852:Generated_Source\PSoC4/CapSense_1_Processing.c **** *   Performs customized processing of the ISX sensor raw counts.
 853:Generated_Source\PSoC4/CapSense_1_Processing.c **** *
 854:Generated_Source\PSoC4/CapSense_1_Processing.c **** * \details
 855:Generated_Source\PSoC4/CapSense_1_Processing.c **** *   Performs customized processing of the ISX sensor raw counts.
 856:Generated_Source\PSoC4/CapSense_1_Processing.c **** *
 857:Generated_Source\PSoC4/CapSense_1_Processing.c **** *   If all bits are set at once the default processing order will take place.
 858:Generated_Source\PSoC4/CapSense_1_Processing.c **** *   For the custom order this API can be called multiple times and execute one task at a time.
 859:Generated_Source\PSoC4/CapSense_1_Processing.c **** *
 860:Generated_Source\PSoC4/CapSense_1_Processing.c **** * \param ptrFlashWdgt The pointer to the Flash Widget Object.
 861:Generated_Source\PSoC4/CapSense_1_Processing.c **** * \param ptrSns       The pointer to the specific RAM Sensor Object.
 862:Generated_Source\PSoC4/CapSense_1_Processing.c **** * \param fltrHistV    The pointer to the Filter History Object in RAM associated with specific sens
 863:Generated_Source\PSoC4/CapSense_1_Processing.c **** * \param mode         The bit-mask with the data processing tasks to be executed.
 864:Generated_Source\PSoC4/CapSense_1_Processing.c **** *   The mode parameters can take the following values:
 865:Generated_Source\PSoC4/CapSense_1_Processing.c **** *    - CapSense_1_PROCESS_FILTER     (0x01) Run Firmware Filter
 866:Generated_Source\PSoC4/CapSense_1_Processing.c **** *    - CapSense_1_PROCESS_BASELINE   (0x02) Update Baselines
 867:Generated_Source\PSoC4/CapSense_1_Processing.c **** *    - CapSense_1_PROCESS_DIFFCOUNTS (0x04) Update Difference Counts
 868:Generated_Source\PSoC4/CapSense_1_Processing.c **** *    - CapSense_1_PROCESS_ALL               Execute all tasks
 869:Generated_Source\PSoC4/CapSense_1_Processing.c **** *
 870:Generated_Source\PSoC4/CapSense_1_Processing.c **** * \return
 871:Generated_Source\PSoC4/CapSense_1_Processing.c **** *  Returns the status of the specified sensor processing operation:
 872:Generated_Source\PSoC4/CapSense_1_Processing.c **** *  - CYRET_SUCCESS if operation was successfully completed;
 873:Generated_Source\PSoC4/CapSense_1_Processing.c **** *  - CapSense_1_PROCESS_BASELINE_FAILED if baseline processing of any
 874:Generated_Source\PSoC4/CapSense_1_Processing.c **** *    sensor of the specified widget failed. The result is concatenated with the index
 875:Generated_Source\PSoC4/CapSense_1_Processing.c **** *    of failed sensor.
 876:Generated_Source\PSoC4/CapSense_1_Processing.c **** *
 877:Generated_Source\PSoC4/CapSense_1_Processing.c **** *******************************************************************************/
 878:Generated_Source\PSoC4/CapSense_1_Processing.c **** uint32 CapSense_1_DpProcessIsxSensorRawCountsExt(
 879:Generated_Source\PSoC4/CapSense_1_Processing.c ****                 CapSense_1_FLASH_WD_STRUCT const *ptrFlashWdgt,
 880:Generated_Source\PSoC4/CapSense_1_Processing.c ****                 CapSense_1_RAM_SNS_STRUCT *ptrSns,
 881:Generated_Source\PSoC4/CapSense_1_Processing.c ****                 CapSense_1_PTR_FILTER_VARIANT fltrHistV,
 882:Generated_Source\PSoC4/CapSense_1_Processing.c ****                 uint32 mode)
 883:Generated_Source\PSoC4/CapSense_1_Processing.c **** {
 884:Generated_Source\PSoC4/CapSense_1_Processing.c ****     uint32  result = CYRET_SUCCESS;
 885:Generated_Source\PSoC4/CapSense_1_Processing.c ****     uint32  widgetType;
 886:Generated_Source\PSoC4/CapSense_1_Processing.c ****     CapSense_1_RAM_WD_BASE_STRUCT *ptrRamWdgt;
 887:Generated_Source\PSoC4/CapSense_1_Processing.c **** 
 888:Generated_Source\PSoC4/CapSense_1_Processing.c ****     widgetType = ptrFlashWdgt->wdgtType;
 889:Generated_Source\PSoC4/CapSense_1_Processing.c ****     ptrRamWdgt = ptrFlashWdgt->ptr2WdgtRam;
 890:Generated_Source\PSoC4/CapSense_1_Processing.c **** 
 891:Generated_Source\PSoC4/CapSense_1_Processing.c ****     #if (CapSense_1_ENABLE == CapSense_1_RC_FILTER_EN)
 892:Generated_Source\PSoC4/CapSense_1_Processing.c ****         if (0u != (mode & CapSense_1_PROCESS_FILTER))
 893:Generated_Source\PSoC4/CapSense_1_Processing.c ****         {
 894:Generated_Source\PSoC4/CapSense_1_Processing.c ****             CapSense_1_FtRunEnabledFiltersInternal(fltrHistV, ptrSns, widgetType);
ARM GAS  C:\Users\MICHAE~1.MAC\AppData\Local\Temp\ccr99qdP.s 			page 19


 895:Generated_Source\PSoC4/CapSense_1_Processing.c ****         }
 896:Generated_Source\PSoC4/CapSense_1_Processing.c ****     #else
 897:Generated_Source\PSoC4/CapSense_1_Processing.c ****         (void)fltrHistV; /* This parameter is unused in such configurations */
 898:Generated_Source\PSoC4/CapSense_1_Processing.c ****     #endif /* #if (CapSense_1_ENABLE == CapSense_1_RC_FILTER_EN) */
 899:Generated_Source\PSoC4/CapSense_1_Processing.c **** 
 900:Generated_Source\PSoC4/CapSense_1_Processing.c ****     if (0u != (mode & CapSense_1_PROCESS_BASELINE))
 901:Generated_Source\PSoC4/CapSense_1_Processing.c ****     {
 902:Generated_Source\PSoC4/CapSense_1_Processing.c ****         result = CapSense_1_FtUpdateBaseline(ptrRamWdgt, ptrSns, widgetType);
 903:Generated_Source\PSoC4/CapSense_1_Processing.c ****     }
 904:Generated_Source\PSoC4/CapSense_1_Processing.c **** 
 905:Generated_Source\PSoC4/CapSense_1_Processing.c ****     if (0u != (mode & CapSense_1_PROCESS_DIFFCOUNTS))
 906:Generated_Source\PSoC4/CapSense_1_Processing.c ****     {
 907:Generated_Source\PSoC4/CapSense_1_Processing.c ****         CapSense_1_DpUpdateDifferences(ptrRamWdgt, ptrSns);
 908:Generated_Source\PSoC4/CapSense_1_Processing.c ****     }
 909:Generated_Source\PSoC4/CapSense_1_Processing.c ****     return result;
 910:Generated_Source\PSoC4/CapSense_1_Processing.c **** }
 911:Generated_Source\PSoC4/CapSense_1_Processing.c **** 
 912:Generated_Source\PSoC4/CapSense_1_Processing.c **** 
 913:Generated_Source\PSoC4/CapSense_1_Processing.c **** /*******************************************************************************
 914:Generated_Source\PSoC4/CapSense_1_Processing.c **** * Function Name: CapSense_1_DpProcessIsxWidgetStatus
 915:Generated_Source\PSoC4/CapSense_1_Processing.c **** ****************************************************************************//**
 916:Generated_Source\PSoC4/CapSense_1_Processing.c **** *
 917:Generated_Source\PSoC4/CapSense_1_Processing.c **** * \brief
 918:Generated_Source\PSoC4/CapSense_1_Processing.c **** *   Updates the status of the ISX widget in the Data Structure.
 919:Generated_Source\PSoC4/CapSense_1_Processing.c **** *
 920:Generated_Source\PSoC4/CapSense_1_Processing.c **** * \details
 921:Generated_Source\PSoC4/CapSense_1_Processing.c **** *  This API determines the type of widget and runs the appropriate function
 922:Generated_Source\PSoC4/CapSense_1_Processing.c **** *  that implements the status update algorithm for this type of widget.
 923:Generated_Source\PSoC4/CapSense_1_Processing.c **** *
 924:Generated_Source\PSoC4/CapSense_1_Processing.c **** *  When the widget-specific processing completes this API updates the snsStatus
 925:Generated_Source\PSoC4/CapSense_1_Processing.c **** *  and wdgtStatus registers in the data structure. The wdgtStatus register
 926:Generated_Source\PSoC4/CapSense_1_Processing.c **** *  is a bitmask were each bit corresponds to the specific widget identified by
 927:Generated_Source\PSoC4/CapSense_1_Processing.c **** *  the widget index. When the bit is set the widget is active (touched);
 928:Generated_Source\PSoC4/CapSense_1_Processing.c **** *
 929:Generated_Source\PSoC4/CapSense_1_Processing.c **** *  Depending on the type of widget the snsStatus register may contain either
 930:Generated_Source\PSoC4/CapSense_1_Processing.c **** *  status of each widget node (active/non-active) or in case of the ISX Touchpad
 931:Generated_Source\PSoC4/CapSense_1_Processing.c **** *  is contains the number of touches. In both cases 0 means that widget is not
 932:Generated_Source\PSoC4/CapSense_1_Processing.c **** *  active.
 933:Generated_Source\PSoC4/CapSense_1_Processing.c **** *
 934:Generated_Source\PSoC4/CapSense_1_Processing.c **** * \param wdgtId       The widget index number.
 935:Generated_Source\PSoC4/CapSense_1_Processing.c **** * \param ptrFlashWdgt The pointer to the Flash Widget Object.
 936:Generated_Source\PSoC4/CapSense_1_Processing.c **** *
 937:Generated_Source\PSoC4/CapSense_1_Processing.c **** *******************************************************************************/
 938:Generated_Source\PSoC4/CapSense_1_Processing.c **** void CapSense_1_DpProcessIsxWidgetStatus(uint32 wdgtId, CapSense_1_FLASH_WD_STRUCT const *ptrFlashW
 939:Generated_Source\PSoC4/CapSense_1_Processing.c **** {
 940:Generated_Source\PSoC4/CapSense_1_Processing.c ****     uint32 sensorStatus;
 941:Generated_Source\PSoC4/CapSense_1_Processing.c ****     uint32 wdStatusIndex;
 942:Generated_Source\PSoC4/CapSense_1_Processing.c ****     uint32 wdStatusMask;
 943:Generated_Source\PSoC4/CapSense_1_Processing.c ****     CapSense_1_WD_TYPE_ENUM widgetType;
 944:Generated_Source\PSoC4/CapSense_1_Processing.c **** 
 945:Generated_Source\PSoC4/CapSense_1_Processing.c ****     widgetType = (CapSense_1_WD_TYPE_ENUM)ptrFlashWdgt->wdgtType;
 946:Generated_Source\PSoC4/CapSense_1_Processing.c ****     sensorStatus = CapSense_1_dsRam.snsStatus[wdgtId];
 947:Generated_Source\PSoC4/CapSense_1_Processing.c **** 
 948:Generated_Source\PSoC4/CapSense_1_Processing.c ****     switch (widgetType)
 949:Generated_Source\PSoC4/CapSense_1_Processing.c ****     {
 950:Generated_Source\PSoC4/CapSense_1_Processing.c ****     #if (0u != CapSense_1_PROXIMITY_WIDGET_EN)
 951:Generated_Source\PSoC4/CapSense_1_Processing.c ****         case CapSense_1_WD_PROXIMITY_E:
ARM GAS  C:\Users\MICHAE~1.MAC\AppData\Local\Temp\ccr99qdP.s 			page 20


 952:Generated_Source\PSoC4/CapSense_1_Processing.c ****             sensorStatus = CapSense_1_DpProcessProximity(sensorStatus, ptrFlashWdgt);
 953:Generated_Source\PSoC4/CapSense_1_Processing.c ****             break;
 954:Generated_Source\PSoC4/CapSense_1_Processing.c ****     #endif /* #if (0u != CapSense_1_Proximity_WIDGET_EN) */
 955:Generated_Source\PSoC4/CapSense_1_Processing.c ****     #if (0u != CapSense_1_ENCODERDIAL_WIDGET_EN)
 956:Generated_Source\PSoC4/CapSense_1_Processing.c ****         case CapSense_1_WD_ENCODERDIAL_E:
 957:Generated_Source\PSoC4/CapSense_1_Processing.c ****             sensorStatus = CapSense_1_DpProcessEncoderDial(sensorStatus, ptrFlashWdgt);
 958:Generated_Source\PSoC4/CapSense_1_Processing.c ****             break;
 959:Generated_Source\PSoC4/CapSense_1_Processing.c ****     #endif /* #if (0u != CapSense_1_Proximity_WIDGET_EN) */
 960:Generated_Source\PSoC4/CapSense_1_Processing.c ****     #if (0u != CapSense_1_BUTTON_WIDGET_EN)
 961:Generated_Source\PSoC4/CapSense_1_Processing.c ****         case CapSense_1_WD_BUTTON_E:
 962:Generated_Source\PSoC4/CapSense_1_Processing.c ****             sensorStatus = CapSense_1_DpProcessButton(sensorStatus, ptrFlashWdgt);
 963:Generated_Source\PSoC4/CapSense_1_Processing.c ****             break;
 964:Generated_Source\PSoC4/CapSense_1_Processing.c ****     #endif /* #if (0u != CapSense_1_Proximity_WIDGET_EN) */
 965:Generated_Source\PSoC4/CapSense_1_Processing.c **** 
 966:Generated_Source\PSoC4/CapSense_1_Processing.c ****     default:
 967:Generated_Source\PSoC4/CapSense_1_Processing.c ****         CYASSERT(0u);
 968:Generated_Source\PSoC4/CapSense_1_Processing.c ****         break;
 969:Generated_Source\PSoC4/CapSense_1_Processing.c ****     }
 970:Generated_Source\PSoC4/CapSense_1_Processing.c **** 
 971:Generated_Source\PSoC4/CapSense_1_Processing.c ****     /* Update sensor status in the data structure */
 972:Generated_Source\PSoC4/CapSense_1_Processing.c ****     CapSense_1_dsRam.snsStatus[wdgtId] = (CapSense_1_SNS_STS_TYPE)sensorStatus;
 973:Generated_Source\PSoC4/CapSense_1_Processing.c **** 
 974:Generated_Source\PSoC4/CapSense_1_Processing.c ****     /* The next two lines calculate index and bitmask of the widget status bit in the wdgtStatus ar
 975:Generated_Source\PSoC4/CapSense_1_Processing.c ****     wdStatusIndex = CapSense_1_GET_WDGT_STATUS_INDEX(wdgtId);
 976:Generated_Source\PSoC4/CapSense_1_Processing.c ****     wdStatusMask = CapSense_1_GET_WDGT_STATUS_MASK(wdgtId);
 977:Generated_Source\PSoC4/CapSense_1_Processing.c **** 
 978:Generated_Source\PSoC4/CapSense_1_Processing.c ****     /* Check if there are active sensors and update widget status accordingly */
 979:Generated_Source\PSoC4/CapSense_1_Processing.c ****     if (0u == sensorStatus)
 980:Generated_Source\PSoC4/CapSense_1_Processing.c ****     {
 981:Generated_Source\PSoC4/CapSense_1_Processing.c ****         CapSense_1_dsRam.wdgtStatus[wdStatusIndex] &= ~wdStatusMask;
 982:Generated_Source\PSoC4/CapSense_1_Processing.c ****     }
 983:Generated_Source\PSoC4/CapSense_1_Processing.c ****     else
 984:Generated_Source\PSoC4/CapSense_1_Processing.c ****     {
 985:Generated_Source\PSoC4/CapSense_1_Processing.c ****         CapSense_1_dsRam.wdgtStatus[wdStatusIndex] |= wdStatusMask;
 986:Generated_Source\PSoC4/CapSense_1_Processing.c ****     }
 987:Generated_Source\PSoC4/CapSense_1_Processing.c **** }
 988:Generated_Source\PSoC4/CapSense_1_Processing.c **** #endif /* #if CapSense_1_TOTAL_ISX_WIDGETS */
 989:Generated_Source\PSoC4/CapSense_1_Processing.c **** 
 990:Generated_Source\PSoC4/CapSense_1_Processing.c **** #if (0u != CapSense_1_TOTAL_CSD_WIDGETS)
 991:Generated_Source\PSoC4/CapSense_1_Processing.c **** /*******************************************************************************
 992:Generated_Source\PSoC4/CapSense_1_Processing.c **** * Function Name: CapSense_1_DpProcessCsdWidgetRawCounts
 993:Generated_Source\PSoC4/CapSense_1_Processing.c **** ****************************************************************************//**
 994:Generated_Source\PSoC4/CapSense_1_Processing.c **** *
 995:Generated_Source\PSoC4/CapSense_1_Processing.c **** * \brief
 996:Generated_Source\PSoC4/CapSense_1_Processing.c **** *   Performs default processing for the CSD widget raw counts.
 997:Generated_Source\PSoC4/CapSense_1_Processing.c **** *
 998:Generated_Source\PSoC4/CapSense_1_Processing.c **** * \details
 999:Generated_Source\PSoC4/CapSense_1_Processing.c **** *   Performs default processing for the CSD widget raw counts:
1000:Generated_Source\PSoC4/CapSense_1_Processing.c **** *    - Run Filters
1001:Generated_Source\PSoC4/CapSense_1_Processing.c **** *    - Update Thresholds (FW Auto-tuning)
1002:Generated_Source\PSoC4/CapSense_1_Processing.c **** *    - Update Baselines
1003:Generated_Source\PSoC4/CapSense_1_Processing.c **** *    - Update Differences.
1004:Generated_Source\PSoC4/CapSense_1_Processing.c **** *   The process is applied to all widget's sensors.
1005:Generated_Source\PSoC4/CapSense_1_Processing.c **** *
1006:Generated_Source\PSoC4/CapSense_1_Processing.c **** * \param ptrFlashWdgt The pointer to the Flash Widget Object.
1007:Generated_Source\PSoC4/CapSense_1_Processing.c **** *
1008:Generated_Source\PSoC4/CapSense_1_Processing.c **** * \return
ARM GAS  C:\Users\MICHAE~1.MAC\AppData\Local\Temp\ccr99qdP.s 			page 21


1009:Generated_Source\PSoC4/CapSense_1_Processing.c **** *  Returns the status of the specified widget processing operation:
1010:Generated_Source\PSoC4/CapSense_1_Processing.c **** *  - CYRET_SUCCESS if operation was successfully completed;
1011:Generated_Source\PSoC4/CapSense_1_Processing.c **** *  - CapSense_1_PROCESS_BASELINE_FAILED if baseline processing of any
1012:Generated_Source\PSoC4/CapSense_1_Processing.c **** *    sensor of the specified widget failed. The result is concatenated with the index
1013:Generated_Source\PSoC4/CapSense_1_Processing.c **** *    of failed sensor.
1014:Generated_Source\PSoC4/CapSense_1_Processing.c **** *
1015:Generated_Source\PSoC4/CapSense_1_Processing.c **** *******************************************************************************/
1016:Generated_Source\PSoC4/CapSense_1_Processing.c **** uint32 CapSense_1_DpProcessCsdWidgetRawCounts(CapSense_1_FLASH_WD_STRUCT const *ptrFlashWdgt)
1017:Generated_Source\PSoC4/CapSense_1_Processing.c **** {
1018:Generated_Source\PSoC4/CapSense_1_Processing.c ****     uint32  result = CYRET_SUCCESS;
1019:Generated_Source\PSoC4/CapSense_1_Processing.c **** 
1020:Generated_Source\PSoC4/CapSense_1_Processing.c ****     #if (CapSense_1_ENABLE == CapSense_1_TST_BSLN_DUPLICATION_EN)
1021:Generated_Source\PSoC4/CapSense_1_Processing.c ****         uint32 bslnTstResult = CYRET_SUCCESS;
1022:Generated_Source\PSoC4/CapSense_1_Processing.c ****     #endif /* (CapSense_1_ENABLE == CapSense_1_TST_BSLN_DUPLICATION_EN) */
1023:Generated_Source\PSoC4/CapSense_1_Processing.c **** 
1024:Generated_Source\PSoC4/CapSense_1_Processing.c ****     uint32  widgetType;
1025:Generated_Source\PSoC4/CapSense_1_Processing.c ****     uint32  snsId;
1026:Generated_Source\PSoC4/CapSense_1_Processing.c ****     CapSense_1_RAM_SNS_STRUCT *ptrSnsTmp;
1027:Generated_Source\PSoC4/CapSense_1_Processing.c ****     CapSense_1_RAM_WD_BASE_STRUCT *ptrRamWdgt;
1028:Generated_Source\PSoC4/CapSense_1_Processing.c **** 
1029:Generated_Source\PSoC4/CapSense_1_Processing.c ****     #if (0u != (CapSense_1_CSD_AUTOTUNE & CapSense_1_CSD_SS_TH_EN))
1030:Generated_Source\PSoC4/CapSense_1_Processing.c ****         /* The noise envelope data is available only when Full CSD Auto-Tuning is enabled */
1031:Generated_Source\PSoC4/CapSense_1_Processing.c ****         SMARTSENSE_CSD_NOISE_ENVELOPE_STRUCT *ptrNoiseEnvelope;
1032:Generated_Source\PSoC4/CapSense_1_Processing.c ****         #if (CapSense_1_ENABLE == CapSense_1_PROXIMITY_WIDGET_EN)
1033:Generated_Source\PSoC4/CapSense_1_Processing.c ****             uint32  proximityThreshold;
1034:Generated_Source\PSoC4/CapSense_1_Processing.c ****         #endif /* (0 != CapSense_1_PROXIMITY_WIDGET_EN) */
1035:Generated_Source\PSoC4/CapSense_1_Processing.c ****     #endif /* #if (0u != (CapSense_1_CSD_AUTOTUNE & CapSense_1_CSD_SS_TH_EN)) */
1036:Generated_Source\PSoC4/CapSense_1_Processing.c **** 
1037:Generated_Source\PSoC4/CapSense_1_Processing.c ****     #if (CapSense_1_ENABLE == CapSense_1_RC_FILTER_EN)
1038:Generated_Source\PSoC4/CapSense_1_Processing.c ****         CapSense_1_PTR_FILTER_VARIANT fltrHistV;
1039:Generated_Source\PSoC4/CapSense_1_Processing.c **** 
1040:Generated_Source\PSoC4/CapSense_1_Processing.c ****         /* Determine if widget type is proximity */
1041:Generated_Source\PSoC4/CapSense_1_Processing.c ****         uint32 isProxWdgt = (CapSense_1_GET_WIDGET_TYPE(ptrFlashWdgt) == CapSense_1_WD_PROXIMITY_E)
1042:Generated_Source\PSoC4/CapSense_1_Processing.c **** 
1043:Generated_Source\PSoC4/CapSense_1_Processing.c ****         /* Get pointer to the filter history object */
1044:Generated_Source\PSoC4/CapSense_1_Processing.c ****         fltrHistV.ptr = ptrFlashWdgt->ptr2FltrHistory;
1045:Generated_Source\PSoC4/CapSense_1_Processing.c ****     #endif /* #if (CapSense_1_ENABLE == CapSense_1_RC_FILTER_EN) */
1046:Generated_Source\PSoC4/CapSense_1_Processing.c **** 
1047:Generated_Source\PSoC4/CapSense_1_Processing.c ****     ptrSnsTmp = ptrFlashWdgt->ptr2SnsRam;
1048:Generated_Source\PSoC4/CapSense_1_Processing.c ****     ptrRamWdgt = (CapSense_1_RAM_WD_BASE_STRUCT *)ptrFlashWdgt->ptr2WdgtRam;
1049:Generated_Source\PSoC4/CapSense_1_Processing.c ****     widgetType = ptrFlashWdgt->wdgtType;
1050:Generated_Source\PSoC4/CapSense_1_Processing.c **** 
1051:Generated_Source\PSoC4/CapSense_1_Processing.c ****     #if (0u != (CapSense_1_CSD_AUTOTUNE & CapSense_1_CSD_SS_TH_EN))
1052:Generated_Source\PSoC4/CapSense_1_Processing.c ****         ptrNoiseEnvelope = ptrFlashWdgt->ptr2NoiseEnvlp;
1053:Generated_Source\PSoC4/CapSense_1_Processing.c ****     #endif /* #if (0u != (CapSense_1_CSD_AUTOTUNE & CapSense_1_CSD_SS_TH_EN)) */
1054:Generated_Source\PSoC4/CapSense_1_Processing.c **** 
1055:Generated_Source\PSoC4/CapSense_1_Processing.c ****     /* Iterate through all widget's sensors */
1056:Generated_Source\PSoC4/CapSense_1_Processing.c ****     for(snsId = 0u; snsId < ptrFlashWdgt->totalNumSns; snsId++)
1057:Generated_Source\PSoC4/CapSense_1_Processing.c ****     {
1058:Generated_Source\PSoC4/CapSense_1_Processing.c ****         /* Run all enabled filter on specified widget's sensor */
1059:Generated_Source\PSoC4/CapSense_1_Processing.c ****         #if (CapSense_1_ENABLE == CapSense_1_RC_FILTER_EN)
1060:Generated_Source\PSoC4/CapSense_1_Processing.c ****             CapSense_1_FtRunEnabledFiltersInternal(fltrHistV, ptrSnsTmp, widgetType);
1061:Generated_Source\PSoC4/CapSense_1_Processing.c ****             #if (CapSense_1_ALP_FILTER_EN)
1062:Generated_Source\PSoC4/CapSense_1_Processing.c ****                 CapSense_1_ConfigRunALPInternal(fltrHistV, ptrRamWdgt, ptrSnsTmp, widgetType);
1063:Generated_Source\PSoC4/CapSense_1_Processing.c ****             #endif
1064:Generated_Source\PSoC4/CapSense_1_Processing.c ****         #endif /* #if (CapSense_1_ENABLE == CapSense_1_RC_FILTER_EN) */
1065:Generated_Source\PSoC4/CapSense_1_Processing.c **** 
ARM GAS  C:\Users\MICHAE~1.MAC\AppData\Local\Temp\ccr99qdP.s 			page 22


1066:Generated_Source\PSoC4/CapSense_1_Processing.c ****         /* Run auto-tuning activities */
1067:Generated_Source\PSoC4/CapSense_1_Processing.c ****         #if (0u != (CapSense_1_CSD_AUTOTUNE & CapSense_1_CSD_SS_TH_EN))
1068:Generated_Source\PSoC4/CapSense_1_Processing.c ****             SmartSense_RunNoiseEnvelope(ptrSnsTmp->raw[0u], ptrRamWdgt->sigPFC, ptrNoiseEnvelope);
1069:Generated_Source\PSoC4/CapSense_1_Processing.c ****             CapSense_1_DpUpdateThresholds(ptrRamWdgt, ptrNoiseEnvelope, snsId);
1070:Generated_Source\PSoC4/CapSense_1_Processing.c **** 
1071:Generated_Source\PSoC4/CapSense_1_Processing.c ****             /* Calculate Proximity Touch Threshold in SmartSense mode based on Finger Threshold and
1072:Generated_Source\PSoC4/CapSense_1_Processing.c ****             #if (CapSense_1_ENABLE == CapSense_1_PROXIMITY_WIDGET_EN)
1073:Generated_Source\PSoC4/CapSense_1_Processing.c ****                 if (CapSense_1_WD_PROXIMITY_E == CapSense_1_GET_WIDGET_TYPE(ptrFlashWdgt))
1074:Generated_Source\PSoC4/CapSense_1_Processing.c ****                 {
1075:Generated_Source\PSoC4/CapSense_1_Processing.c ****                     proximityThreshold = ((uint32)ptrRamWdgt->fingerTh * CapSense_1_PROX_TOUCH_COEF
1076:Generated_Source\PSoC4/CapSense_1_Processing.c ****                     if ((((1Lu) << CapSense_1_THRESHOLD_SIZE) - 1u) < proximityThreshold)
1077:Generated_Source\PSoC4/CapSense_1_Processing.c ****                     {
1078:Generated_Source\PSoC4/CapSense_1_Processing.c ****                         proximityThreshold = ((1Lu) << CapSense_1_THRESHOLD_SIZE) - 1u;
1079:Generated_Source\PSoC4/CapSense_1_Processing.c ****                     }
1080:Generated_Source\PSoC4/CapSense_1_Processing.c ****                     ((CapSense_1_RAM_WD_PROXIMITY_STRUCT *)ptrFlashWdgt->ptr2WdgtRam)->proxTouchTh 
1081:Generated_Source\PSoC4/CapSense_1_Processing.c ****                         (CapSense_1_THRESHOLD_TYPE)proximityThreshold;
1082:Generated_Source\PSoC4/CapSense_1_Processing.c ****                 }
1083:Generated_Source\PSoC4/CapSense_1_Processing.c ****             #endif /* (0 != CapSense_1_PROXIMITY_WIDGET_EN) */
1084:Generated_Source\PSoC4/CapSense_1_Processing.c **** 
1085:Generated_Source\PSoC4/CapSense_1_Processing.c ****             /* Move to next noise-envelope object */
1086:Generated_Source\PSoC4/CapSense_1_Processing.c ****             ptrNoiseEnvelope++;
1087:Generated_Source\PSoC4/CapSense_1_Processing.c ****         #endif /* (0u != (CapSense_1_CSD_AUTOTUNE & CapSense_1_CSD_SS_TH_EN)) */
1088:Generated_Source\PSoC4/CapSense_1_Processing.c **** 
1089:Generated_Source\PSoC4/CapSense_1_Processing.c ****         #if (CapSense_1_ENABLE == CapSense_1_TST_BSLN_DUPLICATION_EN)
1090:Generated_Source\PSoC4/CapSense_1_Processing.c ****             bslnTstResult = CapSense_1_FtUpdateBaseline(ptrRamWdgt, ptrSnsTmp, widgetType);
1091:Generated_Source\PSoC4/CapSense_1_Processing.c ****             if ((CYRET_SUCCESS != bslnTstResult) && (CYRET_SUCCESS == result))
1092:Generated_Source\PSoC4/CapSense_1_Processing.c ****             {
1093:Generated_Source\PSoC4/CapSense_1_Processing.c ****                 result = snsId | CapSense_1_PROCESS_BASELINE_FAILED;
1094:Generated_Source\PSoC4/CapSense_1_Processing.c ****             }
1095:Generated_Source\PSoC4/CapSense_1_Processing.c ****         #else /* (CapSense_1_ENABLE == CapSense_1_TST_BSLN_DUPLICATION_EN) */
1096:Generated_Source\PSoC4/CapSense_1_Processing.c ****             result = CapSense_1_FtUpdateBaseline(ptrRamWdgt, ptrSnsTmp, widgetType);
1097:Generated_Source\PSoC4/CapSense_1_Processing.c ****         #endif /* (CapSense_1_ENABLE == CapSense_1_TST_BSLN_DUPLICATION_EN) */
1098:Generated_Source\PSoC4/CapSense_1_Processing.c **** 
1099:Generated_Source\PSoC4/CapSense_1_Processing.c ****         CapSense_1_DpUpdateDifferences(ptrRamWdgt, ptrSnsTmp);
1100:Generated_Source\PSoC4/CapSense_1_Processing.c **** 
1101:Generated_Source\PSoC4/CapSense_1_Processing.c ****         /* Move to next sensor object */
1102:Generated_Source\PSoC4/CapSense_1_Processing.c ****         ptrSnsTmp++;
1103:Generated_Source\PSoC4/CapSense_1_Processing.c **** 
1104:Generated_Source\PSoC4/CapSense_1_Processing.c ****         #if (CapSense_1_ENABLE == CapSense_1_RC_FILTER_EN)
1105:Generated_Source\PSoC4/CapSense_1_Processing.c ****             /* Move to the next filter history object */
1106:Generated_Source\PSoC4/CapSense_1_Processing.c ****             CapSense_1_INC_FLTR_OBJ_VARIANT(isProxWdgt, fltrHistV);
1107:Generated_Source\PSoC4/CapSense_1_Processing.c ****         #endif /* #if (CapSense_1_ENABLE == CapSense_1_RC_FILTER_EN) */
1108:Generated_Source\PSoC4/CapSense_1_Processing.c ****     }
1109:Generated_Source\PSoC4/CapSense_1_Processing.c ****     return result;
1110:Generated_Source\PSoC4/CapSense_1_Processing.c **** }
1111:Generated_Source\PSoC4/CapSense_1_Processing.c **** 
1112:Generated_Source\PSoC4/CapSense_1_Processing.c **** 
1113:Generated_Source\PSoC4/CapSense_1_Processing.c **** /*******************************************************************************
1114:Generated_Source\PSoC4/CapSense_1_Processing.c **** * Function Name: CapSense_1_DpProcessCsdSensorRawCountsExt
1115:Generated_Source\PSoC4/CapSense_1_Processing.c **** ****************************************************************************//**
1116:Generated_Source\PSoC4/CapSense_1_Processing.c **** *
1117:Generated_Source\PSoC4/CapSense_1_Processing.c **** * \brief
1118:Generated_Source\PSoC4/CapSense_1_Processing.c **** *   Performs customized processing of the CSD sensor raw counts.
1119:Generated_Source\PSoC4/CapSense_1_Processing.c **** *
1120:Generated_Source\PSoC4/CapSense_1_Processing.c **** * \details
1121:Generated_Source\PSoC4/CapSense_1_Processing.c **** *   Performs customized processing of the CSD sensor raw counts.
1122:Generated_Source\PSoC4/CapSense_1_Processing.c **** *
ARM GAS  C:\Users\MICHAE~1.MAC\AppData\Local\Temp\ccr99qdP.s 			page 23


1123:Generated_Source\PSoC4/CapSense_1_Processing.c **** *   Note that this API updates data associated only with the sensor. It cannot be used to update
1124:Generated_Source\PSoC4/CapSense_1_Processing.c **** *   widget status.
1125:Generated_Source\PSoC4/CapSense_1_Processing.c **** *
1126:Generated_Source\PSoC4/CapSense_1_Processing.c **** * \param ptrFlashWdgt The pointer to the Flash widget structure.
1127:Generated_Source\PSoC4/CapSense_1_Processing.c **** * \param curSnsPtr    The pointer to the sensor object in RAM.
1128:Generated_Source\PSoC4/CapSense_1_Processing.c **** * \param fltrHistV    The pointer to the Filter History Object in RAM.
1129:Generated_Source\PSoC4/CapSense_1_Processing.c **** * \param mode         The bit-mask with the data processing tasks to be executed.
1130:Generated_Source\PSoC4/CapSense_1_Processing.c **** *   The mode parameters can take the following values:
1131:Generated_Source\PSoC4/CapSense_1_Processing.c **** *    - CapSense_1_PROCESS_FILTER     (0x01) Run Firmware Filter
1132:Generated_Source\PSoC4/CapSense_1_Processing.c **** *    - CapSense_1_PROCESS_BASELINE   (0x02) Update Baselines
1133:Generated_Source\PSoC4/CapSense_1_Processing.c **** *    - CapSense_1_PROCESS_DIFFCOUNTS (0x04) Update Difference Counts
1134:Generated_Source\PSoC4/CapSense_1_Processing.c **** *    - CapSense_1_PROCESS_CALC_NOISE (0x08) Calculate Noise (only if FW Tuning is enabled)
1135:Generated_Source\PSoC4/CapSense_1_Processing.c **** *    - CapSense_1_PROCESS_THRESHOLDS (0x10) Update Thresholds (only if FW Tuning is enabled)
1136:Generated_Source\PSoC4/CapSense_1_Processing.c **** *    - CapSense_1_PROCESS_ALL               Execute all tasks
1137:Generated_Source\PSoC4/CapSense_1_Processing.c **** *
1138:Generated_Source\PSoC4/CapSense_1_Processing.c **** * \return
1139:Generated_Source\PSoC4/CapSense_1_Processing.c **** *  Returns the status of the specified sensor processing operation:
1140:Generated_Source\PSoC4/CapSense_1_Processing.c **** *  - CYRET_SUCCESS if operation was successfully completed.
1141:Generated_Source\PSoC4/CapSense_1_Processing.c **** *  - CapSense_1_PROCESS_BASELINE_FAILED if baseline processing of any
1142:Generated_Source\PSoC4/CapSense_1_Processing.c **** *    sensor of the specified widget failed. The result is concatenated with the index
1143:Generated_Source\PSoC4/CapSense_1_Processing.c **** *    of failed sensor.
1144:Generated_Source\PSoC4/CapSense_1_Processing.c **** *
1145:Generated_Source\PSoC4/CapSense_1_Processing.c **** *******************************************************************************/
1146:Generated_Source\PSoC4/CapSense_1_Processing.c **** uint32 CapSense_1_DpProcessCsdSensorRawCountsExt(
1147:Generated_Source\PSoC4/CapSense_1_Processing.c ****                 CapSense_1_FLASH_WD_STRUCT const *ptrFlashWdgt,
1148:Generated_Source\PSoC4/CapSense_1_Processing.c ****                 CapSense_1_RAM_SNS_STRUCT *curSnsPtr,
1149:Generated_Source\PSoC4/CapSense_1_Processing.c ****                 CapSense_1_PTR_FILTER_VARIANT fltrHistV,
1150:Generated_Source\PSoC4/CapSense_1_Processing.c ****                  uint32 mode)
1151:Generated_Source\PSoC4/CapSense_1_Processing.c **** {
1152:Generated_Source\PSoC4/CapSense_1_Processing.c ****     uint32 result = CYRET_SUCCESS;
1153:Generated_Source\PSoC4/CapSense_1_Processing.c ****     uint32  widgetType;
1154:Generated_Source\PSoC4/CapSense_1_Processing.c ****     CapSense_1_RAM_WD_BASE_STRUCT *ptrRamWdgt;
1155:Generated_Source\PSoC4/CapSense_1_Processing.c **** 
1156:Generated_Source\PSoC4/CapSense_1_Processing.c ****     #if (0u != (CapSense_1_CSD_AUTOTUNE & CapSense_1_CSD_SS_TH_EN))
1157:Generated_Source\PSoC4/CapSense_1_Processing.c ****         SMARTSENSE_CSD_NOISE_ENVELOPE_STRUCT *ptrNoiseEnvelope;
1158:Generated_Source\PSoC4/CapSense_1_Processing.c ****         #if (CapSense_1_ENABLE == CapSense_1_PROXIMITY_WIDGET_EN)
1159:Generated_Source\PSoC4/CapSense_1_Processing.c ****             uint32  proximityThreshold;
1160:Generated_Source\PSoC4/CapSense_1_Processing.c ****         #endif /* (0 != CapSense_1_PROXIMITY_WIDGET_EN) */
1161:Generated_Source\PSoC4/CapSense_1_Processing.c **** 
1162:Generated_Source\PSoC4/CapSense_1_Processing.c ****         /* Need to specify pointer to corresponding sensor's noise-envelope object.*/
1163:Generated_Source\PSoC4/CapSense_1_Processing.c ****         ptrNoiseEnvelope = ptrFlashWdgt->ptr2NoiseEnvlp;
1164:Generated_Source\PSoC4/CapSense_1_Processing.c ****     #endif /* (0u != (CapSense_1_CSD_AUTOTUNE & CapSense_1_CSD_SS_TH_EN)) */
1165:Generated_Source\PSoC4/CapSense_1_Processing.c **** 
1166:Generated_Source\PSoC4/CapSense_1_Processing.c ****     widgetType = ptrFlashWdgt->wdgtType;
1167:Generated_Source\PSoC4/CapSense_1_Processing.c ****     ptrRamWdgt = (CapSense_1_RAM_WD_BASE_STRUCT *)ptrFlashWdgt->ptr2WdgtRam;
1168:Generated_Source\PSoC4/CapSense_1_Processing.c **** 
1169:Generated_Source\PSoC4/CapSense_1_Processing.c ****     #if (CapSense_1_ENABLE == CapSense_1_RC_FILTER_EN)
1170:Generated_Source\PSoC4/CapSense_1_Processing.c ****         if (0u != (mode & CapSense_1_PROCESS_FILTER))
1171:Generated_Source\PSoC4/CapSense_1_Processing.c ****         {
1172:Generated_Source\PSoC4/CapSense_1_Processing.c ****             CapSense_1_FtRunEnabledFiltersInternal(fltrHistV, curSnsPtr, widgetType);
1173:Generated_Source\PSoC4/CapSense_1_Processing.c ****             #if (CapSense_1_ALP_FILTER_EN)
1174:Generated_Source\PSoC4/CapSense_1_Processing.c ****                 CapSense_1_ConfigRunALPInternal(fltrHistV, ptrRamWdgt, curSnsPtr, widgetType);
1175:Generated_Source\PSoC4/CapSense_1_Processing.c ****             #endif
1176:Generated_Source\PSoC4/CapSense_1_Processing.c ****         }
1177:Generated_Source\PSoC4/CapSense_1_Processing.c ****     #else
1178:Generated_Source\PSoC4/CapSense_1_Processing.c ****         (void)fltrHistV; /* This parameter is unused in such configurations */
1179:Generated_Source\PSoC4/CapSense_1_Processing.c ****     #endif /* #if (CapSense_1_ENABLE == CapSense_1_RC_FILTER_EN) */
ARM GAS  C:\Users\MICHAE~1.MAC\AppData\Local\Temp\ccr99qdP.s 			page 24


1180:Generated_Source\PSoC4/CapSense_1_Processing.c **** 
1181:Generated_Source\PSoC4/CapSense_1_Processing.c ****     #if (0u != (CapSense_1_CSD_AUTOTUNE & CapSense_1_CSD_SS_TH_EN))
1182:Generated_Source\PSoC4/CapSense_1_Processing.c ****         if (0u != (mode & CapSense_1_PROCESS_CALC_NOISE))
1183:Generated_Source\PSoC4/CapSense_1_Processing.c ****         {
1184:Generated_Source\PSoC4/CapSense_1_Processing.c ****             SmartSense_RunNoiseEnvelope(curSnsPtr->raw[0u], ptrRamWdgt->sigPFC, ptrNoiseEnvelope);
1185:Generated_Source\PSoC4/CapSense_1_Processing.c ****         }
1186:Generated_Source\PSoC4/CapSense_1_Processing.c **** 
1187:Generated_Source\PSoC4/CapSense_1_Processing.c ****         if (0u != (mode & CapSense_1_PROCESS_THRESHOLDS))
1188:Generated_Source\PSoC4/CapSense_1_Processing.c ****         {
1189:Generated_Source\PSoC4/CapSense_1_Processing.c ****             CapSense_1_DpUpdateThresholds(ptrRamWdgt, ptrNoiseEnvelope, 0u);
1190:Generated_Source\PSoC4/CapSense_1_Processing.c **** 
1191:Generated_Source\PSoC4/CapSense_1_Processing.c ****             /* Calculate Proximity Touch Threshold in SmartSense mode based on Finger Threshold and
1192:Generated_Source\PSoC4/CapSense_1_Processing.c ****             #if (CapSense_1_ENABLE == CapSense_1_PROXIMITY_WIDGET_EN)
1193:Generated_Source\PSoC4/CapSense_1_Processing.c ****                 if (CapSense_1_WD_PROXIMITY_E == CapSense_1_GET_WIDGET_TYPE(ptrFlashWdgt))
1194:Generated_Source\PSoC4/CapSense_1_Processing.c ****                 {
1195:Generated_Source\PSoC4/CapSense_1_Processing.c ****                     proximityThreshold = ((uint32)ptrRamWdgt->fingerTh * CapSense_1_PROX_TOUCH_COEF
1196:Generated_Source\PSoC4/CapSense_1_Processing.c ****                     if ((((1Lu) << CapSense_1_THRESHOLD_SIZE) - 1u) < proximityThreshold)
1197:Generated_Source\PSoC4/CapSense_1_Processing.c ****                     {
1198:Generated_Source\PSoC4/CapSense_1_Processing.c ****                         proximityThreshold = ((1Lu) << CapSense_1_THRESHOLD_SIZE) - 1u;
1199:Generated_Source\PSoC4/CapSense_1_Processing.c ****                     }
1200:Generated_Source\PSoC4/CapSense_1_Processing.c ****                     ((CapSense_1_RAM_WD_PROXIMITY_STRUCT *)ptrFlashWdgt->ptr2WdgtRam)->proxTouchTh 
1201:Generated_Source\PSoC4/CapSense_1_Processing.c ****                         (CapSense_1_THRESHOLD_TYPE)proximityThreshold;
1202:Generated_Source\PSoC4/CapSense_1_Processing.c ****                 }
1203:Generated_Source\PSoC4/CapSense_1_Processing.c ****             #endif /* (0 != CapSense_1_PROXIMITY_WIDGET_EN) */
1204:Generated_Source\PSoC4/CapSense_1_Processing.c ****         }
1205:Generated_Source\PSoC4/CapSense_1_Processing.c ****     #endif /* #if (0u != (CapSense_1_CSD_AUTOTUNE & CapSense_1_CSD_SS_TH_EN)) */
1206:Generated_Source\PSoC4/CapSense_1_Processing.c **** 
1207:Generated_Source\PSoC4/CapSense_1_Processing.c ****     if (0u != (mode & CapSense_1_PROCESS_BASELINE))
1208:Generated_Source\PSoC4/CapSense_1_Processing.c ****     {
1209:Generated_Source\PSoC4/CapSense_1_Processing.c ****         result = CapSense_1_FtUpdateBaseline(ptrRamWdgt, curSnsPtr, widgetType);
1210:Generated_Source\PSoC4/CapSense_1_Processing.c ****     }
1211:Generated_Source\PSoC4/CapSense_1_Processing.c **** 
1212:Generated_Source\PSoC4/CapSense_1_Processing.c ****     if (0u != (mode & CapSense_1_PROCESS_DIFFCOUNTS))
1213:Generated_Source\PSoC4/CapSense_1_Processing.c ****     {
1214:Generated_Source\PSoC4/CapSense_1_Processing.c ****         CapSense_1_DpUpdateDifferences(ptrRamWdgt, curSnsPtr);
1215:Generated_Source\PSoC4/CapSense_1_Processing.c ****     }
1216:Generated_Source\PSoC4/CapSense_1_Processing.c ****     return result;
1217:Generated_Source\PSoC4/CapSense_1_Processing.c **** }
1218:Generated_Source\PSoC4/CapSense_1_Processing.c **** 
1219:Generated_Source\PSoC4/CapSense_1_Processing.c **** /*******************************************************************************
1220:Generated_Source\PSoC4/CapSense_1_Processing.c **** * Function Name: CapSense_1_DpProcessCsdWidgetStatus
1221:Generated_Source\PSoC4/CapSense_1_Processing.c **** ****************************************************************************//**
1222:Generated_Source\PSoC4/CapSense_1_Processing.c **** *
1223:Generated_Source\PSoC4/CapSense_1_Processing.c **** * \brief
1224:Generated_Source\PSoC4/CapSense_1_Processing.c **** *  Runs the status processing of the CSD widget and updates it in the Data Structure.
1225:Generated_Source\PSoC4/CapSense_1_Processing.c **** *
1226:Generated_Source\PSoC4/CapSense_1_Processing.c **** * \details
1227:Generated_Source\PSoC4/CapSense_1_Processing.c **** *  This API determines the widget type and calls the appropriate low-level processing
1228:Generated_Source\PSoC4/CapSense_1_Processing.c **** *  function. Based on the returned results it updates the widget and sensor
1229:Generated_Source\PSoC4/CapSense_1_Processing.c **** *  status in the data structure. Any widget specific registers like the centroid
1230:Generated_Source\PSoC4/CapSense_1_Processing.c **** *  position are updated directly in the low-level processing function.
1231:Generated_Source\PSoC4/CapSense_1_Processing.c **** *
1232:Generated_Source\PSoC4/CapSense_1_Processing.c **** *  When the widget-specific processing completes this API updates the snsStatus
1233:Generated_Source\PSoC4/CapSense_1_Processing.c **** *  and wdgtStatus registers in the data structure. The wdgtStatus register
1234:Generated_Source\PSoC4/CapSense_1_Processing.c **** *  is a bitmask were each bit corresponds to the specific widget identified by
1235:Generated_Source\PSoC4/CapSense_1_Processing.c **** *  the widget index. When the bit is set the widget is active (touched);
1236:Generated_Source\PSoC4/CapSense_1_Processing.c **** *
ARM GAS  C:\Users\MICHAE~1.MAC\AppData\Local\Temp\ccr99qdP.s 			page 25


1237:Generated_Source\PSoC4/CapSense_1_Processing.c **** *  The snsStatus register for CSD widgets contains status of each widget sensor
1238:Generated_Source\PSoC4/CapSense_1_Processing.c **** *  (active/non-active). Each bit corresponds to one sensor. In case of the
1239:Generated_Source\PSoC4/CapSense_1_Processing.c **** *  Proximity widget two bits are used per sensor: one for proximity status and
1240:Generated_Source\PSoC4/CapSense_1_Processing.c **** *  second for the touch status.
1241:Generated_Source\PSoC4/CapSense_1_Processing.c **** *
1242:Generated_Source\PSoC4/CapSense_1_Processing.c **** * \param widgetId      The widget index number.
1243:Generated_Source\PSoC4/CapSense_1_Processing.c **** * \param ptrFlashWdgt  The pointer to the Flash widget structure.
1244:Generated_Source\PSoC4/CapSense_1_Processing.c **** *
1245:Generated_Source\PSoC4/CapSense_1_Processing.c **** *******************************************************************************/
1246:Generated_Source\PSoC4/CapSense_1_Processing.c **** void CapSense_1_DpProcessCsdWidgetStatus(uint32 widgetId, CapSense_1_FLASH_WD_STRUCT const *ptrFlas
1247:Generated_Source\PSoC4/CapSense_1_Processing.c **** {
1248:Generated_Source\PSoC4/CapSense_1_Processing.c ****     uint32 sensorStatus;
1249:Generated_Source\PSoC4/CapSense_1_Processing.c ****     uint32 wdStatusIndex;
1250:Generated_Source\PSoC4/CapSense_1_Processing.c ****     uint32 wdStatusMask;
1251:Generated_Source\PSoC4/CapSense_1_Processing.c ****     CapSense_1_WD_TYPE_ENUM widgetType;
1252:Generated_Source\PSoC4/CapSense_1_Processing.c **** 
1253:Generated_Source\PSoC4/CapSense_1_Processing.c ****     widgetType = (CapSense_1_WD_TYPE_ENUM)ptrFlashWdgt->wdgtType;
1254:Generated_Source\PSoC4/CapSense_1_Processing.c ****     sensorStatus = CapSense_1_dsRam.snsStatus[widgetId];
1255:Generated_Source\PSoC4/CapSense_1_Processing.c **** 
1256:Generated_Source\PSoC4/CapSense_1_Processing.c ****     switch (widgetType)
1257:Generated_Source\PSoC4/CapSense_1_Processing.c ****     {
1258:Generated_Source\PSoC4/CapSense_1_Processing.c ****     #if (0u != CapSense_1_BUTTON_WIDGET_EN)
1259:Generated_Source\PSoC4/CapSense_1_Processing.c ****         case CapSense_1_WD_BUTTON_E:
1260:Generated_Source\PSoC4/CapSense_1_Processing.c ****             sensorStatus = CapSense_1_DpProcessButton(sensorStatus, ptrFlashWdgt);
1261:Generated_Source\PSoC4/CapSense_1_Processing.c ****             break;
1262:Generated_Source\PSoC4/CapSense_1_Processing.c ****     #endif /* #if (0u != CapSense_1_BUTTON_WIDGET_EN) */
1263:Generated_Source\PSoC4/CapSense_1_Processing.c **** 
1264:Generated_Source\PSoC4/CapSense_1_Processing.c ****     #if (0u != CapSense_1_SLIDER_WIDGET_EN)
1265:Generated_Source\PSoC4/CapSense_1_Processing.c ****         case CapSense_1_WD_LINEAR_SLIDER_E:
1266:Generated_Source\PSoC4/CapSense_1_Processing.c ****         case CapSense_1_WD_RADIAL_SLIDER_E:
1267:Generated_Source\PSoC4/CapSense_1_Processing.c ****             sensorStatus = CapSense_1_DpProcessSlider(sensorStatus, ptrFlashWdgt);
1268:Generated_Source\PSoC4/CapSense_1_Processing.c ****             break;
1269:Generated_Source\PSoC4/CapSense_1_Processing.c ****     #endif /* #if (0u != CapSense_1_SLIDER_WIDGET_EN) */
1270:Generated_Source\PSoC4/CapSense_1_Processing.c **** 
1271:Generated_Source\PSoC4/CapSense_1_Processing.c ****     #if (0u != CapSense_1_CSD_MATRIX_WIDGET_EN)
1272:Generated_Source\PSoC4/CapSense_1_Processing.c ****         case CapSense_1_WD_MATRIX_BUTTON_E:
1273:Generated_Source\PSoC4/CapSense_1_Processing.c ****             sensorStatus = CapSense_1_DpProcessCsdMatrix(sensorStatus, ptrFlashWdgt);
1274:Generated_Source\PSoC4/CapSense_1_Processing.c ****             break;
1275:Generated_Source\PSoC4/CapSense_1_Processing.c ****     #endif /* #if (0u != CapSense_1_CSD_MATRIX_WIDGET_EN) */
1276:Generated_Source\PSoC4/CapSense_1_Processing.c **** 
1277:Generated_Source\PSoC4/CapSense_1_Processing.c ****     #if (0u != CapSense_1_CSD_TOUCHPAD_WIDGET_EN)
1278:Generated_Source\PSoC4/CapSense_1_Processing.c ****         case CapSense_1_WD_TOUCHPAD_E:
1279:Generated_Source\PSoC4/CapSense_1_Processing.c ****             sensorStatus = CapSense_1_DpProcessCsdTouchpad(sensorStatus, ptrFlashWdgt);
1280:Generated_Source\PSoC4/CapSense_1_Processing.c ****             #if (0u != CapSense_1_BALLISTIC_MULTIPLIER_EN)
1281:Generated_Source\PSoC4/CapSense_1_Processing.c ****                 CapSense_1_RunBallisticMultiplier(widgetId);
1282:Generated_Source\PSoC4/CapSense_1_Processing.c ****             #endif /* (0u != CapSense_1_BALLISTIC_MULTIPLIER_EN) */
1283:Generated_Source\PSoC4/CapSense_1_Processing.c ****             break;
1284:Generated_Source\PSoC4/CapSense_1_Processing.c ****     #endif /* #if (0u != CapSense_1_CSD_TOUCHPAD_WIDGET_EN) */
1285:Generated_Source\PSoC4/CapSense_1_Processing.c **** 
1286:Generated_Source\PSoC4/CapSense_1_Processing.c ****     #if (0u != CapSense_1_PROXIMITY_WIDGET_EN)
1287:Generated_Source\PSoC4/CapSense_1_Processing.c ****         case CapSense_1_WD_PROXIMITY_E:
1288:Generated_Source\PSoC4/CapSense_1_Processing.c ****             sensorStatus = CapSense_1_DpProcessProximity(sensorStatus, ptrFlashWdgt);
1289:Generated_Source\PSoC4/CapSense_1_Processing.c ****             break;
1290:Generated_Source\PSoC4/CapSense_1_Processing.c ****     #endif /* #if (0u != CapSense_1_PROXIMITY_WIDGET_EN) */
1291:Generated_Source\PSoC4/CapSense_1_Processing.c **** 
1292:Generated_Source\PSoC4/CapSense_1_Processing.c ****     default:
1293:Generated_Source\PSoC4/CapSense_1_Processing.c ****         CYASSERT(0u);
ARM GAS  C:\Users\MICHAE~1.MAC\AppData\Local\Temp\ccr99qdP.s 			page 26


1294:Generated_Source\PSoC4/CapSense_1_Processing.c ****         break;
1295:Generated_Source\PSoC4/CapSense_1_Processing.c ****     }
1296:Generated_Source\PSoC4/CapSense_1_Processing.c **** 
1297:Generated_Source\PSoC4/CapSense_1_Processing.c ****     CapSense_1_dsRam.snsStatus[widgetId] = (CapSense_1_SNS_STS_TYPE)sensorStatus;
1298:Generated_Source\PSoC4/CapSense_1_Processing.c **** 
1299:Generated_Source\PSoC4/CapSense_1_Processing.c ****     /* The next two lines calculate index and bitmask of the widget status bit in the wdgtStatus ar
1300:Generated_Source\PSoC4/CapSense_1_Processing.c ****     wdStatusIndex = CapSense_1_GET_WDGT_STATUS_INDEX(widgetId);
1301:Generated_Source\PSoC4/CapSense_1_Processing.c ****     wdStatusMask = CapSense_1_GET_WDGT_STATUS_MASK(widgetId);
1302:Generated_Source\PSoC4/CapSense_1_Processing.c **** 
1303:Generated_Source\PSoC4/CapSense_1_Processing.c ****     /* Check if there are active sensors and update widget status accordingly */
1304:Generated_Source\PSoC4/CapSense_1_Processing.c ****     if (0u == sensorStatus)
1305:Generated_Source\PSoC4/CapSense_1_Processing.c ****     {
1306:Generated_Source\PSoC4/CapSense_1_Processing.c ****         CapSense_1_dsRam.wdgtStatus[wdStatusIndex] &= ~wdStatusMask;
1307:Generated_Source\PSoC4/CapSense_1_Processing.c ****     }
1308:Generated_Source\PSoC4/CapSense_1_Processing.c ****     else
1309:Generated_Source\PSoC4/CapSense_1_Processing.c ****     {
1310:Generated_Source\PSoC4/CapSense_1_Processing.c ****         CapSense_1_dsRam.wdgtStatus[wdStatusIndex] |= wdStatusMask;
1311:Generated_Source\PSoC4/CapSense_1_Processing.c ****     }
1312:Generated_Source\PSoC4/CapSense_1_Processing.c **** }
1313:Generated_Source\PSoC4/CapSense_1_Processing.c **** #endif /* #if (0u != CapSense_1_TOTAL_CSD_WIDGETS) */
1314:Generated_Source\PSoC4/CapSense_1_Processing.c **** 
1315:Generated_Source\PSoC4/CapSense_1_Processing.c **** 
1316:Generated_Source\PSoC4/CapSense_1_Processing.c **** #if (0 != (CapSense_1_CSD_AUTOTUNE & CapSense_1_CSD_SS_TH_EN))
1317:Generated_Source\PSoC4/CapSense_1_Processing.c **** /*******************************************************************************
1318:Generated_Source\PSoC4/CapSense_1_Processing.c **** * Function Name: CapSense_1_DpUpdateThresholds
1319:Generated_Source\PSoC4/CapSense_1_Processing.c **** ****************************************************************************//**
1320:Generated_Source\PSoC4/CapSense_1_Processing.c **** *
1321:Generated_Source\PSoC4/CapSense_1_Processing.c **** * \brief
1322:Generated_Source\PSoC4/CapSense_1_Processing.c **** *   Updates noise and finger thresholds for a specified widget.
1323:Generated_Source\PSoC4/CapSense_1_Processing.c **** *
1324:Generated_Source\PSoC4/CapSense_1_Processing.c **** * \details
1325:Generated_Source\PSoC4/CapSense_1_Processing.c **** *   Updates noise and finger thresholds for a specified widget.
1326:Generated_Source\PSoC4/CapSense_1_Processing.c **** *   This algorithm is a part of Auto-tuning feature.
1327:Generated_Source\PSoC4/CapSense_1_Processing.c **** *
1328:Generated_Source\PSoC4/CapSense_1_Processing.c **** * \param ptrRamWdgt       The pointer to the RAM widget object.
1329:Generated_Source\PSoC4/CapSense_1_Processing.c **** * \param ptrNoiseEnvelope The pointer to the noise-envelope object in RAM.
1330:Generated_Source\PSoC4/CapSense_1_Processing.c **** * \param startFlag        The flag indicates when new widget is processed.
1331:Generated_Source\PSoC4/CapSense_1_Processing.c **** *
1332:Generated_Source\PSoC4/CapSense_1_Processing.c **** *******************************************************************************/
1333:Generated_Source\PSoC4/CapSense_1_Processing.c **** void CapSense_1_DpUpdateThresholds(CapSense_1_RAM_WD_BASE_STRUCT *ptrRamWdgt,
1334:Generated_Source\PSoC4/CapSense_1_Processing.c ****                                          SMARTSENSE_CSD_NOISE_ENVELOPE_STRUCT *ptrNoiseEnvelope,
1335:Generated_Source\PSoC4/CapSense_1_Processing.c ****                                          uint32 startFlag)
1336:Generated_Source\PSoC4/CapSense_1_Processing.c **** {
1337:Generated_Source\PSoC4/CapSense_1_Processing.c ****     SMARTSENSE_UPDATE_THRESHOLDS_STRUCT thresholds;
1338:Generated_Source\PSoC4/CapSense_1_Processing.c ****     SMARTSENSE_UPDATE_THRESHOLDS_STRUCT *ptrThresholds = &thresholds;
1339:Generated_Source\PSoC4/CapSense_1_Processing.c ****     ptrThresholds->fingerTh = ptrRamWdgt->fingerTh;
1340:Generated_Source\PSoC4/CapSense_1_Processing.c **** 
1341:Generated_Source\PSoC4/CapSense_1_Processing.c ****     SmartSense_UpdateThresholds(ptrNoiseEnvelope, ptrThresholds, ptrRamWdgt->sigPFC, startFlag);
1342:Generated_Source\PSoC4/CapSense_1_Processing.c **** 
1343:Generated_Source\PSoC4/CapSense_1_Processing.c ****     ptrRamWdgt->fingerTh = ptrThresholds->fingerTh;
1344:Generated_Source\PSoC4/CapSense_1_Processing.c ****     ptrRamWdgt->noiseTh = ptrThresholds->noiseTh;
1345:Generated_Source\PSoC4/CapSense_1_Processing.c ****     ptrRamWdgt->nNoiseTh = ptrThresholds->nNoiseTh;
1346:Generated_Source\PSoC4/CapSense_1_Processing.c ****     ptrRamWdgt->hysteresis = ptrThresholds->hysteresis;
1347:Generated_Source\PSoC4/CapSense_1_Processing.c **** }
1348:Generated_Source\PSoC4/CapSense_1_Processing.c **** #endif /* #if (0u != (CapSense_1_CSD_AUTOTUNE & CapSense_1_CSD_SS_TH_EN)) */
1349:Generated_Source\PSoC4/CapSense_1_Processing.c **** 
1350:Generated_Source\PSoC4/CapSense_1_Processing.c **** 
ARM GAS  C:\Users\MICHAE~1.MAC\AppData\Local\Temp\ccr99qdP.s 			page 27


1351:Generated_Source\PSoC4/CapSense_1_Processing.c **** /*******************************************************************************
1352:Generated_Source\PSoC4/CapSense_1_Processing.c **** * Function Name: CapSense_1_DpUpdateDifferences
1353:Generated_Source\PSoC4/CapSense_1_Processing.c **** ****************************************************************************//**
1354:Generated_Source\PSoC4/CapSense_1_Processing.c **** *
1355:Generated_Source\PSoC4/CapSense_1_Processing.c **** * \brief
1356:Generated_Source\PSoC4/CapSense_1_Processing.c **** *   Calculates new difference values.
1357:Generated_Source\PSoC4/CapSense_1_Processing.c **** *   Also, executes the multi-frequency scan algorithm if it is enabled.
1358:Generated_Source\PSoC4/CapSense_1_Processing.c **** *
1359:Generated_Source\PSoC4/CapSense_1_Processing.c **** * \details
1360:Generated_Source\PSoC4/CapSense_1_Processing.c **** *   This API calculates the difference between the baseline and raw counts.
1361:Generated_Source\PSoC4/CapSense_1_Processing.c **** *   If the difference is positive (raw > baseline), and higher than the widget
1362:Generated_Source\PSoC4/CapSense_1_Processing.c **** *   noise threshold, it is saved into the data structure for further processing.
1363:Generated_Source\PSoC4/CapSense_1_Processing.c **** *   Otherwise the difference is set to zero. The final difference value is saved
1364:Generated_Source\PSoC4/CapSense_1_Processing.c **** *   with the subtracted noise threshold value.
1365:Generated_Source\PSoC4/CapSense_1_Processing.c **** *
1366:Generated_Source\PSoC4/CapSense_1_Processing.c **** *   If the multi-frequency scan algorithm is enabled, the difference is calculated
1367:Generated_Source\PSoC4/CapSense_1_Processing.c **** *   for the three sets of data available for each sensor. Then
1368:Generated_Source\PSoC4/CapSense_1_Processing.c **** *   the median filter selects the final difference value.
1369:Generated_Source\PSoC4/CapSense_1_Processing.c **** *
1370:Generated_Source\PSoC4/CapSense_1_Processing.c **** * \param ptrRamWdgt The pointer to the RAR Widget Object.
1371:Generated_Source\PSoC4/CapSense_1_Processing.c **** * \param curSnsPtr  The pointer to the sensor object in RAM.
1372:Generated_Source\PSoC4/CapSense_1_Processing.c **** *
1373:Generated_Source\PSoC4/CapSense_1_Processing.c **** *******************************************************************************/
1374:Generated_Source\PSoC4/CapSense_1_Processing.c **** void CapSense_1_DpUpdateDifferences(
1375:Generated_Source\PSoC4/CapSense_1_Processing.c ****                         CapSense_1_RAM_WD_BASE_STRUCT *ptrRamWdgt,
1376:Generated_Source\PSoC4/CapSense_1_Processing.c ****                         CapSense_1_RAM_SNS_STRUCT *curSnsPtr)
1377:Generated_Source\PSoC4/CapSense_1_Processing.c **** {
 128              		.loc 1 1377 0
 129              		.cfi_startproc
 130              		@ args = 0, pretend = 0, frame = 0
 131              		@ frame_needed = 0, uses_anonymous_args = 0
 132              	.LVL14:
 133 0000 30B5     		push	{r4, r5, lr}
 134              		.cfi_def_cfa_offset 12
 135              		.cfi_offset 4, -12
 136              		.cfi_offset 5, -8
 137              		.cfi_offset 14, -4
 138              	.LVL15:
1378:Generated_Source\PSoC4/CapSense_1_Processing.c ****     register int32 diffValue = 0;
1379:Generated_Source\PSoC4/CapSense_1_Processing.c **** 
1380:Generated_Source\PSoC4/CapSense_1_Processing.c ****     #if (0u != CapSense_1_MULTI_FREQ_SCAN_EN)
1381:Generated_Source\PSoC4/CapSense_1_Processing.c ****         register int32 diffValue_0 = 0;
1382:Generated_Source\PSoC4/CapSense_1_Processing.c ****         register int32 diffValue_2 = 0;
1383:Generated_Source\PSoC4/CapSense_1_Processing.c ****     #endif /* #if (0u != CapSense_1_MULTI_FREQ_SCAN_EN) */
1384:Generated_Source\PSoC4/CapSense_1_Processing.c **** 
1385:Generated_Source\PSoC4/CapSense_1_Processing.c ****     /* Calculate difference */
1386:Generated_Source\PSoC4/CapSense_1_Processing.c ****     diffValue = (int32)curSnsPtr->raw[0u] - (int32)curSnsPtr->bsln[0u];
 139              		.loc 1 1386 0
 140 0002 0B88     		ldrh	r3, [r1]
 141 0004 CA88     		ldrh	r2, [r1, #6]
 142 0006 9B1A     		subs	r3, r3, r2
 143              	.LVL16:
1387:Generated_Source\PSoC4/CapSense_1_Processing.c **** 
1388:Generated_Source\PSoC4/CapSense_1_Processing.c ****     #if (0u != CapSense_1_MULTI_FREQ_SCAN_EN)
1389:Generated_Source\PSoC4/CapSense_1_Processing.c ****         diffValue_0 = (int32)curSnsPtr->raw[1u] - (int32)curSnsPtr->bsln[1u];
 144              		.loc 1 1389 0
 145 0008 4A88     		ldrh	r2, [r1, #2]
ARM GAS  C:\Users\MICHAE~1.MAC\AppData\Local\Temp\ccr99qdP.s 			page 28


 146 000a 0C89     		ldrh	r4, [r1, #8]
 147 000c 121B     		subs	r2, r2, r4
 148              	.LVL17:
1390:Generated_Source\PSoC4/CapSense_1_Processing.c ****         diffValue_2 = (int32)curSnsPtr->raw[2u] - (int32)curSnsPtr->bsln[2u];
 149              		.loc 1 1390 0
 150 000e 8C88     		ldrh	r4, [r1, #4]
 151 0010 4D89     		ldrh	r5, [r1, #10]
 152 0012 641B     		subs	r4, r4, r5
 153              	.LVL18:
1391:Generated_Source\PSoC4/CapSense_1_Processing.c **** 
1392:Generated_Source\PSoC4/CapSense_1_Processing.c ****         /* Find median and put it into [0u] element */
1393:Generated_Source\PSoC4/CapSense_1_Processing.c ****         if (diffValue_0 > diffValue)
 154              		.loc 1 1393 0
 155 0014 9342     		cmp	r3, r2
 156 0016 02DB     		blt	.L11
 157 0018 1500     		movs	r5, r2
1386:Generated_Source\PSoC4/CapSense_1_Processing.c **** 
 158              		.loc 1 1386 0
 159 001a 1A00     		movs	r2, r3
 160              	.LVL19:
1389:Generated_Source\PSoC4/CapSense_1_Processing.c ****         diffValue_2 = (int32)curSnsPtr->raw[2u] - (int32)curSnsPtr->bsln[2u];
 161              		.loc 1 1389 0
 162 001c 2B00     		movs	r3, r5
 163              	.LVL20:
 164              	.L11:
1394:Generated_Source\PSoC4/CapSense_1_Processing.c ****         {
1395:Generated_Source\PSoC4/CapSense_1_Processing.c ****             register int32 swapv = diffValue_0;
1396:Generated_Source\PSoC4/CapSense_1_Processing.c ****             diffValue_0 = diffValue;
1397:Generated_Source\PSoC4/CapSense_1_Processing.c ****             diffValue = swapv;
1398:Generated_Source\PSoC4/CapSense_1_Processing.c ****         }
1399:Generated_Source\PSoC4/CapSense_1_Processing.c **** 
1400:Generated_Source\PSoC4/CapSense_1_Processing.c ****         if (diffValue > diffValue_2)
 165              		.loc 1 1400 0
 166 001e A242     		cmp	r2, r4
 167 0020 00DC     		bgt	.L12
 168 0022 1400     		movs	r4, r2
 169              	.LVL21:
 170              	.L12:
1401:Generated_Source\PSoC4/CapSense_1_Processing.c ****         {
1402:Generated_Source\PSoC4/CapSense_1_Processing.c ****             register int32 swapv = diffValue;
1403:Generated_Source\PSoC4/CapSense_1_Processing.c ****             diffValue = diffValue_2;
1404:Generated_Source\PSoC4/CapSense_1_Processing.c ****             diffValue_2 = swapv;
1405:Generated_Source\PSoC4/CapSense_1_Processing.c ****         }
1406:Generated_Source\PSoC4/CapSense_1_Processing.c **** 
1407:Generated_Source\PSoC4/CapSense_1_Processing.c ****         if (diffValue_0 > diffValue)
 171              		.loc 1 1407 0
 172 0024 9C42     		cmp	r4, r3
 173 0026 00DB     		blt	.L13
 174 0028 2300     		movs	r3, r4
 175              	.LVL22:
 176              	.L13:
1408:Generated_Source\PSoC4/CapSense_1_Processing.c ****         {
1409:Generated_Source\PSoC4/CapSense_1_Processing.c ****             register int32 swapv = diffValue_0;
1410:Generated_Source\PSoC4/CapSense_1_Processing.c ****             diffValue_0 = diffValue;
1411:Generated_Source\PSoC4/CapSense_1_Processing.c ****             diffValue = swapv;
1412:Generated_Source\PSoC4/CapSense_1_Processing.c ****         }
1413:Generated_Source\PSoC4/CapSense_1_Processing.c ****     #endif /* #if (0u != CapSense_1_MULTI_FREQ_SCAN_EN) */
ARM GAS  C:\Users\MICHAE~1.MAC\AppData\Local\Temp\ccr99qdP.s 			page 29


1414:Generated_Source\PSoC4/CapSense_1_Processing.c **** 
1415:Generated_Source\PSoC4/CapSense_1_Processing.c ****     curSnsPtr->diff = 0u;
 177              		.loc 1 1415 0
 178 002a 0022     		movs	r2, #0
 179 002c 0A82     		strh	r2, [r1, #16]
1416:Generated_Source\PSoC4/CapSense_1_Processing.c **** 
1417:Generated_Source\PSoC4/CapSense_1_Processing.c ****     if (diffValue > (int32)ptrRamWdgt->noiseTh)
 180              		.loc 1 1417 0
 181 002e 0279     		ldrb	r2, [r0, #4]
 182 0030 9342     		cmp	r3, r2
 183 0032 00DD     		ble	.L10
1418:Generated_Source\PSoC4/CapSense_1_Processing.c ****     {
1419:Generated_Source\PSoC4/CapSense_1_Processing.c ****         curSnsPtr->diff = (CapSense_1_THRESHOLD_TYPE) diffValue;
 184              		.loc 1 1419 0
 185 0034 0B82     		strh	r3, [r1, #16]
 186              	.L10:
1420:Generated_Source\PSoC4/CapSense_1_Processing.c ****     }
1421:Generated_Source\PSoC4/CapSense_1_Processing.c **** }
 187              		.loc 1 1421 0
 188              		@ sp needed
 189 0036 30BD     		pop	{r4, r5, pc}
 190              		.cfi_endproc
 191              	.LFE5:
 192              		.size	CapSense_1_DpUpdateDifferences, .-CapSense_1_DpUpdateDifferences
 193              		.section	.text.CapSense_1_DpProcessCsdWidgetRawCounts,"ax",%progbits
 194              		.align	2
 195              		.global	CapSense_1_DpProcessCsdWidgetRawCounts
 196              		.code	16
 197              		.thumb_func
 198              		.type	CapSense_1_DpProcessCsdWidgetRawCounts, %function
 199              	CapSense_1_DpProcessCsdWidgetRawCounts:
 200              	.LFB2:
1017:Generated_Source\PSoC4/CapSense_1_Processing.c ****     uint32  result = CYRET_SUCCESS;
 201              		.loc 1 1017 0
 202              		.cfi_startproc
 203              		@ args = 0, pretend = 0, frame = 16
 204              		@ frame_needed = 0, uses_anonymous_args = 0
 205              	.LVL23:
 206 0000 F0B5     		push	{r4, r5, r6, r7, lr}
 207              		.cfi_def_cfa_offset 20
 208              		.cfi_offset 4, -20
 209              		.cfi_offset 5, -16
 210              		.cfi_offset 6, -12
 211              		.cfi_offset 7, -8
 212              		.cfi_offset 14, -4
 213 0002 5F46     		mov	r7, fp
 214 0004 80B4     		push	{r7}
 215              		.cfi_def_cfa_offset 24
 216              		.cfi_offset 11, -24
 217 0006 84B0     		sub	sp, sp, #16
 218              		.cfi_def_cfa_offset 40
 219 0008 0600     		movs	r6, r0
 220              	.LVL24:
1041:Generated_Source\PSoC4/CapSense_1_Processing.c **** 
 221              		.loc 1 1041 0
 222 000a 837E     		ldrb	r3, [r0, #26]
 223 000c 062B     		cmp	r3, #6
ARM GAS  C:\Users\MICHAE~1.MAC\AppData\Local\Temp\ccr99qdP.s 			page 30


 224 000e 02D1     		bne	.L20
 225 0010 0122     		movs	r2, #1
 226 0012 9346     		mov	fp, r2
 227 0014 01E0     		b	.L16
 228              	.L20:
 229 0016 0022     		movs	r2, #0
 230 0018 9346     		mov	fp, r2
 231              	.L16:
 232              	.LVL25:
1044:Generated_Source\PSoC4/CapSense_1_Processing.c ****     #endif /* #if (CapSense_1_ENABLE == CapSense_1_RC_FILTER_EN) */
 233              		.loc 1 1044 0 discriminator 4
 234 001a F568     		ldr	r5, [r6, #12]
 235              	.LVL26:
1047:Generated_Source\PSoC4/CapSense_1_Processing.c ****     ptrRamWdgt = (CapSense_1_RAM_WD_BASE_STRUCT *)ptrFlashWdgt->ptr2WdgtRam;
 236              		.loc 1 1047 0 discriminator 4
 237 001c B468     		ldr	r4, [r6, #8]
 238              	.LVL27:
1048:Generated_Source\PSoC4/CapSense_1_Processing.c ****     widgetType = ptrFlashWdgt->wdgtType;
 239              		.loc 1 1048 0 discriminator 4
 240 001e 7268     		ldr	r2, [r6, #4]
 241 0020 0192     		str	r2, [sp, #4]
 242              	.LVL28:
1049:Generated_Source\PSoC4/CapSense_1_Processing.c **** 
 243              		.loc 1 1049 0 discriminator 4
 244 0022 0293     		str	r3, [sp, #8]
 245              	.LVL29:
1056:Generated_Source\PSoC4/CapSense_1_Processing.c ****     {
 246              		.loc 1 1056 0 discriminator 4
 247 0024 0027     		movs	r7, #0
1018:Generated_Source\PSoC4/CapSense_1_Processing.c **** 
 248              		.loc 1 1018 0 discriminator 4
 249 0026 0023     		movs	r3, #0
 250 0028 0393     		str	r3, [sp, #12]
1056:Generated_Source\PSoC4/CapSense_1_Processing.c ****     {
 251              		.loc 1 1056 0 discriminator 4
 252 002a 14E0     		b	.L17
 253              	.LVL30:
 254              	.L19:
1060:Generated_Source\PSoC4/CapSense_1_Processing.c ****             #if (CapSense_1_ALP_FILTER_EN)
 255              		.loc 1 1060 0
 256 002c 029A     		ldr	r2, [sp, #8]
 257 002e 2100     		movs	r1, r4
 258 0030 2800     		movs	r0, r5
 259 0032 FFF7FEFF 		bl	CapSense_1_FtRunEnabledFiltersInternal
 260              	.LVL31:
1096:Generated_Source\PSoC4/CapSense_1_Processing.c ****         #endif /* (CapSense_1_ENABLE == CapSense_1_TST_BSLN_DUPLICATION_EN) */
 261              		.loc 1 1096 0
 262 0036 029A     		ldr	r2, [sp, #8]
 263 0038 2100     		movs	r1, r4
 264 003a 0198     		ldr	r0, [sp, #4]
 265 003c FFF7FEFF 		bl	CapSense_1_FtUpdateBaseline
 266              	.LVL32:
 267 0040 0390     		str	r0, [sp, #12]
 268              	.LVL33:
1099:Generated_Source\PSoC4/CapSense_1_Processing.c **** 
 269              		.loc 1 1099 0
 270 0042 2100     		movs	r1, r4
ARM GAS  C:\Users\MICHAE~1.MAC\AppData\Local\Temp\ccr99qdP.s 			page 31


 271 0044 0198     		ldr	r0, [sp, #4]
 272              	.LVL34:
 273 0046 FFF7FEFF 		bl	CapSense_1_DpUpdateDifferences
 274              	.LVL35:
1102:Generated_Source\PSoC4/CapSense_1_Processing.c **** 
 275              		.loc 1 1102 0
 276 004a 1834     		adds	r4, r4, #24
 277              	.LVL36:
1106:Generated_Source\PSoC4/CapSense_1_Processing.c ****         #endif /* #if (CapSense_1_ENABLE == CapSense_1_RC_FILTER_EN) */
 278              		.loc 1 1106 0
 279 004c 5B46     		mov	r3, fp
 280 004e 002B     		cmp	r3, #0
 281 0050 00D1     		bne	.L18
 282              	.LVL37:
1106:Generated_Source\PSoC4/CapSense_1_Processing.c ****         #endif /* #if (CapSense_1_ENABLE == CapSense_1_RC_FILTER_EN) */
 283              		.loc 1 1106 0 is_stmt 0 discriminator 1
 284 0052 2435     		adds	r5, r5, #36
 285              	.LVL38:
 286              	.L18:
1056:Generated_Source\PSoC4/CapSense_1_Processing.c ****     {
 287              		.loc 1 1056 0 is_stmt 1 discriminator 2
 288 0054 0137     		adds	r7, r7, #1
 289              	.LVL39:
 290              	.L17:
1056:Generated_Source\PSoC4/CapSense_1_Processing.c ****     {
 291              		.loc 1 1056 0 is_stmt 0 discriminator 1
 292 0056 338B     		ldrh	r3, [r6, #24]
 293 0058 9F42     		cmp	r7, r3
 294 005a E7D3     		bcc	.L19
1110:Generated_Source\PSoC4/CapSense_1_Processing.c **** 
 295              		.loc 1 1110 0 is_stmt 1
 296 005c 0398     		ldr	r0, [sp, #12]
 297 005e 04B0     		add	sp, sp, #16
 298              		@ sp needed
 299              	.LVL40:
 300              	.LVL41:
 301              	.LVL42:
 302              	.LVL43:
 303              	.LVL44:
 304 0060 04BC     		pop	{r2}
 305 0062 9346     		mov	fp, r2
 306 0064 F0BD     		pop	{r4, r5, r6, r7, pc}
 307              		.cfi_endproc
 308              	.LFE2:
 309              		.size	CapSense_1_DpProcessCsdWidgetRawCounts, .-CapSense_1_DpProcessCsdWidgetRawCounts
 310 0066 C046     		.section	.text.CapSense_1_DpProcessCsdSensorRawCountsExt,"ax",%progbits
 311              		.align	2
 312              		.global	CapSense_1_DpProcessCsdSensorRawCountsExt
 313              		.code	16
 314              		.thumb_func
 315              		.type	CapSense_1_DpProcessCsdSensorRawCountsExt, %function
 316              	CapSense_1_DpProcessCsdSensorRawCountsExt:
 317              	.LFB3:
1151:Generated_Source\PSoC4/CapSense_1_Processing.c ****     uint32 result = CYRET_SUCCESS;
 318              		.loc 1 1151 0
 319              		.cfi_startproc
 320              		@ args = 0, pretend = 0, frame = 8
ARM GAS  C:\Users\MICHAE~1.MAC\AppData\Local\Temp\ccr99qdP.s 			page 32


 321              		@ frame_needed = 0, uses_anonymous_args = 0
 322              	.LVL45:
 323 0000 F0B5     		push	{r4, r5, r6, r7, lr}
 324              		.cfi_def_cfa_offset 20
 325              		.cfi_offset 4, -20
 326              		.cfi_offset 5, -16
 327              		.cfi_offset 6, -12
 328              		.cfi_offset 7, -8
 329              		.cfi_offset 14, -4
 330 0002 83B0     		sub	sp, sp, #12
 331              		.cfi_def_cfa_offset 32
 332 0004 0E00     		movs	r6, r1
 333 0006 0192     		str	r2, [sp, #4]
 334 0008 1C00     		movs	r4, r3
 335              	.LVL46:
1166:Generated_Source\PSoC4/CapSense_1_Processing.c ****     ptrRamWdgt = (CapSense_1_RAM_WD_BASE_STRUCT *)ptrFlashWdgt->ptr2WdgtRam;
 336              		.loc 1 1166 0
 337 000a 857E     		ldrb	r5, [r0, #26]
 338              	.LVL47:
1167:Generated_Source\PSoC4/CapSense_1_Processing.c **** 
 339              		.loc 1 1167 0
 340 000c 4768     		ldr	r7, [r0, #4]
 341              	.LVL48:
1170:Generated_Source\PSoC4/CapSense_1_Processing.c ****         {
 342              		.loc 1 1170 0
 343 000e E307     		lsls	r3, r4, #31
 344 0010 03D5     		bpl	.L22
 345              	.LVL49:
1172:Generated_Source\PSoC4/CapSense_1_Processing.c ****             #if (CapSense_1_ALP_FILTER_EN)
 346              		.loc 1 1172 0
 347 0012 2A00     		movs	r2, r5
 348              	.LVL50:
 349 0014 0198     		ldr	r0, [sp, #4]
 350              	.LVL51:
 351 0016 FFF7FEFF 		bl	CapSense_1_FtRunEnabledFiltersInternal
 352              	.LVL52:
 353              	.L22:
1207:Generated_Source\PSoC4/CapSense_1_Processing.c ****     {
 354              		.loc 1 1207 0
 355 001a A307     		lsls	r3, r4, #30
 356 001c 06D5     		bpl	.L25
1209:Generated_Source\PSoC4/CapSense_1_Processing.c ****     }
 357              		.loc 1 1209 0
 358 001e 2A00     		movs	r2, r5
 359              	.LVL53:
 360 0020 3100     		movs	r1, r6
 361 0022 3800     		movs	r0, r7
 362 0024 FFF7FEFF 		bl	CapSense_1_FtUpdateBaseline
 363              	.LVL54:
 364 0028 0500     		movs	r5, r0
 365              	.LVL55:
 366 002a 00E0     		b	.L23
 367              	.LVL56:
 368              	.L25:
1152:Generated_Source\PSoC4/CapSense_1_Processing.c ****     uint32  widgetType;
 369              		.loc 1 1152 0
 370 002c 0025     		movs	r5, #0
ARM GAS  C:\Users\MICHAE~1.MAC\AppData\Local\Temp\ccr99qdP.s 			page 33


 371              	.LVL57:
 372              	.L23:
1212:Generated_Source\PSoC4/CapSense_1_Processing.c ****     {
 373              		.loc 1 1212 0
 374 002e 6307     		lsls	r3, r4, #29
 375 0030 03D5     		bpl	.L24
1214:Generated_Source\PSoC4/CapSense_1_Processing.c ****     }
 376              		.loc 1 1214 0
 377 0032 3100     		movs	r1, r6
 378 0034 3800     		movs	r0, r7
 379 0036 FFF7FEFF 		bl	CapSense_1_DpUpdateDifferences
 380              	.LVL58:
 381              	.L24:
1217:Generated_Source\PSoC4/CapSense_1_Processing.c **** 
 382              		.loc 1 1217 0
 383 003a 2800     		movs	r0, r5
 384 003c 03B0     		add	sp, sp, #12
 385              		@ sp needed
 386              	.LVL59:
 387              	.LVL60:
 388              	.LVL61:
 389              	.LVL62:
 390 003e F0BD     		pop	{r4, r5, r6, r7, pc}
 391              		.cfi_endproc
 392              	.LFE3:
 393              		.size	CapSense_1_DpProcessCsdSensorRawCountsExt, .-CapSense_1_DpProcessCsdSensorRawCountsExt
 394              		.section	.text.CapSense_1_DpProcessButton,"ax",%progbits
 395              		.align	2
 396              		.global	CapSense_1_DpProcessButton
 397              		.code	16
 398              		.thumb_func
 399              		.type	CapSense_1_DpProcessButton, %function
 400              	CapSense_1_DpProcessButton:
 401              	.LFB6:
1422:Generated_Source\PSoC4/CapSense_1_Processing.c **** 
1423:Generated_Source\PSoC4/CapSense_1_Processing.c **** 
1424:Generated_Source\PSoC4/CapSense_1_Processing.c **** #if ((0u != CapSense_1_BUTTON_WIDGET_EN) || (0u != CapSense_1_CSX_MATRIX_WIDGET_EN))
1425:Generated_Source\PSoC4/CapSense_1_Processing.c **** /*******************************************************************************
1426:Generated_Source\PSoC4/CapSense_1_Processing.c **** * Function Name: CapSense_1_DpProcessButton
1427:Generated_Source\PSoC4/CapSense_1_Processing.c **** ****************************************************************************//**
1428:Generated_Source\PSoC4/CapSense_1_Processing.c **** *
1429:Generated_Source\PSoC4/CapSense_1_Processing.c **** * \brief
1430:Generated_Source\PSoC4/CapSense_1_Processing.c **** *   Processes the status of the Button widget.
1431:Generated_Source\PSoC4/CapSense_1_Processing.c **** *
1432:Generated_Source\PSoC4/CapSense_1_Processing.c **** * \details
1433:Generated_Source\PSoC4/CapSense_1_Processing.c **** *   This API processes the status of the CSD/CSX Button widget and
1434:Generated_Source\PSoC4/CapSense_1_Processing.c **** *   CSX Matrix Button widget. It applies the hysteresis and de-bounce algorithm
1435:Generated_Source\PSoC4/CapSense_1_Processing.c **** *   to each sensor difference value. This API is expected to be called
1436:Generated_Source\PSoC4/CapSense_1_Processing.c **** *   after each new widget scan. If it is called multiple times for the same
1437:Generated_Source\PSoC4/CapSense_1_Processing.c **** *   scan data, the de-bounce algorithm will not work properly.
1438:Generated_Source\PSoC4/CapSense_1_Processing.c **** *
1439:Generated_Source\PSoC4/CapSense_1_Processing.c **** *   This API does not update any Data Structure registers
1440:Generated_Source\PSoC4/CapSense_1_Processing.c **** *   except the de-bounce counters.
1441:Generated_Source\PSoC4/CapSense_1_Processing.c **** *
1442:Generated_Source\PSoC4/CapSense_1_Processing.c **** * \param currStatus   The current status of the widget sensors.
1443:Generated_Source\PSoC4/CapSense_1_Processing.c **** * \param ptrFlashWdgt The pointer to the Flash Widget Object.
1444:Generated_Source\PSoC4/CapSense_1_Processing.c **** *
ARM GAS  C:\Users\MICHAE~1.MAC\AppData\Local\Temp\ccr99qdP.s 			page 34


1445:Generated_Source\PSoC4/CapSense_1_Processing.c **** * \return Returns the status of the widget's sensors. Bit #0 - corresponds to Sensor #0.
1446:Generated_Source\PSoC4/CapSense_1_Processing.c **** *
1447:Generated_Source\PSoC4/CapSense_1_Processing.c **** *******************************************************************************/
1448:Generated_Source\PSoC4/CapSense_1_Processing.c **** uint32 CapSense_1_DpProcessButton(uint32 currStatus, CapSense_1_FLASH_WD_STRUCT const *ptrFlashWdgt
1449:Generated_Source\PSoC4/CapSense_1_Processing.c **** {
 402              		.loc 1 1449 0
 403              		.cfi_startproc
 404              		@ args = 0, pretend = 0, frame = 0
 405              		@ frame_needed = 0, uses_anonymous_args = 0
 406              	.LVL63:
 407 0000 F0B5     		push	{r4, r5, r6, r7, lr}
 408              		.cfi_def_cfa_offset 20
 409              		.cfi_offset 4, -20
 410              		.cfi_offset 5, -16
 411              		.cfi_offset 6, -12
 412              		.cfi_offset 7, -8
 413              		.cfi_offset 14, -4
1450:Generated_Source\PSoC4/CapSense_1_Processing.c ****     uint32 snsCnt;
1451:Generated_Source\PSoC4/CapSense_1_Processing.c ****     uint32 snsMask;
1452:Generated_Source\PSoC4/CapSense_1_Processing.c ****     uint32 newStatus;
1453:Generated_Source\PSoC4/CapSense_1_Processing.c ****     uint32 touchTh;
1454:Generated_Source\PSoC4/CapSense_1_Processing.c ****     CapSense_1_RAM_SNS_STRUCT *ptrSnsTmp;
1455:Generated_Source\PSoC4/CapSense_1_Processing.c ****     CapSense_1_RAM_WD_BASE_STRUCT *ptrRamWdgt;
1456:Generated_Source\PSoC4/CapSense_1_Processing.c ****     uint8 * ptrDebounceCnt;
1457:Generated_Source\PSoC4/CapSense_1_Processing.c **** 
1458:Generated_Source\PSoC4/CapSense_1_Processing.c ****     snsCnt = ptrFlashWdgt->totalNumSns;
 414              		.loc 1 1458 0
 415 0002 0A8B     		ldrh	r2, [r1, #24]
 416              	.LVL64:
1459:Generated_Source\PSoC4/CapSense_1_Processing.c ****     ptrSnsTmp = ptrFlashWdgt->ptr2SnsRam;
 417              		.loc 1 1459 0
 418 0004 8D68     		ldr	r5, [r1, #8]
 419              	.LVL65:
1460:Generated_Source\PSoC4/CapSense_1_Processing.c ****     ptrRamWdgt = (CapSense_1_RAM_WD_BASE_STRUCT *)ptrFlashWdgt->ptr2WdgtRam;
 420              		.loc 1 1460 0
 421 0006 4F68     		ldr	r7, [r1, #4]
 422              	.LVL66:
1461:Generated_Source\PSoC4/CapSense_1_Processing.c ****     ptrDebounceCnt = ptrFlashWdgt->ptr2DebounceArr;
 423              		.loc 1 1461 0
 424 0008 0B69     		ldr	r3, [r1, #16]
 425              	.LVL67:
1462:Generated_Source\PSoC4/CapSense_1_Processing.c **** 
1463:Generated_Source\PSoC4/CapSense_1_Processing.c ****     /* Go through all widget's sensors */
1464:Generated_Source\PSoC4/CapSense_1_Processing.c ****     snsMask = 1Lu;
 426              		.loc 1 1464 0
 427 000a 0121     		movs	r1, #1
 428              	.LVL68:
1465:Generated_Source\PSoC4/CapSense_1_Processing.c ****     for (; snsCnt-- > 0u; )
 429              		.loc 1 1465 0
 430 000c 25E0     		b	.L27
 431              	.LVL69:
 432              	.L35:
1466:Generated_Source\PSoC4/CapSense_1_Processing.c ****     {
1467:Generated_Source\PSoC4/CapSense_1_Processing.c ****         /* Calculate touch threshold taking into account hysteresis
1468:Generated_Source\PSoC4/CapSense_1_Processing.c ****            and current sensor state. */
1469:Generated_Source\PSoC4/CapSense_1_Processing.c ****         touchTh = (0u == (currStatus & snsMask)) ?
 433              		.loc 1 1469 0
ARM GAS  C:\Users\MICHAE~1.MAC\AppData\Local\Temp\ccr99qdP.s 			page 35


 434 000e 0C00     		movs	r4, r1
 435              	.LVL70:
 436 0010 0440     		ands	r4, r0
1470:Generated_Source\PSoC4/CapSense_1_Processing.c ****                   ((uint32)ptrRamWdgt->fingerTh + ptrRamWdgt->hysteresis) :
 437              		.loc 1 1470 0
 438 0012 03D1     		bne	.L28
 439              		.loc 1 1470 0 is_stmt 0 discriminator 1
 440 0014 7E88     		ldrh	r6, [r7, #2]
 441 0016 BA79     		ldrb	r2, [r7, #6]
 442 0018 B218     		adds	r2, r6, r2
 443 001a 02E0     		b	.L29
 444              	.L28:
1471:Generated_Source\PSoC4/CapSense_1_Processing.c ****                   ((uint32)ptrRamWdgt->fingerTh - ptrRamWdgt->hysteresis);
 445              		.loc 1 1471 0 is_stmt 1 discriminator 2
 446 001c 7A88     		ldrh	r2, [r7, #2]
 447 001e BE79     		ldrb	r6, [r7, #6]
1470:Generated_Source\PSoC4/CapSense_1_Processing.c ****                   ((uint32)ptrRamWdgt->fingerTh + ptrRamWdgt->hysteresis) :
 448              		.loc 1 1470 0 discriminator 2
 449 0020 921B     		subs	r2, r2, r6
 450              	.L29:
 451              	.LVL71:
1472:Generated_Source\PSoC4/CapSense_1_Processing.c **** 
1473:Generated_Source\PSoC4/CapSense_1_Processing.c ****         /* Determine new potential sensor state */
1474:Generated_Source\PSoC4/CapSense_1_Processing.c ****         newStatus = (ptrSnsTmp->diff > touchTh) ? snsMask : 0u;
 452              		.loc 1 1474 0
 453 0022 2E8A     		ldrh	r6, [r5, #16]
 454 0024 B242     		cmp	r2, r6
 455 0026 01D3     		bcc	.L36
 456 0028 0022     		movs	r2, #0
 457              	.LVL72:
 458 002a 00E0     		b	.L30
 459              	.LVL73:
 460              	.L36:
 461 002c 0A00     		movs	r2, r1
 462              	.LVL74:
 463              	.L30:
1475:Generated_Source\PSoC4/CapSense_1_Processing.c **** 
1476:Generated_Source\PSoC4/CapSense_1_Processing.c ****         /* Sensor state changed ? */
1477:Generated_Source\PSoC4/CapSense_1_Processing.c ****         if (newStatus != (currStatus & snsMask))
 464              		.loc 1 1477 0 discriminator 4
 465 002e A242     		cmp	r2, r4
 466 0030 02D0     		beq	.L31
1478:Generated_Source\PSoC4/CapSense_1_Processing.c ****         {
1479:Generated_Source\PSoC4/CapSense_1_Processing.c ****             /* Decrement de-bounce counter */
1480:Generated_Source\PSoC4/CapSense_1_Processing.c ****             (*ptrDebounceCnt)--;
 467              		.loc 1 1480 0
 468 0032 1E78     		ldrb	r6, [r3]
 469 0034 013E     		subs	r6, r6, #1
 470 0036 1E70     		strb	r6, [r3]
 471              	.L31:
1481:Generated_Source\PSoC4/CapSense_1_Processing.c ****         }
1482:Generated_Source\PSoC4/CapSense_1_Processing.c **** 
1483:Generated_Source\PSoC4/CapSense_1_Processing.c ****         /*
1484:Generated_Source\PSoC4/CapSense_1_Processing.c ****         *  This piece of code has two objectives:
1485:Generated_Source\PSoC4/CapSense_1_Processing.c ****         *  1. Reset de-bounce counter if the sensor state did not change.
1486:Generated_Source\PSoC4/CapSense_1_Processing.c ****         *     (It is possible that during previous processing cycles sensor
1487:Generated_Source\PSoC4/CapSense_1_Processing.c ****         *     was active and de-bounce counter was decremented.)
ARM GAS  C:\Users\MICHAE~1.MAC\AppData\Local\Temp\ccr99qdP.s 			page 36


1488:Generated_Source\PSoC4/CapSense_1_Processing.c ****         *  2. Set new sensor state after successful de-bounce.
1489:Generated_Source\PSoC4/CapSense_1_Processing.c ****         */
1490:Generated_Source\PSoC4/CapSense_1_Processing.c ****         if ((newStatus == (currStatus & snsMask)) || (0u == (*ptrDebounceCnt)))
 472              		.loc 1 1490 0
 473 0038 A242     		cmp	r2, r4
 474 003a 02D0     		beq	.L32
 475              		.loc 1 1490 0 is_stmt 0 discriminator 1
 476 003c 1C78     		ldrb	r4, [r3]
 477 003e 002C     		cmp	r4, #0
 478 0040 07D1     		bne	.L33
 479              	.L32:
1491:Generated_Source\PSoC4/CapSense_1_Processing.c ****         {
1492:Generated_Source\PSoC4/CapSense_1_Processing.c ****             /* Set new sensor status */
1493:Generated_Source\PSoC4/CapSense_1_Processing.c ****             currStatus &= ~snsMask;
 480              		.loc 1 1493 0 is_stmt 1
 481 0042 8843     		bics	r0, r1
 482              	.LVL75:
1494:Generated_Source\PSoC4/CapSense_1_Processing.c ****             currStatus |= newStatus;
 483              		.loc 1 1494 0
 484 0044 1043     		orrs	r0, r2
 485              	.LVL76:
1495:Generated_Source\PSoC4/CapSense_1_Processing.c **** 
1496:Generated_Source\PSoC4/CapSense_1_Processing.c ****             /* Reset de-bounce counter */
1497:Generated_Source\PSoC4/CapSense_1_Processing.c ****             #if (0u != CapSense_1_OFF_DEBOUNCE_EN)
1498:Generated_Source\PSoC4/CapSense_1_Processing.c ****                 *ptrDebounceCnt = (0Lu == newStatus) ? ptrRamWdgt->onDebounce : ptrRamWdgt->offDebo
1499:Generated_Source\PSoC4/CapSense_1_Processing.c ****             #else
1500:Generated_Source\PSoC4/CapSense_1_Processing.c ****                 *ptrDebounceCnt = (0Lu == newStatus) ? ptrRamWdgt->onDebounce : DEFAULT_OFF_DEBOUNC
 486              		.loc 1 1500 0
 487 0046 002A     		cmp	r2, #0
 488 0048 01D1     		bne	.L37
 489              		.loc 1 1500 0 is_stmt 0 discriminator 1
 490 004a FA79     		ldrb	r2, [r7, #7]
 491              	.LVL77:
 492 004c 00E0     		b	.L34
 493              	.LVL78:
 494              	.L37:
 495              		.loc 1 1500 0
 496 004e 0122     		movs	r2, #1
 497              	.LVL79:
 498              	.L34:
 499              		.loc 1 1500 0 discriminator 4
 500 0050 1A70     		strb	r2, [r3]
 501              	.L33:
1501:Generated_Source\PSoC4/CapSense_1_Processing.c ****             #endif /* #if (0u != CapSense_1_OFF_DEBOUNCE_EN) */
1502:Generated_Source\PSoC4/CapSense_1_Processing.c ****         }
1503:Generated_Source\PSoC4/CapSense_1_Processing.c **** 
1504:Generated_Source\PSoC4/CapSense_1_Processing.c ****         /* Move mask to the next sensor */
1505:Generated_Source\PSoC4/CapSense_1_Processing.c ****         snsMask <<= 1u;
 502              		.loc 1 1505 0 is_stmt 1
 503 0052 4900     		lsls	r1, r1, #1
 504              	.LVL80:
1506:Generated_Source\PSoC4/CapSense_1_Processing.c **** 
1507:Generated_Source\PSoC4/CapSense_1_Processing.c ****         ptrSnsTmp++;
 505              		.loc 1 1507 0
 506 0054 1835     		adds	r5, r5, #24
 507              	.LVL81:
1508:Generated_Source\PSoC4/CapSense_1_Processing.c ****         ptrDebounceCnt++;
ARM GAS  C:\Users\MICHAE~1.MAC\AppData\Local\Temp\ccr99qdP.s 			page 37


 508              		.loc 1 1508 0
 509 0056 0133     		adds	r3, r3, #1
 510              	.LVL82:
1465:Generated_Source\PSoC4/CapSense_1_Processing.c ****     {
 511              		.loc 1 1465 0
 512 0058 6246     		mov	r2, ip
 513              	.LVL83:
 514              	.L27:
 515 005a 541E     		subs	r4, r2, #1
 516 005c A446     		mov	ip, r4
 517              	.LVL84:
 518 005e 002A     		cmp	r2, #0
 519 0060 D5D1     		bne	.L35
1509:Generated_Source\PSoC4/CapSense_1_Processing.c ****     }
1510:Generated_Source\PSoC4/CapSense_1_Processing.c **** 
1511:Generated_Source\PSoC4/CapSense_1_Processing.c ****     return currStatus;
1512:Generated_Source\PSoC4/CapSense_1_Processing.c **** }
 520              		.loc 1 1512 0
 521              		@ sp needed
 522              	.LVL85:
 523              	.LVL86:
 524              	.LVL87:
 525 0062 F0BD     		pop	{r4, r5, r6, r7, pc}
 526              		.cfi_endproc
 527              	.LFE6:
 528              		.size	CapSense_1_DpProcessButton, .-CapSense_1_DpProcessButton
 529              		.section	.text.CapSense_1_DpProcessCsdWidgetStatus,"ax",%progbits
 530              		.align	2
 531              		.global	CapSense_1_DpProcessCsdWidgetStatus
 532              		.code	16
 533              		.thumb_func
 534              		.type	CapSense_1_DpProcessCsdWidgetStatus, %function
 535              	CapSense_1_DpProcessCsdWidgetStatus:
 536              	.LFB4:
1247:Generated_Source\PSoC4/CapSense_1_Processing.c ****     uint32 sensorStatus;
 537              		.loc 1 1247 0
 538              		.cfi_startproc
 539              		@ args = 0, pretend = 0, frame = 0
 540              		@ frame_needed = 0, uses_anonymous_args = 0
 541              	.LVL88:
 542 0000 70B5     		push	{r4, r5, r6, lr}
 543              		.cfi_def_cfa_offset 16
 544              		.cfi_offset 4, -16
 545              		.cfi_offset 5, -12
 546              		.cfi_offset 6, -8
 547              		.cfi_offset 14, -4
 548 0002 0400     		movs	r4, r0
1253:Generated_Source\PSoC4/CapSense_1_Processing.c ****     sensorStatus = CapSense_1_dsRam.snsStatus[widgetId];
 549              		.loc 1 1253 0
 550 0004 8A7E     		ldrb	r2, [r1, #26]
 551              	.LVL89:
1254:Generated_Source\PSoC4/CapSense_1_Processing.c **** 
 552              		.loc 1 1254 0
 553 0006 134B     		ldr	r3, .L45
 554 0008 1B18     		adds	r3, r3, r0
 555 000a 1D7E     		ldrb	r5, [r3, #24]
 556              	.LVL90:
ARM GAS  C:\Users\MICHAE~1.MAC\AppData\Local\Temp\ccr99qdP.s 			page 38


1256:Generated_Source\PSoC4/CapSense_1_Processing.c ****     {
 557              		.loc 1 1256 0
 558 000c 012A     		cmp	r2, #1
 559 000e 04D1     		bne	.L44
1260:Generated_Source\PSoC4/CapSense_1_Processing.c ****             break;
 560              		.loc 1 1260 0
 561 0010 2800     		movs	r0, r5
 562              	.LVL91:
 563 0012 FFF7FEFF 		bl	CapSense_1_DpProcessButton
 564              	.LVL92:
 565 0016 0500     		movs	r5, r0
 566              	.LVL93:
1261:Generated_Source\PSoC4/CapSense_1_Processing.c ****     #endif /* #if (0u != CapSense_1_BUTTON_WIDGET_EN) */
 567              		.loc 1 1261 0
 568 0018 02E0     		b	.L41
 569              	.LVL94:
 570              	.L44:
1293:Generated_Source\PSoC4/CapSense_1_Processing.c ****         break;
 571              		.loc 1 1293 0 discriminator 1
 572 001a 0020     		movs	r0, #0
 573              	.LVL95:
 574 001c FFF7FEFF 		bl	CyHalt
 575              	.LVL96:
 576              	.L41:
1297:Generated_Source\PSoC4/CapSense_1_Processing.c **** 
 577              		.loc 1 1297 0
 578 0020 0C4B     		ldr	r3, .L45
 579 0022 1B19     		adds	r3, r3, r4
 580 0024 1D76     		strb	r5, [r3, #24]
1300:Generated_Source\PSoC4/CapSense_1_Processing.c ****     wdStatusMask = CapSense_1_GET_WDGT_STATUS_MASK(widgetId);
 581              		.loc 1 1300 0
 582 0026 6309     		lsrs	r3, r4, #5
 583              	.LVL97:
1301:Generated_Source\PSoC4/CapSense_1_Processing.c **** 
 584              		.loc 1 1301 0
 585 0028 1F22     		movs	r2, #31
 586 002a 1440     		ands	r4, r2
 587              	.LVL98:
 588 002c 1E3A     		subs	r2, r2, #30
 589 002e A240     		lsls	r2, r2, r4
 590              	.LVL99:
1304:Generated_Source\PSoC4/CapSense_1_Processing.c ****     {
 591              		.loc 1 1304 0
 592 0030 002D     		cmp	r5, #0
 593 0032 07D1     		bne	.L42
1306:Generated_Source\PSoC4/CapSense_1_Processing.c ****     }
 594              		.loc 1 1306 0
 595 0034 0433     		adds	r3, r3, #4
 596              	.LVL100:
 597 0036 9B00     		lsls	r3, r3, #2
 598              	.LVL101:
 599 0038 0649     		ldr	r1, .L45
 600 003a CB18     		adds	r3, r1, r3
 601 003c 5968     		ldr	r1, [r3, #4]
 602 003e 9143     		bics	r1, r2
 603 0040 5960     		str	r1, [r3, #4]
 604 0042 06E0     		b	.L38
ARM GAS  C:\Users\MICHAE~1.MAC\AppData\Local\Temp\ccr99qdP.s 			page 39


 605              	.LVL102:
 606              	.L42:
1310:Generated_Source\PSoC4/CapSense_1_Processing.c ****     }
 607              		.loc 1 1310 0
 608 0044 0433     		adds	r3, r3, #4
 609              	.LVL103:
 610 0046 9B00     		lsls	r3, r3, #2
 611              	.LVL104:
 612 0048 0249     		ldr	r1, .L45
 613 004a CB18     		adds	r3, r1, r3
 614 004c 5968     		ldr	r1, [r3, #4]
 615 004e 0A43     		orrs	r2, r1
 616              	.LVL105:
 617 0050 5A60     		str	r2, [r3, #4]
 618              	.L38:
1312:Generated_Source\PSoC4/CapSense_1_Processing.c **** #endif /* #if (0u != CapSense_1_TOTAL_CSD_WIDGETS) */
 619              		.loc 1 1312 0
 620              		@ sp needed
 621              	.LVL106:
 622              	.LVL107:
 623 0052 70BD     		pop	{r4, r5, r6, pc}
 624              	.L46:
 625              		.align	2
 626              	.L45:
 627 0054 00000000 		.word	CapSense_1_dsRam
 628              		.cfi_endproc
 629              	.LFE4:
 630              		.size	CapSense_1_DpProcessCsdWidgetStatus, .-CapSense_1_DpProcessCsdWidgetStatus
 631              		.text
 632              	.Letext0:
 633              		.file 2 "Generated_Source\\PSoC4\\cytypes.h"
 634              		.file 3 "c:\\program files (x86)\\cypress\\psoc creator\\4.2\\psoc creator\\import\\gnu\\arm\\5.4.
 635              		.file 4 "Generated_Source\\PSoC4\\CapSense_1_Configuration.h"
 636              		.file 5 "Generated_Source\\PSoC4\\CapSense_1_Structure.h"
 637              		.file 6 "c:\\program files (x86)\\cypress\\psoc creator\\4.2\\psoc creator\\import\\gnu\\arm\\5.4.
 638              		.file 7 "Generated_Source\\PSoC4\\CapSense_1_Filter.h"
 639              		.file 8 "Generated_Source\\PSoC4\\CyLib.h"