ARM GAS  C:\Users\MICHAE~1.MAC\AppData\Local\Temp\ccWHsewi.s 			page 1


   1              		.syntax unified
   2              		.cpu cortex-m0plus
   3              		.fpu softvfp
   4              		.eabi_attribute 20, 1
   5              		.eabi_attribute 21, 1
   6              		.eabi_attribute 23, 3
   7              		.eabi_attribute 24, 1
   8              		.eabi_attribute 25, 1
   9              		.eabi_attribute 26, 1
  10              		.eabi_attribute 30, 1
  11              		.eabi_attribute 34, 0
  12              		.eabi_attribute 18, 4
  13              		.thumb
  14              		.syntax unified
  15              		.file	"main.c"
  16              		.text
  17              	.Ltext0:
  18              		.cfi_sections	.debug_frame
  19              		.section	.text.LED_Control,"ax",%progbits
  20              		.align	2
  21              		.global	LED_Control
  22              		.code	16
  23              		.thumb_func
  24              		.type	LED_Control, %function
  25              	LED_Control:
  26              	.LFB34:
  27              		.file 1 "main.c"
   1:main.c        **** /* ========================================
   2:main.c        ****  *
   3:main.c        ****  * Copyright YOUR COMPANY, THE YEAR
   4:main.c        ****  * All Rights Reserved
   5:main.c        ****  * UNPUBLISHED, LICENSED SOFTWARE.
   6:main.c        ****  *
   7:main.c        ****  * CONFIDENTIAL AND PROPRIETARY INFORMATION
   8:main.c        ****  * WHICH IS THE PROPERTY OF your company.
   9:main.c        ****  *
  10:main.c        ****  * ========================================
  11:main.c        **** */
  12:main.c        **** /*******************************************************************************
  13:main.c        **** *   Included Headers
  14:main.c        **** *******************************************************************************/
  15:main.c        **** #include "Capsense_1.h"
  16:main.c        **** #include <project.h>
  17:main.c        **** 
  18:main.c        **** /*****************************************************************************
  19:main.c        **** * MACRO Definitions
  20:main.c        **** *****************************************************************************/
  21:main.c        **** uint8 header[] = {0x0Du, 0x0Au};
  22:main.c        **** uint8 tail[] = {0x00u, 0xFFu, 0xFFu};
  23:main.c        **** /* Boolean constants */
  24:main.c        **** #define LED_ON						(0u)
  25:main.c        **** #define LED_OFF						(1u)
  26:main.c        **** 
  27:main.c        **** /*****************************************************************************
  28:main.c        **** * Function Prototypes
  29:main.c        **** *****************************************************************************/ 
  30:main.c        **** void LED_Control(void);
ARM GAS  C:\Users\MICHAE~1.MAC\AppData\Local\Temp\ccWHsewi.s 			page 2


  31:main.c        **** 
  32:main.c        **** 
  33:main.c        **** int main (void){
  34:main.c        ****     CyGlobalIntEnable; /* Enable global interrupts. */
  35:main.c        **** 
  36:main.c        ****     //I2CS_Start();                              /* Start EZI2C Component */
  37:main.c        ****     /* 
  38:main.c        ****     *  Set up communication and initialize data buffer to CapSense data structure
  39:main.c        ****     *  to use Tuner application
  40:main.c        ****     */
  41:main.c        ****     //I2CS_EzI2CSetBuffer1(sizeof(CapSense_1_dsRam), sizeof(CapSense_1_dsRam),(uint8_t*)&(CapSense_
  42:main.c        **** 
  43:main.c        ****     UART_Start();                                /* Start UART SCB Component */
  44:main.c        ****     
  45:main.c        ****     /* Place your initialization/startup code here (e.g. MyInst_Start()) */
  46:main.c        ****     CapSense_1_Start();
  47:main.c        ****     CapSense_1_ScanAllWidgets();                  /* Scan all widgets */ 
  48:main.c        ****     
  49:main.c        ****     for(;;){
  50:main.c        ****          if(!CapSense_1_IsBusy()){
  51:main.c        ****             CapSense_1_ProcessAllWidgets();       /* Process all widgets */
  52:main.c        ****             CapSense_1_RunTuner();                /* To sync with Tuner application */
  53:main.c        ****             LED_Control();
  54:main.c        ****             
  55:main.c        ****             /* Send packet header */
  56:main.c        ****             UART_SpiUartPutArray((uint8*)(&header),sizeof(header));
  57:main.c        ****             /* Send packet with CapSense data */
  58:main.c        ****             UART_SpiUartPutArray((uint8 *)(&CapSense_1_dsRam),sizeof(CapSense_1_dsRam));
  59:main.c        ****             /* Send packet tail */
  60:main.c        ****             UART_SpiUartPutArray((uint8*)(&tail),sizeof(tail));
  61:main.c        ****             
  62:main.c        ****             if (CapSense_1_IsAnyWidgetActive()){
  63:main.c        ****                 //Code if any button was pressed
  64:main.c        ****             }                          
  65:main.c        ****             CapSense_1_ScanAllWidgets();          /* Start next scan */
  66:main.c        ****         }
  67:main.c        ****         /* CPU Sleep */
  68:main.c        ****         CySysPmSleep();
  69:main.c        ****     }
  70:main.c        **** }
  71:main.c        **** 
  72:main.c        **** 
  73:main.c        **** void LED_Control()
  74:main.c        **** {
  28              		.loc 1 74 0
  29              		.cfi_startproc
  30              		@ args = 0, pretend = 0, frame = 0
  31              		@ frame_needed = 0, uses_anonymous_args = 0
  32 0000 10B5     		push	{r4, lr}
  33              		.cfi_def_cfa_offset 8
  34              		.cfi_offset 4, -8
  35              		.cfi_offset 14, -4
  75:main.c        ****     LED0_Write(CapSense_1_IsWidgetActive(CapSense_1_BUTTON0_WDGT_ID) ? LED_ON : LED_OFF );
  36              		.loc 1 75 0
  37 0002 0020     		movs	r0, #0
  38 0004 FFF7FEFF 		bl	CapSense_1_IsWidgetActive
  39              	.LVL0:
ARM GAS  C:\Users\MICHAE~1.MAC\AppData\Local\Temp\ccWHsewi.s 			page 3


  40 0008 4342     		rsbs	r3, r0, #0
  41 000a 5841     		adcs	r0, r0, r3
  42 000c C0B2     		uxtb	r0, r0
  43 000e FFF7FEFF 		bl	LED0_Write
  44              	.LVL1:
  76:main.c        ****     LED1_Write(CapSense_1_IsWidgetActive(CapSense_1_BUTTON1_WDGT_ID) ? LED_ON : LED_OFF );
  45              		.loc 1 76 0
  46 0012 0120     		movs	r0, #1
  47 0014 FFF7FEFF 		bl	CapSense_1_IsWidgetActive
  48              	.LVL2:
  49 0018 4342     		rsbs	r3, r0, #0
  50 001a 5841     		adcs	r0, r0, r3
  51 001c C0B2     		uxtb	r0, r0
  52 001e FFF7FEFF 		bl	LED1_Write
  53              	.LVL3:
  77:main.c        ****     LED2_Write(CapSense_1_IsWidgetActive(CapSense_1_BUTTON2_WDGT_ID) ? LED_ON : LED_OFF );
  54              		.loc 1 77 0
  55 0022 0220     		movs	r0, #2
  56 0024 FFF7FEFF 		bl	CapSense_1_IsWidgetActive
  57              	.LVL4:
  58 0028 4342     		rsbs	r3, r0, #0
  59 002a 5841     		adcs	r0, r0, r3
  60 002c C0B2     		uxtb	r0, r0
  61 002e FFF7FEFF 		bl	LED2_Write
  62              	.LVL5:
  78:main.c        ****     LED3_Write(CapSense_1_IsWidgetActive(CapSense_1_BUTTON3_WDGT_ID) ? LED_ON : LED_OFF );
  63              		.loc 1 78 0
  64 0032 0320     		movs	r0, #3
  65 0034 FFF7FEFF 		bl	CapSense_1_IsWidgetActive
  66              	.LVL6:
  67 0038 4342     		rsbs	r3, r0, #0
  68 003a 5841     		adcs	r0, r0, r3
  69 003c C0B2     		uxtb	r0, r0
  70 003e FFF7FEFF 		bl	LED3_Write
  71              	.LVL7:
  79:main.c        ****     LED4_Write(CapSense_1_IsWidgetActive(CapSense_1_BUTTON4_WDGT_ID) ? LED_ON : LED_OFF );
  72              		.loc 1 79 0
  73 0042 0420     		movs	r0, #4
  74 0044 FFF7FEFF 		bl	CapSense_1_IsWidgetActive
  75              	.LVL8:
  76 0048 4342     		rsbs	r3, r0, #0
  77 004a 5841     		adcs	r0, r0, r3
  78 004c C0B2     		uxtb	r0, r0
  79 004e FFF7FEFF 		bl	LED4_Write
  80              	.LVL9:
  80:main.c        **** }
  81              		.loc 1 80 0
  82              		@ sp needed
  83 0052 10BD     		pop	{r4, pc}
  84              		.cfi_endproc
  85              	.LFE34:
  86              		.size	LED_Control, .-LED_Control
  87              		.section	.text.main,"ax",%progbits
  88              		.align	2
  89              		.global	main
  90              		.code	16
  91              		.thumb_func
ARM GAS  C:\Users\MICHAE~1.MAC\AppData\Local\Temp\ccWHsewi.s 			page 4


  92              		.type	main, %function
  93              	main:
  94              	.LFB33:
  33:main.c        ****     CyGlobalIntEnable; /* Enable global interrupts. */
  95              		.loc 1 33 0
  96              		.cfi_startproc
  97              		@ Volatile: function does not return.
  98              		@ args = 0, pretend = 0, frame = 0
  99              		@ frame_needed = 0, uses_anonymous_args = 0
 100 0000 10B5     		push	{r4, lr}
 101              		.cfi_def_cfa_offset 8
 102              		.cfi_offset 4, -8
 103              		.cfi_offset 14, -4
  34:main.c        **** 
 104              		.loc 1 34 0
 105              		.syntax divided
 106              	@ 34 "main.c" 1
 107 0002 62B6     		CPSIE   i
 108              	@ 0 "" 2
  43:main.c        ****     
 109              		.loc 1 43 0
 110              		.thumb
 111              		.syntax unified
 112 0004 FFF7FEFF 		bl	UART_Start
 113              	.LVL10:
  46:main.c        ****     CapSense_1_ScanAllWidgets();                  /* Scan all widgets */ 
 114              		.loc 1 46 0
 115 0008 FFF7FEFF 		bl	CapSense_1_Start
 116              	.LVL11:
  47:main.c        ****     
 117              		.loc 1 47 0
 118 000c FFF7FEFF 		bl	CapSense_1_ScanAllWidgets
 119              	.LVL12:
 120              	.L4:
  50:main.c        ****             CapSense_1_ProcessAllWidgets();       /* Process all widgets */
 121              		.loc 1 50 0
 122 0010 FFF7FEFF 		bl	CapSense_1_IsBusy
 123              	.LVL13:
 124 0014 0028     		cmp	r0, #0
 125 0016 16D1     		bne	.L3
  51:main.c        ****             CapSense_1_RunTuner();                /* To sync with Tuner application */
 126              		.loc 1 51 0
 127 0018 FFF7FEFF 		bl	CapSense_1_ProcessAllWidgets
 128              	.LVL14:
  52:main.c        ****             LED_Control();
 129              		.loc 1 52 0
 130 001c FFF7FEFF 		bl	CapSense_1_RunTuner
 131              	.LVL15:
  53:main.c        ****             
 132              		.loc 1 53 0
 133 0020 FFF7FEFF 		bl	LED_Control
 134              	.LVL16:
  56:main.c        ****             /* Send packet with CapSense data */
 135              		.loc 1 56 0
 136 0024 094C     		ldr	r4, .L5
 137 0026 0221     		movs	r1, #2
 138 0028 2000     		movs	r0, r4
ARM GAS  C:\Users\MICHAE~1.MAC\AppData\Local\Temp\ccWHsewi.s 			page 5


 139 002a FFF7FEFF 		bl	UART_SpiUartPutArray
 140              	.LVL17:
  58:main.c        ****             /* Send packet tail */
 141              		.loc 1 58 0
 142 002e B421     		movs	r1, #180
 143 0030 0748     		ldr	r0, .L5+4
 144 0032 FFF7FEFF 		bl	UART_SpiUartPutArray
 145              	.LVL18:
  60:main.c        ****             
 146              		.loc 1 60 0
 147 0036 201D     		adds	r0, r4, #4
 148 0038 0321     		movs	r1, #3
 149 003a FFF7FEFF 		bl	UART_SpiUartPutArray
 150              	.LVL19:
  62:main.c        ****                 //Code if any button was pressed
 151              		.loc 1 62 0
 152 003e FFF7FEFF 		bl	CapSense_1_IsAnyWidgetActive
 153              	.LVL20:
  65:main.c        ****         }
 154              		.loc 1 65 0
 155 0042 FFF7FEFF 		bl	CapSense_1_ScanAllWidgets
 156              	.LVL21:
 157              	.L3:
  68:main.c        ****     }
 158              		.loc 1 68 0
 159 0046 FFF7FEFF 		bl	CySysPmSleep
 160              	.LVL22:
  69:main.c        **** }
 161              		.loc 1 69 0
 162 004a E1E7     		b	.L4
 163              	.L6:
 164              		.align	2
 165              	.L5:
 166 004c 00000000 		.word	.LANCHOR0
 167 0050 00000000 		.word	CapSense_1_dsRam
 168              		.cfi_endproc
 169              	.LFE33:
 170              		.size	main, .-main
 171              		.global	tail
 172              		.global	header
 173              		.data
 174              		.align	2
 175              		.set	.LANCHOR0,. + 0
 176              		.type	header, %object
 177              		.size	header, 2
 178              	header:
 179 0000 0D       		.byte	13
 180 0001 0A       		.byte	10
 181 0002 0000     		.space	2
 182              		.type	tail, %object
 183              		.size	tail, 3
 184              	tail:
 185 0004 00       		.byte	0
 186 0005 FF       		.byte	-1
 187 0006 FF       		.byte	-1
 188              		.text
 189              	.Letext0:
ARM GAS  C:\Users\MICHAE~1.MAC\AppData\Local\Temp\ccWHsewi.s 			page 6


 190              		.file 2 "Generated_Source\\PSoC4/cytypes.h"
 191              		.file 3 "Generated_Source\\PSoC4/CapSense_1_Configuration.h"
 192              		.file 4 "Generated_Source\\PSoC4/CapSense_1_Structure.h"
 193              		.file 5 "Generated_Source\\PSoC4/LED0.h"
 194              		.file 6 "Generated_Source\\PSoC4/LED1.h"
 195              		.file 7 "Generated_Source\\PSoC4/LED2.h"
 196              		.file 8 "Generated_Source\\PSoC4/LED3.h"
 197              		.file 9 "Generated_Source\\PSoC4/LED4.h"
 198              		.file 10 "Generated_Source\\PSoC4/UART.h"
 199              		.file 11 "Generated_Source\\PSoC4/CapSense_1_Control.h"
 200              		.file 12 "Generated_Source\\PSoC4/CapSense_1_Sensing.h"
 201              		.file 13 "Generated_Source\\PSoC4/CapSense_1_Tuner.h"
 202              		.file 14 "Generated_Source\\PSoC4/UART_SPI_UART.h"
 203              		.file 15 "Generated_Source\\PSoC4/cyPm.h"