ARM GAS  C:\Users\MICHAE~1.MAC\AppData\Local\Temp\cc6R6bu2.s 			page 1


   1              		.syntax unified
   2              		.cpu cortex-m0plus
   3              		.fpu softvfp
   4              		.eabi_attribute 20, 1
   5              		.eabi_attribute 21, 1
   6              		.eabi_attribute 23, 3
   7              		.eabi_attribute 24, 1
   8              		.eabi_attribute 25, 1
   9              		.eabi_attribute 26, 1
  10              		.eabi_attribute 30, 1
  11              		.eabi_attribute 34, 0
  12              		.eabi_attribute 18, 4
  13              		.thumb
  14              		.syntax unified
  15              		.file	"CapSense_Control.c"
  16              		.text
  17              	.Ltext0:
  18              		.cfi_sections	.debug_frame
  19              		.section	.text.CapSense_Initialize,"ax",%progbits
  20              		.align	2
  21              		.global	CapSense_Initialize
  22              		.code	16
  23              		.thumb_func
  24              		.type	CapSense_Initialize, %function
  25              	CapSense_Initialize:
  26              	.LFB2:
  27              		.file 1 "Generated_Source\\PSoC4\\CapSense_Control.c"
   1:Generated_Source\PSoC4/CapSense_Control.c **** /***************************************************************************//**
   2:Generated_Source\PSoC4/CapSense_Control.c **** * \file CapSense_Control.c
   3:Generated_Source\PSoC4/CapSense_Control.c **** * \version 5.0
   4:Generated_Source\PSoC4/CapSense_Control.c **** *
   5:Generated_Source\PSoC4/CapSense_Control.c **** * \brief
   6:Generated_Source\PSoC4/CapSense_Control.c **** *   This file provides the source code to the Control module API of the
   7:Generated_Source\PSoC4/CapSense_Control.c **** *   Component.
   8:Generated_Source\PSoC4/CapSense_Control.c **** *
   9:Generated_Source\PSoC4/CapSense_Control.c **** * \see CapSense v5.0 Datasheet
  10:Generated_Source\PSoC4/CapSense_Control.c **** *
  11:Generated_Source\PSoC4/CapSense_Control.c **** *//*****************************************************************************
  12:Generated_Source\PSoC4/CapSense_Control.c **** * Copyright (2016-2017), Cypress Semiconductor Corporation.
  13:Generated_Source\PSoC4/CapSense_Control.c **** ********************************************************************************
  14:Generated_Source\PSoC4/CapSense_Control.c **** * This software is owned by Cypress Semiconductor Corporation (Cypress) and is
  15:Generated_Source\PSoC4/CapSense_Control.c **** * protected by and subject to worldwide patent protection (United States and
  16:Generated_Source\PSoC4/CapSense_Control.c **** * foreign), United States copyright laws and international treaty provisions.
  17:Generated_Source\PSoC4/CapSense_Control.c **** * Cypress hereby grants to licensee a personal, non-exclusive, non-transferable
  18:Generated_Source\PSoC4/CapSense_Control.c **** * license to copy, use, modify, create derivative works of, and compile the
  19:Generated_Source\PSoC4/CapSense_Control.c **** * Cypress Source Code and derivative works for the sole purpose of creating
  20:Generated_Source\PSoC4/CapSense_Control.c **** * custom software in support of licensee product to be used only in conjunction
  21:Generated_Source\PSoC4/CapSense_Control.c **** * with a Cypress integrated circuit as specified in the applicable agreement.
  22:Generated_Source\PSoC4/CapSense_Control.c **** * Any reproduction, modification, translation, compilation, or representation of
  23:Generated_Source\PSoC4/CapSense_Control.c **** * this software except as specified above is prohibited without the express
  24:Generated_Source\PSoC4/CapSense_Control.c **** * written permission of Cypress.
  25:Generated_Source\PSoC4/CapSense_Control.c **** *
  26:Generated_Source\PSoC4/CapSense_Control.c **** * Disclaimer: CYPRESS MAKES NO WARRANTY OF ANY KIND, EXPRESS OR IMPLIED, WITH
  27:Generated_Source\PSoC4/CapSense_Control.c **** * REGARD TO THIS MATERIAL, INCLUDING, BUT NOT LIMITED TO, THE IMPLIED
  28:Generated_Source\PSoC4/CapSense_Control.c **** * WARRANTIES OF MERCHANTABILITY AND FITNESS FOR A PARTICULAR PURPOSE.
  29:Generated_Source\PSoC4/CapSense_Control.c **** * Cypress reserves the right to make changes without further notice to the
  30:Generated_Source\PSoC4/CapSense_Control.c **** * materials described herein. Cypress does not assume any liability arising out
ARM GAS  C:\Users\MICHAE~1.MAC\AppData\Local\Temp\cc6R6bu2.s 			page 2


  31:Generated_Source\PSoC4/CapSense_Control.c **** * of the application or use of any product or circuit described herein. Cypress
  32:Generated_Source\PSoC4/CapSense_Control.c **** * does not authorize its products for use as critical components in life-support
  33:Generated_Source\PSoC4/CapSense_Control.c **** * systems where a malfunction or failure may reasonably be expected to result in
  34:Generated_Source\PSoC4/CapSense_Control.c **** * significant injury to the user. The inclusion of Cypress' product in a life-
  35:Generated_Source\PSoC4/CapSense_Control.c **** * support systems application implies that the manufacturer assumes all risk of
  36:Generated_Source\PSoC4/CapSense_Control.c **** * such use and in doing so indemnifies Cypress against all charges. Use may be
  37:Generated_Source\PSoC4/CapSense_Control.c **** * limited by and subject to the applicable Cypress software license agreement.
  38:Generated_Source\PSoC4/CapSense_Control.c **** *******************************************************************************/
  39:Generated_Source\PSoC4/CapSense_Control.c **** 
  40:Generated_Source\PSoC4/CapSense_Control.c **** #include "cytypes.h"
  41:Generated_Source\PSoC4/CapSense_Control.c **** #include "CyLib.h"
  42:Generated_Source\PSoC4/CapSense_Control.c **** #include "cyPm.h"
  43:Generated_Source\PSoC4/CapSense_Control.c **** #include "CapSense_Configuration.h"
  44:Generated_Source\PSoC4/CapSense_Control.c **** #include "CapSense_Structure.h"
  45:Generated_Source\PSoC4/CapSense_Control.c **** #include "CapSense_Control.h"
  46:Generated_Source\PSoC4/CapSense_Control.c **** #include "CapSense_Processing.h"
  47:Generated_Source\PSoC4/CapSense_Control.c **** #include "CapSense_Filter.h"
  48:Generated_Source\PSoC4/CapSense_Control.c **** #include "CapSense_Sensing.h"
  49:Generated_Source\PSoC4/CapSense_Control.c **** #include "CapSense_Tuner.h"
  50:Generated_Source\PSoC4/CapSense_Control.c **** 
  51:Generated_Source\PSoC4/CapSense_Control.c **** #if (CapSense_ENABLE == CapSense_SELF_TEST_EN)
  52:Generated_Source\PSoC4/CapSense_Control.c ****     #include "CapSense_SelfTest.h"
  53:Generated_Source\PSoC4/CapSense_Control.c **** #endif
  54:Generated_Source\PSoC4/CapSense_Control.c **** 
  55:Generated_Source\PSoC4/CapSense_Control.c **** #if (0u != CapSense_ADC_EN)
  56:Generated_Source\PSoC4/CapSense_Control.c ****     #include "CapSense_Adc.h"
  57:Generated_Source\PSoC4/CapSense_Control.c **** #endif /* (0u != CapSense_ADC_EN) */
  58:Generated_Source\PSoC4/CapSense_Control.c **** 
  59:Generated_Source\PSoC4/CapSense_Control.c **** #if ((CapSense_ENABLE == CapSense_GES_GLOBAL_EN) || \
  60:Generated_Source\PSoC4/CapSense_Control.c ****      (CapSense_ENABLE == CapSense_BALLISTIC_MULTIPLIER_EN))
  61:Generated_Source\PSoC4/CapSense_Control.c ****     #include "CapSense_Gesture.h"
  62:Generated_Source\PSoC4/CapSense_Control.c **** #endif /* (CapSense_ENABLE == CapSense_GES_GLOBAL_EN) */
  63:Generated_Source\PSoC4/CapSense_Control.c **** 
  64:Generated_Source\PSoC4/CapSense_Control.c **** /**************************************************************************************************
  65:Generated_Source\PSoC4/CapSense_Control.c **** * Local definition
  66:Generated_Source\PSoC4/CapSense_Control.c **** ***************************************************************************************************
  67:Generated_Source\PSoC4/CapSense_Control.c **** #define CapSense_INIT_DONE   (1u)
  68:Generated_Source\PSoC4/CapSense_Control.c **** #define CapSense_INIT_NEEDED (0u)
  69:Generated_Source\PSoC4/CapSense_Control.c **** 
  70:Generated_Source\PSoC4/CapSense_Control.c **** /**************************************************************************************************
  71:Generated_Source\PSoC4/CapSense_Control.c **** * Local variables
  72:Generated_Source\PSoC4/CapSense_Control.c **** ***************************************************************************************************
  73:Generated_Source\PSoC4/CapSense_Control.c **** static uint8 CapSense_InitVar = CapSense_INIT_NEEDED;
  74:Generated_Source\PSoC4/CapSense_Control.c **** 
  75:Generated_Source\PSoC4/CapSense_Control.c **** /*******************************************************************************
  76:Generated_Source\PSoC4/CapSense_Control.c **** * Function Name: CapSense_Start
  77:Generated_Source\PSoC4/CapSense_Control.c **** ****************************************************************************//**
  78:Generated_Source\PSoC4/CapSense_Control.c **** *
  79:Generated_Source\PSoC4/CapSense_Control.c **** * \brief
  80:Generated_Source\PSoC4/CapSense_Control.c **** *  Initializes the Component hardware and firmware modules. This function is
  81:Generated_Source\PSoC4/CapSense_Control.c **** *  called by the application program prior to calling any other function of the
  82:Generated_Source\PSoC4/CapSense_Control.c **** *  Component.
  83:Generated_Source\PSoC4/CapSense_Control.c **** *
  84:Generated_Source\PSoC4/CapSense_Control.c **** * \details
  85:Generated_Source\PSoC4/CapSense_Control.c **** *  This function initializes the Component hardware and firmware modules and
  86:Generated_Source\PSoC4/CapSense_Control.c **** *  is called by the application program prior to calling any other API
  87:Generated_Source\PSoC4/CapSense_Control.c **** *  of the Component. When this function is called, the following tasks are
ARM GAS  C:\Users\MICHAE~1.MAC\AppData\Local\Temp\cc6R6bu2.s 			page 3


  88:Generated_Source\PSoC4/CapSense_Control.c **** *  executed as part of the initialization process:
  89:Generated_Source\PSoC4/CapSense_Control.c **** *    1. Initialize the registers of the \ref group_structures variable
  90:Generated_Source\PSoC4/CapSense_Control.c **** *       CapSense_dsRam based on the user selection in the Component
  91:Generated_Source\PSoC4/CapSense_Control.c **** *       configuration wizard.
  92:Generated_Source\PSoC4/CapSense_Control.c **** *    2. Configure the hardware to perform capacitive sensing.
  93:Generated_Source\PSoC4/CapSense_Control.c **** *    \if SECTION_C_HIGH_LEVEL
  94:Generated_Source\PSoC4/CapSense_Control.c **** *    3. If SmartSense Auto-tuning is selected for the CSD Tuning mode in the
  95:Generated_Source\PSoC4/CapSense_Control.c **** *       Basic tab, the auto-tuning algorithm is executed to set the optimal
  96:Generated_Source\PSoC4/CapSense_Control.c **** *       values for the hardware parameters of the widgets/sensors.
  97:Generated_Source\PSoC4/CapSense_Control.c **** *    \endif
  98:Generated_Source\PSoC4/CapSense_Control.c **** *    4. Calibrate the sensors and find the optimal values for IDACs of each
  99:Generated_Source\PSoC4/CapSense_Control.c **** *       widget / sensor, if the Enable IDAC auto-calibration is enabled in the
 100:Generated_Source\PSoC4/CapSense_Control.c **** *       CSD Setting or CSX Setting tabs.
 101:Generated_Source\PSoC4/CapSense_Control.c **** *    5. Perform scanning for all the sensors and initialize the baseline history.
 102:Generated_Source\PSoC4/CapSense_Control.c **** *    6. If the firmware filters are enabled in the Advanced General tab, the
 103:Generated_Source\PSoC4/CapSense_Control.c **** *       filter histories are also initialized.
 104:Generated_Source\PSoC4/CapSense_Control.c **** 
 105:Generated_Source\PSoC4/CapSense_Control.c **** *  Any next call of this API repeats an initialization process except for
 106:Generated_Source\PSoC4/CapSense_Control.c **** *  data structure initialization. Therefore, it is possible to change the
 107:Generated_Source\PSoC4/CapSense_Control.c **** *  Component configuration from the application program by writing registers to the
 108:Generated_Source\PSoC4/CapSense_Control.c **** *  data structure and calling this function again. This is also
 109:Generated_Source\PSoC4/CapSense_Control.c **** *  done inside the CapSense_RunTuner() function when a restart command
 110:Generated_Source\PSoC4/CapSense_Control.c **** *  is received.
 111:Generated_Source\PSoC4/CapSense_Control.c **** *
 112:Generated_Source\PSoC4/CapSense_Control.c **** *  When the Component operation is stopped by the CapSense_Stop()
 113:Generated_Source\PSoC4/CapSense_Control.c **** *  function, the CapSense_Start() function repeats an initialization
 114:Generated_Source\PSoC4/CapSense_Control.c **** *  process including data structure initialization.
 115:Generated_Source\PSoC4/CapSense_Control.c **** *
 116:Generated_Source\PSoC4/CapSense_Control.c **** * \return
 117:Generated_Source\PSoC4/CapSense_Control.c **** *  Returns the status of the initialization process. If CYRET_SUCCESS is not
 118:Generated_Source\PSoC4/CapSense_Control.c **** *  received, some of the initialization fails and the Component may not operate
 119:Generated_Source\PSoC4/CapSense_Control.c **** *  as expected.
 120:Generated_Source\PSoC4/CapSense_Control.c **** *
 121:Generated_Source\PSoC4/CapSense_Control.c **** *******************************************************************************/
 122:Generated_Source\PSoC4/CapSense_Control.c **** cystatus CapSense_Start(void)
 123:Generated_Source\PSoC4/CapSense_Control.c **** {
 124:Generated_Source\PSoC4/CapSense_Control.c ****     cystatus result;
 125:Generated_Source\PSoC4/CapSense_Control.c **** 
 126:Generated_Source\PSoC4/CapSense_Control.c ****     /* Initialize CapSense modules */
 127:Generated_Source\PSoC4/CapSense_Control.c ****     result = CapSense_Initialize();
 128:Generated_Source\PSoC4/CapSense_Control.c **** 
 129:Generated_Source\PSoC4/CapSense_Control.c ****     #if (CapSense_CSD_AUTOTUNE != CapSense_CSD_SS_DIS)
 130:Generated_Source\PSoC4/CapSense_Control.c ****         if (CYRET_SUCCESS == result)
 131:Generated_Source\PSoC4/CapSense_Control.c ****         {
 132:Generated_Source\PSoC4/CapSense_Control.c ****             result = CapSense_SsAutoTune();
 133:Generated_Source\PSoC4/CapSense_Control.c ****         }
 134:Generated_Source\PSoC4/CapSense_Control.c ****     #endif /* #if (CapSense_CSD_AUTOTUNE != CapSense_CSD_SS_DIS) */
 135:Generated_Source\PSoC4/CapSense_Control.c **** 
 136:Generated_Source\PSoC4/CapSense_Control.c ****     #if (CapSense_ANY_NONSS_AUTOCAL)
 137:Generated_Source\PSoC4/CapSense_Control.c ****         if (CYRET_SUCCESS == result)
 138:Generated_Source\PSoC4/CapSense_Control.c ****         {
 139:Generated_Source\PSoC4/CapSense_Control.c ****             result = CapSense_CalibrateAllWidgets();
 140:Generated_Source\PSoC4/CapSense_Control.c ****         }
 141:Generated_Source\PSoC4/CapSense_Control.c ****     #endif
 142:Generated_Source\PSoC4/CapSense_Control.c **** 
 143:Generated_Source\PSoC4/CapSense_Control.c ****     if (CYRET_SUCCESS == result)
 144:Generated_Source\PSoC4/CapSense_Control.c ****     {
ARM GAS  C:\Users\MICHAE~1.MAC\AppData\Local\Temp\cc6R6bu2.s 			page 4


 145:Generated_Source\PSoC4/CapSense_Control.c ****         result = CapSense_ScanAllWidgets();
 146:Generated_Source\PSoC4/CapSense_Control.c ****     }
 147:Generated_Source\PSoC4/CapSense_Control.c **** 
 148:Generated_Source\PSoC4/CapSense_Control.c ****     if (CYRET_SUCCESS == result)
 149:Generated_Source\PSoC4/CapSense_Control.c ****     {
 150:Generated_Source\PSoC4/CapSense_Control.c ****         /* Wait for scan to finish. */
 151:Generated_Source\PSoC4/CapSense_Control.c ****         while(CapSense_NOT_BUSY != CapSense_IsBusy())
 152:Generated_Source\PSoC4/CapSense_Control.c ****         {
 153:Generated_Source\PSoC4/CapSense_Control.c ****         }
 154:Generated_Source\PSoC4/CapSense_Control.c ****     }
 155:Generated_Source\PSoC4/CapSense_Control.c **** 
 156:Generated_Source\PSoC4/CapSense_Control.c ****     CapSense_FtInitialize();
 157:Generated_Source\PSoC4/CapSense_Control.c ****     CapSense_InitializeAllBaselines();
 158:Generated_Source\PSoC4/CapSense_Control.c **** 
 159:Generated_Source\PSoC4/CapSense_Control.c ****     #if(CapSense_ENABLE == CapSense_GES_GLOBAL_EN)
 160:Generated_Source\PSoC4/CapSense_Control.c ****         if (CYRET_SUCCESS == result)
 161:Generated_Source\PSoC4/CapSense_Control.c ****         {
 162:Generated_Source\PSoC4/CapSense_Control.c ****             CapSense_InitializeGestures();
 163:Generated_Source\PSoC4/CapSense_Control.c ****         }
 164:Generated_Source\PSoC4/CapSense_Control.c ****     #endif /* (CapSense_ENABLE == CapSense_GES_GLOBAL_EN) */
 165:Generated_Source\PSoC4/CapSense_Control.c **** 
 166:Generated_Source\PSoC4/CapSense_Control.c ****     #if (0u != CapSense_BALLISTIC_MULTIPLIER_EN)
 167:Generated_Source\PSoC4/CapSense_Control.c ****         if (CYRET_SUCCESS == result)
 168:Generated_Source\PSoC4/CapSense_Control.c ****         {
 169:Generated_Source\PSoC4/CapSense_Control.c ****             CapSense_InitializeBallisticMultiplier();
 170:Generated_Source\PSoC4/CapSense_Control.c ****         }
 171:Generated_Source\PSoC4/CapSense_Control.c ****     #endif /* (0u != CapSense_BALLISTIC_MULTIPLIER_EN) */
 172:Generated_Source\PSoC4/CapSense_Control.c **** 
 173:Generated_Source\PSoC4/CapSense_Control.c ****     #if (0u != CapSense_ADC_EN)
 174:Generated_Source\PSoC4/CapSense_Control.c ****         CapSense_AdcInitialize();
 175:Generated_Source\PSoC4/CapSense_Control.c ****     #endif /* (0u != CapSense_ADC_EN) */
 176:Generated_Source\PSoC4/CapSense_Control.c **** 
 177:Generated_Source\PSoC4/CapSense_Control.c ****     return result;
 178:Generated_Source\PSoC4/CapSense_Control.c **** }
 179:Generated_Source\PSoC4/CapSense_Control.c **** 
 180:Generated_Source\PSoC4/CapSense_Control.c **** /*******************************************************************************
 181:Generated_Source\PSoC4/CapSense_Control.c **** * Function Name: CapSense_Initialize
 182:Generated_Source\PSoC4/CapSense_Control.c **** ****************************************************************************//**
 183:Generated_Source\PSoC4/CapSense_Control.c **** *
 184:Generated_Source\PSoC4/CapSense_Control.c **** * \brief
 185:Generated_Source\PSoC4/CapSense_Control.c **** *  This function initializes the CapSense Component.
 186:Generated_Source\PSoC4/CapSense_Control.c **** *
 187:Generated_Source\PSoC4/CapSense_Control.c **** * \details
 188:Generated_Source\PSoC4/CapSense_Control.c **** *  This API initializes all sub-modules of the CapSense Component:
 189:Generated_Source\PSoC4/CapSense_Control.c **** *   - Data Structure - set the default Component parameters defined in the Customizer.
 190:Generated_Source\PSoC4/CapSense_Control.c **** *   - Data Processing - resets all widget statuses.
 191:Generated_Source\PSoC4/CapSense_Control.c **** *   - Tuner - resets tuning state.
 192:Generated_Source\PSoC4/CapSense_Control.c **** *   - Sensing - prepares CSD HW for operation.
 193:Generated_Source\PSoC4/CapSense_Control.c **** *
 194:Generated_Source\PSoC4/CapSense_Control.c **** *  Note that Data Structure module is initialized only once after the reset or
 195:Generated_Source\PSoC4/CapSense_Control.c **** *  CapSense_Stop() API is called. The repeated calls of Initialize API
 196:Generated_Source\PSoC4/CapSense_Control.c **** *  will not re-initialize Data Structure. This is done to preserve Component
 197:Generated_Source\PSoC4/CapSense_Control.c **** *  parameters that user may set in runtime.
 198:Generated_Source\PSoC4/CapSense_Control.c **** *
 199:Generated_Source\PSoC4/CapSense_Control.c **** * \return
 200:Generated_Source\PSoC4/CapSense_Control.c **** *  Return CYRET_SUCCESS if the initialization was successful.
 201:Generated_Source\PSoC4/CapSense_Control.c **** *
ARM GAS  C:\Users\MICHAE~1.MAC\AppData\Local\Temp\cc6R6bu2.s 			page 5


 202:Generated_Source\PSoC4/CapSense_Control.c **** *******************************************************************************/
 203:Generated_Source\PSoC4/CapSense_Control.c **** cystatus CapSense_Initialize(void)
 204:Generated_Source\PSoC4/CapSense_Control.c **** {
  28              		.loc 1 204 0
  29              		.cfi_startproc
  30              		@ args = 0, pretend = 0, frame = 0
  31              		@ frame_needed = 0, uses_anonymous_args = 0
  32 0000 10B5     		push	{r4, lr}
  33              		.cfi_def_cfa_offset 8
  34              		.cfi_offset 4, -8
  35              		.cfi_offset 14, -4
 205:Generated_Source\PSoC4/CapSense_Control.c ****     cystatus result;
 206:Generated_Source\PSoC4/CapSense_Control.c **** 
 207:Generated_Source\PSoC4/CapSense_Control.c ****     /* The Data Structure and Tuner are initialized only once */
 208:Generated_Source\PSoC4/CapSense_Control.c ****     if (CapSense_INIT_NEEDED == CapSense_InitVar)
  36              		.loc 1 208 0
  37 0002 084B     		ldr	r3, .L3
  38 0004 1B78     		ldrb	r3, [r3]
  39 0006 002B     		cmp	r3, #0
  40 0008 06D1     		bne	.L2
 209:Generated_Source\PSoC4/CapSense_Control.c ****     {
 210:Generated_Source\PSoC4/CapSense_Control.c ****         CapSense_DsInitialize();
  41              		.loc 1 210 0
  42 000a FFF7FEFF 		bl	CapSense_DsInitialize
  43              	.LVL0:
 211:Generated_Source\PSoC4/CapSense_Control.c ****         CapSense_TuInitialize();
  44              		.loc 1 211 0
  45 000e FFF7FEFF 		bl	CapSense_TuInitialize
  46              	.LVL1:
 212:Generated_Source\PSoC4/CapSense_Control.c ****         CapSense_InitVar = CapSense_INIT_DONE;
  47              		.loc 1 212 0
  48 0012 0122     		movs	r2, #1
  49 0014 034B     		ldr	r3, .L3
  50 0016 1A70     		strb	r2, [r3]
  51              	.L2:
 213:Generated_Source\PSoC4/CapSense_Control.c ****     }
 214:Generated_Source\PSoC4/CapSense_Control.c **** 
 215:Generated_Source\PSoC4/CapSense_Control.c ****     CapSense_DpInitialize();
  52              		.loc 1 215 0
  53 0018 FFF7FEFF 		bl	CapSense_DpInitialize
  54              	.LVL2:
 216:Generated_Source\PSoC4/CapSense_Control.c **** 
 217:Generated_Source\PSoC4/CapSense_Control.c ****     result = CapSense_SsInitialize();
  55              		.loc 1 217 0
  56 001c FFF7FEFF 		bl	CapSense_SsInitialize
  57              	.LVL3:
 218:Generated_Source\PSoC4/CapSense_Control.c **** 
 219:Generated_Source\PSoC4/CapSense_Control.c ****     return result;
 220:Generated_Source\PSoC4/CapSense_Control.c **** }
  58              		.loc 1 220 0
  59              		@ sp needed
  60 0020 10BD     		pop	{r4, pc}
  61              	.L4:
  62 0022 C046     		.align	2
  63              	.L3:
  64 0024 00000000 		.word	.LANCHOR0
  65              		.cfi_endproc
ARM GAS  C:\Users\MICHAE~1.MAC\AppData\Local\Temp\cc6R6bu2.s 			page 6


  66              	.LFE2:
  67              		.size	CapSense_Initialize, .-CapSense_Initialize
  68              		.section	.text.CapSense_Start,"ax",%progbits
  69              		.align	2
  70              		.global	CapSense_Start
  71              		.code	16
  72              		.thumb_func
  73              		.type	CapSense_Start, %function
  74              	CapSense_Start:
  75              	.LFB1:
 123:Generated_Source\PSoC4/CapSense_Control.c ****     cystatus result;
  76              		.loc 1 123 0
  77              		.cfi_startproc
  78              		@ args = 0, pretend = 0, frame = 0
  79              		@ frame_needed = 0, uses_anonymous_args = 0
  80 0000 10B5     		push	{r4, lr}
  81              		.cfi_def_cfa_offset 8
  82              		.cfi_offset 4, -8
  83              		.cfi_offset 14, -4
 127:Generated_Source\PSoC4/CapSense_Control.c **** 
  84              		.loc 1 127 0
  85 0002 FFF7FEFF 		bl	CapSense_Initialize
  86              	.LVL4:
  87 0006 041E     		subs	r4, r0, #0
  88              	.LVL5:
 137:Generated_Source\PSoC4/CapSense_Control.c ****         {
  89              		.loc 1 137 0
  90 0008 02D1     		bne	.L6
 139:Generated_Source\PSoC4/CapSense_Control.c ****         }
  91              		.loc 1 139 0
  92 000a FFF7FEFF 		bl	CapSense_CalibrateAllWidgets
  93              	.LVL6:
  94 000e 0400     		movs	r4, r0
  95              	.LVL7:
  96              	.L6:
 143:Generated_Source\PSoC4/CapSense_Control.c ****     {
  97              		.loc 1 143 0
  98 0010 002C     		cmp	r4, #0
  99 0012 02D1     		bne	.L7
 145:Generated_Source\PSoC4/CapSense_Control.c ****     }
 100              		.loc 1 145 0
 101 0014 FFF7FEFF 		bl	CapSense_ScanAllWidgets
 102              	.LVL8:
 103 0018 0400     		movs	r4, r0
 104              	.LVL9:
 105              	.L7:
 148:Generated_Source\PSoC4/CapSense_Control.c ****     {
 106              		.loc 1 148 0
 107 001a 002C     		cmp	r4, #0
 108 001c 03D1     		bne	.L8
 109              	.LVL10:
 110              	.L9:
 151:Generated_Source\PSoC4/CapSense_Control.c ****         {
 111              		.loc 1 151 0 discriminator 1
 112 001e FFF7FEFF 		bl	CapSense_IsBusy
 113              	.LVL11:
 114 0022 0028     		cmp	r0, #0
ARM GAS  C:\Users\MICHAE~1.MAC\AppData\Local\Temp\cc6R6bu2.s 			page 7


 115 0024 FBD1     		bne	.L9
 116              	.L8:
 156:Generated_Source\PSoC4/CapSense_Control.c ****     CapSense_InitializeAllBaselines();
 117              		.loc 1 156 0
 118 0026 FFF7FEFF 		bl	CapSense_FtInitialize
 119              	.LVL12:
 157:Generated_Source\PSoC4/CapSense_Control.c **** 
 120              		.loc 1 157 0
 121 002a FFF7FEFF 		bl	CapSense_InitializeAllBaselines
 122              	.LVL13:
 178:Generated_Source\PSoC4/CapSense_Control.c **** 
 123              		.loc 1 178 0
 124 002e 2000     		movs	r0, r4
 125              		@ sp needed
 126              	.LVL14:
 127 0030 10BD     		pop	{r4, pc}
 128              		.cfi_endproc
 129              	.LFE1:
 130              		.size	CapSense_Start, .-CapSense_Start
 131 0032 C046     		.section	.text.CapSense_Stop,"ax",%progbits
 132              		.align	2
 133              		.global	CapSense_Stop
 134              		.code	16
 135              		.thumb_func
 136              		.type	CapSense_Stop, %function
 137              	CapSense_Stop:
 138              	.LFB3:
 221:Generated_Source\PSoC4/CapSense_Control.c **** 
 222:Generated_Source\PSoC4/CapSense_Control.c **** /*******************************************************************************
 223:Generated_Source\PSoC4/CapSense_Control.c **** * Function Name: CapSense_Stop
 224:Generated_Source\PSoC4/CapSense_Control.c **** ****************************************************************************//**
 225:Generated_Source\PSoC4/CapSense_Control.c **** *
 226:Generated_Source\PSoC4/CapSense_Control.c **** * \brief
 227:Generated_Source\PSoC4/CapSense_Control.c **** *  Stops the Component operation.
 228:Generated_Source\PSoC4/CapSense_Control.c **** *
 229:Generated_Source\PSoC4/CapSense_Control.c **** * \details
 230:Generated_Source\PSoC4/CapSense_Control.c **** *  This function stops the Component operation, no sensor scanning can be
 231:Generated_Source\PSoC4/CapSense_Control.c **** *  executed when the Component is stopped. Once stopped, the hardware block may
 232:Generated_Source\PSoC4/CapSense_Control.c **** *  be reconfigured by the application program for any other special usage. The
 233:Generated_Source\PSoC4/CapSense_Control.c **** *  Component operation can be resumed by calling the CapSense_Resume()
 234:Generated_Source\PSoC4/CapSense_Control.c **** *  function or the Component can be reset by calling the
 235:Generated_Source\PSoC4/CapSense_Control.c **** *  CapSense_Start() function.
 236:Generated_Source\PSoC4/CapSense_Control.c **** *
 237:Generated_Source\PSoC4/CapSense_Control.c **** *  This function is called when no scanning is in progress.
 238:Generated_Source\PSoC4/CapSense_Control.c **** *  I.e. CapSense_IsBusy() returns a non-busy status.
 239:Generated_Source\PSoC4/CapSense_Control.c **** *
 240:Generated_Source\PSoC4/CapSense_Control.c **** * \return
 241:Generated_Source\PSoC4/CapSense_Control.c **** *  Returns the status of the stop process. If CYRET_SUCCESS is not received,
 242:Generated_Source\PSoC4/CapSense_Control.c **** *  the stop process fails and retries may be required.
 243:Generated_Source\PSoC4/CapSense_Control.c **** *
 244:Generated_Source\PSoC4/CapSense_Control.c **** *******************************************************************************/
 245:Generated_Source\PSoC4/CapSense_Control.c **** cystatus CapSense_Stop(void)
 246:Generated_Source\PSoC4/CapSense_Control.c **** {
 139              		.loc 1 246 0
 140              		.cfi_startproc
 141              		@ args = 0, pretend = 0, frame = 0
 142              		@ frame_needed = 0, uses_anonymous_args = 0
ARM GAS  C:\Users\MICHAE~1.MAC\AppData\Local\Temp\cc6R6bu2.s 			page 8


 143              		@ link register save eliminated.
 144              	.LVL15:
 247:Generated_Source\PSoC4/CapSense_Control.c ****     cystatus result = CYRET_SUCCESS;
 248:Generated_Source\PSoC4/CapSense_Control.c **** 
 249:Generated_Source\PSoC4/CapSense_Control.c ****     #if (CapSense_ENABLE == CapSense_ADC_EN)
 250:Generated_Source\PSoC4/CapSense_Control.c ****         /* Release CSD resources */
 251:Generated_Source\PSoC4/CapSense_Control.c ****         result = CapSense_SsReleaseResources();
 252:Generated_Source\PSoC4/CapSense_Control.c **** 
 253:Generated_Source\PSoC4/CapSense_Control.c ****         /* Release ADC resources */
 254:Generated_Source\PSoC4/CapSense_Control.c ****         CapSense_AdcStop();
 255:Generated_Source\PSoC4/CapSense_Control.c ****     #endif /* (CapSense_ENABLE == CapSense_ADC_EN) */
 256:Generated_Source\PSoC4/CapSense_Control.c **** 
 257:Generated_Source\PSoC4/CapSense_Control.c ****     CapSense_InitVar = CapSense_INIT_NEEDED;
 145              		.loc 1 257 0
 146 0000 0022     		movs	r2, #0
 147 0002 024B     		ldr	r3, .L11
 148 0004 1A70     		strb	r2, [r3]
 258:Generated_Source\PSoC4/CapSense_Control.c **** 
 259:Generated_Source\PSoC4/CapSense_Control.c ****     return result;
 260:Generated_Source\PSoC4/CapSense_Control.c **** }
 149              		.loc 1 260 0
 150 0006 0020     		movs	r0, #0
 151              		@ sp needed
 152 0008 7047     		bx	lr
 153              	.L12:
 154 000a C046     		.align	2
 155              	.L11:
 156 000c 00000000 		.word	.LANCHOR0
 157              		.cfi_endproc
 158              	.LFE3:
 159              		.size	CapSense_Stop, .-CapSense_Stop
 160              		.section	.text.CapSense_Resume,"ax",%progbits
 161              		.align	2
 162              		.global	CapSense_Resume
 163              		.code	16
 164              		.thumb_func
 165              		.type	CapSense_Resume, %function
 166              	CapSense_Resume:
 167              	.LFB4:
 261:Generated_Source\PSoC4/CapSense_Control.c **** 
 262:Generated_Source\PSoC4/CapSense_Control.c **** /*******************************************************************************
 263:Generated_Source\PSoC4/CapSense_Control.c **** * Function Name: CapSense_Resume
 264:Generated_Source\PSoC4/CapSense_Control.c **** ****************************************************************************//**
 265:Generated_Source\PSoC4/CapSense_Control.c **** *
 266:Generated_Source\PSoC4/CapSense_Control.c **** * \brief
 267:Generated_Source\PSoC4/CapSense_Control.c **** *  Resumes the Component operation if the CapSense_Stop() function was
 268:Generated_Source\PSoC4/CapSense_Control.c **** *  called previously.
 269:Generated_Source\PSoC4/CapSense_Control.c **** *
 270:Generated_Source\PSoC4/CapSense_Control.c **** * \details
 271:Generated_Source\PSoC4/CapSense_Control.c **** *  This function resumes the Component operation if the operation is stopped
 272:Generated_Source\PSoC4/CapSense_Control.c **** *  previously by the CapSense_Stop() function. The following tasks are
 273:Generated_Source\PSoC4/CapSense_Control.c **** *  executed as part of the operation resume process:
 274:Generated_Source\PSoC4/CapSense_Control.c **** *    1. Reset all the Widgets/Sensors statuses.
 275:Generated_Source\PSoC4/CapSense_Control.c **** *    2. Configure the hardware to perform capacitive sensing.
 276:Generated_Source\PSoC4/CapSense_Control.c **** *
 277:Generated_Source\PSoC4/CapSense_Control.c **** * \return
 278:Generated_Source\PSoC4/CapSense_Control.c **** *  Returns the status of the resume process. If CYRET_SUCCESS is not received,
ARM GAS  C:\Users\MICHAE~1.MAC\AppData\Local\Temp\cc6R6bu2.s 			page 9


 279:Generated_Source\PSoC4/CapSense_Control.c **** *  the resume process fails and retries may be required.
 280:Generated_Source\PSoC4/CapSense_Control.c **** *
 281:Generated_Source\PSoC4/CapSense_Control.c **** *******************************************************************************/
 282:Generated_Source\PSoC4/CapSense_Control.c **** cystatus CapSense_Resume(void)
 283:Generated_Source\PSoC4/CapSense_Control.c **** {
 168              		.loc 1 283 0
 169              		.cfi_startproc
 170              		@ args = 0, pretend = 0, frame = 0
 171              		@ frame_needed = 0, uses_anonymous_args = 0
 172 0000 10B5     		push	{r4, lr}
 173              		.cfi_def_cfa_offset 8
 174              		.cfi_offset 4, -8
 175              		.cfi_offset 14, -4
 284:Generated_Source\PSoC4/CapSense_Control.c ****     cystatus result;
 285:Generated_Source\PSoC4/CapSense_Control.c **** 
 286:Generated_Source\PSoC4/CapSense_Control.c ****     /* The Tuner are initialized only once in order not to break communication */
 287:Generated_Source\PSoC4/CapSense_Control.c ****     if (CapSense_INIT_NEEDED == CapSense_InitVar)
 176              		.loc 1 287 0
 177 0002 074B     		ldr	r3, .L15
 178 0004 1B78     		ldrb	r3, [r3]
 179 0006 002B     		cmp	r3, #0
 180 0008 04D1     		bne	.L14
 288:Generated_Source\PSoC4/CapSense_Control.c ****     {
 289:Generated_Source\PSoC4/CapSense_Control.c ****         CapSense_TuInitialize();
 181              		.loc 1 289 0
 182 000a FFF7FEFF 		bl	CapSense_TuInitialize
 183              	.LVL16:
 290:Generated_Source\PSoC4/CapSense_Control.c ****         CapSense_InitVar = CapSense_INIT_DONE;
 184              		.loc 1 290 0
 185 000e 0122     		movs	r2, #1
 186 0010 034B     		ldr	r3, .L15
 187 0012 1A70     		strb	r2, [r3]
 188              	.L14:
 291:Generated_Source\PSoC4/CapSense_Control.c ****     }
 292:Generated_Source\PSoC4/CapSense_Control.c ****     CapSense_DpInitialize();
 189              		.loc 1 292 0
 190 0014 FFF7FEFF 		bl	CapSense_DpInitialize
 191              	.LVL17:
 293:Generated_Source\PSoC4/CapSense_Control.c **** 
 294:Generated_Source\PSoC4/CapSense_Control.c ****     result = CapSense_SsInitialize();
 192              		.loc 1 294 0
 193 0018 FFF7FEFF 		bl	CapSense_SsInitialize
 194              	.LVL18:
 295:Generated_Source\PSoC4/CapSense_Control.c **** 
 296:Generated_Source\PSoC4/CapSense_Control.c ****     return result;
 297:Generated_Source\PSoC4/CapSense_Control.c **** }
 195              		.loc 1 297 0
 196              		@ sp needed
 197 001c 10BD     		pop	{r4, pc}
 198              	.L16:
 199 001e C046     		.align	2
 200              	.L15:
 201 0020 00000000 		.word	.LANCHOR0
 202              		.cfi_endproc
 203              	.LFE4:
 204              		.size	CapSense_Resume, .-CapSense_Resume
 205              		.section	.text.CapSense_ProcessAllWidgets,"ax",%progbits
ARM GAS  C:\Users\MICHAE~1.MAC\AppData\Local\Temp\cc6R6bu2.s 			page 10


 206              		.align	2
 207              		.global	CapSense_ProcessAllWidgets
 208              		.code	16
 209              		.thumb_func
 210              		.type	CapSense_ProcessAllWidgets, %function
 211              	CapSense_ProcessAllWidgets:
 212              	.LFB5:
 298:Generated_Source\PSoC4/CapSense_Control.c **** 
 299:Generated_Source\PSoC4/CapSense_Control.c **** /*******************************************************************************
 300:Generated_Source\PSoC4/CapSense_Control.c **** * Function Name: CapSense_ProcessAllWidgets
 301:Generated_Source\PSoC4/CapSense_Control.c **** ****************************************************************************//**
 302:Generated_Source\PSoC4/CapSense_Control.c **** *
 303:Generated_Source\PSoC4/CapSense_Control.c **** * \brief
 304:Generated_Source\PSoC4/CapSense_Control.c **** *  Performs full data processing of all enabled widgets.
 305:Generated_Source\PSoC4/CapSense_Control.c **** *
 306:Generated_Source\PSoC4/CapSense_Control.c **** * \details
 307:Generated_Source\PSoC4/CapSense_Control.c **** *  This function performs all data processes for all enabled widgets in the
 308:Generated_Source\PSoC4/CapSense_Control.c **** *  Component. The following tasks are executed as part of processing all the
 309:Generated_Source\PSoC4/CapSense_Control.c **** *  widgets:
 310:Generated_Source\PSoC4/CapSense_Control.c **** *    1. Apply raw count filters to the raw counts, if they are enabled in the
 311:Generated_Source\PSoC4/CapSense_Control.c **** *       customizer.
 312:Generated_Source\PSoC4/CapSense_Control.c **** *    2. Update the thresholds if the SmartSense Full Auto-Tuning is enabled in
 313:Generated_Source\PSoC4/CapSense_Control.c **** *       the customizer.
 314:Generated_Source\PSoC4/CapSense_Control.c **** *    3. Update the baselines and difference counts for all the sensors.
 315:Generated_Source\PSoC4/CapSense_Control.c **** *    4. Update the sensor and widget status (on/off), update the centroid for
 316:Generated_Source\PSoC4/CapSense_Control.c **** *       the sliders and the X/Y position for the touchpads.
 317:Generated_Source\PSoC4/CapSense_Control.c **** *
 318:Generated_Source\PSoC4/CapSense_Control.c **** *  This function is called by an application program only after all the enabled
 319:Generated_Source\PSoC4/CapSense_Control.c **** *  widgets (and sensors) in the Component is scanned. Calling this function
 320:Generated_Source\PSoC4/CapSense_Control.c **** *  multiple times without sensor scanning causes unexpected behavior.
 321:Generated_Source\PSoC4/CapSense_Control.c **** *
 322:Generated_Source\PSoC4/CapSense_Control.c **** *  The disabled widgets are not processed by this function. To disable/enable
 323:Generated_Source\PSoC4/CapSense_Control.c **** *  a widget, set the appropriate values in the
 324:Generated_Source\PSoC4/CapSense_Control.c **** *  CapSense_WDGT_ENABLE<RegisterNumber>_PARAM_ID register using the
 325:Generated_Source\PSoC4/CapSense_Control.c **** *  CapSense_SetParam() function.
 326:Generated_Source\PSoC4/CapSense_Control.c **** *
 327:Generated_Source\PSoC4/CapSense_Control.c **** *  If the Ballistic multiplier filter is enabled the Timestamp must be
 328:Generated_Source\PSoC4/CapSense_Control.c **** *  updated before calling this function using the
 329:Generated_Source\PSoC4/CapSense_Control.c **** *  CapSense_IncrementGestureTimestamp() function.
 330:Generated_Source\PSoC4/CapSense_Control.c **** *
 331:Generated_Source\PSoC4/CapSense_Control.c **** *  If the Self-test library is enabled, this function executes the baseline duplication
 332:Generated_Source\PSoC4/CapSense_Control.c **** *  test. Refer to CapSense_CheckBaselineDuplication() for details.
 333:Generated_Source\PSoC4/CapSense_Control.c **** *
 334:Generated_Source\PSoC4/CapSense_Control.c **** * \return
 335:Generated_Source\PSoC4/CapSense_Control.c **** *  Returns the status of the processing operation. If CYRET_SUCCESS is not received,
 336:Generated_Source\PSoC4/CapSense_Control.c **** *  the processing fails and retries may be required.
 337:Generated_Source\PSoC4/CapSense_Control.c **** *
 338:Generated_Source\PSoC4/CapSense_Control.c **** *******************************************************************************/
 339:Generated_Source\PSoC4/CapSense_Control.c **** cystatus CapSense_ProcessAllWidgets(void)
 340:Generated_Source\PSoC4/CapSense_Control.c **** {
 213              		.loc 1 340 0
 214              		.cfi_startproc
 215              		@ args = 0, pretend = 0, frame = 0
 216              		@ frame_needed = 0, uses_anonymous_args = 0
 217 0000 70B5     		push	{r4, r5, r6, lr}
 218              		.cfi_def_cfa_offset 16
 219              		.cfi_offset 4, -16
ARM GAS  C:\Users\MICHAE~1.MAC\AppData\Local\Temp\cc6R6bu2.s 			page 11


 220              		.cfi_offset 5, -12
 221              		.cfi_offset 6, -8
 222              		.cfi_offset 14, -4
 223              	.LVL19:
 341:Generated_Source\PSoC4/CapSense_Control.c ****     uint32 wdgtId;
 342:Generated_Source\PSoC4/CapSense_Control.c ****     cystatus result = CYRET_SUCCESS;
 343:Generated_Source\PSoC4/CapSense_Control.c ****     CapSense_FLASH_WD_STRUCT const *ptrFlashWdgt;
 344:Generated_Source\PSoC4/CapSense_Control.c **** 
 345:Generated_Source\PSoC4/CapSense_Control.c ****     ptrFlashWdgt = CapSense_dsFlash.wdgtArray;
 224              		.loc 1 345 0
 225 0002 174E     		ldr	r6, .L25
 342:Generated_Source\PSoC4/CapSense_Control.c ****     CapSense_FLASH_WD_STRUCT const *ptrFlashWdgt;
 226              		.loc 1 342 0
 227 0004 0024     		movs	r4, #0
 346:Generated_Source\PSoC4/CapSense_Control.c **** 
 347:Generated_Source\PSoC4/CapSense_Control.c ****     for (wdgtId = 0u; wdgtId < CapSense_TOTAL_WIDGETS; wdgtId++)
 228              		.loc 1 347 0
 229 0006 0025     		movs	r5, #0
 230 0008 26E0     		b	.L18
 231              	.LVL20:
 232              	.L23:
 348:Generated_Source\PSoC4/CapSense_Control.c ****     {
 349:Generated_Source\PSoC4/CapSense_Control.c ****         if (0uL != CapSense_GET_WIDGET_EN_STATUS(wdgtId))
 233              		.loc 1 349 0
 234 000a 6B09     		lsrs	r3, r5, #5
 235 000c 0433     		adds	r3, r3, #4
 236 000e 9B00     		lsls	r3, r3, #2
 237 0010 144A     		ldr	r2, .L25+4
 238 0012 9B58     		ldr	r3, [r3, r2]
 239 0014 1F22     		movs	r2, #31
 240 0016 2A40     		ands	r2, r5
 241 0018 D340     		lsrs	r3, r3, r2
 242 001a DB07     		lsls	r3, r3, #31
 243 001c 1AD5     		bpl	.L19
 350:Generated_Source\PSoC4/CapSense_Control.c ****         {
 351:Generated_Source\PSoC4/CapSense_Control.c ****             switch(CapSense_GET_SENSE_METHOD(ptrFlashWdgt))
 244              		.loc 1 351 0
 245 001e F37E     		ldrb	r3, [r6, #27]
 246 0020 012B     		cmp	r3, #1
 247 0022 02D0     		beq	.L21
 248 0024 022B     		cmp	r3, #2
 249 0026 09D0     		beq	.L22
 250 0028 11E0     		b	.L24
 251              	.L21:
 352:Generated_Source\PSoC4/CapSense_Control.c ****             {
 353:Generated_Source\PSoC4/CapSense_Control.c ****             #if (0u != CapSense_TOTAL_CSD_WIDGETS)
 354:Generated_Source\PSoC4/CapSense_Control.c ****                 case CapSense_SENSE_METHOD_CSD_E:
 355:Generated_Source\PSoC4/CapSense_Control.c ****                     result = CapSense_DpProcessCsdWidgetRawCounts(ptrFlashWdgt);
 252              		.loc 1 355 0
 253 002a 3000     		movs	r0, r6
 254 002c FFF7FEFF 		bl	CapSense_DpProcessCsdWidgetRawCounts
 255              	.LVL21:
 256 0030 0400     		movs	r4, r0
 257              	.LVL22:
 356:Generated_Source\PSoC4/CapSense_Control.c ****                     CapSense_DpProcessCsdWidgetStatus(wdgtId, ptrFlashWdgt);
 258              		.loc 1 356 0
 259 0032 3100     		movs	r1, r6
ARM GAS  C:\Users\MICHAE~1.MAC\AppData\Local\Temp\cc6R6bu2.s 			page 12


 260 0034 2800     		movs	r0, r5
 261              	.LVL23:
 262 0036 FFF7FEFF 		bl	CapSense_DpProcessCsdWidgetStatus
 263              	.LVL24:
 357:Generated_Source\PSoC4/CapSense_Control.c ****                     break;
 264              		.loc 1 357 0
 265 003a 0BE0     		b	.L19
 266              	.L22:
 358:Generated_Source\PSoC4/CapSense_Control.c ****             #endif /* #if (0u != CapSense_TOTAL_CSD_WIDGETS) */
 359:Generated_Source\PSoC4/CapSense_Control.c **** 
 360:Generated_Source\PSoC4/CapSense_Control.c ****             #if (0u != CapSense_TOTAL_CSX_WIDGETS)
 361:Generated_Source\PSoC4/CapSense_Control.c ****                 case CapSense_SENSE_METHOD_CSX_E:
 362:Generated_Source\PSoC4/CapSense_Control.c ****                     result = CapSense_DpProcessCsxWidgetRawCounts(ptrFlashWdgt);
 267              		.loc 1 362 0
 268 003c 3000     		movs	r0, r6
 269 003e FFF7FEFF 		bl	CapSense_DpProcessCsxWidgetRawCounts
 270              	.LVL25:
 271 0042 0400     		movs	r4, r0
 272              	.LVL26:
 363:Generated_Source\PSoC4/CapSense_Control.c ****                     CapSense_DpProcessCsxWidgetStatus(wdgtId, ptrFlashWdgt);
 273              		.loc 1 363 0
 274 0044 3100     		movs	r1, r6
 275 0046 2800     		movs	r0, r5
 276              	.LVL27:
 277 0048 FFF7FEFF 		bl	CapSense_DpProcessCsxWidgetStatus
 278              	.LVL28:
 364:Generated_Source\PSoC4/CapSense_Control.c ****                     break;
 279              		.loc 1 364 0
 280 004c 02E0     		b	.L19
 281              	.L24:
 365:Generated_Source\PSoC4/CapSense_Control.c ****             #endif /* #if (0u != CapSense_TOTAL_CSX_WIDGETS) */
 366:Generated_Source\PSoC4/CapSense_Control.c **** 
 367:Generated_Source\PSoC4/CapSense_Control.c ****             #if (0u != CapSense_TOTAL_ISX_WIDGETS)
 368:Generated_Source\PSoC4/CapSense_Control.c ****                 case CapSense_SENSE_METHOD_ISX_E:
 369:Generated_Source\PSoC4/CapSense_Control.c ****                     result = CapSense_DpProcessIsxWidgetRawCounts(ptrFlashWdgt);
 370:Generated_Source\PSoC4/CapSense_Control.c ****                     CapSense_DpProcessIsxWidgetStatus(wdgtId, ptrFlashWdgt);
 371:Generated_Source\PSoC4/CapSense_Control.c ****                     break;
 372:Generated_Source\PSoC4/CapSense_Control.c ****             #endif /* #if (0u != CapSense_TOTAL_ISX_WIDGETS) */
 373:Generated_Source\PSoC4/CapSense_Control.c **** 
 374:Generated_Source\PSoC4/CapSense_Control.c ****             default:
 375:Generated_Source\PSoC4/CapSense_Control.c ****                 CYASSERT(0u);
 282              		.loc 1 375 0 discriminator 1
 283 004e 0020     		movs	r0, #0
 284 0050 FFF7FEFF 		bl	CyHalt
 285              	.LVL29:
 286              	.L19:
 376:Generated_Source\PSoC4/CapSense_Control.c ****                 break;
 377:Generated_Source\PSoC4/CapSense_Control.c ****             }
 378:Generated_Source\PSoC4/CapSense_Control.c **** 
 379:Generated_Source\PSoC4/CapSense_Control.c ****             #if (CapSense_ENABLE == CapSense_TST_BSLN_DUPLICATION_EN)
 380:Generated_Source\PSoC4/CapSense_Control.c ****                 if (CYRET_SUCCESS != result)
 381:Generated_Source\PSoC4/CapSense_Control.c ****                 {
 382:Generated_Source\PSoC4/CapSense_Control.c ****                     CapSense_UpdateTestResultBaselineDuplication(wdgtId, result);
 383:Generated_Source\PSoC4/CapSense_Control.c ****                     result = CYRET_BAD_DATA;
 384:Generated_Source\PSoC4/CapSense_Control.c ****                 }
 385:Generated_Source\PSoC4/CapSense_Control.c ****             #endif /* (CapSense_ENABLE == CapSense_TST_BSLN_DUPLICATION_EN) */
 386:Generated_Source\PSoC4/CapSense_Control.c **** 
ARM GAS  C:\Users\MICHAE~1.MAC\AppData\Local\Temp\cc6R6bu2.s 			page 13


 387:Generated_Source\PSoC4/CapSense_Control.c ****         }
 388:Generated_Source\PSoC4/CapSense_Control.c ****         ptrFlashWdgt++;
 287              		.loc 1 388 0 discriminator 2
 288 0054 2836     		adds	r6, r6, #40
 289              	.LVL30:
 347:Generated_Source\PSoC4/CapSense_Control.c ****     {
 290              		.loc 1 347 0 discriminator 2
 291 0056 0135     		adds	r5, r5, #1
 292              	.LVL31:
 293              	.L18:
 347:Generated_Source\PSoC4/CapSense_Control.c ****     {
 294              		.loc 1 347 0 is_stmt 0 discriminator 1
 295 0058 032D     		cmp	r5, #3
 296 005a D6D9     		bls	.L23
 389:Generated_Source\PSoC4/CapSense_Control.c ****     }
 390:Generated_Source\PSoC4/CapSense_Control.c ****     return result;
 391:Generated_Source\PSoC4/CapSense_Control.c **** }
 297              		.loc 1 391 0 is_stmt 1
 298 005c 2000     		movs	r0, r4
 299              		@ sp needed
 300              	.LVL32:
 301              	.LVL33:
 302              	.LVL34:
 303 005e 70BD     		pop	{r4, r5, r6, pc}
 304              	.L26:
 305              		.align	2
 306              	.L25:
 307 0060 00000000 		.word	CapSense_dsFlash
 308 0064 00000000 		.word	CapSense_dsRam
 309              		.cfi_endproc
 310              	.LFE5:
 311              		.size	CapSense_ProcessAllWidgets, .-CapSense_ProcessAllWidgets
 312              		.section	.text.CapSense_ProcessWidget,"ax",%progbits
 313              		.align	2
 314              		.global	CapSense_ProcessWidget
 315              		.code	16
 316              		.thumb_func
 317              		.type	CapSense_ProcessWidget, %function
 318              	CapSense_ProcessWidget:
 319              	.LFB6:
 392:Generated_Source\PSoC4/CapSense_Control.c **** 
 393:Generated_Source\PSoC4/CapSense_Control.c **** /*******************************************************************************
 394:Generated_Source\PSoC4/CapSense_Control.c **** * Function Name: CapSense_ProcessWidget
 395:Generated_Source\PSoC4/CapSense_Control.c **** ****************************************************************************//**
 396:Generated_Source\PSoC4/CapSense_Control.c **** *
 397:Generated_Source\PSoC4/CapSense_Control.c **** * \brief
 398:Generated_Source\PSoC4/CapSense_Control.c **** *  Performs full data processing of the specified widget if it is enabled.
 399:Generated_Source\PSoC4/CapSense_Control.c **** *
 400:Generated_Source\PSoC4/CapSense_Control.c **** * \details
 401:Generated_Source\PSoC4/CapSense_Control.c **** *  This function performs exactly the same tasks as
 402:Generated_Source\PSoC4/CapSense_Control.c **** *  CapSense_ProcessAllWidgets(), but only for a specified widget. This
 403:Generated_Source\PSoC4/CapSense_Control.c **** *  function can be used along with the CapSense_SetupWidget() and
 404:Generated_Source\PSoC4/CapSense_Control.c **** *  CapSense_Scan() functions to scan and process data for a specific
 405:Generated_Source\PSoC4/CapSense_Control.c **** *  widget. This function is called only after all the sensors in the
 406:Generated_Source\PSoC4/CapSense_Control.c **** *  widgets are scanned. A disabled widget is not processed by this function.
 407:Generated_Source\PSoC4/CapSense_Control.c **** *
 408:Generated_Source\PSoC4/CapSense_Control.c **** *  A pipeline scan method (i.e. during scanning of a widget perform processing
ARM GAS  C:\Users\MICHAE~1.MAC\AppData\Local\Temp\cc6R6bu2.s 			page 14


 409:Generated_Source\PSoC4/CapSense_Control.c **** *  of the previously scanned widget) can be implemented using this function and
 410:Generated_Source\PSoC4/CapSense_Control.c **** *  it may reduce the total execution time, increase the refresh rate and
 411:Generated_Source\PSoC4/CapSense_Control.c **** *  decrease the average power consumption.
 412:Generated_Source\PSoC4/CapSense_Control.c **** *
 413:Generated_Source\PSoC4/CapSense_Control.c **** *  If the Ballistic multiplier filter is enabled the Timestamp must be
 414:Generated_Source\PSoC4/CapSense_Control.c **** *  updated before calling this function using the
 415:Generated_Source\PSoC4/CapSense_Control.c **** *  CapSense_IncrementGestureTimestamp() function.
 416:Generated_Source\PSoC4/CapSense_Control.c **** *
 417:Generated_Source\PSoC4/CapSense_Control.c **** *  If the Self-test library is enabled, this function executes the baseline duplication
 418:Generated_Source\PSoC4/CapSense_Control.c **** *  test. Refer to CapSense_CheckBaselineDuplication() for details.
 419:Generated_Source\PSoC4/CapSense_Control.c **** *
 420:Generated_Source\PSoC4/CapSense_Control.c **** * \param widgetId
 421:Generated_Source\PSoC4/CapSense_Control.c **** *  Specifies the ID number of the widget to be processed.
 422:Generated_Source\PSoC4/CapSense_Control.c **** *  A macro for the widget ID can be found in the
 423:Generated_Source\PSoC4/CapSense_Control.c **** *  CapSense Configuration header file defined as
 424:Generated_Source\PSoC4/CapSense_Control.c **** *  CapSense_<WidgetName>_WDGT_ID
 425:Generated_Source\PSoC4/CapSense_Control.c **** *
 426:Generated_Source\PSoC4/CapSense_Control.c **** * \return
 427:Generated_Source\PSoC4/CapSense_Control.c **** *  Returns the status of the widget processing:
 428:Generated_Source\PSoC4/CapSense_Control.c **** *  - CYRET_SUCCESS - The operation is successfully completed.
 429:Generated_Source\PSoC4/CapSense_Control.c **** *  - CYRET_BAD_PARAM - The input parameter is invalid.
 430:Generated_Source\PSoC4/CapSense_Control.c **** *  - CYRET_INVALID_STATE - The specified widget is disabled.
 431:Generated_Source\PSoC4/CapSense_Control.c **** *  - CYRET_BAD_DATA - The processing is failed.
 432:Generated_Source\PSoC4/CapSense_Control.c **** *
 433:Generated_Source\PSoC4/CapSense_Control.c **** *******************************************************************************/
 434:Generated_Source\PSoC4/CapSense_Control.c **** cystatus CapSense_ProcessWidget(uint32 widgetId)
 435:Generated_Source\PSoC4/CapSense_Control.c **** {
 320              		.loc 1 435 0
 321              		.cfi_startproc
 322              		@ args = 0, pretend = 0, frame = 0
 323              		@ frame_needed = 0, uses_anonymous_args = 0
 324              	.LVL35:
 325 0000 70B5     		push	{r4, r5, r6, lr}
 326              		.cfi_def_cfa_offset 16
 327              		.cfi_offset 4, -16
 328              		.cfi_offset 5, -12
 329              		.cfi_offset 6, -8
 330              		.cfi_offset 14, -4
 331 0002 0500     		movs	r5, r0
 332              	.LVL36:
 436:Generated_Source\PSoC4/CapSense_Control.c ****     cystatus result = CYRET_SUCCESS;
 437:Generated_Source\PSoC4/CapSense_Control.c ****     CapSense_FLASH_WD_STRUCT const *ptrFlashWdgt;
 438:Generated_Source\PSoC4/CapSense_Control.c **** 
 439:Generated_Source\PSoC4/CapSense_Control.c ****     if (widgetId >= CapSense_TOTAL_WIDGETS)
 333              		.loc 1 439 0
 334 0004 0328     		cmp	r0, #3
 335 0006 01D8     		bhi	.L34
 436:Generated_Source\PSoC4/CapSense_Control.c ****     cystatus result = CYRET_SUCCESS;
 336              		.loc 1 436 0
 337 0008 0024     		movs	r4, #0
 338 000a 00E0     		b	.L28
 339              	.L34:
 440:Generated_Source\PSoC4/CapSense_Control.c ****     {
 441:Generated_Source\PSoC4/CapSense_Control.c ****         result = CYRET_BAD_PARAM;
 340              		.loc 1 441 0
 341 000c 0124     		movs	r4, #1
 342              	.L28:
ARM GAS  C:\Users\MICHAE~1.MAC\AppData\Local\Temp\cc6R6bu2.s 			page 15


 343              	.LVL37:
 442:Generated_Source\PSoC4/CapSense_Control.c ****     }
 443:Generated_Source\PSoC4/CapSense_Control.c **** 
 444:Generated_Source\PSoC4/CapSense_Control.c ****     if ((CYRET_SUCCESS == result) && (0uL == CapSense_GET_WIDGET_EN_STATUS(widgetId)))
 344              		.loc 1 444 0
 345 000e 002C     		cmp	r4, #0
 346 0010 0AD1     		bne	.L29
 347              		.loc 1 444 0 is_stmt 0 discriminator 1
 348 0012 6B09     		lsrs	r3, r5, #5
 349 0014 0433     		adds	r3, r3, #4
 350 0016 9B00     		lsls	r3, r3, #2
 351 0018 154A     		ldr	r2, .L37
 352 001a 9B58     		ldr	r3, [r3, r2]
 353 001c 1F22     		movs	r2, #31
 354 001e 2A40     		ands	r2, r5
 355 0020 D340     		lsrs	r3, r3, r2
 356 0022 DB07     		lsls	r3, r3, #31
 357 0024 00D4     		bmi	.L29
 445:Generated_Source\PSoC4/CapSense_Control.c ****     {
 446:Generated_Source\PSoC4/CapSense_Control.c ****         result = CYRET_INVALID_STATE;
 358              		.loc 1 446 0 is_stmt 1
 359 0026 1134     		adds	r4, r4, #17
 360              	.LVL38:
 361              	.L29:
 447:Generated_Source\PSoC4/CapSense_Control.c ****     }
 448:Generated_Source\PSoC4/CapSense_Control.c **** 
 449:Generated_Source\PSoC4/CapSense_Control.c ****     if (CYRET_SUCCESS == result)
 362              		.loc 1 449 0
 363 0028 002C     		cmp	r4, #0
 364 002a 1FD1     		bne	.L30
 450:Generated_Source\PSoC4/CapSense_Control.c ****     {
 451:Generated_Source\PSoC4/CapSense_Control.c ****         ptrFlashWdgt = &CapSense_dsFlash.wdgtArray[widgetId];
 365              		.loc 1 451 0
 366 002c AB00     		lsls	r3, r5, #2
 367 002e 5B19     		adds	r3, r3, r5
 368 0030 DE00     		lsls	r6, r3, #3
 369 0032 104B     		ldr	r3, .L37+4
 370 0034 F618     		adds	r6, r6, r3
 371              	.LVL39:
 452:Generated_Source\PSoC4/CapSense_Control.c **** 
 453:Generated_Source\PSoC4/CapSense_Control.c ****         switch(CapSense_GET_SENSE_METHOD(ptrFlashWdgt))
 372              		.loc 1 453 0
 373 0036 F37E     		ldrb	r3, [r6, #27]
 374 0038 012B     		cmp	r3, #1
 375 003a 02D0     		beq	.L32
 376 003c 022B     		cmp	r3, #2
 377 003e 09D0     		beq	.L33
 378 0040 11E0     		b	.L36
 379              	.L32:
 454:Generated_Source\PSoC4/CapSense_Control.c ****         {
 455:Generated_Source\PSoC4/CapSense_Control.c ****         #if (0u != CapSense_TOTAL_CSD_WIDGETS)
 456:Generated_Source\PSoC4/CapSense_Control.c ****             case CapSense_SENSE_METHOD_CSD_E:
 457:Generated_Source\PSoC4/CapSense_Control.c ****                 result = CapSense_DpProcessCsdWidgetRawCounts(ptrFlashWdgt);
 380              		.loc 1 457 0
 381 0042 3000     		movs	r0, r6
 382              	.LVL40:
 383 0044 FFF7FEFF 		bl	CapSense_DpProcessCsdWidgetRawCounts
ARM GAS  C:\Users\MICHAE~1.MAC\AppData\Local\Temp\cc6R6bu2.s 			page 16


 384              	.LVL41:
 385 0048 0400     		movs	r4, r0
 386              	.LVL42:
 458:Generated_Source\PSoC4/CapSense_Control.c ****                 CapSense_DpProcessCsdWidgetStatus(widgetId, ptrFlashWdgt);
 387              		.loc 1 458 0
 388 004a 3100     		movs	r1, r6
 389 004c 2800     		movs	r0, r5
 390              	.LVL43:
 391 004e FFF7FEFF 		bl	CapSense_DpProcessCsdWidgetStatus
 392              	.LVL44:
 459:Generated_Source\PSoC4/CapSense_Control.c ****                 break;
 393              		.loc 1 459 0
 394 0052 0BE0     		b	.L30
 395              	.LVL45:
 396              	.L33:
 460:Generated_Source\PSoC4/CapSense_Control.c ****         #endif /* #if (0u != CapSense_TOTAL_CSD_WIDGETS) */
 461:Generated_Source\PSoC4/CapSense_Control.c **** 
 462:Generated_Source\PSoC4/CapSense_Control.c ****         #if (0u != CapSense_TOTAL_CSX_WIDGETS)
 463:Generated_Source\PSoC4/CapSense_Control.c ****             case CapSense_SENSE_METHOD_CSX_E:
 464:Generated_Source\PSoC4/CapSense_Control.c ****                 result = CapSense_DpProcessCsxWidgetRawCounts(ptrFlashWdgt);
 397              		.loc 1 464 0
 398 0054 3000     		movs	r0, r6
 399              	.LVL46:
 400 0056 FFF7FEFF 		bl	CapSense_DpProcessCsxWidgetRawCounts
 401              	.LVL47:
 402 005a 0400     		movs	r4, r0
 403              	.LVL48:
 465:Generated_Source\PSoC4/CapSense_Control.c ****                 CapSense_DpProcessCsxWidgetStatus(widgetId, ptrFlashWdgt);
 404              		.loc 1 465 0
 405 005c 3100     		movs	r1, r6
 406 005e 2800     		movs	r0, r5
 407              	.LVL49:
 408 0060 FFF7FEFF 		bl	CapSense_DpProcessCsxWidgetStatus
 409              	.LVL50:
 466:Generated_Source\PSoC4/CapSense_Control.c ****                 break;
 410              		.loc 1 466 0
 411 0064 02E0     		b	.L30
 412              	.LVL51:
 413              	.L36:
 467:Generated_Source\PSoC4/CapSense_Control.c ****         #endif /* #if (0u != CapSense_TOTAL_CSX_WIDGETS) */
 468:Generated_Source\PSoC4/CapSense_Control.c **** 
 469:Generated_Source\PSoC4/CapSense_Control.c ****         #if (0u != CapSense_TOTAL_ISX_WIDGETS)
 470:Generated_Source\PSoC4/CapSense_Control.c ****             case CapSense_SENSE_METHOD_ISX_E:
 471:Generated_Source\PSoC4/CapSense_Control.c ****                 result = CapSense_DpProcessIsxWidgetRawCounts(ptrFlashWdgt);
 472:Generated_Source\PSoC4/CapSense_Control.c ****                 CapSense_DpProcessIsxWidgetStatus(widgetId, ptrFlashWdgt);
 473:Generated_Source\PSoC4/CapSense_Control.c ****                 break;
 474:Generated_Source\PSoC4/CapSense_Control.c ****         #endif /* #if (0u != CapSense_TOTAL_ISX_WIDGETS) */
 475:Generated_Source\PSoC4/CapSense_Control.c **** 
 476:Generated_Source\PSoC4/CapSense_Control.c ****         default:
 477:Generated_Source\PSoC4/CapSense_Control.c ****             CYASSERT(0u);
 414              		.loc 1 477 0 discriminator 1
 415 0066 0020     		movs	r0, #0
 416              	.LVL52:
 417 0068 FFF7FEFF 		bl	CyHalt
 418              	.LVL53:
 419              	.L30:
 478:Generated_Source\PSoC4/CapSense_Control.c ****             break;
ARM GAS  C:\Users\MICHAE~1.MAC\AppData\Local\Temp\cc6R6bu2.s 			page 17


 479:Generated_Source\PSoC4/CapSense_Control.c ****         }
 480:Generated_Source\PSoC4/CapSense_Control.c **** 
 481:Generated_Source\PSoC4/CapSense_Control.c ****         #if (CapSense_ENABLE == CapSense_TST_BSLN_DUPLICATION_EN)
 482:Generated_Source\PSoC4/CapSense_Control.c ****             if (CYRET_SUCCESS != result)
 483:Generated_Source\PSoC4/CapSense_Control.c ****             {
 484:Generated_Source\PSoC4/CapSense_Control.c ****                 CapSense_UpdateTestResultBaselineDuplication(widgetId, result);
 485:Generated_Source\PSoC4/CapSense_Control.c ****                 result = CYRET_BAD_DATA;
 486:Generated_Source\PSoC4/CapSense_Control.c ****             }
 487:Generated_Source\PSoC4/CapSense_Control.c ****         #endif /* (CapSense_ENABLE == CapSense_TST_BSLN_DUPLICATION_EN) */
 488:Generated_Source\PSoC4/CapSense_Control.c ****     }
 489:Generated_Source\PSoC4/CapSense_Control.c ****     return result;
 490:Generated_Source\PSoC4/CapSense_Control.c **** }
 420              		.loc 1 490 0
 421 006c 2000     		movs	r0, r4
 422              		@ sp needed
 423              	.LVL54:
 424              	.LVL55:
 425 006e 70BD     		pop	{r4, r5, r6, pc}
 426              	.L38:
 427              		.align	2
 428              	.L37:
 429 0070 00000000 		.word	CapSense_dsRam
 430 0074 00000000 		.word	CapSense_dsFlash
 431              		.cfi_endproc
 432              	.LFE6:
 433              		.size	CapSense_ProcessWidget, .-CapSense_ProcessWidget
 434              		.section	.text.CapSense_ProcessWidgetExt,"ax",%progbits
 435              		.align	2
 436              		.global	CapSense_ProcessWidgetExt
 437              		.code	16
 438              		.thumb_func
 439              		.type	CapSense_ProcessWidgetExt, %function
 440              	CapSense_ProcessWidgetExt:
 441              	.LFB7:
 491:Generated_Source\PSoC4/CapSense_Control.c **** 
 492:Generated_Source\PSoC4/CapSense_Control.c **** 
 493:Generated_Source\PSoC4/CapSense_Control.c **** /*******************************************************************************
 494:Generated_Source\PSoC4/CapSense_Control.c **** * Function Name: CapSense_ProcessWidgetExt
 495:Generated_Source\PSoC4/CapSense_Control.c **** ****************************************************************************//**
 496:Generated_Source\PSoC4/CapSense_Control.c **** *
 497:Generated_Source\PSoC4/CapSense_Control.c **** * \brief
 498:Generated_Source\PSoC4/CapSense_Control.c **** *  Performs customized data processing on the selected widget.
 499:Generated_Source\PSoC4/CapSense_Control.c **** *
 500:Generated_Source\PSoC4/CapSense_Control.c **** * \details
 501:Generated_Source\PSoC4/CapSense_Control.c **** *  This function performs data processes for the specified widget specified by
 502:Generated_Source\PSoC4/CapSense_Control.c **** *  the mode parameter. The execution order of the requested operations is from
 503:Generated_Source\PSoC4/CapSense_Control.c **** *  LSB to MSB of the mode parameter. For a different order, this API
 504:Generated_Source\PSoC4/CapSense_Control.c **** *  can be called multiple times with the required mode parameter.
 505:Generated_Source\PSoC4/CapSense_Control.c **** *
 506:Generated_Source\PSoC4/CapSense_Control.c **** *  This function can be used with any of the available scan functions. This
 507:Generated_Source\PSoC4/CapSense_Control.c **** *  function is called only after all the sensors in the specified widget are
 508:Generated_Source\PSoC4/CapSense_Control.c **** *  scanned. Calling this function multiple times with the same mode without
 509:Generated_Source\PSoC4/CapSense_Control.c **** *  sensor scanning causes unexpected behavior. This function ignores the value
 510:Generated_Source\PSoC4/CapSense_Control.c **** *  of the wdgtEnable register.
 511:Generated_Source\PSoC4/CapSense_Control.c **** *  \if SECTION_C_LOW_LEVEL
 512:Generated_Source\PSoC4/CapSense_Control.c **** *  The CapSense_PROCESS_CALC_NOISE and
 513:Generated_Source\PSoC4/CapSense_Control.c **** *  CapSense_PROCESS_THRESHOLDS flags are supported by the CSD sensing
ARM GAS  C:\Users\MICHAE~1.MAC\AppData\Local\Temp\cc6R6bu2.s 			page 18


 514:Generated_Source\PSoC4/CapSense_Control.c **** *  method only when Auto-tuning mode is enabled.
 515:Generated_Source\PSoC4/CapSense_Control.c **** *  \endif
 516:Generated_Source\PSoC4/CapSense_Control.c **** *  The pipeline scan method (i.e. during scanning of a widget, processing
 517:Generated_Source\PSoC4/CapSense_Control.c **** *  of a previously scanned widget is performed) can be implemented using this
 518:Generated_Source\PSoC4/CapSense_Control.c **** *  function and it may reduce the total scan/process time, increase the refresh
 519:Generated_Source\PSoC4/CapSense_Control.c **** *  rate and decrease the power consumption.
 520:Generated_Source\PSoC4/CapSense_Control.c **** *
 521:Generated_Source\PSoC4/CapSense_Control.c **** *  If the Ballistic multiplier filter is enabled the Timestamp must be
 522:Generated_Source\PSoC4/CapSense_Control.c **** *  updated before calling this function using the
 523:Generated_Source\PSoC4/CapSense_Control.c **** *  CapSense_IncrementGestureTimestamp() function.
 524:Generated_Source\PSoC4/CapSense_Control.c **** *
 525:Generated_Source\PSoC4/CapSense_Control.c **** *  If the Self-test library is enabled, this function executes the baseline duplication
 526:Generated_Source\PSoC4/CapSense_Control.c **** *  test. Refer to CapSense_CheckBaselineDuplication() for details.
 527:Generated_Source\PSoC4/CapSense_Control.c **** *
 528:Generated_Source\PSoC4/CapSense_Control.c **** * \param widgetId
 529:Generated_Source\PSoC4/CapSense_Control.c **** *  Specifies the ID number of the widget to be processed.
 530:Generated_Source\PSoC4/CapSense_Control.c **** *  A macro for the widget ID can be found in the CapSense Configuration header
 531:Generated_Source\PSoC4/CapSense_Control.c **** *  file defined as CapSense_<WidgetName>_WDGT_ID.
 532:Generated_Source\PSoC4/CapSense_Control.c **** 
 533:Generated_Source\PSoC4/CapSense_Control.c **** * \param mode
 534:Generated_Source\PSoC4/CapSense_Control.c **** *  Specifies the type of widget processing to be executed for the
 535:Generated_Source\PSoC4/CapSense_Control.c **** *  specified widget:
 536:Generated_Source\PSoC4/CapSense_Control.c **** *    1. Bits [31..6] - Reserved.
 537:Generated_Source\PSoC4/CapSense_Control.c **** *    2. Bits [5..0] - CapSense_PROCESS_ALL - Execute all the tasks.
 538:Generated_Source\PSoC4/CapSense_Control.c **** *    3. Bit [5] - CapSense_PROCESS_STATUS - Update the status (on/off,
 539:Generated_Source\PSoC4/CapSense_Control.c **** *       centroid position).
 540:Generated_Source\PSoC4/CapSense_Control.c **** *    \if SECTION_C_LOW_LEVEL
 541:Generated_Source\PSoC4/CapSense_Control.c **** *    4. Bit [4] - CapSense_PROCESS_THRESHOLDS - Update the thresholds
 542:Generated_Source\PSoC4/CapSense_Control.c **** *       (only in CSD auto-tuning mode).
 543:Generated_Source\PSoC4/CapSense_Control.c **** *    5. Bit [3] - CapSense_PROCESS_CALC_NOISE - Calculate the noise (only in
 544:Generated_Source\PSoC4/CapSense_Control.c **** *       CSD auto-tuning mode).
 545:Generated_Source\PSoC4/CapSense_Control.c **** *    \endif
 546:Generated_Source\PSoC4/CapSense_Control.c **** *    6. Bit [2] - CapSense_PROCESS_DIFFCOUNTS - Update the difference counts.
 547:Generated_Source\PSoC4/CapSense_Control.c **** *    7. Bit [1] - CapSense_PROCESS_BASELINE - Update the baselines.
 548:Generated_Source\PSoC4/CapSense_Control.c **** *    8. Bit [0] - CapSense_PROCESS_FILTER - Run the firmware filters.
 549:Generated_Source\PSoC4/CapSense_Control.c **** *
 550:Generated_Source\PSoC4/CapSense_Control.c **** * \return
 551:Generated_Source\PSoC4/CapSense_Control.c **** *  Returns the status of the widget processing operation:
 552:Generated_Source\PSoC4/CapSense_Control.c **** *  - CYRET_SUCCESS - The processing is successfully performed.
 553:Generated_Source\PSoC4/CapSense_Control.c **** *  - CYRET_BAD_PARAM - The input parameter is invalid.
 554:Generated_Source\PSoC4/CapSense_Control.c **** *  - CYRET_BAD_DATA - The processing is failed.
 555:Generated_Source\PSoC4/CapSense_Control.c **** *
 556:Generated_Source\PSoC4/CapSense_Control.c **** *******************************************************************************/
 557:Generated_Source\PSoC4/CapSense_Control.c **** cystatus CapSense_ProcessWidgetExt(uint32 widgetId, uint32 mode)
 558:Generated_Source\PSoC4/CapSense_Control.c **** {
 442              		.loc 1 558 0
 443              		.cfi_startproc
 444              		@ args = 0, pretend = 0, frame = 16
 445              		@ frame_needed = 0, uses_anonymous_args = 0
 446              	.LVL56:
 447 0000 F0B5     		push	{r4, r5, r6, r7, lr}
 448              		.cfi_def_cfa_offset 20
 449              		.cfi_offset 4, -20
 450              		.cfi_offset 5, -16
 451              		.cfi_offset 6, -12
 452              		.cfi_offset 7, -8
 453              		.cfi_offset 14, -4
ARM GAS  C:\Users\MICHAE~1.MAC\AppData\Local\Temp\cc6R6bu2.s 			page 19


 454 0002 85B0     		sub	sp, sp, #20
 455              		.cfi_def_cfa_offset 40
 456 0004 0500     		movs	r5, r0
 457 0006 0291     		str	r1, [sp, #8]
 458              	.LVL57:
 559:Generated_Source\PSoC4/CapSense_Control.c ****     uint32 snsCount;
 560:Generated_Source\PSoC4/CapSense_Control.c ****     cystatus result = CYRET_BAD_PARAM;
 561:Generated_Source\PSoC4/CapSense_Control.c ****     CapSense_FLASH_WD_STRUCT const *ptrFlashWdgt;
 562:Generated_Source\PSoC4/CapSense_Control.c ****     CapSense_PTR_FILTER_VARIANT fltrHistV;
 563:Generated_Source\PSoC4/CapSense_Control.c ****     CapSense_RAM_SNS_STRUCT *ptrSnsTmp;
 564:Generated_Source\PSoC4/CapSense_Control.c **** 
 565:Generated_Source\PSoC4/CapSense_Control.c ****     #if (0u != CapSense_TOTAL_CSD_WIDGETS)
 566:Generated_Source\PSoC4/CapSense_Control.c ****         uint32 isProxWdgt;
 567:Generated_Source\PSoC4/CapSense_Control.c ****     #endif
 568:Generated_Source\PSoC4/CapSense_Control.c **** 
 569:Generated_Source\PSoC4/CapSense_Control.c ****     if (widgetId < CapSense_TOTAL_WIDGETS)
 459              		.loc 1 569 0
 460 0008 0328     		cmp	r0, #3
 461 000a 42D8     		bhi	.L46
 570:Generated_Source\PSoC4/CapSense_Control.c ****     {
 571:Generated_Source\PSoC4/CapSense_Control.c ****         ptrFlashWdgt = &CapSense_dsFlash.wdgtArray[widgetId];
 462              		.loc 1 571 0
 463 000c 8300     		lsls	r3, r0, #2
 464 000e 1B18     		adds	r3, r3, r0
 465 0010 DA00     		lsls	r2, r3, #3
 466 0012 224B     		ldr	r3, .L50
 467 0014 D618     		adds	r6, r2, r3
 468              	.LVL58:
 572:Generated_Source\PSoC4/CapSense_Control.c ****         snsCount = CapSense_GET_SNS_CNT_BY_PTR(ptrFlashWdgt);
 469              		.loc 1 572 0
 470 0016 338B     		ldrh	r3, [r6, #24]
 471              	.LVL59:
 573:Generated_Source\PSoC4/CapSense_Control.c ****         ptrSnsTmp = ptrFlashWdgt->ptr2SnsRam;
 472              		.loc 1 573 0
 473 0018 B768     		ldr	r7, [r6, #8]
 474              	.LVL60:
 574:Generated_Source\PSoC4/CapSense_Control.c ****         fltrHistV.ptr = ptrFlashWdgt->ptr2FltrHistory;
 475              		.loc 1 574 0
 476 001a F268     		ldr	r2, [r6, #12]
 477              	.LVL61:
 478 001c 0392     		str	r2, [sp, #12]
 575:Generated_Source\PSoC4/CapSense_Control.c **** 
 576:Generated_Source\PSoC4/CapSense_Control.c ****         switch(CapSense_GET_SENSE_METHOD(ptrFlashWdgt))
 479              		.loc 1 576 0
 480 001e F27E     		ldrb	r2, [r6, #27]
 481              	.LVL62:
 482 0020 012A     		cmp	r2, #1
 483 0022 0CD0     		beq	.L47
 484 0024 022A     		cmp	r2, #2
 485 0026 21D0     		beq	.L48
 486 0028 2DE0     		b	.L49
 487              	.LVL63:
 488              	.L44:
 577:Generated_Source\PSoC4/CapSense_Control.c ****         {
 578:Generated_Source\PSoC4/CapSense_Control.c ****         #if (0u != CapSense_TOTAL_CSD_WIDGETS)
 579:Generated_Source\PSoC4/CapSense_Control.c ****             case CapSense_SENSE_METHOD_CSD_E:
 580:Generated_Source\PSoC4/CapSense_Control.c ****             {
ARM GAS  C:\Users\MICHAE~1.MAC\AppData\Local\Temp\cc6R6bu2.s 			page 20


 581:Generated_Source\PSoC4/CapSense_Control.c ****                 /* Determine if widget is type of proximity.
 582:Generated_Source\PSoC4/CapSense_Control.c ****                  * The Proximity widgets use different filters and
 583:Generated_Source\PSoC4/CapSense_Control.c ****                  * therefore have different filter history object structure */
 584:Generated_Source\PSoC4/CapSense_Control.c ****                 isProxWdgt = (CapSense_GET_WIDGET_TYPE(ptrFlashWdgt) == CapSense_WD_PROXIMITY_E) ? 
 585:Generated_Source\PSoC4/CapSense_Control.c **** 
 586:Generated_Source\PSoC4/CapSense_Control.c ****                 /* Run the desired processing for the all CSD widget sensors */
 587:Generated_Source\PSoC4/CapSense_Control.c ****                 for (;snsCount-- > 0u;)
 588:Generated_Source\PSoC4/CapSense_Control.c ****                 {
 589:Generated_Source\PSoC4/CapSense_Control.c ****                     result = CapSense_DpProcessCsdSensorRawCountsExt(ptrFlashWdgt, ptrSnsTmp, fltrH
 489              		.loc 1 589 0
 490 002a 029B     		ldr	r3, [sp, #8]
 491 002c 039A     		ldr	r2, [sp, #12]
 492 002e 3900     		movs	r1, r7
 493 0030 3000     		movs	r0, r6
 494 0032 FFF7FEFF 		bl	CapSense_DpProcessCsdSensorRawCountsExt
 495              	.LVL64:
 496 0036 0190     		str	r0, [sp, #4]
 497              	.LVL65:
 590:Generated_Source\PSoC4/CapSense_Control.c **** 
 591:Generated_Source\PSoC4/CapSense_Control.c ****                     #if (CapSense_ENABLE == CapSense_TST_BSLN_DUPLICATION_EN)
 592:Generated_Source\PSoC4/CapSense_Control.c ****                         if (CYRET_SUCCESS != result)
 593:Generated_Source\PSoC4/CapSense_Control.c ****                         {
 594:Generated_Source\PSoC4/CapSense_Control.c ****                             result = (result | CapSense_TST_LSBYTE) & snsCount;
 595:Generated_Source\PSoC4/CapSense_Control.c ****                         }
 596:Generated_Source\PSoC4/CapSense_Control.c ****                     #endif /* (CapSense_ENABLE == CapSense_TST_BSLN_DUPLICATION_EN) */
 597:Generated_Source\PSoC4/CapSense_Control.c **** 
 598:Generated_Source\PSoC4/CapSense_Control.c ****                     /* Move to the next sensor and filter history objects */
 599:Generated_Source\PSoC4/CapSense_Control.c ****                     ptrSnsTmp++;
 498              		.loc 1 599 0
 499 0038 0A37     		adds	r7, r7, #10
 500              	.LVL66:
 587:Generated_Source\PSoC4/CapSense_Control.c ****                 {
 501              		.loc 1 587 0
 502 003a 2300     		movs	r3, r4
 503 003c 01E0     		b	.L42
 504              	.LVL67:
 505              	.L47:
 560:Generated_Source\PSoC4/CapSense_Control.c ****     CapSense_FLASH_WD_STRUCT const *ptrFlashWdgt;
 506              		.loc 1 560 0
 507 003e 0122     		movs	r2, #1
 508 0040 0192     		str	r2, [sp, #4]
 509              	.LVL68:
 510              	.L42:
 587:Generated_Source\PSoC4/CapSense_Control.c ****                 {
 511              		.loc 1 587 0
 512 0042 5C1E     		subs	r4, r3, #1
 513              	.LVL69:
 514 0044 002B     		cmp	r3, #0
 515 0046 F0D1     		bne	.L44
 600:Generated_Source\PSoC4/CapSense_Control.c ****                     CapSense_INC_FLTR_OBJ_VARIANT(isProxWdgt, fltrHistV);
 601:Generated_Source\PSoC4/CapSense_Control.c ****                 }
 602:Generated_Source\PSoC4/CapSense_Control.c **** 
 603:Generated_Source\PSoC4/CapSense_Control.c ****                 if (0u != (mode & CapSense_PROCESS_STATUS))
 516              		.loc 1 603 0
 517 0048 029B     		ldr	r3, [sp, #8]
 518 004a 9B06     		lsls	r3, r3, #26
 519 004c 23D5     		bpl	.L40
ARM GAS  C:\Users\MICHAE~1.MAC\AppData\Local\Temp\cc6R6bu2.s 			page 21


 604:Generated_Source\PSoC4/CapSense_Control.c ****                 {
 605:Generated_Source\PSoC4/CapSense_Control.c ****                     CapSense_DpProcessCsdWidgetStatus(widgetId, ptrFlashWdgt);
 520              		.loc 1 605 0
 521 004e 3100     		movs	r1, r6
 522 0050 2800     		movs	r0, r5
 523 0052 FFF7FEFF 		bl	CapSense_DpProcessCsdWidgetStatus
 524              	.LVL70:
 525 0056 1EE0     		b	.L40
 526              	.L45:
 606:Generated_Source\PSoC4/CapSense_Control.c ****                 }
 607:Generated_Source\PSoC4/CapSense_Control.c ****                 break;
 608:Generated_Source\PSoC4/CapSense_Control.c ****             }
 609:Generated_Source\PSoC4/CapSense_Control.c ****         #endif /* #if (0u != CapSense_TOTAL_CSD_WIDGETS) */
 610:Generated_Source\PSoC4/CapSense_Control.c **** 
 611:Generated_Source\PSoC4/CapSense_Control.c ****         #if (0u != CapSense_TOTAL_CSX_WIDGETS)
 612:Generated_Source\PSoC4/CapSense_Control.c ****             case CapSense_SENSE_METHOD_CSX_E:
 613:Generated_Source\PSoC4/CapSense_Control.c **** 
 614:Generated_Source\PSoC4/CapSense_Control.c ****                 #if (0u != CapSense_CSX_MULTIPHASE_TX_EN)
 615:Generated_Source\PSoC4/CapSense_Control.c ****                     if ((0u != (mode & CapSense_PROCESS_DECONVOLUTION)) &&
 616:Generated_Source\PSoC4/CapSense_Control.c ****                         (0u != (ptrFlashWdgt->staticConfig & CapSense_MULTIPHASE_TX_MASK)))
 617:Generated_Source\PSoC4/CapSense_Control.c ****                     {
 618:Generated_Source\PSoC4/CapSense_Control.c ****                         CapSense_DpDeconvolution(ptrFlashWdgt);
 619:Generated_Source\PSoC4/CapSense_Control.c ****                     }
 620:Generated_Source\PSoC4/CapSense_Control.c ****                 #endif /* #if (0u != CapSense_CSX_MULTIPHASE_TX_EN) */
 621:Generated_Source\PSoC4/CapSense_Control.c **** 
 622:Generated_Source\PSoC4/CapSense_Control.c ****                 /* Run the desired processing for the all CSX widget sensors */
 623:Generated_Source\PSoC4/CapSense_Control.c ****                 for (;snsCount-- > 0u;)
 624:Generated_Source\PSoC4/CapSense_Control.c ****                 {
 625:Generated_Source\PSoC4/CapSense_Control.c ****                     result = CapSense_DpProcessCsxSensorRawCountsExt(ptrFlashWdgt, ptrSnsTmp, fltrH
 527              		.loc 1 625 0
 528 0058 029B     		ldr	r3, [sp, #8]
 529 005a 039A     		ldr	r2, [sp, #12]
 530 005c 3900     		movs	r1, r7
 531 005e 3000     		movs	r0, r6
 532 0060 FFF7FEFF 		bl	CapSense_DpProcessCsxSensorRawCountsExt
 533              	.LVL71:
 534 0064 0190     		str	r0, [sp, #4]
 535              	.LVL72:
 626:Generated_Source\PSoC4/CapSense_Control.c **** 
 627:Generated_Source\PSoC4/CapSense_Control.c ****                     #if (CapSense_ENABLE == CapSense_TST_BSLN_DUPLICATION_EN)
 628:Generated_Source\PSoC4/CapSense_Control.c ****                         if (CYRET_SUCCESS != result)
 629:Generated_Source\PSoC4/CapSense_Control.c ****                         {
 630:Generated_Source\PSoC4/CapSense_Control.c ****                             result = (result | CapSense_TST_LSBYTE) & snsCount;
 631:Generated_Source\PSoC4/CapSense_Control.c ****                         }
 632:Generated_Source\PSoC4/CapSense_Control.c ****                     #endif /* (CapSense_ENABLE == CapSense_TST_BSLN_DUPLICATION_EN) */
 633:Generated_Source\PSoC4/CapSense_Control.c **** 
 634:Generated_Source\PSoC4/CapSense_Control.c ****                     /* Move to the next sensor and filter history objects */
 635:Generated_Source\PSoC4/CapSense_Control.c ****                     ptrSnsTmp++;
 536              		.loc 1 635 0
 537 0066 0A37     		adds	r7, r7, #10
 538              	.LVL73:
 623:Generated_Source\PSoC4/CapSense_Control.c ****                 {
 539              		.loc 1 623 0
 540 0068 2300     		movs	r3, r4
 541 006a 01E0     		b	.L43
 542              	.LVL74:
 543              	.L48:
ARM GAS  C:\Users\MICHAE~1.MAC\AppData\Local\Temp\cc6R6bu2.s 			page 22


 576:Generated_Source\PSoC4/CapSense_Control.c ****         {
 544              		.loc 1 576 0
 545 006c 0122     		movs	r2, #1
 546 006e 0192     		str	r2, [sp, #4]
 547              	.LVL75:
 548              	.L43:
 623:Generated_Source\PSoC4/CapSense_Control.c ****                 {
 549              		.loc 1 623 0
 550 0070 5C1E     		subs	r4, r3, #1
 551              	.LVL76:
 552 0072 002B     		cmp	r3, #0
 553 0074 F0D1     		bne	.L45
 636:Generated_Source\PSoC4/CapSense_Control.c ****                     CapSense_INC_REG_FLTR_OBJ(fltrHistV);
 637:Generated_Source\PSoC4/CapSense_Control.c ****                 }
 638:Generated_Source\PSoC4/CapSense_Control.c **** 
 639:Generated_Source\PSoC4/CapSense_Control.c ****                 if (0u != (mode & CapSense_PROCESS_STATUS))
 554              		.loc 1 639 0
 555 0076 029B     		ldr	r3, [sp, #8]
 556 0078 9B06     		lsls	r3, r3, #26
 557 007a 0CD5     		bpl	.L40
 640:Generated_Source\PSoC4/CapSense_Control.c ****                 {
 641:Generated_Source\PSoC4/CapSense_Control.c ****                     CapSense_DpProcessCsxWidgetStatus(widgetId, ptrFlashWdgt);
 558              		.loc 1 641 0
 559 007c 3100     		movs	r1, r6
 560 007e 2800     		movs	r0, r5
 561 0080 FFF7FEFF 		bl	CapSense_DpProcessCsxWidgetStatus
 562              	.LVL77:
 563 0084 07E0     		b	.L40
 564              	.LVL78:
 565              	.L49:
 642:Generated_Source\PSoC4/CapSense_Control.c ****                 }
 643:Generated_Source\PSoC4/CapSense_Control.c ****                 break;
 644:Generated_Source\PSoC4/CapSense_Control.c ****         #endif /* #if (0u != CapSense_TOTAL_CSX_WIDGETS) */
 645:Generated_Source\PSoC4/CapSense_Control.c **** 
 646:Generated_Source\PSoC4/CapSense_Control.c ****         #if (0u != CapSense_TOTAL_ISX_WIDGETS)
 647:Generated_Source\PSoC4/CapSense_Control.c ****             case CapSense_SENSE_METHOD_ISX_E:
 648:Generated_Source\PSoC4/CapSense_Control.c ****                 /* Run the desired processing for the all ISX widget sensors */
 649:Generated_Source\PSoC4/CapSense_Control.c ****                 for (;snsCount-- > 0u;)
 650:Generated_Source\PSoC4/CapSense_Control.c ****                 {
 651:Generated_Source\PSoC4/CapSense_Control.c ****                     result = CapSense_DpProcessIsxSensorRawCountsExt(ptrFlashWdgt, ptrSnsTmp, fltrH
 652:Generated_Source\PSoC4/CapSense_Control.c **** 
 653:Generated_Source\PSoC4/CapSense_Control.c ****                     #if (CapSense_ENABLE == CapSense_TST_BSLN_DUPLICATION_EN)
 654:Generated_Source\PSoC4/CapSense_Control.c ****                         if (CYRET_SUCCESS != result)
 655:Generated_Source\PSoC4/CapSense_Control.c ****                         {
 656:Generated_Source\PSoC4/CapSense_Control.c ****                             result = (result | CapSense_TST_LSBYTE) & snsCount;
 657:Generated_Source\PSoC4/CapSense_Control.c ****                         }
 658:Generated_Source\PSoC4/CapSense_Control.c ****                     #endif /* (CapSense_ENABLE == CapSense_TST_BSLN_DUPLICATION_EN) */
 659:Generated_Source\PSoC4/CapSense_Control.c **** 
 660:Generated_Source\PSoC4/CapSense_Control.c ****                     /* Move to the next sensor and filter history objects */
 661:Generated_Source\PSoC4/CapSense_Control.c ****                     ptrSnsTmp++;
 662:Generated_Source\PSoC4/CapSense_Control.c ****                     CapSense_INC_REG_FLTR_OBJ(fltrHistV);
 663:Generated_Source\PSoC4/CapSense_Control.c ****                 }
 664:Generated_Source\PSoC4/CapSense_Control.c **** 
 665:Generated_Source\PSoC4/CapSense_Control.c ****                 if (0u != (mode & CapSense_PROCESS_STATUS))
 666:Generated_Source\PSoC4/CapSense_Control.c ****                 {
 667:Generated_Source\PSoC4/CapSense_Control.c ****                     CapSense_DpProcessIsxWidgetStatus(widgetId, ptrFlashWdgt);
 668:Generated_Source\PSoC4/CapSense_Control.c ****                 }
ARM GAS  C:\Users\MICHAE~1.MAC\AppData\Local\Temp\cc6R6bu2.s 			page 23


 669:Generated_Source\PSoC4/CapSense_Control.c ****                 break;
 670:Generated_Source\PSoC4/CapSense_Control.c ****         #endif /* #if (0u != CapSense_TOTAL_ISX_WIDGETS) */
 671:Generated_Source\PSoC4/CapSense_Control.c **** 
 672:Generated_Source\PSoC4/CapSense_Control.c ****         default:
 673:Generated_Source\PSoC4/CapSense_Control.c ****             CYASSERT(0u);
 566              		.loc 1 673 0 discriminator 1
 567 0086 0020     		movs	r0, #0
 568              	.LVL79:
 569 0088 FFF7FEFF 		bl	CyHalt
 570              	.LVL80:
 560:Generated_Source\PSoC4/CapSense_Control.c ****     CapSense_FLASH_WD_STRUCT const *ptrFlashWdgt;
 571              		.loc 1 560 0 discriminator 1
 572 008c 0123     		movs	r3, #1
 573 008e 0193     		str	r3, [sp, #4]
 674:Generated_Source\PSoC4/CapSense_Control.c ****             break;
 574              		.loc 1 674 0 discriminator 1
 575 0090 01E0     		b	.L40
 576              	.LVL81:
 577              	.L46:
 560:Generated_Source\PSoC4/CapSense_Control.c ****     CapSense_FLASH_WD_STRUCT const *ptrFlashWdgt;
 578              		.loc 1 560 0
 579 0092 0123     		movs	r3, #1
 580 0094 0193     		str	r3, [sp, #4]
 581              	.LVL82:
 582              	.L40:
 675:Generated_Source\PSoC4/CapSense_Control.c ****         }
 676:Generated_Source\PSoC4/CapSense_Control.c **** 
 677:Generated_Source\PSoC4/CapSense_Control.c ****         #if (CapSense_ENABLE == CapSense_TST_BSLN_DUPLICATION_EN)
 678:Generated_Source\PSoC4/CapSense_Control.c ****             if (CYRET_SUCCESS != result)
 679:Generated_Source\PSoC4/CapSense_Control.c ****             {
 680:Generated_Source\PSoC4/CapSense_Control.c ****                 CapSense_UpdateTestResultBaselineDuplication(widgetId, snsCount);
 681:Generated_Source\PSoC4/CapSense_Control.c ****                 result = CYRET_BAD_DATA;
 682:Generated_Source\PSoC4/CapSense_Control.c ****             }
 683:Generated_Source\PSoC4/CapSense_Control.c ****         #endif /* (CapSense_ENABLE == CapSense_TST_BSLN_DUPLICATION_EN) */
 684:Generated_Source\PSoC4/CapSense_Control.c **** 
 685:Generated_Source\PSoC4/CapSense_Control.c ****     }
 686:Generated_Source\PSoC4/CapSense_Control.c ****     return result;
 687:Generated_Source\PSoC4/CapSense_Control.c **** }
 583              		.loc 1 687 0
 584 0096 0198     		ldr	r0, [sp, #4]
 585 0098 05B0     		add	sp, sp, #20
 586              		@ sp needed
 587              	.LVL83:
 588 009a F0BD     		pop	{r4, r5, r6, r7, pc}
 589              	.L51:
 590              		.align	2
 591              	.L50:
 592 009c 00000000 		.word	CapSense_dsFlash
 593              		.cfi_endproc
 594              	.LFE7:
 595              		.size	CapSense_ProcessWidgetExt, .-CapSense_ProcessWidgetExt
 596              		.section	.text.CapSense_ProcessSensorExt,"ax",%progbits
 597              		.align	2
 598              		.global	CapSense_ProcessSensorExt
 599              		.code	16
 600              		.thumb_func
 601              		.type	CapSense_ProcessSensorExt, %function
ARM GAS  C:\Users\MICHAE~1.MAC\AppData\Local\Temp\cc6R6bu2.s 			page 24


 602              	CapSense_ProcessSensorExt:
 603              	.LFB8:
 688:Generated_Source\PSoC4/CapSense_Control.c **** 
 689:Generated_Source\PSoC4/CapSense_Control.c **** /*******************************************************************************
 690:Generated_Source\PSoC4/CapSense_Control.c **** * Function Name: CapSense_ProcessSensorExt
 691:Generated_Source\PSoC4/CapSense_Control.c **** ****************************************************************************//**
 692:Generated_Source\PSoC4/CapSense_Control.c **** *
 693:Generated_Source\PSoC4/CapSense_Control.c **** * \brief
 694:Generated_Source\PSoC4/CapSense_Control.c **** *  Performs customized data processing on the selected widget's sensor.
 695:Generated_Source\PSoC4/CapSense_Control.c **** *
 696:Generated_Source\PSoC4/CapSense_Control.c **** * \details
 697:Generated_Source\PSoC4/CapSense_Control.c **** *  This function performs data processes for the specified sensor specified by
 698:Generated_Source\PSoC4/CapSense_Control.c **** *  the mode parameter. The execution order of the requested operations is from
 699:Generated_Source\PSoC4/CapSense_Control.c **** *  LSB to MSB of the mode parameter. For a different order, this
 700:Generated_Source\PSoC4/CapSense_Control.c **** *  function can be called multiple times with the required mode parameter.
 701:Generated_Source\PSoC4/CapSense_Control.c **** *
 702:Generated_Source\PSoC4/CapSense_Control.c **** *  This function can be used with any of the available scan functions. This
 703:Generated_Source\PSoC4/CapSense_Control.c **** *  function is called only after a specified sensor in the widget is
 704:Generated_Source\PSoC4/CapSense_Control.c **** *  scanned. Calling this function multiple times with the same mode without
 705:Generated_Source\PSoC4/CapSense_Control.c **** *  sensor scanning causes unexpected behavior. This function ignores the value
 706:Generated_Source\PSoC4/CapSense_Control.c **** *  of the wdgtEnable register.
 707:Generated_Source\PSoC4/CapSense_Control.c **** *
 708:Generated_Source\PSoC4/CapSense_Control.c **** *  \if SECTION_C_LOW_LEVEL
 709:Generated_Source\PSoC4/CapSense_Control.c **** *  The CapSense_PROCESS_CALC_NOISE and
 710:Generated_Source\PSoC4/CapSense_Control.c **** *  CapSense_PROCESS_THRESHOLDS flags are supported by the CSD sensing
 711:Generated_Source\PSoC4/CapSense_Control.c **** *  method only when Auto-tuning mode is enabled.
 712:Generated_Source\PSoC4/CapSense_Control.c **** *  \endif
 713:Generated_Source\PSoC4/CapSense_Control.c **** *
 714:Generated_Source\PSoC4/CapSense_Control.c **** *  The pipeline scan method (i.e. during scanning of a sensor, processing
 715:Generated_Source\PSoC4/CapSense_Control.c **** *  of a previously scanned sensor is performed) can be implemented using this
 716:Generated_Source\PSoC4/CapSense_Control.c **** *  function and it may reduce the total scan/process time, increase the refresh
 717:Generated_Source\PSoC4/CapSense_Control.c **** *  rate and decrease the power consumption.
 718:Generated_Source\PSoC4/CapSense_Control.c **** *
 719:Generated_Source\PSoC4/CapSense_Control.c **** *  If the Self-test library is enabled, this function executes the baseline duplication
 720:Generated_Source\PSoC4/CapSense_Control.c **** *  test. Refer to CapSense_CheckBaselineDuplication() for details.
 721:Generated_Source\PSoC4/CapSense_Control.c **** *
 722:Generated_Source\PSoC4/CapSense_Control.c **** * \param widgetId
 723:Generated_Source\PSoC4/CapSense_Control.c **** *  Specifies the ID number of the widget to process one of its sensors.
 724:Generated_Source\PSoC4/CapSense_Control.c **** *  A macro for the widget ID can be found in the
 725:Generated_Source\PSoC4/CapSense_Control.c **** *  CapSense Configuration header file defined as
 726:Generated_Source\PSoC4/CapSense_Control.c **** *  CapSense_<WidgetName>_WDGT_ID.
 727:Generated_Source\PSoC4/CapSense_Control.c **** *
 728:Generated_Source\PSoC4/CapSense_Control.c **** * \param sensorId
 729:Generated_Source\PSoC4/CapSense_Control.c **** *  Specifies the ID number of the sensor within the widget to process it.
 730:Generated_Source\PSoC4/CapSense_Control.c **** *  A macro for the sensor ID within a specified widget can be found in the
 731:Generated_Source\PSoC4/CapSense_Control.c **** *  CapSense Configuration header file defined as
 732:Generated_Source\PSoC4/CapSense_Control.c **** *  CapSense_<WidgetName>_SNS<SensorNumber>_ID.
 733:Generated_Source\PSoC4/CapSense_Control.c **** *
 734:Generated_Source\PSoC4/CapSense_Control.c **** * \param mode
 735:Generated_Source\PSoC4/CapSense_Control.c **** *  Specifies the type of the sensor processing that needs to be executed for the
 736:Generated_Source\PSoC4/CapSense_Control.c **** *  specified sensor:
 737:Generated_Source\PSoC4/CapSense_Control.c **** *    1. Bits [31..5] - Reserved.
 738:Generated_Source\PSoC4/CapSense_Control.c **** *    2. Bits [4..0] - CapSense_PROCESS_ALL - Executes all the tasks.
 739:Generated_Source\PSoC4/CapSense_Control.c **** *    \if SECTION_C_LOW_LEVEL
 740:Generated_Source\PSoC4/CapSense_Control.c **** *    3. Bit [4] - CapSense_PROCESS_THRESHOLDS - Updates the thresholds (only
 741:Generated_Source\PSoC4/CapSense_Control.c **** *       in auto-tuning mode).
 742:Generated_Source\PSoC4/CapSense_Control.c **** *    4. Bit [3] - CapSense_PROCESS_CALC_NOISE - Calculates the noise (only
ARM GAS  C:\Users\MICHAE~1.MAC\AppData\Local\Temp\cc6R6bu2.s 			page 25


 743:Generated_Source\PSoC4/CapSense_Control.c **** *       in auto-tuning mode).
 744:Generated_Source\PSoC4/CapSense_Control.c **** *    \endif
 745:Generated_Source\PSoC4/CapSense_Control.c **** *    5. Bit [2] - CapSense_PROCESS_DIFFCOUNTS - Updates the difference count.
 746:Generated_Source\PSoC4/CapSense_Control.c **** *    6. Bit [1] - CapSense_PROCESS_BASELINE - Updates the baseline.
 747:Generated_Source\PSoC4/CapSense_Control.c **** *    7. Bit [0] - CapSense_PROCESS_FILTER - Runs the firmware filters.
 748:Generated_Source\PSoC4/CapSense_Control.c **** *
 749:Generated_Source\PSoC4/CapSense_Control.c **** * \return
 750:Generated_Source\PSoC4/CapSense_Control.c **** *  Returns the status of the sensor process operation:
 751:Generated_Source\PSoC4/CapSense_Control.c **** *  - CYRET_SUCCESS - The processing is successfully performed.
 752:Generated_Source\PSoC4/CapSense_Control.c **** *  - CYRET_BAD_PARAM - The input parameter is invalid.
 753:Generated_Source\PSoC4/CapSense_Control.c **** *  - CYRET_BAD_DATA - The processing is failed.
 754:Generated_Source\PSoC4/CapSense_Control.c **** *
 755:Generated_Source\PSoC4/CapSense_Control.c **** *******************************************************************************/
 756:Generated_Source\PSoC4/CapSense_Control.c **** cystatus CapSense_ProcessSensorExt(uint32 widgetId, uint32 sensorId, uint32 mode)
 757:Generated_Source\PSoC4/CapSense_Control.c **** {
 604              		.loc 1 757 0
 605              		.cfi_startproc
 606              		@ args = 0, pretend = 0, frame = 0
 607              		@ frame_needed = 0, uses_anonymous_args = 0
 608              	.LVL84:
 609 0000 F8B5     		push	{r3, r4, r5, r6, r7, lr}
 610              		.cfi_def_cfa_offset 24
 611              		.cfi_offset 3, -24
 612              		.cfi_offset 4, -20
 613              		.cfi_offset 5, -16
 614              		.cfi_offset 6, -12
 615              		.cfi_offset 7, -8
 616              		.cfi_offset 14, -4
 617              	.LVL85:
 758:Generated_Source\PSoC4/CapSense_Control.c ****     cystatus result = CYRET_BAD_PARAM;
 759:Generated_Source\PSoC4/CapSense_Control.c ****     CapSense_FLASH_WD_STRUCT const *ptrFlashWdgt;
 760:Generated_Source\PSoC4/CapSense_Control.c ****     CapSense_PTR_FILTER_VARIANT fltrHistV;
 761:Generated_Source\PSoC4/CapSense_Control.c ****     CapSense_RAM_SNS_STRUCT *ptrSnsTmp;
 762:Generated_Source\PSoC4/CapSense_Control.c **** 
 763:Generated_Source\PSoC4/CapSense_Control.c ****     if ((widgetId < CapSense_TOTAL_WIDGETS) && (sensorId < CapSense_GET_SENSOR_COUNT(widgetId)))
 618              		.loc 1 763 0
 619 0002 0328     		cmp	r0, #3
 620 0004 28D8     		bhi	.L57
 621              		.loc 1 763 0 is_stmt 0 discriminator 1
 622 0006 8500     		lsls	r5, r0, #2
 623 0008 2D18     		adds	r5, r5, r0
 624 000a EC00     		lsls	r4, r5, #3
 625 000c 2500     		movs	r5, r4
 626 000e 144B     		ldr	r3, .L60
 627 0010 1C19     		adds	r4, r3, r4
 628 0012 238B     		ldrh	r3, [r4, #24]
 629 0014 8B42     		cmp	r3, r1
 630 0016 21D9     		bls	.L58
 631              	.LVL86:
 764:Generated_Source\PSoC4/CapSense_Control.c ****     {
 765:Generated_Source\PSoC4/CapSense_Control.c ****         result = CYRET_SUCCESS;
 766:Generated_Source\PSoC4/CapSense_Control.c **** 
 767:Generated_Source\PSoC4/CapSense_Control.c ****         ptrFlashWdgt = &CapSense_dsFlash.wdgtArray[widgetId];
 632              		.loc 1 767 0 is_stmt 1
 633 0018 114F     		ldr	r7, .L60
 634 001a ED19     		adds	r5, r5, r7
 635              	.LVL87:
ARM GAS  C:\Users\MICHAE~1.MAC\AppData\Local\Temp\cc6R6bu2.s 			page 26


 768:Generated_Source\PSoC4/CapSense_Control.c ****         fltrHistV.ptr = ptrFlashWdgt->ptr2FltrHistory;
 636              		.loc 1 768 0
 637 001c EB68     		ldr	r3, [r5, #12]
 638              	.LVL88:
 639 001e 9C46     		mov	ip, r3
 640              	.LVL89:
 769:Generated_Source\PSoC4/CapSense_Control.c ****         ptrSnsTmp = ptrFlashWdgt->ptr2SnsRam;
 770:Generated_Source\PSoC4/CapSense_Control.c ****         ptrSnsTmp += sensorId;
 641              		.loc 1 770 0
 642 0020 8B00     		lsls	r3, r1, #2
 643              	.LVL90:
 644 0022 5918     		adds	r1, r3, r1
 645              	.LVL91:
 646 0024 4E00     		lsls	r6, r1, #1
 647 0026 AB68     		ldr	r3, [r5, #8]
 648 0028 9919     		adds	r1, r3, r6
 649              	.LVL92:
 771:Generated_Source\PSoC4/CapSense_Control.c **** 
 772:Generated_Source\PSoC4/CapSense_Control.c ****         switch(CapSense_GET_SENSE_METHOD(ptrFlashWdgt))
 650              		.loc 1 772 0
 651 002a EB7E     		ldrb	r3, [r5, #27]
 652 002c 012B     		cmp	r3, #1
 653 002e 02D0     		beq	.L55
 654 0030 022B     		cmp	r3, #2
 655 0032 06D0     		beq	.L56
 656 0034 0BE0     		b	.L59
 657              	.L55:
 773:Generated_Source\PSoC4/CapSense_Control.c ****         {
 774:Generated_Source\PSoC4/CapSense_Control.c ****         #if (0u != CapSense_TOTAL_CSD_WIDGETS)
 775:Generated_Source\PSoC4/CapSense_Control.c ****             case CapSense_SENSE_METHOD_CSD_E:
 776:Generated_Source\PSoC4/CapSense_Control.c ****                 if (CapSense_WD_PROXIMITY_E == (CapSense_WD_TYPE_ENUM)ptrFlashWdgt->wdgtType)
 777:Generated_Source\PSoC4/CapSense_Control.c ****                 {
 778:Generated_Source\PSoC4/CapSense_Control.c ****                     #if (0u != CapSense_PROX_RC_ALP_FILTER_EN)
 779:Generated_Source\PSoC4/CapSense_Control.c ****                         fltrHistV.ptr = &fltrHistV.ptrAlp[sensorId];
 780:Generated_Source\PSoC4/CapSense_Control.c ****                     #elif (0u != CapSense_PROX_RC_FILTER_EN)
 781:Generated_Source\PSoC4/CapSense_Control.c ****                         fltrHistV.ptr = &fltrHistV.ptrProx[sensorId];
 782:Generated_Source\PSoC4/CapSense_Control.c ****                     #endif
 783:Generated_Source\PSoC4/CapSense_Control.c ****                 }
 784:Generated_Source\PSoC4/CapSense_Control.c ****                 else
 785:Generated_Source\PSoC4/CapSense_Control.c ****                 {
 786:Generated_Source\PSoC4/CapSense_Control.c ****                     #if (0u != CapSense_REGULAR_RC_ALP_FILTER_EN)
 787:Generated_Source\PSoC4/CapSense_Control.c ****                         fltrHistV.ptr = &fltrHistV.ptrAlp[sensorId];
 788:Generated_Source\PSoC4/CapSense_Control.c ****                     #elif (0u != CapSense_REGULAR_RC_FILTER_EN)
 789:Generated_Source\PSoC4/CapSense_Control.c ****                         fltrHistV.ptr = &fltrHistV.ptrRegular[sensorId];
 790:Generated_Source\PSoC4/CapSense_Control.c ****                     #endif
 791:Generated_Source\PSoC4/CapSense_Control.c ****                 }
 792:Generated_Source\PSoC4/CapSense_Control.c **** 
 793:Generated_Source\PSoC4/CapSense_Control.c ****                 result = CapSense_DpProcessCsdSensorRawCountsExt(ptrFlashWdgt, ptrSnsTmp, fltrHistV
 658              		.loc 1 793 0
 659 0036 1300     		movs	r3, r2
 660              	.LVL93:
 661 0038 6246     		mov	r2, ip
 662              	.LVL94:
 663 003a 2800     		movs	r0, r5
 664              	.LVL95:
 665 003c FFF7FEFF 		bl	CapSense_DpProcessCsdSensorRawCountsExt
 666              	.LVL96:
ARM GAS  C:\Users\MICHAE~1.MAC\AppData\Local\Temp\cc6R6bu2.s 			page 27


 794:Generated_Source\PSoC4/CapSense_Control.c ****                 break;
 667              		.loc 1 794 0
 668 0040 0DE0     		b	.L53
 669              	.LVL97:
 670              	.L56:
 795:Generated_Source\PSoC4/CapSense_Control.c ****         #endif /* #if (0u != CapSense_TOTAL_CSD_WIDGETS) */
 796:Generated_Source\PSoC4/CapSense_Control.c **** 
 797:Generated_Source\PSoC4/CapSense_Control.c ****         #if (0u != CapSense_TOTAL_CSX_WIDGETS)
 798:Generated_Source\PSoC4/CapSense_Control.c ****             case CapSense_SENSE_METHOD_CSX_E:
 799:Generated_Source\PSoC4/CapSense_Control.c ****                 #if (0u != CapSense_REGULAR_RC_ALP_FILTER_EN)
 800:Generated_Source\PSoC4/CapSense_Control.c ****                     fltrHistV.ptr = &fltrHistV.ptrAlp[sensorId];
 801:Generated_Source\PSoC4/CapSense_Control.c ****                 #elif (0u != CapSense_REGULAR_RC_FILTER_EN)
 802:Generated_Source\PSoC4/CapSense_Control.c ****                     fltrHistV.ptr = &fltrHistV.ptrRegular[sensorId];
 803:Generated_Source\PSoC4/CapSense_Control.c ****                 #endif
 804:Generated_Source\PSoC4/CapSense_Control.c **** 
 805:Generated_Source\PSoC4/CapSense_Control.c ****                 result = CapSense_DpProcessCsxSensorRawCountsExt(ptrFlashWdgt, ptrSnsTmp, fltrHistV
 671              		.loc 1 805 0
 672 0042 1300     		movs	r3, r2
 673              	.LVL98:
 674 0044 6246     		mov	r2, ip
 675              	.LVL99:
 676 0046 2800     		movs	r0, r5
 677              	.LVL100:
 678 0048 FFF7FEFF 		bl	CapSense_DpProcessCsxSensorRawCountsExt
 679              	.LVL101:
 806:Generated_Source\PSoC4/CapSense_Control.c ****                 break;
 680              		.loc 1 806 0
 681 004c 07E0     		b	.L53
 682              	.LVL102:
 683              	.L59:
 807:Generated_Source\PSoC4/CapSense_Control.c ****         #endif /* #if (0u != CapSense_TOTAL_CSX_WIDGETS) */
 808:Generated_Source\PSoC4/CapSense_Control.c **** 
 809:Generated_Source\PSoC4/CapSense_Control.c ****         #if (0u != CapSense_TOTAL_ISX_WIDGETS)
 810:Generated_Source\PSoC4/CapSense_Control.c ****             case CapSense_SENSE_METHOD_ISX_E:
 811:Generated_Source\PSoC4/CapSense_Control.c ****                 if (CapSense_WD_PROXIMITY_E == (CapSense_WD_TYPE_ENUM)ptrFlashWdgt->wdgtType)
 812:Generated_Source\PSoC4/CapSense_Control.c ****                 {
 813:Generated_Source\PSoC4/CapSense_Control.c ****                     #if (0u != CapSense_PROX_RC_FILTER_EN)
 814:Generated_Source\PSoC4/CapSense_Control.c ****                         fltrHistV.ptr = &fltrHistV.ptrProx[sensorId];
 815:Generated_Source\PSoC4/CapSense_Control.c ****                     #endif /* #if (0u != CapSense_PROX_RC_FILTER_EN) */
 816:Generated_Source\PSoC4/CapSense_Control.c ****                 }
 817:Generated_Source\PSoC4/CapSense_Control.c ****                 else
 818:Generated_Source\PSoC4/CapSense_Control.c ****                 {
 819:Generated_Source\PSoC4/CapSense_Control.c ****                     #if (0u != CapSense_REGULAR_RC_FILTER_EN)
 820:Generated_Source\PSoC4/CapSense_Control.c ****                         fltrHistV.ptr = &fltrHistV.ptrRegular[sensorId];
 821:Generated_Source\PSoC4/CapSense_Control.c ****                     #endif /* #if (0u != CapSense_REGULAR_RC_FILTER_EN) */
 822:Generated_Source\PSoC4/CapSense_Control.c ****                 }
 823:Generated_Source\PSoC4/CapSense_Control.c **** 
 824:Generated_Source\PSoC4/CapSense_Control.c ****                 result = CapSense_DpProcessIsxSensorRawCountsExt(ptrFlashWdgt, ptrSnsTmp, fltrHistV
 825:Generated_Source\PSoC4/CapSense_Control.c ****                 break;
 826:Generated_Source\PSoC4/CapSense_Control.c ****         #endif /* #if (0u != CapSense_TOTAL_ISX_WIDGETS) */
 827:Generated_Source\PSoC4/CapSense_Control.c **** 
 828:Generated_Source\PSoC4/CapSense_Control.c ****         default:
 829:Generated_Source\PSoC4/CapSense_Control.c ****             CYASSERT(0u);
 684              		.loc 1 829 0 discriminator 1
 685 004e 0020     		movs	r0, #0
 686              	.LVL103:
 687 0050 FFF7FEFF 		bl	CyHalt
ARM GAS  C:\Users\MICHAE~1.MAC\AppData\Local\Temp\cc6R6bu2.s 			page 28


 688              	.LVL104:
 765:Generated_Source\PSoC4/CapSense_Control.c **** 
 689              		.loc 1 765 0 discriminator 1
 690 0054 0020     		movs	r0, #0
 830:Generated_Source\PSoC4/CapSense_Control.c ****             break;
 691              		.loc 1 830 0 discriminator 1
 692 0056 02E0     		b	.L53
 693              	.LVL105:
 694              	.L57:
 758:Generated_Source\PSoC4/CapSense_Control.c ****     CapSense_FLASH_WD_STRUCT const *ptrFlashWdgt;
 695              		.loc 1 758 0
 696 0058 0120     		movs	r0, #1
 697              	.LVL106:
 698 005a 00E0     		b	.L53
 699              	.LVL107:
 700              	.L58:
 701 005c 0120     		movs	r0, #1
 702              	.LVL108:
 703              	.L53:
 831:Generated_Source\PSoC4/CapSense_Control.c ****         }
 832:Generated_Source\PSoC4/CapSense_Control.c **** 
 833:Generated_Source\PSoC4/CapSense_Control.c ****         #if (CapSense_ENABLE == CapSense_TST_BSLN_DUPLICATION_EN)
 834:Generated_Source\PSoC4/CapSense_Control.c ****             if (CYRET_SUCCESS != result)
 835:Generated_Source\PSoC4/CapSense_Control.c ****             {
 836:Generated_Source\PSoC4/CapSense_Control.c ****                 CapSense_UpdateTestResultBaselineDuplication(widgetId, sensorId);
 837:Generated_Source\PSoC4/CapSense_Control.c ****                 result = CYRET_BAD_DATA;
 838:Generated_Source\PSoC4/CapSense_Control.c ****             }
 839:Generated_Source\PSoC4/CapSense_Control.c ****         #endif /* (CapSense_ENABLE == CapSense_TST_BSLN_DUPLICATION_EN) */
 840:Generated_Source\PSoC4/CapSense_Control.c **** 
 841:Generated_Source\PSoC4/CapSense_Control.c ****     }
 842:Generated_Source\PSoC4/CapSense_Control.c ****     return result;
 843:Generated_Source\PSoC4/CapSense_Control.c **** }
 704              		.loc 1 843 0
 705              		@ sp needed
 706 005e F8BD     		pop	{r3, r4, r5, r6, r7, pc}
 707              	.L61:
 708              		.align	2
 709              	.L60:
 710 0060 00000000 		.word	CapSense_dsFlash
 711              		.cfi_endproc
 712              	.LFE8:
 713              		.size	CapSense_ProcessSensorExt, .-CapSense_ProcessSensorExt
 714              		.section	.text.CapSense_Sleep,"ax",%progbits
 715              		.align	2
 716              		.global	CapSense_Sleep
 717              		.code	16
 718              		.thumb_func
 719              		.type	CapSense_Sleep, %function
 720              	CapSense_Sleep:
 721              	.LFB9:
 844:Generated_Source\PSoC4/CapSense_Control.c **** 
 845:Generated_Source\PSoC4/CapSense_Control.c **** /*******************************************************************************
 846:Generated_Source\PSoC4/CapSense_Control.c **** * Function Name: CapSense_Sleep
 847:Generated_Source\PSoC4/CapSense_Control.c **** ****************************************************************************//**
 848:Generated_Source\PSoC4/CapSense_Control.c **** *
 849:Generated_Source\PSoC4/CapSense_Control.c **** * \brief
 850:Generated_Source\PSoC4/CapSense_Control.c **** *  Prepares the Component for deep sleep.
ARM GAS  C:\Users\MICHAE~1.MAC\AppData\Local\Temp\cc6R6bu2.s 			page 29


 851:Generated_Source\PSoC4/CapSense_Control.c **** *
 852:Generated_Source\PSoC4/CapSense_Control.c **** * \details
 853:Generated_Source\PSoC4/CapSense_Control.c **** *  Currently this function is empty and exists as a place for future updates,
 854:Generated_Source\PSoC4/CapSense_Control.c **** *  this function will be used to prepare the Component to enter deep sleep.
 855:Generated_Source\PSoC4/CapSense_Control.c **** *
 856:Generated_Source\PSoC4/CapSense_Control.c **** *******************************************************************************/
 857:Generated_Source\PSoC4/CapSense_Control.c **** void CapSense_Sleep(void)
 858:Generated_Source\PSoC4/CapSense_Control.c **** {
 722              		.loc 1 858 0
 723              		.cfi_startproc
 724              		@ args = 0, pretend = 0, frame = 0
 725              		@ frame_needed = 0, uses_anonymous_args = 0
 726              		@ link register save eliminated.
 859:Generated_Source\PSoC4/CapSense_Control.c **** }
 727              		.loc 1 859 0
 728              		@ sp needed
 729 0000 7047     		bx	lr
 730              		.cfi_endproc
 731              	.LFE9:
 732              		.size	CapSense_Sleep, .-CapSense_Sleep
 733 0002 C046     		.section	.text.CapSense_Wakeup,"ax",%progbits
 734              		.align	2
 735              		.global	CapSense_Wakeup
 736              		.code	16
 737              		.thumb_func
 738              		.type	CapSense_Wakeup, %function
 739              	CapSense_Wakeup:
 740              	.LFB10:
 860:Generated_Source\PSoC4/CapSense_Control.c **** 
 861:Generated_Source\PSoC4/CapSense_Control.c **** 
 862:Generated_Source\PSoC4/CapSense_Control.c **** /*******************************************************************************
 863:Generated_Source\PSoC4/CapSense_Control.c **** * Function Name: CapSense_Wakeup
 864:Generated_Source\PSoC4/CapSense_Control.c **** ****************************************************************************//**
 865:Generated_Source\PSoC4/CapSense_Control.c **** *
 866:Generated_Source\PSoC4/CapSense_Control.c **** * \brief
 867:Generated_Source\PSoC4/CapSense_Control.c **** *  Resumes the Component after deep sleep power mode.
 868:Generated_Source\PSoC4/CapSense_Control.c **** *
 869:Generated_Source\PSoC4/CapSense_Control.c **** * \details
 870:Generated_Source\PSoC4/CapSense_Control.c **** *  Resumes the Component after deep sleep power mode. This function is used to
 871:Generated_Source\PSoC4/CapSense_Control.c **** *  resume the Component after exiting deep sleep.
 872:Generated_Source\PSoC4/CapSense_Control.c **** *
 873:Generated_Source\PSoC4/CapSense_Control.c **** *******************************************************************************/
 874:Generated_Source\PSoC4/CapSense_Control.c **** void CapSense_Wakeup(void)
 875:Generated_Source\PSoC4/CapSense_Control.c **** {
 741              		.loc 1 875 0
 742              		.cfi_startproc
 743              		@ args = 0, pretend = 0, frame = 0
 744              		@ frame_needed = 0, uses_anonymous_args = 0
 745              		@ link register save eliminated.
 876:Generated_Source\PSoC4/CapSense_Control.c ****     #if(CapSense_ENABLE == CapSense_CSDV2)
 877:Generated_Source\PSoC4/CapSense_Control.c ****         #if(CapSense_BLOCK_ANALOG_WAKEUP_DELAY_US > 0uL)
 878:Generated_Source\PSoC4/CapSense_Control.c ****             CyDelayUs(CapSense_BLOCK_ANALOG_WAKEUP_DELAY_US);
 879:Generated_Source\PSoC4/CapSense_Control.c ****         #endif /* (CapSense_BLOCK_ANALOG_WAKEUP_DELAY_US > 0uL) */
 880:Generated_Source\PSoC4/CapSense_Control.c ****     #endif /* (CapSense_ENABLE == CapSense_CSDV2) */
 881:Generated_Source\PSoC4/CapSense_Control.c **** }
 746              		.loc 1 881 0
 747              		@ sp needed
ARM GAS  C:\Users\MICHAE~1.MAC\AppData\Local\Temp\cc6R6bu2.s 			page 30


 748 0000 7047     		bx	lr
 749              		.cfi_endproc
 750              	.LFE10:
 751              		.size	CapSense_Wakeup, .-CapSense_Wakeup
 752 0002 C046     		.bss
 753              		.set	.LANCHOR0,. + 0
 754              		.type	CapSense_InitVar, %object
 755              		.size	CapSense_InitVar, 1
 756              	CapSense_InitVar:
 757 0000 00       		.space	1
 758              		.text
 759              	.Letext0:
 760              		.file 2 "Generated_Source\\PSoC4\\cytypes.h"
 761              		.file 3 "Generated_Source\\PSoC4\\CapSense_Configuration.h"
 762              		.file 4 "Generated_Source\\PSoC4\\CapSense_Structure.h"
 763              		.file 5 "Generated_Source\\PSoC4\\CapSense_Tuner.h"
 764              		.file 6 "Generated_Source\\PSoC4\\CapSense_Processing.h"
 765              		.file 7 "Generated_Source\\PSoC4\\CapSense_Sensing.h"
 766              		.file 8 "Generated_Source\\PSoC4\\CapSense_Filter.h"
 767              		.file 9 "Generated_Source\\PSoC4\\CyLib.h"