ARM GAS  C:\Users\MICHAE~1.MAC\AppData\Local\Temp\cctIS3p0.s 			page 1


   1              		.syntax unified
   2              		.cpu cortex-m0plus
   3              		.fpu softvfp
   4              		.eabi_attribute 20, 1
   5              		.eabi_attribute 21, 1
   6              		.eabi_attribute 23, 3
   7              		.eabi_attribute 24, 1
   8              		.eabi_attribute 25, 1
   9              		.eabi_attribute 26, 1
  10              		.eabi_attribute 30, 1
  11              		.eabi_attribute 34, 0
  12              		.eabi_attribute 18, 4
  13              		.thumb
  14              		.syntax unified
  15              		.file	"SmartIO_Port2.c"
  16              		.text
  17              	.Ltext0:
  18              		.cfi_sections	.debug_frame
  19              		.section	.text.SmartIO_Port2_Init,"ax",%progbits
  20              		.align	2
  21              		.global	SmartIO_Port2_Init
  22              		.code	16
  23              		.thumb_func
  24              		.type	SmartIO_Port2_Init, %function
  25              	SmartIO_Port2_Init:
  26              	.LFB0:
  27              		.file 1 "Generated_Source\\PSoC4\\SmartIO_Port2.c"
   1:Generated_Source\PSoC4/SmartIO_Port2.c **** /*******************************************************************************
   2:Generated_Source\PSoC4/SmartIO_Port2.c **** * \file SmartIO_Port2.c
   3:Generated_Source\PSoC4/SmartIO_Port2.c **** * \version 1.10
   4:Generated_Source\PSoC4/SmartIO_Port2.c **** *
   5:Generated_Source\PSoC4/SmartIO_Port2.c **** * \brief
   6:Generated_Source\PSoC4/SmartIO_Port2.c **** *  This file provides the  API for the SmartIO Component.
   7:Generated_Source\PSoC4/SmartIO_Port2.c **** *
   8:Generated_Source\PSoC4/SmartIO_Port2.c **** *******************************************************************************
   9:Generated_Source\PSoC4/SmartIO_Port2.c **** * Copyright 2016, Cypress Semiconductor Corporation. All rights reserved.
  10:Generated_Source\PSoC4/SmartIO_Port2.c **** * You may use this file only in accordance with the license, terms, conditions,
  11:Generated_Source\PSoC4/SmartIO_Port2.c **** * disclaimers, and limitations in the end user license agreement accompanying
  12:Generated_Source\PSoC4/SmartIO_Port2.c **** * the software package with which this file was provided.
  13:Generated_Source\PSoC4/SmartIO_Port2.c **** *******************************************************************************/
  14:Generated_Source\PSoC4/SmartIO_Port2.c **** 
  15:Generated_Source\PSoC4/SmartIO_Port2.c **** #include "SmartIO_Port2.h"
  16:Generated_Source\PSoC4/SmartIO_Port2.c **** 
  17:Generated_Source\PSoC4/SmartIO_Port2.c **** /* Initialization global variable */
  18:Generated_Source\PSoC4/SmartIO_Port2.c **** uint8 SmartIO_Port2_initVar = 0u;
  19:Generated_Source\PSoC4/SmartIO_Port2.c **** 
  20:Generated_Source\PSoC4/SmartIO_Port2.c **** /* Clock configuration */
  21:Generated_Source\PSoC4/SmartIO_Port2.c **** static uint32 SmartIO_Port2_clkConfig = 0u;
  22:Generated_Source\PSoC4/SmartIO_Port2.c **** 
  23:Generated_Source\PSoC4/SmartIO_Port2.c **** /**
  24:Generated_Source\PSoC4/SmartIO_Port2.c **** * \addtogroup group_functions
  25:Generated_Source\PSoC4/SmartIO_Port2.c **** * \{
  26:Generated_Source\PSoC4/SmartIO_Port2.c **** */
  27:Generated_Source\PSoC4/SmartIO_Port2.c **** 
  28:Generated_Source\PSoC4/SmartIO_Port2.c **** /*******************************************************************************
  29:Generated_Source\PSoC4/SmartIO_Port2.c **** * Function Name: SmartIO_Port2_Init
  30:Generated_Source\PSoC4/SmartIO_Port2.c **** ****************************************************************************//**
ARM GAS  C:\Users\MICHAE~1.MAC\AppData\Local\Temp\cctIS3p0.s 			page 2


  31:Generated_Source\PSoC4/SmartIO_Port2.c **** *
  32:Generated_Source\PSoC4/SmartIO_Port2.c **** * \brief Initializes the component as specified in the Configuration dialog.
  33:Generated_Source\PSoC4/SmartIO_Port2.c **** *
  34:Generated_Source\PSoC4/SmartIO_Port2.c **** * This function can also be used to reinitialize the component to the settings 
  35:Generated_Source\PSoC4/SmartIO_Port2.c **** * as specified in the Configuration dialog.
  36:Generated_Source\PSoC4/SmartIO_Port2.c **** *
  37:Generated_Source\PSoC4/SmartIO_Port2.c **** * \funcusage
  38:Generated_Source\PSoC4/SmartIO_Port2.c **** *  \snippet SmartIO_Port2_SUT.c usage_SmartIO_Port2_Init
  39:Generated_Source\PSoC4/SmartIO_Port2.c **** *******************************************************************************/
  40:Generated_Source\PSoC4/SmartIO_Port2.c **** void SmartIO_Port2_Init(void)
  41:Generated_Source\PSoC4/SmartIO_Port2.c **** {
  28              		.loc 1 41 0
  29              		.cfi_startproc
  30              		@ args = 0, pretend = 0, frame = 0
  31              		@ frame_needed = 0, uses_anonymous_args = 0
  32              		@ link register save eliminated.
  42:Generated_Source\PSoC4/SmartIO_Port2.c ****     /* Must disable the block before configuring */
  43:Generated_Source\PSoC4/SmartIO_Port2.c ****     SmartIO_Port2_Disable();
  33              		.loc 1 43 0
  34 0000 154A     		ldr	r2, .L2
  35 0002 1368     		ldr	r3, [r2]
  36 0004 5B00     		lsls	r3, r3, #1
  37 0006 5B08     		lsrs	r3, r3, #1
  38 0008 1360     		str	r3, [r2]
  44:Generated_Source\PSoC4/SmartIO_Port2.c ****     /* Save the clock configuration */
  45:Generated_Source\PSoC4/SmartIO_Port2.c ****     SmartIO_Port2_clkConfig = SmartIO_Port2_INIT_CLOCK_SRC;
  39              		.loc 1 45 0
  40 000a F821     		movs	r1, #248
  41 000c 4901     		lsls	r1, r1, #5
  42 000e 134B     		ldr	r3, .L2+4
  43 0010 1960     		str	r1, [r3]
  46:Generated_Source\PSoC4/SmartIO_Port2.c ****     /* General control */
  47:Generated_Source\PSoC4/SmartIO_Port2.c ****     SmartIO_Port2_CTL = SmartIO_Port2_INIT_CTL_CONFIG;
  44              		.loc 1 47 0
  45 0012 134B     		ldr	r3, .L2+8
  46 0014 1360     		str	r3, [r2]
  48:Generated_Source\PSoC4/SmartIO_Port2.c ****     /* Synchronization control */
  49:Generated_Source\PSoC4/SmartIO_Port2.c ****     SmartIO_Port2_SYNC_CTL = SmartIO_Port2_INIT_SYNC_CONFIG;
  47              		.loc 1 49 0
  48 0016 0022     		movs	r2, #0
  49 0018 124B     		ldr	r3, .L2+12
  50 001a 1A60     		str	r2, [r3]
  50:Generated_Source\PSoC4/SmartIO_Port2.c ****     /* LUT input selection */
  51:Generated_Source\PSoC4/SmartIO_Port2.c ****     SmartIO_Port2_LUT_CONGIG_BASE.lutSel[SmartIO_Port2_LUT0] = SmartIO_Port2_INIT_LUT0_SEL_CONFIG;
  51              		.loc 1 51 0
  52 001c 124B     		ldr	r3, .L2+16
  53 001e 1349     		ldr	r1, .L2+20
  54 0020 1960     		str	r1, [r3]
  52:Generated_Source\PSoC4/SmartIO_Port2.c ****     SmartIO_Port2_LUT_CONGIG_BASE.lutSel[SmartIO_Port2_LUT1] = SmartIO_Port2_INIT_LUT1_SEL_CONFIG;
  55              		.loc 1 52 0
  56 0022 5960     		str	r1, [r3, #4]
  53:Generated_Source\PSoC4/SmartIO_Port2.c ****     SmartIO_Port2_LUT_CONGIG_BASE.lutSel[SmartIO_Port2_LUT2] = SmartIO_Port2_INIT_LUT2_SEL_CONFIG;
  57              		.loc 1 53 0
  58 0024 9960     		str	r1, [r3, #8]
  54:Generated_Source\PSoC4/SmartIO_Port2.c ****     SmartIO_Port2_LUT_CONGIG_BASE.lutSel[SmartIO_Port2_LUT3] = SmartIO_Port2_INIT_LUT3_SEL_CONFIG;
  59              		.loc 1 54 0
  60 0026 D960     		str	r1, [r3, #12]
ARM GAS  C:\Users\MICHAE~1.MAC\AppData\Local\Temp\cctIS3p0.s 			page 3


  55:Generated_Source\PSoC4/SmartIO_Port2.c ****     SmartIO_Port2_LUT_CONGIG_BASE.lutSel[SmartIO_Port2_LUT4] = SmartIO_Port2_INIT_LUT4_SEL_CONFIG;
  61              		.loc 1 55 0
  62 0028 1961     		str	r1, [r3, #16]
  56:Generated_Source\PSoC4/SmartIO_Port2.c ****     SmartIO_Port2_LUT_CONGIG_BASE.lutSel[SmartIO_Port2_LUT5] = SmartIO_Port2_INIT_LUT5_SEL_CONFIG;
  63              		.loc 1 56 0
  64 002a 1148     		ldr	r0, .L2+24
  65 002c 5861     		str	r0, [r3, #20]
  57:Generated_Source\PSoC4/SmartIO_Port2.c ****     SmartIO_Port2_LUT_CONGIG_BASE.lutSel[SmartIO_Port2_LUT6] = SmartIO_Port2_INIT_LUT6_SEL_CONFIG;
  66              		.loc 1 57 0
  67 002e 9961     		str	r1, [r3, #24]
  58:Generated_Source\PSoC4/SmartIO_Port2.c ****     SmartIO_Port2_LUT_CONGIG_BASE.lutSel[SmartIO_Port2_LUT7] = SmartIO_Port2_INIT_LUT7_SEL_CONFIG;
  68              		.loc 1 58 0
  69 0030 D961     		str	r1, [r3, #28]
  59:Generated_Source\PSoC4/SmartIO_Port2.c ****     /* LUT control */
  60:Generated_Source\PSoC4/SmartIO_Port2.c ****     SmartIO_Port2_LUT_CONGIG_BASE.lutCtl[SmartIO_Port2_LUT0] = SmartIO_Port2_INIT_LUT0_CTL_CONFIG;
  70              		.loc 1 60 0
  71 0032 8021     		movs	r1, #128
  72 0034 1962     		str	r1, [r3, #32]
  61:Generated_Source\PSoC4/SmartIO_Port2.c ****     SmartIO_Port2_LUT_CONGIG_BASE.lutCtl[SmartIO_Port2_LUT1] = SmartIO_Port2_INIT_LUT1_CTL_CONFIG;
  73              		.loc 1 61 0
  74 0036 5A62     		str	r2, [r3, #36]
  62:Generated_Source\PSoC4/SmartIO_Port2.c ****     SmartIO_Port2_LUT_CONGIG_BASE.lutCtl[SmartIO_Port2_LUT2] = SmartIO_Port2_INIT_LUT2_CTL_CONFIG;
  75              		.loc 1 62 0
  76 0038 9A62     		str	r2, [r3, #40]
  63:Generated_Source\PSoC4/SmartIO_Port2.c ****     SmartIO_Port2_LUT_CONGIG_BASE.lutCtl[SmartIO_Port2_LUT3] = SmartIO_Port2_INIT_LUT3_CTL_CONFIG;
  77              		.loc 1 63 0
  78 003a DA62     		str	r2, [r3, #44]
  64:Generated_Source\PSoC4/SmartIO_Port2.c ****     SmartIO_Port2_LUT_CONGIG_BASE.lutCtl[SmartIO_Port2_LUT4] = SmartIO_Port2_INIT_LUT4_CTL_CONFIG;
  79              		.loc 1 64 0
  80 003c 1A63     		str	r2, [r3, #48]
  65:Generated_Source\PSoC4/SmartIO_Port2.c ****     SmartIO_Port2_LUT_CONGIG_BASE.lutCtl[SmartIO_Port2_LUT5] = SmartIO_Port2_INIT_LUT5_CTL_CONFIG;
  81              		.loc 1 65 0
  82 003e 1A39     		subs	r1, r1, #26
  83 0040 5963     		str	r1, [r3, #52]
  66:Generated_Source\PSoC4/SmartIO_Port2.c ****     SmartIO_Port2_LUT_CONGIG_BASE.lutCtl[SmartIO_Port2_LUT6] = SmartIO_Port2_INIT_LUT6_CTL_CONFIG;
  84              		.loc 1 66 0
  85 0042 9963     		str	r1, [r3, #56]
  67:Generated_Source\PSoC4/SmartIO_Port2.c ****     SmartIO_Port2_LUT_CONGIG_BASE.lutCtl[SmartIO_Port2_LUT7] = SmartIO_Port2_INIT_LUT7_CTL_CONFIG;
  86              		.loc 1 67 0
  87 0044 DA63     		str	r2, [r3, #60]
  68:Generated_Source\PSoC4/SmartIO_Port2.c ****     /* Turn off the DU */
  69:Generated_Source\PSoC4/SmartIO_Port2.c ****     SmartIO_Port2_DU_SEL = SmartIO_Port2_INIT_DU_SEL;
  88              		.loc 1 69 0
  89 0046 0B4B     		ldr	r3, .L2+28
  90 0048 1A60     		str	r2, [r3]
  70:Generated_Source\PSoC4/SmartIO_Port2.c ****     SmartIO_Port2_DU_CTL = SmartIO_Port2_INIT_DU_CTL;
  91              		.loc 1 70 0
  92 004a 0821     		movs	r1, #8
  93 004c FF31     		adds	r1, r1, #255
  94 004e 0A4B     		ldr	r3, .L2+32
  95 0050 1960     		str	r1, [r3]
  71:Generated_Source\PSoC4/SmartIO_Port2.c ****     SmartIO_Port2_DATA = SmartIO_Port2_INIT_DU_DATA_REG;
  96              		.loc 1 71 0
  97 0052 0A4B     		ldr	r3, .L2+36
  98 0054 1A60     		str	r2, [r3]
  72:Generated_Source\PSoC4/SmartIO_Port2.c **** }
  99              		.loc 1 72 0
ARM GAS  C:\Users\MICHAE~1.MAC\AppData\Local\Temp\cctIS3p0.s 			page 4


 100              		@ sp needed
 101 0056 7047     		bx	lr
 102              	.L3:
 103              		.align	2
 104              	.L2:
 105 0058 00000540 		.word	1074069504
 106 005c 00000000 		.word	.LANCHOR0
 107 0060 5F1F0000 		.word	8031
 108 0064 10000540 		.word	1074069520
 109 0068 20000540 		.word	1074069536
 110 006c 11111100 		.word	1118481
 111 0070 090B0900 		.word	592649
 112 0074 C0000540 		.word	1074069696
 113 0078 C4000540 		.word	1074069700
 114 007c F0000540 		.word	1074069744
 115              		.cfi_endproc
 116              	.LFE0:
 117              		.size	SmartIO_Port2_Init, .-SmartIO_Port2_Init
 118              		.section	.text.SmartIO_Port2_Start,"ax",%progbits
 119              		.align	2
 120              		.global	SmartIO_Port2_Start
 121              		.code	16
 122              		.thumb_func
 123              		.type	SmartIO_Port2_Start, %function
 124              	SmartIO_Port2_Start:
 125              	.LFB1:
  73:Generated_Source\PSoC4/SmartIO_Port2.c **** 
  74:Generated_Source\PSoC4/SmartIO_Port2.c **** 
  75:Generated_Source\PSoC4/SmartIO_Port2.c **** /*******************************************************************************
  76:Generated_Source\PSoC4/SmartIO_Port2.c **** * Function Name: SmartIO_Port2_Start
  77:Generated_Source\PSoC4/SmartIO_Port2.c **** ****************************************************************************//**
  78:Generated_Source\PSoC4/SmartIO_Port2.c **** *
  79:Generated_Source\PSoC4/SmartIO_Port2.c **** * \brief Invokes SmartIO_Port2_Init() and SmartIO_Port2_Enable().
  80:Generated_Source\PSoC4/SmartIO_Port2.c **** *  
  81:Generated_Source\PSoC4/SmartIO_Port2.c **** * After this function call, the component is initialized to specified values
  82:Generated_Source\PSoC4/SmartIO_Port2.c **** * in the Configuration dialog and is then enabled.
  83:Generated_Source\PSoC4/SmartIO_Port2.c **** *
  84:Generated_Source\PSoC4/SmartIO_Port2.c **** * If calling this function after calling SmartIO_Port2_Stop(), the fabric
  85:Generated_Source\PSoC4/SmartIO_Port2.c **** * will set the clock configuration as specified before calling Stop().
  86:Generated_Source\PSoC4/SmartIO_Port2.c **** *
  87:Generated_Source\PSoC4/SmartIO_Port2.c **** * \globalvars
  88:Generated_Source\PSoC4/SmartIO_Port2.c **** *  SmartIO_Port2_initVar - used to check initial configuration, modified
  89:Generated_Source\PSoC4/SmartIO_Port2.c **** *  on first function call.
  90:Generated_Source\PSoC4/SmartIO_Port2.c **** *
  91:Generated_Source\PSoC4/SmartIO_Port2.c **** * \funcusage
  92:Generated_Source\PSoC4/SmartIO_Port2.c **** *  \snippet SmartIO_Port2_SUT.c usage_SmartIO_Port2_Start
  93:Generated_Source\PSoC4/SmartIO_Port2.c **** *******************************************************************************/
  94:Generated_Source\PSoC4/SmartIO_Port2.c **** void SmartIO_Port2_Start(void)
  95:Generated_Source\PSoC4/SmartIO_Port2.c **** {
 126              		.loc 1 95 0
 127              		.cfi_startproc
 128              		@ args = 0, pretend = 0, frame = 0
 129              		@ frame_needed = 0, uses_anonymous_args = 0
 130 0000 10B5     		push	{r4, lr}
 131              		.cfi_def_cfa_offset 8
 132              		.cfi_offset 4, -8
 133              		.cfi_offset 14, -4
ARM GAS  C:\Users\MICHAE~1.MAC\AppData\Local\Temp\cctIS3p0.s 			page 5


  96:Generated_Source\PSoC4/SmartIO_Port2.c ****     uint32 regVal;
  97:Generated_Source\PSoC4/SmartIO_Port2.c ****     
  98:Generated_Source\PSoC4/SmartIO_Port2.c ****     if (0u == SmartIO_Port2_initVar)
 134              		.loc 1 98 0
 135 0002 0E4B     		ldr	r3, .L7
 136 0004 1B79     		ldrb	r3, [r3, #4]
 137 0006 002B     		cmp	r3, #0
 138 0008 05D1     		bne	.L5
  99:Generated_Source\PSoC4/SmartIO_Port2.c ****     {
 100:Generated_Source\PSoC4/SmartIO_Port2.c ****         SmartIO_Port2_Init();
 139              		.loc 1 100 0
 140 000a FFF7FEFF 		bl	SmartIO_Port2_Init
 141              	.LVL0:
 101:Generated_Source\PSoC4/SmartIO_Port2.c ****         SmartIO_Port2_initVar = 1u; /* Component was initialized */
 142              		.loc 1 101 0
 143 000e 0122     		movs	r2, #1
 144 0010 0A4B     		ldr	r3, .L7
 145 0012 1A71     		strb	r2, [r3, #4]
 146 0014 0BE0     		b	.L6
 147              	.L5:
 102:Generated_Source\PSoC4/SmartIO_Port2.c ****     }
 103:Generated_Source\PSoC4/SmartIO_Port2.c ****     else
 104:Generated_Source\PSoC4/SmartIO_Port2.c ****     {
 105:Generated_Source\PSoC4/SmartIO_Port2.c ****         /* Restore the component settings if Stop() was called */
 106:Generated_Source\PSoC4/SmartIO_Port2.c ****         if ((SmartIO_Port2_CTL & SmartIO_Port2_FABRIC_MASK) == 0u)
 148              		.loc 1 106 0
 149 0016 0A4B     		ldr	r3, .L7+4
 150 0018 1B68     		ldr	r3, [r3]
 151 001a 002B     		cmp	r3, #0
 152 001c 07DB     		blt	.L6
 107:Generated_Source\PSoC4/SmartIO_Port2.c ****         {
 108:Generated_Source\PSoC4/SmartIO_Port2.c ****             /* Clear the pipeline bit and clear the clock field */            
 109:Generated_Source\PSoC4/SmartIO_Port2.c ****             regVal = SmartIO_Port2_CTL & SmartIO_Port2_PIPELINE_DISABLE & SmartIO_Port2_CLOCK_CLEAR
 153              		.loc 1 109 0
 154 001e 0849     		ldr	r1, .L7+4
 155 0020 0A68     		ldr	r2, [r1]
 156 0022 084B     		ldr	r3, .L7+8
 157 0024 1340     		ands	r3, r2
 158              	.LVL1:
 110:Generated_Source\PSoC4/SmartIO_Port2.c ****             /* Restore the clock settings */
 111:Generated_Source\PSoC4/SmartIO_Port2.c ****             SmartIO_Port2_CTL = regVal | SmartIO_Port2_clkConfig;
 159              		.loc 1 111 0
 160 0026 054A     		ldr	r2, .L7
 161 0028 1268     		ldr	r2, [r2]
 162 002a 1343     		orrs	r3, r2
 163              	.LVL2:
 164 002c 0B60     		str	r3, [r1]
 165              	.L6:
 112:Generated_Source\PSoC4/SmartIO_Port2.c ****         }
 113:Generated_Source\PSoC4/SmartIO_Port2.c ****     }
 114:Generated_Source\PSoC4/SmartIO_Port2.c ****     SmartIO_Port2_Enable();
 166              		.loc 1 114 0
 167 002e 044A     		ldr	r2, .L7+4
 168 0030 1368     		ldr	r3, [r2]
 169 0032 8021     		movs	r1, #128
 170 0034 0906     		lsls	r1, r1, #24
 171 0036 0B43     		orrs	r3, r1
ARM GAS  C:\Users\MICHAE~1.MAC\AppData\Local\Temp\cctIS3p0.s 			page 6


 172 0038 1360     		str	r3, [r2]
 115:Generated_Source\PSoC4/SmartIO_Port2.c **** }
 173              		.loc 1 115 0
 174              		@ sp needed
 175 003a 10BD     		pop	{r4, pc}
 176              	.L8:
 177              		.align	2
 178              	.L7:
 179 003c 00000000 		.word	.LANCHOR0
 180 0040 00000540 		.word	1074069504
 181 0044 FFE0FFFD 		.word	-33562369
 182              		.cfi_endproc
 183              	.LFE1:
 184              		.size	SmartIO_Port2_Start, .-SmartIO_Port2_Start
 185              		.section	.text.SmartIO_Port2_Stop,"ax",%progbits
 186              		.align	2
 187              		.global	SmartIO_Port2_Stop
 188              		.code	16
 189              		.thumb_func
 190              		.type	SmartIO_Port2_Stop, %function
 191              	SmartIO_Port2_Stop:
 192              	.LFB2:
 116:Generated_Source\PSoC4/SmartIO_Port2.c **** 
 117:Generated_Source\PSoC4/SmartIO_Port2.c **** 
 118:Generated_Source\PSoC4/SmartIO_Port2.c **** /*******************************************************************************
 119:Generated_Source\PSoC4/SmartIO_Port2.c **** * Function Name: SmartIO_Port2_Stop
 120:Generated_Source\PSoC4/SmartIO_Port2.c **** ****************************************************************************//**
 121:Generated_Source\PSoC4/SmartIO_Port2.c **** *
 122:Generated_Source\PSoC4/SmartIO_Port2.c **** * \brief The routing fabric is bypassed and the block is powered down.
 123:Generated_Source\PSoC4/SmartIO_Port2.c **** *
 124:Generated_Source\PSoC4/SmartIO_Port2.c **** * This function saves the clock configuration before powering down. Calling
 125:Generated_Source\PSoC4/SmartIO_Port2.c **** * Start() will enable the block and restore the clock setting.
 126:Generated_Source\PSoC4/SmartIO_Port2.c **** * 
 127:Generated_Source\PSoC4/SmartIO_Port2.c **** * \globalvars
 128:Generated_Source\PSoC4/SmartIO_Port2.c **** *  SmartIO_Port2_clkConfig - used to save the clock configuration.
 129:Generated_Source\PSoC4/SmartIO_Port2.c **** *
 130:Generated_Source\PSoC4/SmartIO_Port2.c **** * \funcusage
 131:Generated_Source\PSoC4/SmartIO_Port2.c **** *  \snippet SmartIO_Port2_SUT.c usage_SmartIO_Port2_Stop
 132:Generated_Source\PSoC4/SmartIO_Port2.c **** *******************************************************************************/
 133:Generated_Source\PSoC4/SmartIO_Port2.c **** void SmartIO_Port2_Stop(void)
 134:Generated_Source\PSoC4/SmartIO_Port2.c **** {
 193              		.loc 1 134 0
 194              		.cfi_startproc
 195              		@ args = 0, pretend = 0, frame = 0
 196              		@ frame_needed = 0, uses_anonymous_args = 0
 197              		@ link register save eliminated.
 135:Generated_Source\PSoC4/SmartIO_Port2.c ****     uint32 regVal;
 136:Generated_Source\PSoC4/SmartIO_Port2.c ****     
 137:Generated_Source\PSoC4/SmartIO_Port2.c ****     /* Disable the block */
 138:Generated_Source\PSoC4/SmartIO_Port2.c ****     SmartIO_Port2_Disable();
 198              		.loc 1 138 0
 199 0000 084B     		ldr	r3, .L10
 200 0002 1A68     		ldr	r2, [r3]
 201 0004 5200     		lsls	r2, r2, #1
 202 0006 5208     		lsrs	r2, r2, #1
 203 0008 1A60     		str	r2, [r3]
 139:Generated_Source\PSoC4/SmartIO_Port2.c ****     /* Save the clock setting */
ARM GAS  C:\Users\MICHAE~1.MAC\AppData\Local\Temp\cctIS3p0.s 			page 7


 140:Generated_Source\PSoC4/SmartIO_Port2.c ****     SmartIO_Port2_clkConfig = SmartIO_Port2_CTL & SmartIO_Port2_CLOCK_MASK;
 204              		.loc 1 140 0
 205 000a 1968     		ldr	r1, [r3]
 206 000c F822     		movs	r2, #248
 207 000e 5201     		lsls	r2, r2, #5
 208 0010 0A40     		ands	r2, r1
 209 0012 0549     		ldr	r1, .L10+4
 210 0014 0A60     		str	r2, [r1]
 141:Generated_Source\PSoC4/SmartIO_Port2.c ****     /* Clear the clock source */
 142:Generated_Source\PSoC4/SmartIO_Port2.c ****     regVal = SmartIO_Port2_CTL & SmartIO_Port2_CLOCK_CLEAR;
 211              		.loc 1 142 0
 212 0016 1968     		ldr	r1, [r3]
 213 0018 044A     		ldr	r2, .L10+8
 214 001a 0A40     		ands	r2, r1
 215              	.LVL3:
 143:Generated_Source\PSoC4/SmartIO_Port2.c ****     /* Enable the pipeline and set the clock source to const zero */
 144:Generated_Source\PSoC4/SmartIO_Port2.c ****     SmartIO_Port2_CTL = regVal | SmartIO_Port2_PIPELINE_ENABLE | SmartIO_Port2_CLOCK_CONST_ZERO;
 216              		.loc 1 144 0
 217 001c 0449     		ldr	r1, .L10+12
 218 001e 0A43     		orrs	r2, r1
 219              	.LVL4:
 220 0020 1A60     		str	r2, [r3]
 145:Generated_Source\PSoC4/SmartIO_Port2.c **** }
 221              		.loc 1 145 0
 222              		@ sp needed
 223 0022 7047     		bx	lr
 224              	.L11:
 225              		.align	2
 226              	.L10:
 227 0024 00000540 		.word	1074069504
 228 0028 00000000 		.word	.LANCHOR0
 229 002c FFE0FFFF 		.word	-7937
 230 0030 00140002 		.word	33559552
 231              		.cfi_endproc
 232              	.LFE2:
 233              		.size	SmartIO_Port2_Stop, .-SmartIO_Port2_Stop
 234              		.section	.text.SmartIO_Port2_SetBypass,"ax",%progbits
 235              		.align	2
 236              		.global	SmartIO_Port2_SetBypass
 237              		.code	16
 238              		.thumb_func
 239              		.type	SmartIO_Port2_SetBypass, %function
 240              	SmartIO_Port2_SetBypass:
 241              	.LFB3:
 146:Generated_Source\PSoC4/SmartIO_Port2.c **** 
 147:Generated_Source\PSoC4/SmartIO_Port2.c **** 
 148:Generated_Source\PSoC4/SmartIO_Port2.c **** /*******************************************************************************
 149:Generated_Source\PSoC4/SmartIO_Port2.c **** * Function Name: SmartIO_Port2_SetBypass
 150:Generated_Source\PSoC4/SmartIO_Port2.c **** ****************************************************************************//**
 151:Generated_Source\PSoC4/SmartIO_Port2.c **** *
 152:Generated_Source\PSoC4/SmartIO_Port2.c **** * \brief Bypasses channels on a bit by bit basis. 
 153:Generated_Source\PSoC4/SmartIO_Port2.c **** *
 154:Generated_Source\PSoC4/SmartIO_Port2.c **** * Bypassed channels behave as if the SmartIO component was not present for 
 155:Generated_Source\PSoC4/SmartIO_Port2.c **** * those particular channels. 
 156:Generated_Source\PSoC4/SmartIO_Port2.c **** *  
 157:Generated_Source\PSoC4/SmartIO_Port2.c **** * <b>Note</b> This function impacts all channels on the port. It will write
 158:Generated_Source\PSoC4/SmartIO_Port2.c **** * over the bypass configuration of all the channels. 
ARM GAS  C:\Users\MICHAE~1.MAC\AppData\Local\Temp\cctIS3p0.s 			page 8


 159:Generated_Source\PSoC4/SmartIO_Port2.c **** *
 160:Generated_Source\PSoC4/SmartIO_Port2.c **** * \param portChannel
 161:Generated_Source\PSoC4/SmartIO_Port2.c **** *  The channel location to be bypassed on the port. If the bit value is 0, 
 162:Generated_Source\PSoC4/SmartIO_Port2.c **** *  the channel is not bypassed; if the bit value is 1, the channel is bypassed.
 163:Generated_Source\PSoC4/SmartIO_Port2.c **** *  Valid options are documented in \ref channelConst. These should be ORed
 164:Generated_Source\PSoC4/SmartIO_Port2.c **** *  to configure multiple bypass channels.
 165:Generated_Source\PSoC4/SmartIO_Port2.c **** * 
 166:Generated_Source\PSoC4/SmartIO_Port2.c **** * \sideeffect
 167:Generated_Source\PSoC4/SmartIO_Port2.c **** *  This function disables the block for reconfiguration. During this time,
 168:Generated_Source\PSoC4/SmartIO_Port2.c **** *  all signals on the port will be bypassed. All peripheral and gpio signals
 169:Generated_Source\PSoC4/SmartIO_Port2.c **** *  must be stopped or properly handled to account for the bypass state.
 170:Generated_Source\PSoC4/SmartIO_Port2.c **** *
 171:Generated_Source\PSoC4/SmartIO_Port2.c **** * \funcusage
 172:Generated_Source\PSoC4/SmartIO_Port2.c **** *  \snippet SmartIO_Port2_SUT.c usage_SmartIO_Port2_SetBypass
 173:Generated_Source\PSoC4/SmartIO_Port2.c **** *******************************************************************************/
 174:Generated_Source\PSoC4/SmartIO_Port2.c **** void SmartIO_Port2_SetBypass(uint32 portChannel)
 175:Generated_Source\PSoC4/SmartIO_Port2.c **** {   
 242              		.loc 1 175 0
 243              		.cfi_startproc
 244              		@ args = 0, pretend = 0, frame = 0
 245              		@ frame_needed = 0, uses_anonymous_args = 0
 246              		@ link register save eliminated.
 247              	.LVL5:
 176:Generated_Source\PSoC4/SmartIO_Port2.c ****     uint32 regVal;
 177:Generated_Source\PSoC4/SmartIO_Port2.c ****     
 178:Generated_Source\PSoC4/SmartIO_Port2.c ****     /* Must disable the block before configuring */
 179:Generated_Source\PSoC4/SmartIO_Port2.c ****     SmartIO_Port2_Disable();
 248              		.loc 1 179 0
 249 0000 084B     		ldr	r3, .L13
 250 0002 1A68     		ldr	r2, [r3]
 251 0004 5200     		lsls	r2, r2, #1
 252 0006 5208     		lsrs	r2, r2, #1
 253 0008 1A60     		str	r2, [r3]
 180:Generated_Source\PSoC4/SmartIO_Port2.c ****     /* Configure the bypass settings of the SmartIO pins */
 181:Generated_Source\PSoC4/SmartIO_Port2.c ****     regVal = SmartIO_Port2_CTL & SmartIO_Port2_BYPASS_CLEAR;
 254              		.loc 1 181 0
 255 000a 1A68     		ldr	r2, [r3]
 256 000c FF21     		movs	r1, #255
 257 000e 8A43     		bics	r2, r1
 258              	.LVL6:
 182:Generated_Source\PSoC4/SmartIO_Port2.c ****     SmartIO_Port2_CTL = regVal | (((uint32)(portChannel << CYFLD_PRGIO_PRT_BYPASS__OFFSET))
 183:Generated_Source\PSoC4/SmartIO_Port2.c ****                                     & SmartIO_Port2_BYPASS_MASK);
 259              		.loc 1 183 0
 260 0010 0840     		ands	r0, r1
 261              	.LVL7:
 182:Generated_Source\PSoC4/SmartIO_Port2.c ****     SmartIO_Port2_CTL = regVal | (((uint32)(portChannel << CYFLD_PRGIO_PRT_BYPASS__OFFSET))
 262              		.loc 1 182 0
 263 0012 1043     		orrs	r0, r2
 264 0014 1860     		str	r0, [r3]
 184:Generated_Source\PSoC4/SmartIO_Port2.c ****     /* Re-enable the block */
 185:Generated_Source\PSoC4/SmartIO_Port2.c ****     SmartIO_Port2_Enable();
 265              		.loc 1 185 0
 266 0016 1A68     		ldr	r2, [r3]
 267              	.LVL8:
 268 0018 8021     		movs	r1, #128
 269 001a 0906     		lsls	r1, r1, #24
 270 001c 0A43     		orrs	r2, r1
ARM GAS  C:\Users\MICHAE~1.MAC\AppData\Local\Temp\cctIS3p0.s 			page 9


 271 001e 1A60     		str	r2, [r3]
 186:Generated_Source\PSoC4/SmartIO_Port2.c **** }
 272              		.loc 1 186 0
 273              		@ sp needed
 274 0020 7047     		bx	lr
 275              	.L14:
 276 0022 C046     		.align	2
 277              	.L13:
 278 0024 00000540 		.word	1074069504
 279              		.cfi_endproc
 280              	.LFE3:
 281              		.size	SmartIO_Port2_SetBypass, .-SmartIO_Port2_SetBypass
 282              		.section	.text.SmartIO_Port2_ClockSelect,"ax",%progbits
 283              		.align	2
 284              		.global	SmartIO_Port2_ClockSelect
 285              		.code	16
 286              		.thumb_func
 287              		.type	SmartIO_Port2_ClockSelect, %function
 288              	SmartIO_Port2_ClockSelect:
 289              	.LFB4:
 187:Generated_Source\PSoC4/SmartIO_Port2.c **** 
 188:Generated_Source\PSoC4/SmartIO_Port2.c **** 
 189:Generated_Source\PSoC4/SmartIO_Port2.c **** /*******************************************************************************
 190:Generated_Source\PSoC4/SmartIO_Port2.c **** * Function Name: SmartIO_Port2_ClockSelect
 191:Generated_Source\PSoC4/SmartIO_Port2.c **** ****************************************************************************//**
 192:Generated_Source\PSoC4/SmartIO_Port2.c **** *
 193:Generated_Source\PSoC4/SmartIO_Port2.c **** * \brief Selects the component clock source.
 194:Generated_Source\PSoC4/SmartIO_Port2.c **** *
 195:Generated_Source\PSoC4/SmartIO_Port2.c **** * The clock selection impacts the reset behavior of the component and low power
 196:Generated_Source\PSoC4/SmartIO_Port2.c **** * operation. Refer to the Functional Description section of the component
 197:Generated_Source\PSoC4/SmartIO_Port2.c **** * datasheet for more information.
 198:Generated_Source\PSoC4/SmartIO_Port2.c **** *
 199:Generated_Source\PSoC4/SmartIO_Port2.c **** * \param clockSrc
 200:Generated_Source\PSoC4/SmartIO_Port2.c **** *  The component clock source. Valid options are documented in \ref clockConst.
 201:Generated_Source\PSoC4/SmartIO_Port2.c **** * 
 202:Generated_Source\PSoC4/SmartIO_Port2.c **** * \sideeffect
 203:Generated_Source\PSoC4/SmartIO_Port2.c **** *  This function disables the block for reconfiguration. During this time,
 204:Generated_Source\PSoC4/SmartIO_Port2.c **** *  all signals on the port will be bypassed. All peripheral and gpio signals
 205:Generated_Source\PSoC4/SmartIO_Port2.c **** *  must be stopped or properly handled to account for the bypass state.
 206:Generated_Source\PSoC4/SmartIO_Port2.c **** *
 207:Generated_Source\PSoC4/SmartIO_Port2.c **** * \funcusage
 208:Generated_Source\PSoC4/SmartIO_Port2.c **** *  \snippet SmartIO_Port2_SUT.c usage_SmartIO_Port2_ClockSelect
 209:Generated_Source\PSoC4/SmartIO_Port2.c **** *******************************************************************************/
 210:Generated_Source\PSoC4/SmartIO_Port2.c **** void SmartIO_Port2_ClockSelect(uint32 clockSrc)
 211:Generated_Source\PSoC4/SmartIO_Port2.c **** {
 290              		.loc 1 211 0
 291              		.cfi_startproc
 292              		@ args = 0, pretend = 0, frame = 0
 293              		@ frame_needed = 0, uses_anonymous_args = 0
 294              		@ link register save eliminated.
 295              	.LVL9:
 212:Generated_Source\PSoC4/SmartIO_Port2.c ****     uint32 regVal;
 213:Generated_Source\PSoC4/SmartIO_Port2.c ****     
 214:Generated_Source\PSoC4/SmartIO_Port2.c ****     /* Must disable the block before configuring */
 215:Generated_Source\PSoC4/SmartIO_Port2.c ****     SmartIO_Port2_Disable();
 296              		.loc 1 215 0
 297 0000 094B     		ldr	r3, .L16
ARM GAS  C:\Users\MICHAE~1.MAC\AppData\Local\Temp\cctIS3p0.s 			page 10


 298 0002 1A68     		ldr	r2, [r3]
 299 0004 5200     		lsls	r2, r2, #1
 300 0006 5208     		lsrs	r2, r2, #1
 301 0008 1A60     		str	r2, [r3]
 216:Generated_Source\PSoC4/SmartIO_Port2.c ****     /* Configure the clock source */
 217:Generated_Source\PSoC4/SmartIO_Port2.c ****     regVal = SmartIO_Port2_CTL & SmartIO_Port2_CLOCK_CLEAR;
 302              		.loc 1 217 0
 303 000a 1968     		ldr	r1, [r3]
 304 000c 074A     		ldr	r2, .L16+4
 305 000e 1140     		ands	r1, r2
 306              	.LVL10:
 218:Generated_Source\PSoC4/SmartIO_Port2.c ****     SmartIO_Port2_CTL = regVal | (((uint32)(clockSrc << CYFLD_PRGIO_PRT_CLOCK_SRC__OFFSET) 
 307              		.loc 1 218 0
 308 0010 0002     		lsls	r0, r0, #8
 309              	.LVL11:
 219:Generated_Source\PSoC4/SmartIO_Port2.c ****                                     & SmartIO_Port2_CLOCK_MASK));
 310              		.loc 1 219 0
 311 0012 F822     		movs	r2, #248
 312 0014 5201     		lsls	r2, r2, #5
 313 0016 1040     		ands	r0, r2
 218:Generated_Source\PSoC4/SmartIO_Port2.c ****     SmartIO_Port2_CTL = regVal | (((uint32)(clockSrc << CYFLD_PRGIO_PRT_CLOCK_SRC__OFFSET) 
 314              		.loc 1 218 0
 315 0018 0843     		orrs	r0, r1
 316 001a 1860     		str	r0, [r3]
 220:Generated_Source\PSoC4/SmartIO_Port2.c ****     /* Re-enable the block */
 221:Generated_Source\PSoC4/SmartIO_Port2.c ****     SmartIO_Port2_Enable();
 317              		.loc 1 221 0
 318 001c 1A68     		ldr	r2, [r3]
 319 001e 8021     		movs	r1, #128
 320              	.LVL12:
 321 0020 0906     		lsls	r1, r1, #24
 322 0022 0A43     		orrs	r2, r1
 323 0024 1A60     		str	r2, [r3]
 222:Generated_Source\PSoC4/SmartIO_Port2.c **** }
 324              		.loc 1 222 0
 325              		@ sp needed
 326 0026 7047     		bx	lr
 327              	.L17:
 328              		.align	2
 329              	.L16:
 330 0028 00000540 		.word	1074069504
 331 002c FFE0FFFF 		.word	-7937
 332              		.cfi_endproc
 333              	.LFE4:
 334              		.size	SmartIO_Port2_ClockSelect, .-SmartIO_Port2_ClockSelect
 335              		.section	.text.SmartIO_Port2_HoldOverride,"ax",%progbits
 336              		.align	2
 337              		.global	SmartIO_Port2_HoldOverride
 338              		.code	16
 339              		.thumb_func
 340              		.type	SmartIO_Port2_HoldOverride, %function
 341              	SmartIO_Port2_HoldOverride:
 342              	.LFB5:
 223:Generated_Source\PSoC4/SmartIO_Port2.c **** 
 224:Generated_Source\PSoC4/SmartIO_Port2.c **** 
 225:Generated_Source\PSoC4/SmartIO_Port2.c **** /*******************************************************************************
 226:Generated_Source\PSoC4/SmartIO_Port2.c **** * Function Name: SmartIO_Port2_HoldOverride
ARM GAS  C:\Users\MICHAE~1.MAC\AppData\Local\Temp\cctIS3p0.s 			page 11


 227:Generated_Source\PSoC4/SmartIO_Port2.c **** ****************************************************************************//**
 228:Generated_Source\PSoC4/SmartIO_Port2.c **** *
 229:Generated_Source\PSoC4/SmartIO_Port2.c **** * \brief Controls the port's chip hibernate mode override. 
 230:Generated_Source\PSoC4/SmartIO_Port2.c **** *
 231:Generated_Source\PSoC4/SmartIO_Port2.c **** * This function should be used when the block is desired to be operational
 232:Generated_Source\PSoC4/SmartIO_Port2.c **** * during chip deep-sleep or hibernate mode. The override functionality allows 
 233:Generated_Source\PSoC4/SmartIO_Port2.c **** * the port with SmartIO component to be operational during these modes. When
 234:Generated_Source\PSoC4/SmartIO_Port2.c **** * in chip active/sleep modes, the hold override functionality should be disabled.
 235:Generated_Source\PSoC4/SmartIO_Port2.c **** *
 236:Generated_Source\PSoC4/SmartIO_Port2.c **** * \param ovCtrl
 237:Generated_Source\PSoC4/SmartIO_Port2.c **** *  Hold override control. Valid options are documented in \ref hldOvrConst.
 238:Generated_Source\PSoC4/SmartIO_Port2.c **** * 
 239:Generated_Source\PSoC4/SmartIO_Port2.c **** * \sideeffect
 240:Generated_Source\PSoC4/SmartIO_Port2.c **** *  This function disables the block for reconfiguration. During this time,
 241:Generated_Source\PSoC4/SmartIO_Port2.c **** *  all signals on the port will be bypassed. All peripheral and gpio signals
 242:Generated_Source\PSoC4/SmartIO_Port2.c **** *  must be stopped or properly handled to account for the bypass state.
 243:Generated_Source\PSoC4/SmartIO_Port2.c **** *
 244:Generated_Source\PSoC4/SmartIO_Port2.c **** * \funcusage
 245:Generated_Source\PSoC4/SmartIO_Port2.c **** *  \snippet SmartIO_Port2_SUT.c usage_SmartIO_Port2_HoldOverride
 246:Generated_Source\PSoC4/SmartIO_Port2.c **** *******************************************************************************/
 247:Generated_Source\PSoC4/SmartIO_Port2.c **** void SmartIO_Port2_HoldOverride(uint32 ovCtrl)
 248:Generated_Source\PSoC4/SmartIO_Port2.c **** {
 343              		.loc 1 248 0
 344              		.cfi_startproc
 345              		@ args = 0, pretend = 0, frame = 0
 346              		@ frame_needed = 0, uses_anonymous_args = 0
 347              		@ link register save eliminated.
 348              	.LVL13:
 249:Generated_Source\PSoC4/SmartIO_Port2.c ****     /* Must disable the block before configuring */
 250:Generated_Source\PSoC4/SmartIO_Port2.c ****     SmartIO_Port2_Disable();
 349              		.loc 1 250 0
 350 0000 0C4A     		ldr	r2, .L21
 351 0002 1368     		ldr	r3, [r2]
 352 0004 5B00     		lsls	r3, r3, #1
 353 0006 5B08     		lsrs	r3, r3, #1
 354 0008 1360     		str	r3, [r2]
 251:Generated_Source\PSoC4/SmartIO_Port2.c ****     /* Set hold override mode */
 252:Generated_Source\PSoC4/SmartIO_Port2.c ****     if (ovCtrl == SmartIO_Port2_OVCTRL_ENABLE)
 355              		.loc 1 252 0
 356 000a 0128     		cmp	r0, #1
 357 000c 05D1     		bne	.L19
 253:Generated_Source\PSoC4/SmartIO_Port2.c ****     {
 254:Generated_Source\PSoC4/SmartIO_Port2.c ****         SmartIO_Port2_CTL |= SmartIO_Port2_HLD_OVR_SMARTIO;
 358              		.loc 1 254 0
 359 000e 1368     		ldr	r3, [r2]
 360 0010 8021     		movs	r1, #128
 361 0012 4904     		lsls	r1, r1, #17
 362 0014 0B43     		orrs	r3, r1
 363 0016 1360     		str	r3, [r2]
 364 0018 04E0     		b	.L20
 365              	.L19:
 255:Generated_Source\PSoC4/SmartIO_Port2.c ****     }    
 256:Generated_Source\PSoC4/SmartIO_Port2.c ****     else
 257:Generated_Source\PSoC4/SmartIO_Port2.c ****     {
 258:Generated_Source\PSoC4/SmartIO_Port2.c ****         SmartIO_Port2_CTL &= SmartIO_Port2_HLD_OVR_HSIOM;
 366              		.loc 1 258 0
 367 001a 064A     		ldr	r2, .L21
ARM GAS  C:\Users\MICHAE~1.MAC\AppData\Local\Temp\cctIS3p0.s 			page 12


 368 001c 1168     		ldr	r1, [r2]
 369 001e 064B     		ldr	r3, .L21+4
 370 0020 0B40     		ands	r3, r1
 371 0022 1360     		str	r3, [r2]
 372              	.L20:
 259:Generated_Source\PSoC4/SmartIO_Port2.c ****     }
 260:Generated_Source\PSoC4/SmartIO_Port2.c ****     /* Re-enable the block */
 261:Generated_Source\PSoC4/SmartIO_Port2.c ****     SmartIO_Port2_Enable();
 373              		.loc 1 261 0
 374 0024 034A     		ldr	r2, .L21
 375 0026 1368     		ldr	r3, [r2]
 376 0028 8021     		movs	r1, #128
 377 002a 0906     		lsls	r1, r1, #24
 378 002c 0B43     		orrs	r3, r1
 379 002e 1360     		str	r3, [r2]
 262:Generated_Source\PSoC4/SmartIO_Port2.c **** }
 380              		.loc 1 262 0
 381              		@ sp needed
 382 0030 7047     		bx	lr
 383              	.L22:
 384 0032 C046     		.align	2
 385              	.L21:
 386 0034 00000540 		.word	1074069504
 387 0038 FFFFFFFE 		.word	-16777217
 388              		.cfi_endproc
 389              	.LFE5:
 390              		.size	SmartIO_Port2_HoldOverride, .-SmartIO_Port2_HoldOverride
 391              		.section	.text.SmartIO_Port2_IoSyncMode,"ax",%progbits
 392              		.align	2
 393              		.global	SmartIO_Port2_IoSyncMode
 394              		.code	16
 395              		.thumb_func
 396              		.type	SmartIO_Port2_IoSyncMode, %function
 397              	SmartIO_Port2_IoSyncMode:
 398              	.LFB6:
 263:Generated_Source\PSoC4/SmartIO_Port2.c **** 
 264:Generated_Source\PSoC4/SmartIO_Port2.c **** 
 265:Generated_Source\PSoC4/SmartIO_Port2.c **** /*******************************************************************************
 266:Generated_Source\PSoC4/SmartIO_Port2.c **** * Function Name: SmartIO_Port2_IoSyncMode
 267:Generated_Source\PSoC4/SmartIO_Port2.c **** ****************************************************************************//**
 268:Generated_Source\PSoC4/SmartIO_Port2.c **** *
 269:Generated_Source\PSoC4/SmartIO_Port2.c **** * \brief Controls synchronization of signals coming from I/O Pin. 
 270:Generated_Source\PSoC4/SmartIO_Port2.c **** *
 271:Generated_Source\PSoC4/SmartIO_Port2.c **** * The synchronization is performed using the component clock. Synchronization 
 272:Generated_Source\PSoC4/SmartIO_Port2.c **** * should not be used if the component is configured to operate in asynchronous
 273:Generated_Source\PSoC4/SmartIO_Port2.c **** * mode.
 274:Generated_Source\PSoC4/SmartIO_Port2.c **** *
 275:Generated_Source\PSoC4/SmartIO_Port2.c **** * <b>Note</b> This function impacts all gpio terminals on the port. It will 
 276:Generated_Source\PSoC4/SmartIO_Port2.c **** * write over the synchronization configuration of all the gpio terminals. 
 277:Generated_Source\PSoC4/SmartIO_Port2.c **** *
 278:Generated_Source\PSoC4/SmartIO_Port2.c **** * \param portTerm
 279:Generated_Source\PSoC4/SmartIO_Port2.c **** *  The terminal location on the port. If the bit value is 0, the terminal is
 280:Generated_Source\PSoC4/SmartIO_Port2.c **** *  not synchronized; if the bit value is 1, the terminal is synchronized.
 281:Generated_Source\PSoC4/SmartIO_Port2.c **** *  Valid options are documented in \ref termConst. These should be ORed to 
 282:Generated_Source\PSoC4/SmartIO_Port2.c **** *  configure multiple terminals.
 283:Generated_Source\PSoC4/SmartIO_Port2.c **** * 
 284:Generated_Source\PSoC4/SmartIO_Port2.c **** * \sideeffect
ARM GAS  C:\Users\MICHAE~1.MAC\AppData\Local\Temp\cctIS3p0.s 			page 13


 285:Generated_Source\PSoC4/SmartIO_Port2.c **** *  This function disables the block for reconfiguration. During this time,
 286:Generated_Source\PSoC4/SmartIO_Port2.c **** *  all signals on the port will be bypassed. All peripheral and gpio signals
 287:Generated_Source\PSoC4/SmartIO_Port2.c **** *  must be stopped or properly handled to account for the bypass state.
 288:Generated_Source\PSoC4/SmartIO_Port2.c **** *
 289:Generated_Source\PSoC4/SmartIO_Port2.c **** * \funcusage
 290:Generated_Source\PSoC4/SmartIO_Port2.c **** *  \snippet SmartIO_Port2_SUT.c usage_SmartIO_Port2_IoSyncMode
 291:Generated_Source\PSoC4/SmartIO_Port2.c **** *******************************************************************************/
 292:Generated_Source\PSoC4/SmartIO_Port2.c **** void SmartIO_Port2_IoSyncMode(uint32 portTerm)
 293:Generated_Source\PSoC4/SmartIO_Port2.c **** {
 399              		.loc 1 293 0
 400              		.cfi_startproc
 401              		@ args = 0, pretend = 0, frame = 0
 402              		@ frame_needed = 0, uses_anonymous_args = 0
 403              	.LVL14:
 404 0000 10B5     		push	{r4, lr}
 405              		.cfi_def_cfa_offset 8
 406              		.cfi_offset 4, -8
 407              		.cfi_offset 14, -4
 294:Generated_Source\PSoC4/SmartIO_Port2.c ****     uint32 regVal;
 295:Generated_Source\PSoC4/SmartIO_Port2.c ****     
 296:Generated_Source\PSoC4/SmartIO_Port2.c ****     /* Must disable the block before configuring */
 297:Generated_Source\PSoC4/SmartIO_Port2.c ****     SmartIO_Port2_Disable();
 408              		.loc 1 297 0
 409 0002 094A     		ldr	r2, .L24
 410 0004 1368     		ldr	r3, [r2]
 411 0006 5B00     		lsls	r3, r3, #1
 412 0008 5B08     		lsrs	r3, r3, #1
 413 000a 1360     		str	r3, [r2]
 298:Generated_Source\PSoC4/SmartIO_Port2.c ****     /* Configure the IO synchronization */
 299:Generated_Source\PSoC4/SmartIO_Port2.c ****     regVal = SmartIO_Port2_SYNC_CTL & SmartIO_Port2_IO_SYNC_CLEAR;
 414              		.loc 1 299 0
 415 000c 0749     		ldr	r1, .L24+4
 416 000e 0B68     		ldr	r3, [r1]
 417 0010 FF24     		movs	r4, #255
 418 0012 A343     		bics	r3, r4
 419              	.LVL15:
 300:Generated_Source\PSoC4/SmartIO_Port2.c ****     SmartIO_Port2_SYNC_CTL = regVal | (((uint32)(portTerm << CYFLD_PRGIO_PRT_IO_SYNC_EN__OFFSET))
 301:Generated_Source\PSoC4/SmartIO_Port2.c ****                                          & SmartIO_Port2_IO_SYNC_MASK);
 420              		.loc 1 301 0
 421 0014 2040     		ands	r0, r4
 422              	.LVL16:
 300:Generated_Source\PSoC4/SmartIO_Port2.c ****     SmartIO_Port2_SYNC_CTL = regVal | (((uint32)(portTerm << CYFLD_PRGIO_PRT_IO_SYNC_EN__OFFSET))
 423              		.loc 1 300 0
 424 0016 1843     		orrs	r0, r3
 425 0018 0860     		str	r0, [r1]
 302:Generated_Source\PSoC4/SmartIO_Port2.c ****     /* Re-enable the block */
 303:Generated_Source\PSoC4/SmartIO_Port2.c ****     SmartIO_Port2_Enable();
 426              		.loc 1 303 0
 427 001a 1368     		ldr	r3, [r2]
 428              	.LVL17:
 429 001c 8021     		movs	r1, #128
 430 001e 0906     		lsls	r1, r1, #24
 431 0020 0B43     		orrs	r3, r1
 432 0022 1360     		str	r3, [r2]
 304:Generated_Source\PSoC4/SmartIO_Port2.c **** }
 433              		.loc 1 304 0
 434              		@ sp needed
ARM GAS  C:\Users\MICHAE~1.MAC\AppData\Local\Temp\cctIS3p0.s 			page 14


 435 0024 10BD     		pop	{r4, pc}
 436              	.L25:
 437 0026 C046     		.align	2
 438              	.L24:
 439 0028 00000540 		.word	1074069504
 440 002c 10000540 		.word	1074069520
 441              		.cfi_endproc
 442              	.LFE6:
 443              		.size	SmartIO_Port2_IoSyncMode, .-SmartIO_Port2_IoSyncMode
 444              		.section	.text.SmartIO_Port2_ChipSyncMode,"ax",%progbits
 445              		.align	2
 446              		.global	SmartIO_Port2_ChipSyncMode
 447              		.code	16
 448              		.thumb_func
 449              		.type	SmartIO_Port2_ChipSyncMode, %function
 450              	SmartIO_Port2_ChipSyncMode:
 451              	.LFB7:
 305:Generated_Source\PSoC4/SmartIO_Port2.c **** 
 306:Generated_Source\PSoC4/SmartIO_Port2.c **** 
 307:Generated_Source\PSoC4/SmartIO_Port2.c **** /*******************************************************************************
 308:Generated_Source\PSoC4/SmartIO_Port2.c **** * Function Name: SmartIO_Port2_ChipSyncMode
 309:Generated_Source\PSoC4/SmartIO_Port2.c **** ****************************************************************************//**
 310:Generated_Source\PSoC4/SmartIO_Port2.c **** *
 311:Generated_Source\PSoC4/SmartIO_Port2.c **** * \brief Controls synchronization of signals coming from chip to the component. 
 312:Generated_Source\PSoC4/SmartIO_Port2.c **** *
 313:Generated_Source\PSoC4/SmartIO_Port2.c **** * The synchronization is performed using the component clock. Synchronization 
 314:Generated_Source\PSoC4/SmartIO_Port2.c **** * should not be used if the component is configured to operate in asynchronous
 315:Generated_Source\PSoC4/SmartIO_Port2.c **** * mode.
 316:Generated_Source\PSoC4/SmartIO_Port2.c **** *
 317:Generated_Source\PSoC4/SmartIO_Port2.c **** * <b>Note</b> This function impacts all data terminals on the port. It will 
 318:Generated_Source\PSoC4/SmartIO_Port2.c **** * write over the synchronization configuration of all the data terminals. 
 319:Generated_Source\PSoC4/SmartIO_Port2.c **** *
 320:Generated_Source\PSoC4/SmartIO_Port2.c **** * \param portTerm
 321:Generated_Source\PSoC4/SmartIO_Port2.c **** *  The terminal location on the port. If the bit value is 0, the terminal is
 322:Generated_Source\PSoC4/SmartIO_Port2.c **** *  not synchronized; if the bit value is 1, the terminal is synchronized.
 323:Generated_Source\PSoC4/SmartIO_Port2.c **** *  Valid options are documented in \ref termConst. These should be ORed to 
 324:Generated_Source\PSoC4/SmartIO_Port2.c **** *  configure multiple terminals.
 325:Generated_Source\PSoC4/SmartIO_Port2.c **** * 
 326:Generated_Source\PSoC4/SmartIO_Port2.c **** * \sideeffect
 327:Generated_Source\PSoC4/SmartIO_Port2.c **** *  This function disables the block for reconfiguration. During this time,
 328:Generated_Source\PSoC4/SmartIO_Port2.c **** *  all signals on the port will be bypassed. All peripheral and gpio signals
 329:Generated_Source\PSoC4/SmartIO_Port2.c **** *  must be stopped or properly handled to account for the bypass state.
 330:Generated_Source\PSoC4/SmartIO_Port2.c **** *
 331:Generated_Source\PSoC4/SmartIO_Port2.c **** * \funcusage
 332:Generated_Source\PSoC4/SmartIO_Port2.c **** *  \snippet SmartIO_Port2_SUT.c usage_SmartIO_Port2_ChipSyncMode
 333:Generated_Source\PSoC4/SmartIO_Port2.c **** *******************************************************************************/
 334:Generated_Source\PSoC4/SmartIO_Port2.c **** void SmartIO_Port2_ChipSyncMode(uint32 portTerm)
 335:Generated_Source\PSoC4/SmartIO_Port2.c **** {
 452              		.loc 1 335 0
 453              		.cfi_startproc
 454              		@ args = 0, pretend = 0, frame = 0
 455              		@ frame_needed = 0, uses_anonymous_args = 0
 456              	.LVL18:
 457 0000 10B5     		push	{r4, lr}
 458              		.cfi_def_cfa_offset 8
 459              		.cfi_offset 4, -8
 460              		.cfi_offset 14, -4
ARM GAS  C:\Users\MICHAE~1.MAC\AppData\Local\Temp\cctIS3p0.s 			page 15


 336:Generated_Source\PSoC4/SmartIO_Port2.c ****     uint32 regVal;
 337:Generated_Source\PSoC4/SmartIO_Port2.c ****     
 338:Generated_Source\PSoC4/SmartIO_Port2.c ****     /* Must disable the block before configuring */
 339:Generated_Source\PSoC4/SmartIO_Port2.c ****     SmartIO_Port2_Disable();
 461              		.loc 1 339 0
 462 0002 094A     		ldr	r2, .L27
 463 0004 1368     		ldr	r3, [r2]
 464 0006 5B00     		lsls	r3, r3, #1
 465 0008 5B08     		lsrs	r3, r3, #1
 466 000a 1360     		str	r3, [r2]
 340:Generated_Source\PSoC4/SmartIO_Port2.c ****     /* Configure the Chip data synchronization */
 341:Generated_Source\PSoC4/SmartIO_Port2.c ****     regVal = SmartIO_Port2_SYNC_CTL & SmartIO_Port2_DATA_SYNC_CLEAR;
 467              		.loc 1 341 0
 468 000c 0749     		ldr	r1, .L27+4
 469 000e 0C68     		ldr	r4, [r1]
 470 0010 074B     		ldr	r3, .L27+8
 471 0012 2340     		ands	r3, r4
 472              	.LVL19:
 342:Generated_Source\PSoC4/SmartIO_Port2.c ****     SmartIO_Port2_SYNC_CTL = regVal | (((uint32)(portTerm << CYFLD_PRGIO_PRT_CHIP_SYNC_EN__OFFSET))
 343:Generated_Source\PSoC4/SmartIO_Port2.c ****                                         & SmartIO_Port2_DATA_SYNC_MASK);
 473              		.loc 1 343 0
 474 0014 0006     		lsls	r0, r0, #24
 475              	.LVL20:
 476 0016 000C     		lsrs	r0, r0, #16
 342:Generated_Source\PSoC4/SmartIO_Port2.c ****     SmartIO_Port2_SYNC_CTL = regVal | (((uint32)(portTerm << CYFLD_PRGIO_PRT_CHIP_SYNC_EN__OFFSET))
 477              		.loc 1 342 0
 478 0018 1843     		orrs	r0, r3
 479 001a 0860     		str	r0, [r1]
 344:Generated_Source\PSoC4/SmartIO_Port2.c ****     /* Re-enable the block */
 345:Generated_Source\PSoC4/SmartIO_Port2.c ****     SmartIO_Port2_Enable();
 480              		.loc 1 345 0
 481 001c 1368     		ldr	r3, [r2]
 482              	.LVL21:
 483 001e 8021     		movs	r1, #128
 484 0020 0906     		lsls	r1, r1, #24
 485 0022 0B43     		orrs	r3, r1
 486 0024 1360     		str	r3, [r2]
 346:Generated_Source\PSoC4/SmartIO_Port2.c **** }
 487              		.loc 1 346 0
 488              		@ sp needed
 489              	.LVL22:
 490 0026 10BD     		pop	{r4, pc}
 491              	.L28:
 492              		.align	2
 493              	.L27:
 494 0028 00000540 		.word	1074069504
 495 002c 10000540 		.word	1074069520
 496 0030 FF00FFFF 		.word	-65281
 497              		.cfi_endproc
 498              	.LFE7:
 499              		.size	SmartIO_Port2_ChipSyncMode, .-SmartIO_Port2_ChipSyncMode
 500              		.section	.text.SmartIO_Port2_LUT_SelectInputs,"ax",%progbits
 501              		.align	2
 502              		.global	SmartIO_Port2_LUT_SelectInputs
 503              		.code	16
 504              		.thumb_func
 505              		.type	SmartIO_Port2_LUT_SelectInputs, %function
ARM GAS  C:\Users\MICHAE~1.MAC\AppData\Local\Temp\cctIS3p0.s 			page 16


 506              	SmartIO_Port2_LUT_SelectInputs:
 507              	.LFB8:
 347:Generated_Source\PSoC4/SmartIO_Port2.c **** 
 348:Generated_Source\PSoC4/SmartIO_Port2.c **** 
 349:Generated_Source\PSoC4/SmartIO_Port2.c **** /*******************************************************************************
 350:Generated_Source\PSoC4/SmartIO_Port2.c **** * Function Name: SmartIO_Port2_LUT_SelectInputs
 351:Generated_Source\PSoC4/SmartIO_Port2.c **** ****************************************************************************//**
 352:Generated_Source\PSoC4/SmartIO_Port2.c **** *
 353:Generated_Source\PSoC4/SmartIO_Port2.c **** * \brief This function is used to select individual inputs to the specified LUT. 
 354:Generated_Source\PSoC4/SmartIO_Port2.c **** *
 355:Generated_Source\PSoC4/SmartIO_Port2.c **** * This function can be used to configure multiple LUTs with the same input
 356:Generated_Source\PSoC4/SmartIO_Port2.c **** * configuration.
 357:Generated_Source\PSoC4/SmartIO_Port2.c **** * 
 358:Generated_Source\PSoC4/SmartIO_Port2.c **** * <b>Note</b> The selections are different for the upper and lower nibbles.
 359:Generated_Source\PSoC4/SmartIO_Port2.c **** * See the LUT input parameters and Functional Description section in the
 360:Generated_Source\PSoC4/SmartIO_Port2.c **** * component datasheet for more information.
 361:Generated_Source\PSoC4/SmartIO_Port2.c **** *
 362:Generated_Source\PSoC4/SmartIO_Port2.c **** * \param lutNum
 363:Generated_Source\PSoC4/SmartIO_Port2.c **** *  LUT number. Valid options are documented in \ref lutNumConst.
 364:Generated_Source\PSoC4/SmartIO_Port2.c **** *
 365:Generated_Source\PSoC4/SmartIO_Port2.c **** * \param inputNum
 366:Generated_Source\PSoC4/SmartIO_Port2.c **** *  The input number (input0, input1, input2). Valid options are documented 
 367:Generated_Source\PSoC4/SmartIO_Port2.c **** *  in \ref inputNumConst. Note that LUT input0 does not accept LUT0 output as
 368:Generated_Source\PSoC4/SmartIO_Port2.c **** *  an input.
 369:Generated_Source\PSoC4/SmartIO_Port2.c **** *
 370:Generated_Source\PSoC4/SmartIO_Port2.c **** * \param inputSrc
 371:Generated_Source\PSoC4/SmartIO_Port2.c **** *  The source of the LUT input. Valid options are documented in
 372:Generated_Source\PSoC4/SmartIO_Port2.c **** *  \ref inputSrcConst.
 373:Generated_Source\PSoC4/SmartIO_Port2.c **** *
 374:Generated_Source\PSoC4/SmartIO_Port2.c **** * \return 
 375:Generated_Source\PSoC4/SmartIO_Port2.c **** *  Status of the LUT input selection.
 376:Generated_Source\PSoC4/SmartIO_Port2.c **** *   Status          | Description
 377:Generated_Source\PSoC4/SmartIO_Port2.c **** *   ----------------|--------------------
 378:Generated_Source\PSoC4/SmartIO_Port2.c **** *   CYRET_SUCCESS   | Write successful
 379:Generated_Source\PSoC4/SmartIO_Port2.c **** *   CYRET_BAD_PARAM | Invalid parameter
 380:Generated_Source\PSoC4/SmartIO_Port2.c **** * 
 381:Generated_Source\PSoC4/SmartIO_Port2.c **** * \sideeffect
 382:Generated_Source\PSoC4/SmartIO_Port2.c **** *  This function disables the block for reconfiguration. During this time,
 383:Generated_Source\PSoC4/SmartIO_Port2.c **** *  all signals on the port will be bypassed. All peripheral and gpio signals
 384:Generated_Source\PSoC4/SmartIO_Port2.c **** *  must be stopped or properly handled to account for the bypass state.
 385:Generated_Source\PSoC4/SmartIO_Port2.c **** *
 386:Generated_Source\PSoC4/SmartIO_Port2.c **** * \funcusage
 387:Generated_Source\PSoC4/SmartIO_Port2.c **** *  \snippet SmartIO_Port2_SUT.c usage_SmartIO_Port2_LUT_SelectInputs
 388:Generated_Source\PSoC4/SmartIO_Port2.c **** *******************************************************************************/
 389:Generated_Source\PSoC4/SmartIO_Port2.c **** cystatus SmartIO_Port2_LUT_SelectInputs(uint32 lutNum, uint32 inputNum, uint32 inputSrc)
 390:Generated_Source\PSoC4/SmartIO_Port2.c **** {
 508              		.loc 1 390 0
 509              		.cfi_startproc
 510              		@ args = 0, pretend = 0, frame = 0
 511              		@ frame_needed = 0, uses_anonymous_args = 0
 512              	.LVL23:
 513 0000 30B5     		push	{r4, r5, lr}
 514              		.cfi_def_cfa_offset 12
 515              		.cfi_offset 4, -12
 516              		.cfi_offset 5, -8
 517              		.cfi_offset 14, -4
 518              	.LVL24:
ARM GAS  C:\Users\MICHAE~1.MAC\AppData\Local\Temp\cctIS3p0.s 			page 17


 391:Generated_Source\PSoC4/SmartIO_Port2.c ****     cystatus callStatus = CYRET_SUCCESS;
 392:Generated_Source\PSoC4/SmartIO_Port2.c ****     uint32 sel;
 393:Generated_Source\PSoC4/SmartIO_Port2.c ****     
 394:Generated_Source\PSoC4/SmartIO_Port2.c ****     /* Input validation */
 395:Generated_Source\PSoC4/SmartIO_Port2.c ****     if((inputSrc == SmartIO_Port2_SRC_LUT0) && ((inputNum & SmartIO_Port2_LUT_INPUT0) == SmartIO_Po
 519              		.loc 1 395 0
 520 0002 002A     		cmp	r2, #0
 521 0004 03D1     		bne	.L39
 522              		.loc 1 395 0 is_stmt 0 discriminator 1
 523 0006 CB07     		lsls	r3, r1, #31
 524 0008 03D4     		bmi	.L40
 391:Generated_Source\PSoC4/SmartIO_Port2.c ****     cystatus callStatus = CYRET_SUCCESS;
 525              		.loc 1 391 0 is_stmt 1
 526 000a 0024     		movs	r4, #0
 527 000c 02E0     		b	.L30
 528              	.L39:
 529 000e 0024     		movs	r4, #0
 530 0010 00E0     		b	.L30
 531              	.L40:
 396:Generated_Source\PSoC4/SmartIO_Port2.c ****     {
 397:Generated_Source\PSoC4/SmartIO_Port2.c ****         /* LUT input0 does not support LUT0 as an input */
 398:Generated_Source\PSoC4/SmartIO_Port2.c ****         callStatus = CYRET_BAD_PARAM;
 532              		.loc 1 398 0
 533 0012 0124     		movs	r4, #1
 534              	.L30:
 535              	.LVL25:
 399:Generated_Source\PSoC4/SmartIO_Port2.c ****     }
 400:Generated_Source\PSoC4/SmartIO_Port2.c ****     if((inputSrc == SmartIO_Port2_SRC_DU) && ((inputNum & (SmartIO_Port2_LUT_INPUT1 | SmartIO_Port2
 536              		.loc 1 400 0
 537 0014 102A     		cmp	r2, #16
 538 0016 03D1     		bne	.L31
 539              		.loc 1 400 0 is_stmt 0 discriminator 1
 540 0018 0623     		movs	r3, #6
 541 001a 0B42     		tst	r3, r1
 542 001c 00D0     		beq	.L31
 401:Generated_Source\PSoC4/SmartIO_Port2.c ****     {
 402:Generated_Source\PSoC4/SmartIO_Port2.c ****         /* LUT input1 and input2 do not support DU output as an input */
 403:Generated_Source\PSoC4/SmartIO_Port2.c ****         callStatus = CYRET_BAD_PARAM;
 543              		.loc 1 403 0 is_stmt 1
 544 001e 0124     		movs	r4, #1
 545              	.LVL26:
 546              	.L31:
 404:Generated_Source\PSoC4/SmartIO_Port2.c ****     }
 405:Generated_Source\PSoC4/SmartIO_Port2.c ****     
 406:Generated_Source\PSoC4/SmartIO_Port2.c ****     /* Configure LUT selection */
 407:Generated_Source\PSoC4/SmartIO_Port2.c ****     if (callStatus != CYRET_BAD_PARAM)
 547              		.loc 1 407 0
 548 0020 012C     		cmp	r4, #1
 549 0022 41D0     		beq	.L32
 408:Generated_Source\PSoC4/SmartIO_Port2.c ****     {
 409:Generated_Source\PSoC4/SmartIO_Port2.c ****         /* Must disable the block before configuring */
 410:Generated_Source\PSoC4/SmartIO_Port2.c ****         SmartIO_Port2_Disable();
 550              		.loc 1 410 0
 551 0024 214D     		ldr	r5, .L43
 552 0026 2B68     		ldr	r3, [r5]
 553 0028 5B00     		lsls	r3, r3, #1
 554 002a 5B08     		lsrs	r3, r3, #1
ARM GAS  C:\Users\MICHAE~1.MAC\AppData\Local\Temp\cctIS3p0.s 			page 18


 555 002c 2B60     		str	r3, [r5]
 411:Generated_Source\PSoC4/SmartIO_Port2.c ****         
 412:Generated_Source\PSoC4/SmartIO_Port2.c ****         sel = SmartIO_Port2_LUT_CONGIG_BASE.lutSel[lutNum];
 556              		.loc 1 412 0
 557 002e 8300     		lsls	r3, r0, #2
 558 0030 1F4D     		ldr	r5, .L43+4
 559 0032 5B59     		ldr	r3, [r3, r5]
 560              	.LVL27:
 413:Generated_Source\PSoC4/SmartIO_Port2.c ****         switch(inputNum)
 561              		.loc 1 413 0
 562 0034 0229     		cmp	r1, #2
 563 0036 0DD0     		beq	.L34
 564 0038 02D8     		bhi	.L35
 565 003a 0129     		cmp	r1, #1
 566 003c 05D0     		beq	.L36
 567 003e 29E0     		b	.L42
 568              	.L35:
 569 0040 0429     		cmp	r1, #4
 570 0042 0FD0     		beq	.L37
 571 0044 0729     		cmp	r1, #7
 572 0046 15D0     		beq	.L38
 573 0048 24E0     		b	.L42
 574              	.L36:
 414:Generated_Source\PSoC4/SmartIO_Port2.c ****         {
 415:Generated_Source\PSoC4/SmartIO_Port2.c ****             case SmartIO_Port2_LUT_INPUT0:
 416:Generated_Source\PSoC4/SmartIO_Port2.c ****                 sel = (sel & SmartIO_Port2_LUT_TR0_CLEAR) 
 575              		.loc 1 416 0
 576 004a 0F21     		movs	r1, #15
 577              	.LVL28:
 578 004c 8B43     		bics	r3, r1
 579              	.LVL29:
 417:Generated_Source\PSoC4/SmartIO_Port2.c ****                         | ((uint32)(inputSrc << CYFLD_PRGIO_PRT_LUT_TR0_SEL__OFFSET) & SmartIO_Port
 580              		.loc 1 417 0
 581 004e 0A40     		ands	r2, r1
 582              	.LVL30:
 416:Generated_Source\PSoC4/SmartIO_Port2.c ****                         | ((uint32)(inputSrc << CYFLD_PRGIO_PRT_LUT_TR0_SEL__OFFSET) & SmartIO_Port
 583              		.loc 1 416 0
 584 0050 1343     		orrs	r3, r2
 585              	.LVL31:
 418:Generated_Source\PSoC4/SmartIO_Port2.c ****                 break;
 586              		.loc 1 418 0
 587 0052 20E0     		b	.L33
 588              	.LVL32:
 589              	.L34:
 419:Generated_Source\PSoC4/SmartIO_Port2.c ****             case SmartIO_Port2_LUT_INPUT1:
 420:Generated_Source\PSoC4/SmartIO_Port2.c ****                 sel = (sel & SmartIO_Port2_LUT_TR1_CLEAR) 
 590              		.loc 1 420 0
 591 0054 1749     		ldr	r1, .L43+8
 592              	.LVL33:
 593 0056 0B40     		ands	r3, r1
 594              	.LVL34:
 421:Generated_Source\PSoC4/SmartIO_Port2.c ****                         | ((uint32)(inputSrc << CYFLD_PRGIO_PRT_LUT_TR1_SEL__OFFSET) & SmartIO_Port
 595              		.loc 1 421 0
 596 0058 1202     		lsls	r2, r2, #8
 597              	.LVL35:
 598 005a F021     		movs	r1, #240
 599 005c 0901     		lsls	r1, r1, #4
ARM GAS  C:\Users\MICHAE~1.MAC\AppData\Local\Temp\cctIS3p0.s 			page 19


 600 005e 0A40     		ands	r2, r1
 420:Generated_Source\PSoC4/SmartIO_Port2.c ****                         | ((uint32)(inputSrc << CYFLD_PRGIO_PRT_LUT_TR1_SEL__OFFSET) & SmartIO_Port
 601              		.loc 1 420 0
 602 0060 1343     		orrs	r3, r2
 603              	.LVL36:
 422:Generated_Source\PSoC4/SmartIO_Port2.c ****                 break;
 604              		.loc 1 422 0
 605 0062 18E0     		b	.L33
 606              	.LVL37:
 607              	.L37:
 423:Generated_Source\PSoC4/SmartIO_Port2.c ****             case SmartIO_Port2_LUT_INPUT2:
 424:Generated_Source\PSoC4/SmartIO_Port2.c ****                 sel = (sel & SmartIO_Port2_LUT_TR2_CLEAR)
 608              		.loc 1 424 0
 609 0064 1449     		ldr	r1, .L43+12
 610              	.LVL38:
 611 0066 0B40     		ands	r3, r1
 612              	.LVL39:
 425:Generated_Source\PSoC4/SmartIO_Port2.c ****                         | ((uint32)(inputSrc << CYFLD_PRGIO_PRT_LUT_TR2_SEL__OFFSET) & SmartIO_Port
 613              		.loc 1 425 0
 614 0068 1204     		lsls	r2, r2, #16
 615              	.LVL40:
 616 006a F021     		movs	r1, #240
 617 006c 0903     		lsls	r1, r1, #12
 618 006e 0A40     		ands	r2, r1
 424:Generated_Source\PSoC4/SmartIO_Port2.c ****                         | ((uint32)(inputSrc << CYFLD_PRGIO_PRT_LUT_TR2_SEL__OFFSET) & SmartIO_Port
 619              		.loc 1 424 0
 620 0070 1343     		orrs	r3, r2
 621              	.LVL41:
 426:Generated_Source\PSoC4/SmartIO_Port2.c ****                 break;
 622              		.loc 1 426 0
 623 0072 10E0     		b	.L33
 624              	.LVL42:
 625              	.L38:
 427:Generated_Source\PSoC4/SmartIO_Port2.c ****             case SmartIO_Port2_LUT_INPUT_ALL:
 428:Generated_Source\PSoC4/SmartIO_Port2.c ****                 sel = (sel & SmartIO_Port2_LUT_TR_CLEAR_ALL) 
 626              		.loc 1 428 0
 627 0074 1149     		ldr	r1, .L43+16
 628              	.LVL43:
 629 0076 0B40     		ands	r3, r1
 630              	.LVL44:
 429:Generated_Source\PSoC4/SmartIO_Port2.c ****                         | ((uint32)(inputSrc << CYFLD_PRGIO_PRT_LUT_TR0_SEL__OFFSET) & SmartIO_Port
 631              		.loc 1 429 0
 632 0078 0F21     		movs	r1, #15
 633 007a 1140     		ands	r1, r2
 634 007c 0B43     		orrs	r3, r1
 430:Generated_Source\PSoC4/SmartIO_Port2.c ****                         | ((uint32)(inputSrc << CYFLD_PRGIO_PRT_LUT_TR1_SEL__OFFSET) & SmartIO_Port
 635              		.loc 1 430 0
 636 007e 1502     		lsls	r5, r2, #8
 637 0080 F021     		movs	r1, #240
 638 0082 0901     		lsls	r1, r1, #4
 639 0084 2940     		ands	r1, r5
 640 0086 0B43     		orrs	r3, r1
 431:Generated_Source\PSoC4/SmartIO_Port2.c ****                         | ((uint32)(inputSrc << CYFLD_PRGIO_PRT_LUT_TR2_SEL__OFFSET) & SmartIO_Port
 641              		.loc 1 431 0
 642 0088 1204     		lsls	r2, r2, #16
 643              	.LVL45:
 644 008a F021     		movs	r1, #240
ARM GAS  C:\Users\MICHAE~1.MAC\AppData\Local\Temp\cctIS3p0.s 			page 20


 645 008c 0903     		lsls	r1, r1, #12
 646 008e 0A40     		ands	r2, r1
 428:Generated_Source\PSoC4/SmartIO_Port2.c ****                         | ((uint32)(inputSrc << CYFLD_PRGIO_PRT_LUT_TR0_SEL__OFFSET) & SmartIO_Port
 647              		.loc 1 428 0
 648 0090 1343     		orrs	r3, r2
 649              	.LVL46:
 432:Generated_Source\PSoC4/SmartIO_Port2.c ****                 break;
 650              		.loc 1 432 0
 651 0092 00E0     		b	.L33
 652              	.LVL47:
 653              	.L42:
 433:Generated_Source\PSoC4/SmartIO_Port2.c ****             default: 
 434:Generated_Source\PSoC4/SmartIO_Port2.c ****                 callStatus = CYRET_BAD_PARAM;
 654              		.loc 1 434 0
 655 0094 0124     		movs	r4, #1
 656              	.LVL48:
 657              	.L33:
 435:Generated_Source\PSoC4/SmartIO_Port2.c ****                 break;
 436:Generated_Source\PSoC4/SmartIO_Port2.c ****         }
 437:Generated_Source\PSoC4/SmartIO_Port2.c ****         SmartIO_Port2_LUT_CONGIG_BASE.lutSel[lutNum] = sel;
 658              		.loc 1 437 0
 659 0096 8000     		lsls	r0, r0, #2
 660              	.LVL49:
 661 0098 054A     		ldr	r2, .L43+4
 662 009a 8350     		str	r3, [r0, r2]
 438:Generated_Source\PSoC4/SmartIO_Port2.c ****         
 439:Generated_Source\PSoC4/SmartIO_Port2.c ****         /* Re-enable the block */
 440:Generated_Source\PSoC4/SmartIO_Port2.c ****         SmartIO_Port2_Enable();
 663              		.loc 1 440 0
 664 009c 034A     		ldr	r2, .L43
 665 009e 1368     		ldr	r3, [r2]
 666              	.LVL50:
 667 00a0 8021     		movs	r1, #128
 668 00a2 0906     		lsls	r1, r1, #24
 669 00a4 0B43     		orrs	r3, r1
 670 00a6 1360     		str	r3, [r2]
 671              	.LVL51:
 672              	.L32:
 441:Generated_Source\PSoC4/SmartIO_Port2.c ****     }    
 442:Generated_Source\PSoC4/SmartIO_Port2.c ****     return callStatus;
 443:Generated_Source\PSoC4/SmartIO_Port2.c **** }
 673              		.loc 1 443 0
 674 00a8 2000     		movs	r0, r4
 675              		@ sp needed
 676              	.LVL52:
 677 00aa 30BD     		pop	{r4, r5, pc}
 678              	.L44:
 679              		.align	2
 680              	.L43:
 681 00ac 00000540 		.word	1074069504
 682 00b0 20000540 		.word	1074069536
 683 00b4 FFF0FFFF 		.word	-3841
 684 00b8 FFFFF0FF 		.word	-983041
 685 00bc F0F0F0FF 		.word	-986896
 686              		.cfi_endproc
 687              	.LFE8:
 688              		.size	SmartIO_Port2_LUT_SelectInputs, .-SmartIO_Port2_LUT_SelectInputs
ARM GAS  C:\Users\MICHAE~1.MAC\AppData\Local\Temp\cctIS3p0.s 			page 21


 689              		.section	.text.SmartIO_Port2_LUT_ConfigureMode,"ax",%progbits
 690              		.align	2
 691              		.global	SmartIO_Port2_LUT_ConfigureMode
 692              		.code	16
 693              		.thumb_func
 694              		.type	SmartIO_Port2_LUT_ConfigureMode, %function
 695              	SmartIO_Port2_LUT_ConfigureMode:
 696              	.LFB9:
 444:Generated_Source\PSoC4/SmartIO_Port2.c **** 
 445:Generated_Source\PSoC4/SmartIO_Port2.c **** 
 446:Generated_Source\PSoC4/SmartIO_Port2.c **** /*******************************************************************************
 447:Generated_Source\PSoC4/SmartIO_Port2.c **** * Function Name: SmartIO_Port2_LUT_ConfigureMode
 448:Generated_Source\PSoC4/SmartIO_Port2.c **** ****************************************************************************//**
 449:Generated_Source\PSoC4/SmartIO_Port2.c **** *
 450:Generated_Source\PSoC4/SmartIO_Port2.c **** * \brief This function sets the logical function of the selected LUT (based on 
 451:Generated_Source\PSoC4/SmartIO_Port2.c **** *  the 3 inputs) and specifies its operating mode. 
 452:Generated_Source\PSoC4/SmartIO_Port2.c **** *
 453:Generated_Source\PSoC4/SmartIO_Port2.c **** *  This function can be used to configure multiple LUTs with the same 
 454:Generated_Source\PSoC4/SmartIO_Port2.c **** *  configuration. The LUT mapping (truth table) is defined as follows.
 455:Generated_Source\PSoC4/SmartIO_Port2.c **** *
 456:Generated_Source\PSoC4/SmartIO_Port2.c **** *   input2 | input1 | input0 | Mapping bit
 457:Generated_Source\PSoC4/SmartIO_Port2.c **** *   -------| ------ | ------ | -----------
 458:Generated_Source\PSoC4/SmartIO_Port2.c **** *     0    |   0    |   0    |    bit0
 459:Generated_Source\PSoC4/SmartIO_Port2.c **** *     0    |   0    |   1    |    bit1
 460:Generated_Source\PSoC4/SmartIO_Port2.c **** *     0    |   1    |   0    |    bit2
 461:Generated_Source\PSoC4/SmartIO_Port2.c **** *     0    |   1    |   1    |    bit3
 462:Generated_Source\PSoC4/SmartIO_Port2.c **** *     1    |   0    |   0    |    bit4
 463:Generated_Source\PSoC4/SmartIO_Port2.c **** *     1    |   0    |   1    |    bit5
 464:Generated_Source\PSoC4/SmartIO_Port2.c **** *     1    |   1    |   0    |    bit6
 465:Generated_Source\PSoC4/SmartIO_Port2.c **** *     1    |   1    |   1    |    bit7
 466:Generated_Source\PSoC4/SmartIO_Port2.c **** *
 467:Generated_Source\PSoC4/SmartIO_Port2.c **** * \param lutNum
 468:Generated_Source\PSoC4/SmartIO_Port2.c **** *  LUT number. Valid options are documented in \ref lutNumConst.
 469:Generated_Source\PSoC4/SmartIO_Port2.c **** *
 470:Generated_Source\PSoC4/SmartIO_Port2.c **** * \param mapping
 471:Generated_Source\PSoC4/SmartIO_Port2.c **** *  This is the LUT truth table. Bit0 corresponds to the LUT output when the 
 472:Generated_Source\PSoC4/SmartIO_Port2.c **** *  input value is (in2=0, in1=0, in0=0). Bit7 corresponds to the LUT output 
 473:Generated_Source\PSoC4/SmartIO_Port2.c **** *  when the input value is (in2=1, in1=1, in0=1).
 474:Generated_Source\PSoC4/SmartIO_Port2.c **** *
 475:Generated_Source\PSoC4/SmartIO_Port2.c **** * \param mode
 476:Generated_Source\PSoC4/SmartIO_Port2.c **** *  The LUT mode. Valid options are documented in \ref modeConst.
 477:Generated_Source\PSoC4/SmartIO_Port2.c **** * 
 478:Generated_Source\PSoC4/SmartIO_Port2.c **** * \sideeffect
 479:Generated_Source\PSoC4/SmartIO_Port2.c **** *  This function disables the block for reconfiguration. During this time,
 480:Generated_Source\PSoC4/SmartIO_Port2.c **** *  all signals on the port will be bypassed. All peripheral and gpio signals
 481:Generated_Source\PSoC4/SmartIO_Port2.c **** *  must be stopped or properly handled to account for the bypass state.
 482:Generated_Source\PSoC4/SmartIO_Port2.c **** *
 483:Generated_Source\PSoC4/SmartIO_Port2.c **** * \funcusage
 484:Generated_Source\PSoC4/SmartIO_Port2.c **** *  \snippet SmartIO_Port2_SUT.c usage_SmartIO_Port2_LUT_ConfigureMode
 485:Generated_Source\PSoC4/SmartIO_Port2.c **** *******************************************************************************/
 486:Generated_Source\PSoC4/SmartIO_Port2.c **** void SmartIO_Port2_LUT_ConfigureMode(uint32 lutNum, uint32 mapping, uint32 mode)
 487:Generated_Source\PSoC4/SmartIO_Port2.c **** {
 697              		.loc 1 487 0
 698              		.cfi_startproc
 699              		@ args = 0, pretend = 0, frame = 0
 700              		@ frame_needed = 0, uses_anonymous_args = 0
 701              	.LVL53:
ARM GAS  C:\Users\MICHAE~1.MAC\AppData\Local\Temp\cctIS3p0.s 			page 22


 702 0000 70B5     		push	{r4, r5, r6, lr}
 703              		.cfi_def_cfa_offset 16
 704              		.cfi_offset 4, -16
 705              		.cfi_offset 5, -12
 706              		.cfi_offset 6, -8
 707              		.cfi_offset 14, -4
 488:Generated_Source\PSoC4/SmartIO_Port2.c ****     uint32 ctl;
 489:Generated_Source\PSoC4/SmartIO_Port2.c ****     
 490:Generated_Source\PSoC4/SmartIO_Port2.c ****     /* Must disable the block before configuring */
 491:Generated_Source\PSoC4/SmartIO_Port2.c ****     SmartIO_Port2_Disable();
 708              		.loc 1 491 0
 709 0002 0D4D     		ldr	r5, .L46
 710 0004 2B68     		ldr	r3, [r5]
 711 0006 5B00     		lsls	r3, r3, #1
 712 0008 5B08     		lsrs	r3, r3, #1
 713 000a 2B60     		str	r3, [r5]
 492:Generated_Source\PSoC4/SmartIO_Port2.c ****     
 493:Generated_Source\PSoC4/SmartIO_Port2.c ****     ctl = SmartIO_Port2_LUT_CONGIG_BASE.lutCtl[lutNum] & SmartIO_Port2_LUT_CTL_CLEAR;
 714              		.loc 1 493 0
 715 000c 0B4E     		ldr	r6, .L46+4
 716 000e 0830     		adds	r0, r0, #8
 717              	.LVL54:
 718 0010 8000     		lsls	r0, r0, #2
 719              	.LVL55:
 720 0012 8459     		ldr	r4, [r0, r6]
 721 0014 A40A     		lsrs	r4, r4, #10
 722 0016 A402     		lsls	r4, r4, #10
 723              	.LVL56:
 494:Generated_Source\PSoC4/SmartIO_Port2.c ****     SmartIO_Port2_LUT_CONGIG_BASE.lutCtl[lutNum] = ctl 
 495:Generated_Source\PSoC4/SmartIO_Port2.c ****                                             | (((uint32)((mapping << CYFLD_PRGIO_PRT_LUT__OFFSET)
 724              		.loc 1 495 0
 725 0018 FF23     		movs	r3, #255
 726 001a 1940     		ands	r1, r3
 727              	.LVL57:
 496:Generated_Source\PSoC4/SmartIO_Port2.c ****                                             & SmartIO_Port2_LUT_MAP_MASK))
 497:Generated_Source\PSoC4/SmartIO_Port2.c ****                                             | ((uint32)(((uint32)mode << CYFLD_PRGIO_PRT_LUT_OPC__O
 728              		.loc 1 497 0
 729 001c 1202     		lsls	r2, r2, #8
 730              	.LVL58:
 731 001e C023     		movs	r3, #192
 732 0020 9B00     		lsls	r3, r3, #2
 733 0022 1A40     		ands	r2, r3
 734 0024 1143     		orrs	r1, r2
 495:Generated_Source\PSoC4/SmartIO_Port2.c ****                                             & SmartIO_Port2_LUT_MAP_MASK))
 735              		.loc 1 495 0
 736 0026 2143     		orrs	r1, r4
 494:Generated_Source\PSoC4/SmartIO_Port2.c ****     SmartIO_Port2_LUT_CONGIG_BASE.lutCtl[lutNum] = ctl 
 737              		.loc 1 494 0
 738 0028 8151     		str	r1, [r0, r6]
 498:Generated_Source\PSoC4/SmartIO_Port2.c ****                                             & SmartIO_Port2_LUT_OPC_MASK)));
 499:Generated_Source\PSoC4/SmartIO_Port2.c ****     /* Re-enable the block */
 500:Generated_Source\PSoC4/SmartIO_Port2.c ****     SmartIO_Port2_Enable();
 739              		.loc 1 500 0
 740 002a 2B68     		ldr	r3, [r5]
 741 002c 8022     		movs	r2, #128
 742 002e 1206     		lsls	r2, r2, #24
 743 0030 1343     		orrs	r3, r2
ARM GAS  C:\Users\MICHAE~1.MAC\AppData\Local\Temp\cctIS3p0.s 			page 23


 744 0032 2B60     		str	r3, [r5]
 501:Generated_Source\PSoC4/SmartIO_Port2.c **** }
 745              		.loc 1 501 0
 746              		@ sp needed
 747              	.LVL59:
 748 0034 70BD     		pop	{r4, r5, r6, pc}
 749              	.L47:
 750 0036 C046     		.align	2
 751              	.L46:
 752 0038 00000540 		.word	1074069504
 753 003c 20000540 		.word	1074069536
 754              		.cfi_endproc
 755              	.LFE9:
 756              		.size	SmartIO_Port2_LUT_ConfigureMode, .-SmartIO_Port2_LUT_ConfigureMode
 757              		.section	.text.SmartIO_Port2_DU_SelectTriggers,"ax",%progbits
 758              		.align	2
 759              		.global	SmartIO_Port2_DU_SelectTriggers
 760              		.code	16
 761              		.thumb_func
 762              		.type	SmartIO_Port2_DU_SelectTriggers, %function
 763              	SmartIO_Port2_DU_SelectTriggers:
 764              	.LFB10:
 502:Generated_Source\PSoC4/SmartIO_Port2.c **** 
 503:Generated_Source\PSoC4/SmartIO_Port2.c **** /*******************************************************************************
 504:Generated_Source\PSoC4/SmartIO_Port2.c **** * Function Name: SmartIO_Port2_DU_SelectTriggers
 505:Generated_Source\PSoC4/SmartIO_Port2.c **** ****************************************************************************//**
 506:Generated_Source\PSoC4/SmartIO_Port2.c **** *
 507:Generated_Source\PSoC4/SmartIO_Port2.c **** * \brief Selects the trigger sources for the data unit.
 508:Generated_Source\PSoC4/SmartIO_Port2.c **** *
 509:Generated_Source\PSoC4/SmartIO_Port2.c **** * \param tr0Sel
 510:Generated_Source\PSoC4/SmartIO_Port2.c **** *  Trigger 0 input selection. Valid options are documented in \ref duTrConst.
 511:Generated_Source\PSoC4/SmartIO_Port2.c **** *
 512:Generated_Source\PSoC4/SmartIO_Port2.c **** * \param tr1Sel
 513:Generated_Source\PSoC4/SmartIO_Port2.c **** *  Trigger 1 input selection. Valid options are documented in \ref duTrConst.
 514:Generated_Source\PSoC4/SmartIO_Port2.c **** *
 515:Generated_Source\PSoC4/SmartIO_Port2.c **** * \param tr2Sel
 516:Generated_Source\PSoC4/SmartIO_Port2.c **** *  Trigger 2 input selection. Valid options are documented in \ref duTrConst.
 517:Generated_Source\PSoC4/SmartIO_Port2.c **** *
 518:Generated_Source\PSoC4/SmartIO_Port2.c **** * \sideeffect
 519:Generated_Source\PSoC4/SmartIO_Port2.c **** *  This function disables the block for reconfiguration. During this time,
 520:Generated_Source\PSoC4/SmartIO_Port2.c **** *  all signals on the port will be bypassed. All peripheral and gpio signals
 521:Generated_Source\PSoC4/SmartIO_Port2.c **** *  must be stopped or properly handled to account for the bypass state.
 522:Generated_Source\PSoC4/SmartIO_Port2.c **** *
 523:Generated_Source\PSoC4/SmartIO_Port2.c **** * \funcusage
 524:Generated_Source\PSoC4/SmartIO_Port2.c **** *  \snippet SmartIO_Port2_SUT.c usage_SmartIO_Port2_DU_SelectTriggers
 525:Generated_Source\PSoC4/SmartIO_Port2.c **** *******************************************************************************/
 526:Generated_Source\PSoC4/SmartIO_Port2.c **** cystatus SmartIO_Port2_DU_SelectTriggers(uint32 tr0Sel, uint32 tr1Sel, uint32 tr2Sel)
 527:Generated_Source\PSoC4/SmartIO_Port2.c **** {
 765              		.loc 1 527 0
 766              		.cfi_startproc
 767              		@ args = 0, pretend = 0, frame = 0
 768              		@ frame_needed = 0, uses_anonymous_args = 0
 769              	.LVL60:
 770 0000 70B5     		push	{r4, r5, r6, lr}
 771              		.cfi_def_cfa_offset 16
 772              		.cfi_offset 4, -16
 773              		.cfi_offset 5, -12
ARM GAS  C:\Users\MICHAE~1.MAC\AppData\Local\Temp\cctIS3p0.s 			page 24


 774              		.cfi_offset 6, -8
 775              		.cfi_offset 14, -4
 776              	.LVL61:
 528:Generated_Source\PSoC4/SmartIO_Port2.c ****     cystatus callStatus = CYRET_SUCCESS;
 529:Generated_Source\PSoC4/SmartIO_Port2.c ****     uint32 sel;
 530:Generated_Source\PSoC4/SmartIO_Port2.c ****     
 531:Generated_Source\PSoC4/SmartIO_Port2.c ****     if((tr0Sel > SmartIO_Port2_DUTRIG_MAX) || (tr1Sel > SmartIO_Port2_DUTRIG_MAX) || (tr2Sel > Smar
 777              		.loc 1 531 0
 778 0002 0A28     		cmp	r0, #10
 779 0004 19D8     		bhi	.L50
 780              		.loc 1 531 0 is_stmt 0 discriminator 1
 781 0006 0A29     		cmp	r1, #10
 782 0008 19D8     		bhi	.L51
 783              		.loc 1 531 0 discriminator 2
 784 000a 0A2A     		cmp	r2, #10
 785 000c 19D8     		bhi	.L52
 532:Generated_Source\PSoC4/SmartIO_Port2.c ****     {
 533:Generated_Source\PSoC4/SmartIO_Port2.c ****         callStatus = CYRET_BAD_PARAM;
 534:Generated_Source\PSoC4/SmartIO_Port2.c ****     }
 535:Generated_Source\PSoC4/SmartIO_Port2.c ****     else
 536:Generated_Source\PSoC4/SmartIO_Port2.c ****     {
 537:Generated_Source\PSoC4/SmartIO_Port2.c ****         /* Must disable the block before configuring */
 538:Generated_Source\PSoC4/SmartIO_Port2.c ****         SmartIO_Port2_Disable();
 786              		.loc 1 538 0 is_stmt 1
 787 000e 0E4C     		ldr	r4, .L53
 788 0010 2368     		ldr	r3, [r4]
 789 0012 5B00     		lsls	r3, r3, #1
 790 0014 5B08     		lsrs	r3, r3, #1
 791 0016 2360     		str	r3, [r4]
 539:Generated_Source\PSoC4/SmartIO_Port2.c ****         
 540:Generated_Source\PSoC4/SmartIO_Port2.c ****         sel = SmartIO_Port2_DU_SEL & SmartIO_Port2_DU_TR_CLEAR_ALL;
 792              		.loc 1 540 0
 793 0018 0C4D     		ldr	r5, .L53+4
 794 001a 2E68     		ldr	r6, [r5]
 795 001c 0C4B     		ldr	r3, .L53+8
 796 001e 3340     		ands	r3, r6
 797              	.LVL62:
 541:Generated_Source\PSoC4/SmartIO_Port2.c ****         SmartIO_Port2_DU_SEL = sel 
 542:Generated_Source\PSoC4/SmartIO_Port2.c ****                                 | ((uint32)(tr0Sel << CYFLD_PRGIO_PRT_DU_TR0_SEL__OFFSET))
 798              		.loc 1 542 0
 799 0020 1843     		orrs	r0, r3
 800              	.LVL63:
 543:Generated_Source\PSoC4/SmartIO_Port2.c ****                                 | ((uint32)(tr1Sel << CYFLD_PRGIO_PRT_DU_TR1_SEL__OFFSET))
 801              		.loc 1 543 0
 802 0022 0902     		lsls	r1, r1, #8
 803              	.LVL64:
 804 0024 0143     		orrs	r1, r0
 544:Generated_Source\PSoC4/SmartIO_Port2.c ****                                 | ((uint32)(tr2Sel << CYFLD_PRGIO_PRT_DU_TR2_SEL__OFFSET));
 805              		.loc 1 544 0
 806 0026 1204     		lsls	r2, r2, #16
 807              	.LVL65:
 808 0028 1143     		orrs	r1, r2
 541:Generated_Source\PSoC4/SmartIO_Port2.c ****         SmartIO_Port2_DU_SEL = sel 
 809              		.loc 1 541 0
 810 002a 2960     		str	r1, [r5]
 545:Generated_Source\PSoC4/SmartIO_Port2.c ****         
 546:Generated_Source\PSoC4/SmartIO_Port2.c ****         /* Re-enable the block */
ARM GAS  C:\Users\MICHAE~1.MAC\AppData\Local\Temp\cctIS3p0.s 			page 25


 547:Generated_Source\PSoC4/SmartIO_Port2.c ****         SmartIO_Port2_Enable();
 811              		.loc 1 547 0
 812 002c 2368     		ldr	r3, [r4]
 813              	.LVL66:
 814 002e 8022     		movs	r2, #128
 815 0030 1206     		lsls	r2, r2, #24
 816 0032 1343     		orrs	r3, r2
 817 0034 2360     		str	r3, [r4]
 528:Generated_Source\PSoC4/SmartIO_Port2.c ****     uint32 sel;
 818              		.loc 1 528 0
 819 0036 0020     		movs	r0, #0
 820 0038 04E0     		b	.L49
 821              	.LVL67:
 822              	.L50:
 533:Generated_Source\PSoC4/SmartIO_Port2.c ****     }
 823              		.loc 1 533 0
 824 003a 0120     		movs	r0, #1
 825              	.LVL68:
 826 003c 02E0     		b	.L49
 827              	.LVL69:
 828              	.L51:
 829 003e 0120     		movs	r0, #1
 830              	.LVL70:
 831 0040 00E0     		b	.L49
 832              	.LVL71:
 833              	.L52:
 834 0042 0120     		movs	r0, #1
 835              	.LVL72:
 836              	.L49:
 548:Generated_Source\PSoC4/SmartIO_Port2.c ****     }
 549:Generated_Source\PSoC4/SmartIO_Port2.c ****     
 550:Generated_Source\PSoC4/SmartIO_Port2.c ****     return callStatus;
 551:Generated_Source\PSoC4/SmartIO_Port2.c **** }
 837              		.loc 1 551 0
 838              		@ sp needed
 839 0044 70BD     		pop	{r4, r5, r6, pc}
 840              	.L54:
 841 0046 C046     		.align	2
 842              	.L53:
 843 0048 00000540 		.word	1074069504
 844 004c C0000540 		.word	1074069696
 845 0050 F0F0F0FF 		.word	-986896
 846              		.cfi_endproc
 847              	.LFE10:
 848              		.size	SmartIO_Port2_DU_SelectTriggers, .-SmartIO_Port2_DU_SelectTriggers
 849              		.section	.text.SmartIO_Port2_DU_SelectData,"ax",%progbits
 850              		.align	2
 851              		.global	SmartIO_Port2_DU_SelectData
 852              		.code	16
 853              		.thumb_func
 854              		.type	SmartIO_Port2_DU_SelectData, %function
 855              	SmartIO_Port2_DU_SelectData:
 856              	.LFB11:
 552:Generated_Source\PSoC4/SmartIO_Port2.c **** 
 553:Generated_Source\PSoC4/SmartIO_Port2.c **** 
 554:Generated_Source\PSoC4/SmartIO_Port2.c **** /*******************************************************************************
 555:Generated_Source\PSoC4/SmartIO_Port2.c **** * Function Name: SmartIO_Port2_DU_SelectData
ARM GAS  C:\Users\MICHAE~1.MAC\AppData\Local\Temp\cctIS3p0.s 			page 26


 556:Generated_Source\PSoC4/SmartIO_Port2.c **** ****************************************************************************//**
 557:Generated_Source\PSoC4/SmartIO_Port2.c **** *
 558:Generated_Source\PSoC4/SmartIO_Port2.c **** * \brief Specifies the values for the Data0 and Data1 registers in the Data Unit.
 559:Generated_Source\PSoC4/SmartIO_Port2.c **** *
 560:Generated_Source\PSoC4/SmartIO_Port2.c **** * \param dataNum
 561:Generated_Source\PSoC4/SmartIO_Port2.c **** *  DU DATA register selection. Valid options are documented in \ref duDataConst.
 562:Generated_Source\PSoC4/SmartIO_Port2.c **** *
 563:Generated_Source\PSoC4/SmartIO_Port2.c **** * \param dataSel
 564:Generated_Source\PSoC4/SmartIO_Port2.c **** *  DU DATA register source selection. Valid options are documented in \ref duDataSrcConst.
 565:Generated_Source\PSoC4/SmartIO_Port2.c **** *
 566:Generated_Source\PSoC4/SmartIO_Port2.c **** * \sideeffect
 567:Generated_Source\PSoC4/SmartIO_Port2.c **** *  This function disables the block for reconfiguration. During this time,
 568:Generated_Source\PSoC4/SmartIO_Port2.c **** *  all signals on the port will be bypassed. All peripheral and gpio signals
 569:Generated_Source\PSoC4/SmartIO_Port2.c **** *  must be stopped or properly handled to account for the bypass state.
 570:Generated_Source\PSoC4/SmartIO_Port2.c **** *
 571:Generated_Source\PSoC4/SmartIO_Port2.c **** * \funcusage
 572:Generated_Source\PSoC4/SmartIO_Port2.c **** *  \snippet SmartIO_Port2_SUT.c usage_SmartIO_Port2_DU_SelectData
 573:Generated_Source\PSoC4/SmartIO_Port2.c **** *******************************************************************************/
 574:Generated_Source\PSoC4/SmartIO_Port2.c **** cystatus SmartIO_Port2_DU_SelectData(uint32 dataNum, uint32 dataSel)
 575:Generated_Source\PSoC4/SmartIO_Port2.c **** {
 857              		.loc 1 575 0
 858              		.cfi_startproc
 859              		@ args = 0, pretend = 0, frame = 0
 860              		@ frame_needed = 0, uses_anonymous_args = 0
 861              		@ link register save eliminated.
 862              	.LVL73:
 576:Generated_Source\PSoC4/SmartIO_Port2.c ****     cystatus callStatus = CYRET_SUCCESS;
 577:Generated_Source\PSoC4/SmartIO_Port2.c ****     uint32 sel;
 578:Generated_Source\PSoC4/SmartIO_Port2.c ****     
 579:Generated_Source\PSoC4/SmartIO_Port2.c ****     /* Must disable the block before configuring */
 580:Generated_Source\PSoC4/SmartIO_Port2.c ****     SmartIO_Port2_Disable();
 863              		.loc 1 580 0
 864 0000 1B4A     		ldr	r2, .L62
 865 0002 1368     		ldr	r3, [r2]
 866 0004 5B00     		lsls	r3, r3, #1
 867 0006 5B08     		lsrs	r3, r3, #1
 868 0008 1360     		str	r3, [r2]
 581:Generated_Source\PSoC4/SmartIO_Port2.c ****     
 582:Generated_Source\PSoC4/SmartIO_Port2.c ****     sel = SmartIO_Port2_DU_SEL;
 869              		.loc 1 582 0
 870 000a 1A4B     		ldr	r3, .L62+4
 871 000c 1B68     		ldr	r3, [r3]
 872              	.LVL74:
 583:Generated_Source\PSoC4/SmartIO_Port2.c ****     switch(dataNum)
 873              		.loc 1 583 0
 874 000e 0228     		cmp	r0, #2
 875 0010 0CD0     		beq	.L57
 876 0012 0328     		cmp	r0, #3
 877 0014 13D0     		beq	.L58
 878 0016 0128     		cmp	r0, #1
 879 0018 1FD1     		bne	.L61
 584:Generated_Source\PSoC4/SmartIO_Port2.c ****     {
 585:Generated_Source\PSoC4/SmartIO_Port2.c ****         case SmartIO_Port2_DATA0:
 586:Generated_Source\PSoC4/SmartIO_Port2.c ****             sel = (sel & SmartIO_Port2_DU_DATA0_CLEAR)
 880              		.loc 1 586 0
 881 001a 174A     		ldr	r2, .L62+8
 882 001c 1A40     		ands	r2, r3
ARM GAS  C:\Users\MICHAE~1.MAC\AppData\Local\Temp\cctIS3p0.s 			page 27


 587:Generated_Source\PSoC4/SmartIO_Port2.c ****                   | (uint32)((dataSel << CYFLD_PRGIO_PRT_DU_DATA0_SEL__OFFSET) & SmartIO_Port2_DU_D
 883              		.loc 1 587 0
 884 001e 0B06     		lsls	r3, r1, #24
 885              	.LVL75:
 886 0020 C020     		movs	r0, #192
 887              	.LVL76:
 888 0022 8004     		lsls	r0, r0, #18
 889 0024 0340     		ands	r3, r0
 586:Generated_Source\PSoC4/SmartIO_Port2.c ****                   | (uint32)((dataSel << CYFLD_PRGIO_PRT_DU_DATA0_SEL__OFFSET) & SmartIO_Port2_DU_D
 890              		.loc 1 586 0
 891 0026 1343     		orrs	r3, r2
 892              	.LVL77:
 576:Generated_Source\PSoC4/SmartIO_Port2.c ****     uint32 sel;
 893              		.loc 1 576 0
 894 0028 0020     		movs	r0, #0
 588:Generated_Source\PSoC4/SmartIO_Port2.c ****         break;
 895              		.loc 1 588 0
 896 002a 17E0     		b	.L56
 897              	.LVL78:
 898              	.L57:
 589:Generated_Source\PSoC4/SmartIO_Port2.c ****         case SmartIO_Port2_DATA1:
 590:Generated_Source\PSoC4/SmartIO_Port2.c ****             sel = (sel & SmartIO_Port2_DU_DATA1_CLEAR)
 899              		.loc 1 590 0
 900 002c 134A     		ldr	r2, .L62+12
 901 002e 1A40     		ands	r2, r3
 591:Generated_Source\PSoC4/SmartIO_Port2.c ****                   | (uint32)((dataSel << CYFLD_PRGIO_PRT_DU_DATA1_SEL__OFFSET) & SmartIO_Port2_DU_D
 902              		.loc 1 591 0
 903 0030 0B07     		lsls	r3, r1, #28
 904              	.LVL79:
 905 0032 C020     		movs	r0, #192
 906              	.LVL80:
 907 0034 8005     		lsls	r0, r0, #22
 908 0036 0340     		ands	r3, r0
 590:Generated_Source\PSoC4/SmartIO_Port2.c ****                   | (uint32)((dataSel << CYFLD_PRGIO_PRT_DU_DATA1_SEL__OFFSET) & SmartIO_Port2_DU_D
 909              		.loc 1 590 0
 910 0038 1343     		orrs	r3, r2
 911              	.LVL81:
 576:Generated_Source\PSoC4/SmartIO_Port2.c ****     uint32 sel;
 912              		.loc 1 576 0
 913 003a 0020     		movs	r0, #0
 592:Generated_Source\PSoC4/SmartIO_Port2.c ****         break;
 914              		.loc 1 592 0
 915 003c 0EE0     		b	.L56
 916              	.LVL82:
 917              	.L58:
 593:Generated_Source\PSoC4/SmartIO_Port2.c ****         case SmartIO_Port2_DATA_BOTH:
 594:Generated_Source\PSoC4/SmartIO_Port2.c ****             sel = (sel & SmartIO_Port2_DU_DATA01_CLEAR_BOTH)
 918              		.loc 1 594 0
 919 003e 104A     		ldr	r2, .L62+16
 920 0040 1340     		ands	r3, r2
 921              	.LVL83:
 595:Generated_Source\PSoC4/SmartIO_Port2.c ****                    |(uint32)((dataSel << CYFLD_PRGIO_PRT_DU_DATA0_SEL__OFFSET) & SmartIO_Port2_DU_D
 922              		.loc 1 595 0
 923 0042 0806     		lsls	r0, r1, #24
 924              	.LVL84:
 925 0044 C022     		movs	r2, #192
 926 0046 9204     		lsls	r2, r2, #18
ARM GAS  C:\Users\MICHAE~1.MAC\AppData\Local\Temp\cctIS3p0.s 			page 28


 927 0048 0240     		ands	r2, r0
 928 004a 1343     		orrs	r3, r2
 596:Generated_Source\PSoC4/SmartIO_Port2.c ****                    |(uint32)((dataSel << CYFLD_PRGIO_PRT_DU_DATA1_SEL__OFFSET) & SmartIO_Port2_DU_D
 929              		.loc 1 596 0
 930 004c 0907     		lsls	r1, r1, #28
 931              	.LVL85:
 932 004e C022     		movs	r2, #192
 933 0050 9205     		lsls	r2, r2, #22
 934 0052 1140     		ands	r1, r2
 594:Generated_Source\PSoC4/SmartIO_Port2.c ****                    |(uint32)((dataSel << CYFLD_PRGIO_PRT_DU_DATA0_SEL__OFFSET) & SmartIO_Port2_DU_D
 935              		.loc 1 594 0
 936 0054 0B43     		orrs	r3, r1
 937              	.LVL86:
 576:Generated_Source\PSoC4/SmartIO_Port2.c ****     uint32 sel;
 938              		.loc 1 576 0
 939 0056 0020     		movs	r0, #0
 597:Generated_Source\PSoC4/SmartIO_Port2.c ****         break;
 940              		.loc 1 597 0
 941 0058 00E0     		b	.L56
 942              	.LVL87:
 943              	.L61:
 598:Generated_Source\PSoC4/SmartIO_Port2.c ****         default:
 599:Generated_Source\PSoC4/SmartIO_Port2.c ****             callStatus = CYRET_BAD_PARAM;
 944              		.loc 1 599 0
 945 005a 0120     		movs	r0, #1
 946              	.LVL88:
 947              	.L56:
 600:Generated_Source\PSoC4/SmartIO_Port2.c ****         break;
 601:Generated_Source\PSoC4/SmartIO_Port2.c ****     }
 602:Generated_Source\PSoC4/SmartIO_Port2.c ****     SmartIO_Port2_DU_SEL = sel;
 948              		.loc 1 602 0
 949 005c 054A     		ldr	r2, .L62+4
 950 005e 1360     		str	r3, [r2]
 603:Generated_Source\PSoC4/SmartIO_Port2.c ****     
 604:Generated_Source\PSoC4/SmartIO_Port2.c ****     /* Re-enable the block */
 605:Generated_Source\PSoC4/SmartIO_Port2.c ****     SmartIO_Port2_Enable();
 951              		.loc 1 605 0
 952 0060 034A     		ldr	r2, .L62
 953 0062 1368     		ldr	r3, [r2]
 954              	.LVL89:
 955 0064 8021     		movs	r1, #128
 956 0066 0906     		lsls	r1, r1, #24
 957 0068 0B43     		orrs	r3, r1
 958 006a 1360     		str	r3, [r2]
 959              	.LVL90:
 606:Generated_Source\PSoC4/SmartIO_Port2.c ****     
 607:Generated_Source\PSoC4/SmartIO_Port2.c ****     return callStatus;
 608:Generated_Source\PSoC4/SmartIO_Port2.c **** }
 960              		.loc 1 608 0
 961              		@ sp needed
 962 006c 7047     		bx	lr
 963              	.L63:
 964 006e C046     		.align	2
 965              	.L62:
 966 0070 00000540 		.word	1074069504
 967 0074 C0000540 		.word	1074069696
 968 0078 FFFFFFFC 		.word	-50331649
ARM GAS  C:\Users\MICHAE~1.MAC\AppData\Local\Temp\cctIS3p0.s 			page 29


 969 007c FFFFFFCF 		.word	-805306369
 970 0080 FFFFFFCC 		.word	-855638017
 971              		.cfi_endproc
 972              	.LFE11:
 973              		.size	SmartIO_Port2_DU_SelectData, .-SmartIO_Port2_DU_SelectData
 974              		.section	.text.SmartIO_Port2_DU_RegValue,"ax",%progbits
 975              		.align	2
 976              		.global	SmartIO_Port2_DU_RegValue
 977              		.code	16
 978              		.thumb_func
 979              		.type	SmartIO_Port2_DU_RegValue, %function
 980              	SmartIO_Port2_DU_RegValue:
 981              	.LFB12:
 609:Generated_Source\PSoC4/SmartIO_Port2.c **** 
 610:Generated_Source\PSoC4/SmartIO_Port2.c **** 
 611:Generated_Source\PSoC4/SmartIO_Port2.c **** /*******************************************************************************
 612:Generated_Source\PSoC4/SmartIO_Port2.c **** * Function Name: SmartIO_Port2_DU_RegValue
 613:Generated_Source\PSoC4/SmartIO_Port2.c **** ****************************************************************************//**
 614:Generated_Source\PSoC4/SmartIO_Port2.c **** *
 615:Generated_Source\PSoC4/SmartIO_Port2.c **** * \brief Specifies the 8-bit value in the internal DU register that may be a
 616:Generated_Source\PSoC4/SmartIO_Port2.c **** * source for Data0 and/or Data1.
 617:Generated_Source\PSoC4/SmartIO_Port2.c **** *
 618:Generated_Source\PSoC4/SmartIO_Port2.c **** * \param dataValue
 619:Generated_Source\PSoC4/SmartIO_Port2.c **** *  8-bit value to be stored in the register.
 620:Generated_Source\PSoC4/SmartIO_Port2.c **** *
 621:Generated_Source\PSoC4/SmartIO_Port2.c **** * \sideeffect
 622:Generated_Source\PSoC4/SmartIO_Port2.c **** *  This function disables the block for reconfiguration. During this time,
 623:Generated_Source\PSoC4/SmartIO_Port2.c **** *  all signals on the port will be bypassed. All peripheral and gpio signals
 624:Generated_Source\PSoC4/SmartIO_Port2.c **** *  must be stopped or properly handled to account for the bypass state.
 625:Generated_Source\PSoC4/SmartIO_Port2.c **** *
 626:Generated_Source\PSoC4/SmartIO_Port2.c **** * \funcusage
 627:Generated_Source\PSoC4/SmartIO_Port2.c **** *  \snippet SmartIO_Port2_SUT.c usage_SmartIO_Port2_DU_RegValue
 628:Generated_Source\PSoC4/SmartIO_Port2.c **** *******************************************************************************/
 629:Generated_Source\PSoC4/SmartIO_Port2.c **** cystatus SmartIO_Port2_DU_RegValue(uint32 dataValue)
 630:Generated_Source\PSoC4/SmartIO_Port2.c **** {
 982              		.loc 1 630 0
 983              		.cfi_startproc
 984              		@ args = 0, pretend = 0, frame = 0
 985              		@ frame_needed = 0, uses_anonymous_args = 0
 986              		@ link register save eliminated.
 987              	.LVL91:
 631:Generated_Source\PSoC4/SmartIO_Port2.c ****     cystatus callStatus = CYRET_SUCCESS;
 632:Generated_Source\PSoC4/SmartIO_Port2.c ****     
 633:Generated_Source\PSoC4/SmartIO_Port2.c ****     if(dataValue > SmartIO_Port2_REGVAL_MAX)
 988              		.loc 1 633 0
 989 0000 FF28     		cmp	r0, #255
 990 0002 0DD8     		bhi	.L66
 634:Generated_Source\PSoC4/SmartIO_Port2.c ****     {
 635:Generated_Source\PSoC4/SmartIO_Port2.c ****         callStatus = CYRET_BAD_PARAM;
 636:Generated_Source\PSoC4/SmartIO_Port2.c ****     }
 637:Generated_Source\PSoC4/SmartIO_Port2.c ****     else
 638:Generated_Source\PSoC4/SmartIO_Port2.c ****     {
 639:Generated_Source\PSoC4/SmartIO_Port2.c ****         /* Must disable the block before configuring */
 640:Generated_Source\PSoC4/SmartIO_Port2.c ****         SmartIO_Port2_Disable();
 991              		.loc 1 640 0
 992 0004 074A     		ldr	r2, .L67
 993 0006 1368     		ldr	r3, [r2]
ARM GAS  C:\Users\MICHAE~1.MAC\AppData\Local\Temp\cctIS3p0.s 			page 30


 994 0008 5B00     		lsls	r3, r3, #1
 995 000a 5B08     		lsrs	r3, r3, #1
 996 000c 1360     		str	r3, [r2]
 641:Generated_Source\PSoC4/SmartIO_Port2.c ****         SmartIO_Port2_DATA = dataValue;
 997              		.loc 1 641 0
 998 000e 064B     		ldr	r3, .L67+4
 999 0010 1860     		str	r0, [r3]
 642:Generated_Source\PSoC4/SmartIO_Port2.c ****         /* Re-enable the block */
 643:Generated_Source\PSoC4/SmartIO_Port2.c ****         SmartIO_Port2_Enable();
 1000              		.loc 1 643 0
 1001 0012 1368     		ldr	r3, [r2]
 1002 0014 8021     		movs	r1, #128
 1003 0016 0906     		lsls	r1, r1, #24
 1004 0018 0B43     		orrs	r3, r1
 1005 001a 1360     		str	r3, [r2]
 631:Generated_Source\PSoC4/SmartIO_Port2.c ****     
 1006              		.loc 1 631 0
 1007 001c 0020     		movs	r0, #0
 1008              	.LVL92:
 1009 001e 00E0     		b	.L65
 1010              	.LVL93:
 1011              	.L66:
 635:Generated_Source\PSoC4/SmartIO_Port2.c ****     }
 1012              		.loc 1 635 0
 1013 0020 0120     		movs	r0, #1
 1014              	.LVL94:
 1015              	.L65:
 644:Generated_Source\PSoC4/SmartIO_Port2.c ****     }
 645:Generated_Source\PSoC4/SmartIO_Port2.c ****     
 646:Generated_Source\PSoC4/SmartIO_Port2.c ****     return callStatus;
 647:Generated_Source\PSoC4/SmartIO_Port2.c **** }
 1016              		.loc 1 647 0
 1017              		@ sp needed
 1018 0022 7047     		bx	lr
 1019              	.L68:
 1020              		.align	2
 1021              	.L67:
 1022 0024 00000540 		.word	1074069504
 1023 0028 F0000540 		.word	1074069744
 1024              		.cfi_endproc
 1025              	.LFE12:
 1026              		.size	SmartIO_Port2_DU_RegValue, .-SmartIO_Port2_DU_RegValue
 1027              		.section	.text.SmartIO_Port2_DU_OpCode,"ax",%progbits
 1028              		.align	2
 1029              		.global	SmartIO_Port2_DU_OpCode
 1030              		.code	16
 1031              		.thumb_func
 1032              		.type	SmartIO_Port2_DU_OpCode, %function
 1033              	SmartIO_Port2_DU_OpCode:
 1034              	.LFB13:
 648:Generated_Source\PSoC4/SmartIO_Port2.c **** 
 649:Generated_Source\PSoC4/SmartIO_Port2.c **** 
 650:Generated_Source\PSoC4/SmartIO_Port2.c **** /*******************************************************************************
 651:Generated_Source\PSoC4/SmartIO_Port2.c **** * Function Name: SmartIO_Port2_DU_OpCode
 652:Generated_Source\PSoC4/SmartIO_Port2.c **** ****************************************************************************//**
 653:Generated_Source\PSoC4/SmartIO_Port2.c **** *
 654:Generated_Source\PSoC4/SmartIO_Port2.c **** * \brief Selects the data unit operation and the size of the data to be 
ARM GAS  C:\Users\MICHAE~1.MAC\AppData\Local\Temp\cctIS3p0.s 			page 31


 655:Generated_Source\PSoC4/SmartIO_Port2.c **** * operated on (1 to 8 bits).
 656:Generated_Source\PSoC4/SmartIO_Port2.c **** *
 657:Generated_Source\PSoC4/SmartIO_Port2.c **** * \param opCode
 658:Generated_Source\PSoC4/SmartIO_Port2.c **** *  Op-code for the Data Unit. Valid options are documented in \ref duOpcConst.
 659:Generated_Source\PSoC4/SmartIO_Port2.c **** *
 660:Generated_Source\PSoC4/SmartIO_Port2.c **** * \param dataSize
 661:Generated_Source\PSoC4/SmartIO_Port2.c **** *  Size/width of the data unit operands. Range: 1 to 8 bits.
 662:Generated_Source\PSoC4/SmartIO_Port2.c **** *
 663:Generated_Source\PSoC4/SmartIO_Port2.c **** * \sideeffect
 664:Generated_Source\PSoC4/SmartIO_Port2.c **** *  This function disables the block for reconfiguration. During this time,
 665:Generated_Source\PSoC4/SmartIO_Port2.c **** *  all signals on the port will be bypassed. All peripheral and gpio signals
 666:Generated_Source\PSoC4/SmartIO_Port2.c **** *  must be stopped or properly handled to account for the bypass state.
 667:Generated_Source\PSoC4/SmartIO_Port2.c **** *
 668:Generated_Source\PSoC4/SmartIO_Port2.c **** * \funcusage
 669:Generated_Source\PSoC4/SmartIO_Port2.c **** *  \snippet SmartIO_Port2_SUT.c usage_SmartIO_Port2_DU_OpCode
 670:Generated_Source\PSoC4/SmartIO_Port2.c **** *******************************************************************************/
 671:Generated_Source\PSoC4/SmartIO_Port2.c **** cystatus SmartIO_Port2_DU_OpCode(uint32 opCode, uint32 dataSize)
 672:Generated_Source\PSoC4/SmartIO_Port2.c **** {
 1035              		.loc 1 672 0
 1036              		.cfi_startproc
 1037              		@ args = 0, pretend = 0, frame = 0
 1038              		@ frame_needed = 0, uses_anonymous_args = 0
 1039              		@ link register save eliminated.
 1040              	.LVL95:
 673:Generated_Source\PSoC4/SmartIO_Port2.c ****     cystatus callStatus = CYRET_SUCCESS;
 674:Generated_Source\PSoC4/SmartIO_Port2.c ****     
 675:Generated_Source\PSoC4/SmartIO_Port2.c ****     if((opCode == 0u) || (opCode > SmartIO_Port2_OPC_MAX) || (dataSize > SmartIO_Port2_DUSIZE_MAX))
 1041              		.loc 1 675 0
 1042 0000 431E     		subs	r3, r0, #1
 1043 0002 0A2B     		cmp	r3, #10
 1044 0004 12D8     		bhi	.L71
 1045              		.loc 1 675 0 is_stmt 0 discriminator 1
 1046 0006 0829     		cmp	r1, #8
 1047 0008 12D8     		bhi	.L72
 676:Generated_Source\PSoC4/SmartIO_Port2.c ****     {
 677:Generated_Source\PSoC4/SmartIO_Port2.c ****         callStatus = CYRET_BAD_PARAM;
 678:Generated_Source\PSoC4/SmartIO_Port2.c ****     }
 679:Generated_Source\PSoC4/SmartIO_Port2.c ****     else
 680:Generated_Source\PSoC4/SmartIO_Port2.c ****     {
 681:Generated_Source\PSoC4/SmartIO_Port2.c ****          /* Must disable the block before configuring */
 682:Generated_Source\PSoC4/SmartIO_Port2.c ****         SmartIO_Port2_Disable();
 1048              		.loc 1 682 0 is_stmt 1
 1049 000a 0A4A     		ldr	r2, .L73
 1050 000c 1368     		ldr	r3, [r2]
 1051 000e 5B00     		lsls	r3, r3, #1
 1052 0010 5B08     		lsrs	r3, r3, #1
 1053 0012 1360     		str	r3, [r2]
 683:Generated_Source\PSoC4/SmartIO_Port2.c ****         SmartIO_Port2_DU_CTL = (uint32)(((dataSize - 1u) << CYFLD_PRGIO_PRT_DU_SIZE__OFFSET))
 1054              		.loc 1 683 0
 1055 0014 0139     		subs	r1, r1, #1
 1056              	.LVL96:
 684:Generated_Source\PSoC4/SmartIO_Port2.c ****                          | (uint32)((opCode << CYFLD_PRGIO_PRT_DU_OPC__OFFSET));       
 1057              		.loc 1 684 0
 1058 0016 0002     		lsls	r0, r0, #8
 1059              	.LVL97:
 1060 0018 0843     		orrs	r0, r1
 683:Generated_Source\PSoC4/SmartIO_Port2.c ****         SmartIO_Port2_DU_CTL = (uint32)(((dataSize - 1u) << CYFLD_PRGIO_PRT_DU_SIZE__OFFSET))
ARM GAS  C:\Users\MICHAE~1.MAC\AppData\Local\Temp\cctIS3p0.s 			page 32


 1061              		.loc 1 683 0
 1062 001a 074B     		ldr	r3, .L73+4
 1063 001c 1860     		str	r0, [r3]
 685:Generated_Source\PSoC4/SmartIO_Port2.c ****         /* Re-enable the block */
 686:Generated_Source\PSoC4/SmartIO_Port2.c ****         SmartIO_Port2_Enable();
 1064              		.loc 1 686 0
 1065 001e 1368     		ldr	r3, [r2]
 1066 0020 8021     		movs	r1, #128
 1067              	.LVL98:
 1068 0022 0906     		lsls	r1, r1, #24
 1069 0024 0B43     		orrs	r3, r1
 1070 0026 1360     		str	r3, [r2]
 673:Generated_Source\PSoC4/SmartIO_Port2.c ****     
 1071              		.loc 1 673 0
 1072 0028 0020     		movs	r0, #0
 1073 002a 02E0     		b	.L70
 1074              	.LVL99:
 1075              	.L71:
 677:Generated_Source\PSoC4/SmartIO_Port2.c ****     }
 1076              		.loc 1 677 0
 1077 002c 0120     		movs	r0, #1
 1078              	.LVL100:
 1079 002e 00E0     		b	.L70
 1080              	.LVL101:
 1081              	.L72:
 1082 0030 0120     		movs	r0, #1
 1083              	.LVL102:
 1084              	.L70:
 687:Generated_Source\PSoC4/SmartIO_Port2.c ****     }
 688:Generated_Source\PSoC4/SmartIO_Port2.c ****     
 689:Generated_Source\PSoC4/SmartIO_Port2.c ****     return callStatus;
 690:Generated_Source\PSoC4/SmartIO_Port2.c **** }
 1085              		.loc 1 690 0
 1086              		@ sp needed
 1087 0032 7047     		bx	lr
 1088              	.L74:
 1089              		.align	2
 1090              	.L73:
 1091 0034 00000540 		.word	1074069504
 1092 0038 C4000540 		.word	1074069700
 1093              		.cfi_endproc
 1094              	.LFE13:
 1095              		.size	SmartIO_Port2_DU_OpCode, .-SmartIO_Port2_DU_OpCode
 1096              		.global	SmartIO_Port2_initVar
 1097              		.bss
 1098              		.align	2
 1099              		.set	.LANCHOR0,. + 0
 1100              		.type	SmartIO_Port2_clkConfig, %object
 1101              		.size	SmartIO_Port2_clkConfig, 4
 1102              	SmartIO_Port2_clkConfig:
 1103 0000 00000000 		.space	4
 1104              		.type	SmartIO_Port2_initVar, %object
 1105              		.size	SmartIO_Port2_initVar, 1
 1106              	SmartIO_Port2_initVar:
 1107 0004 00       		.space	1
 1108              		.text
 1109              	.Letext0:
ARM GAS  C:\Users\MICHAE~1.MAC\AppData\Local\Temp\cctIS3p0.s 			page 33


 1110              		.file 2 "c:\\program files (x86)\\cypress\\psoc creator\\4.2\\psoc creator\\import\\gnu\\arm\\5.4.
 1111              		.file 3 "c:\\program files (x86)\\cypress\\psoc creator\\4.2\\psoc creator\\import\\gnu\\arm\\5.4.
 1112              		.file 4 "Generated_Source\\PSoC4/cytypes.h"
 1113              		.file 5 "Generated_Source\\PSoC4\\SmartIO_Port2.h"