ARM GAS  C:\Users\MICHAE~1.MAC\AppData\Local\Temp\ccOICTN7.s 			page 1


   1              		.syntax unified
   2              		.cpu cortex-m0plus
   3              		.fpu softvfp
   4              		.eabi_attribute 20, 1
   5              		.eabi_attribute 21, 1
   6              		.eabi_attribute 23, 3
   7              		.eabi_attribute 24, 1
   8              		.eabi_attribute 25, 1
   9              		.eabi_attribute 26, 1
  10              		.eabi_attribute 30, 1
  11              		.eabi_attribute 34, 0
  12              		.eabi_attribute 18, 4
  13              		.thumb
  14              		.syntax unified
  15              		.file	"CapSense_1_Structure.c"
  16              		.text
  17              	.Ltext0:
  18              		.cfi_sections	.debug_frame
  19              		.section	.text.DsParseParamId,"ax",%progbits
  20              		.align	2
  21              		.code	16
  22              		.thumb_func
  23              		.type	DsParseParamId, %function
  24              	DsParseParamId:
  25              	.LFB2:
  26              		.file 1 "Generated_Source\\PSoC4\\CapSense_1_Structure.c"
   1:Generated_Source\PSoC4/CapSense_1_Structure.c **** /***************************************************************************//**
   2:Generated_Source\PSoC4/CapSense_1_Structure.c **** * \file CapSense_1_Structure.c
   3:Generated_Source\PSoC4/CapSense_1_Structure.c **** * \version 5.20
   4:Generated_Source\PSoC4/CapSense_1_Structure.c **** *
   5:Generated_Source\PSoC4/CapSense_1_Structure.c **** * \brief
   6:Generated_Source\PSoC4/CapSense_1_Structure.c **** *   This file defines the data structure global variables and provides implementation
   7:Generated_Source\PSoC4/CapSense_1_Structure.c **** *   for the high-level and low-level APIs of the Data Structure module.
   8:Generated_Source\PSoC4/CapSense_1_Structure.c **** *
   9:Generated_Source\PSoC4/CapSense_1_Structure.c **** * \see CapSense_1 v5.20 Datasheet
  10:Generated_Source\PSoC4/CapSense_1_Structure.c **** *
  11:Generated_Source\PSoC4/CapSense_1_Structure.c **** *//*****************************************************************************
  12:Generated_Source\PSoC4/CapSense_1_Structure.c **** * Copyright (2016-2018), Cypress Semiconductor Corporation.
  13:Generated_Source\PSoC4/CapSense_1_Structure.c **** ********************************************************************************
  14:Generated_Source\PSoC4/CapSense_1_Structure.c **** * This software is owned by Cypress Semiconductor Corporation (Cypress) and is
  15:Generated_Source\PSoC4/CapSense_1_Structure.c **** * protected by and subject to worldwide patent protection (United States and
  16:Generated_Source\PSoC4/CapSense_1_Structure.c **** * foreign), United States copyright laws and international treaty provisions.
  17:Generated_Source\PSoC4/CapSense_1_Structure.c **** * Cypress hereby grants to licensee a personal, non-exclusive, non-transferable
  18:Generated_Source\PSoC4/CapSense_1_Structure.c **** * license to copy, use, modify, create derivative works of, and compile the
  19:Generated_Source\PSoC4/CapSense_1_Structure.c **** * Cypress Source Code and derivative works for the sole purpose of creating
  20:Generated_Source\PSoC4/CapSense_1_Structure.c **** * custom software in support of licensee product to be used only in conjunction
  21:Generated_Source\PSoC4/CapSense_1_Structure.c **** * with a Cypress integrated circuit as specified in the applicable agreement.
  22:Generated_Source\PSoC4/CapSense_1_Structure.c **** * Any reproduction, modification, translation, compilation, or representation of
  23:Generated_Source\PSoC4/CapSense_1_Structure.c **** * this software except as specified above is prohibited without the express
  24:Generated_Source\PSoC4/CapSense_1_Structure.c **** * written permission of Cypress.
  25:Generated_Source\PSoC4/CapSense_1_Structure.c **** *
  26:Generated_Source\PSoC4/CapSense_1_Structure.c **** * Disclaimer: CYPRESS MAKES NO WARRANTY OF ANY KIND, EXPRESS OR IMPLIED, WITH
  27:Generated_Source\PSoC4/CapSense_1_Structure.c **** * REGARD TO THIS MATERIAL, INCLUDING, BUT NOT LIMITED TO, THE IMPLIED
  28:Generated_Source\PSoC4/CapSense_1_Structure.c **** * WARRANTIES OF MERCHANTABILITY AND FITNESS FOR A PARTICULAR PURPOSE.
  29:Generated_Source\PSoC4/CapSense_1_Structure.c **** * Cypress reserves the right to make changes without further notice to the
  30:Generated_Source\PSoC4/CapSense_1_Structure.c **** * materials described herein. Cypress does not assume any liability arising out
  31:Generated_Source\PSoC4/CapSense_1_Structure.c **** * of the application or use of any product or circuit described herein. Cypress
ARM GAS  C:\Users\MICHAE~1.MAC\AppData\Local\Temp\ccOICTN7.s 			page 2


  32:Generated_Source\PSoC4/CapSense_1_Structure.c **** * does not authorize its products for use as critical components in life-support
  33:Generated_Source\PSoC4/CapSense_1_Structure.c **** * systems where a malfunction or failure may reasonably be expected to result in
  34:Generated_Source\PSoC4/CapSense_1_Structure.c **** * significant injury to the user. The inclusion of Cypress' product in a life-
  35:Generated_Source\PSoC4/CapSense_1_Structure.c **** * support systems application implies that the manufacturer assumes all risk of
  36:Generated_Source\PSoC4/CapSense_1_Structure.c **** * such use and in doing so indemnifies Cypress against all charges. Use may be
  37:Generated_Source\PSoC4/CapSense_1_Structure.c **** * limited by and subject to the applicable Cypress software license agreement.
  38:Generated_Source\PSoC4/CapSense_1_Structure.c **** *******************************************************************************/
  39:Generated_Source\PSoC4/CapSense_1_Structure.c **** 
  40:Generated_Source\PSoC4/CapSense_1_Structure.c **** #include <cytypes.h>
  41:Generated_Source\PSoC4/CapSense_1_Structure.c **** #include "CyLib.h"
  42:Generated_Source\PSoC4/CapSense_1_Structure.c **** #include "CapSense_1_Structure.h"
  43:Generated_Source\PSoC4/CapSense_1_Structure.c **** #include "CapSense_1_Configuration.h"
  44:Generated_Source\PSoC4/CapSense_1_Structure.c **** 
  45:Generated_Source\PSoC4/CapSense_1_Structure.c **** #if (0u != CapSense_1_ADC_EN)
  46:Generated_Source\PSoC4/CapSense_1_Structure.c ****     #include "CapSense_1_Adc.h"
  47:Generated_Source\PSoC4/CapSense_1_Structure.c **** #endif /* (0u != CapSense_1_ADC_EN) */
  48:Generated_Source\PSoC4/CapSense_1_Structure.c **** 
  49:Generated_Source\PSoC4/CapSense_1_Structure.c **** #if (CapSense_1_ENABLE == CapSense_1_SELF_TEST_EN)
  50:Generated_Source\PSoC4/CapSense_1_Structure.c ****     #include "CapSense_1_SelfTest.h"
  51:Generated_Source\PSoC4/CapSense_1_Structure.c **** #endif
  52:Generated_Source\PSoC4/CapSense_1_Structure.c **** 
  53:Generated_Source\PSoC4/CapSense_1_Structure.c **** #if (CapSense_1_ENABLE == CapSense_1_CENTROID_5X5_CSD_EN)
  54:Generated_Source\PSoC4/CapSense_1_Structure.c ****     #include "CapSense_1_AdvancedCentroid_LL.h"
  55:Generated_Source\PSoC4/CapSense_1_Structure.c **** #endif
  56:Generated_Source\PSoC4/CapSense_1_Structure.c **** 
  57:Generated_Source\PSoC4/CapSense_1_Structure.c **** #if (CapSense_1_ENABLE == CapSense_1_GES_GLOBAL_EN)
  58:Generated_Source\PSoC4/CapSense_1_Structure.c ****     #include "CapSense_1_Gesture.h"
  59:Generated_Source\PSoC4/CapSense_1_Structure.c **** #endif /* (CapSense_1_ENABLE == CapSense_1_GES_GLOBAL_EN) */
  60:Generated_Source\PSoC4/CapSense_1_Structure.c **** 
  61:Generated_Source\PSoC4/CapSense_1_Structure.c **** /*******************************************************************************
  62:Generated_Source\PSoC4/CapSense_1_Structure.c **** * Defines the RAM Data Structure variables and their init data in flash
  63:Generated_Source\PSoC4/CapSense_1_Structure.c **** *******************************************************************************/
  64:Generated_Source\PSoC4/CapSense_1_Structure.c **** /**
  65:Generated_Source\PSoC4/CapSense_1_Structure.c **** * \cond SECTION_GLOBAL_VARIABLES
  66:Generated_Source\PSoC4/CapSense_1_Structure.c **** * \addtogroup group_global_variables
  67:Generated_Source\PSoC4/CapSense_1_Structure.c **** * \{
  68:Generated_Source\PSoC4/CapSense_1_Structure.c **** */
  69:Generated_Source\PSoC4/CapSense_1_Structure.c **** 
  70:Generated_Source\PSoC4/CapSense_1_Structure.c **** /**
  71:Generated_Source\PSoC4/CapSense_1_Structure.c **** * The variable that contains the CapSense_1 configuration, settings and
  72:Generated_Source\PSoC4/CapSense_1_Structure.c **** * scanning results. CapSense_1_dsRam represents RAM Data Structure.
  73:Generated_Source\PSoC4/CapSense_1_Structure.c **** */
  74:Generated_Source\PSoC4/CapSense_1_Structure.c **** CapSense_1_RAM_STRUCT CapSense_1_dsRam;
  75:Generated_Source\PSoC4/CapSense_1_Structure.c **** /** \}
  76:Generated_Source\PSoC4/CapSense_1_Structure.c **** * \endcond */
  77:Generated_Source\PSoC4/CapSense_1_Structure.c **** 
  78:Generated_Source\PSoC4/CapSense_1_Structure.c **** /*******************************************************************************
  79:Generated_Source\PSoC4/CapSense_1_Structure.c **** * Declares Widget's De-bounce Counters
  80:Generated_Source\PSoC4/CapSense_1_Structure.c **** *******************************************************************************/
  81:Generated_Source\PSoC4/CapSense_1_Structure.c **** static uint8 CapSense_1_debounceButton0[CapSense_1_BUTTON0_NUM_SENSORS];
  82:Generated_Source\PSoC4/CapSense_1_Structure.c **** static uint8 CapSense_1_debounceButton1[CapSense_1_BUTTON1_NUM_SENSORS];
  83:Generated_Source\PSoC4/CapSense_1_Structure.c **** static uint8 CapSense_1_debounceButton2[CapSense_1_BUTTON2_NUM_SENSORS];
  84:Generated_Source\PSoC4/CapSense_1_Structure.c **** static uint8 CapSense_1_debounceButton3[CapSense_1_BUTTON3_NUM_SENSORS];
  85:Generated_Source\PSoC4/CapSense_1_Structure.c **** static uint8 CapSense_1_debounceButton4[CapSense_1_BUTTON4_NUM_SENSORS];
  86:Generated_Source\PSoC4/CapSense_1_Structure.c **** static uint8 CapSense_1_debounceButton5[CapSense_1_BUTTON5_NUM_SENSORS];
  87:Generated_Source\PSoC4/CapSense_1_Structure.c **** 
  88:Generated_Source\PSoC4/CapSense_1_Structure.c **** 
ARM GAS  C:\Users\MICHAE~1.MAC\AppData\Local\Temp\ccOICTN7.s 			page 3


  89:Generated_Source\PSoC4/CapSense_1_Structure.c **** /***************************************************************************//**
  90:Generated_Source\PSoC4/CapSense_1_Structure.c **** * Declares Filter History Objects
  91:Generated_Source\PSoC4/CapSense_1_Structure.c **** *******************************************************************************/
  92:Generated_Source\PSoC4/CapSense_1_Structure.c **** static CapSense_1_REGULAR_FLTR_STRUCT CapSense_1_fltrHistoryButton0[CapSense_1_BUTTON0_NUM_SENSORS]
  93:Generated_Source\PSoC4/CapSense_1_Structure.c **** static CapSense_1_REGULAR_FLTR_STRUCT CapSense_1_fltrHistoryButton1[CapSense_1_BUTTON1_NUM_SENSORS]
  94:Generated_Source\PSoC4/CapSense_1_Structure.c **** static CapSense_1_REGULAR_FLTR_STRUCT CapSense_1_fltrHistoryButton2[CapSense_1_BUTTON2_NUM_SENSORS]
  95:Generated_Source\PSoC4/CapSense_1_Structure.c **** static CapSense_1_REGULAR_FLTR_STRUCT CapSense_1_fltrHistoryButton3[CapSense_1_BUTTON3_NUM_SENSORS]
  96:Generated_Source\PSoC4/CapSense_1_Structure.c **** static CapSense_1_REGULAR_FLTR_STRUCT CapSense_1_fltrHistoryButton4[CapSense_1_BUTTON4_NUM_SENSORS]
  97:Generated_Source\PSoC4/CapSense_1_Structure.c **** static CapSense_1_REGULAR_FLTR_STRUCT CapSense_1_fltrHistoryButton5[CapSense_1_BUTTON5_NUM_SENSORS]
  98:Generated_Source\PSoC4/CapSense_1_Structure.c **** 
  99:Generated_Source\PSoC4/CapSense_1_Structure.c **** /*******************************************************************************
 100:Generated_Source\PSoC4/CapSense_1_Structure.c **** * Defines and initializes the Flash Data Structure
 101:Generated_Source\PSoC4/CapSense_1_Structure.c **** *******************************************************************************/
 102:Generated_Source\PSoC4/CapSense_1_Structure.c **** 
 103:Generated_Source\PSoC4/CapSense_1_Structure.c **** 
 104:Generated_Source\PSoC4/CapSense_1_Structure.c **** 
 105:Generated_Source\PSoC4/CapSense_1_Structure.c **** /**
 106:Generated_Source\PSoC4/CapSense_1_Structure.c **** * \cond SECTION_API_CONSTANTS
 107:Generated_Source\PSoC4/CapSense_1_Structure.c **** * \addtogroup group_api_constants
 108:Generated_Source\PSoC4/CapSense_1_Structure.c **** * \{
 109:Generated_Source\PSoC4/CapSense_1_Structure.c **** */
 110:Generated_Source\PSoC4/CapSense_1_Structure.c **** /**
 111:Generated_Source\PSoC4/CapSense_1_Structure.c **** * Constant for the FLASH Data Structure
 112:Generated_Source\PSoC4/CapSense_1_Structure.c **** */
 113:Generated_Source\PSoC4/CapSense_1_Structure.c **** const CapSense_1_FLASH_STRUCT CapSense_1_dsFlash =
 114:Generated_Source\PSoC4/CapSense_1_Structure.c **** {
 115:Generated_Source\PSoC4/CapSense_1_Structure.c ****     /* Flash Widget Initialization Data */
 116:Generated_Source\PSoC4/CapSense_1_Structure.c ****     {
 117:Generated_Source\PSoC4/CapSense_1_Structure.c ****         { /* Button0 */
 118:Generated_Source\PSoC4/CapSense_1_Structure.c ****             &CapSense_1_ioList[0u],
 119:Generated_Source\PSoC4/CapSense_1_Structure.c ****             (void *)&CapSense_1_dsRam.wdgtList.button0,
 120:Generated_Source\PSoC4/CapSense_1_Structure.c ****             CapSense_1_dsRam.snsList.button0,
 121:Generated_Source\PSoC4/CapSense_1_Structure.c ****             (void *)CapSense_1_fltrHistoryButton0,
 122:Generated_Source\PSoC4/CapSense_1_Structure.c ****             CapSense_1_debounceButton0,
 123:Generated_Source\PSoC4/CapSense_1_Structure.c ****             CapSense_1_BUTTON0_STATIC_CONFIG,
 124:Generated_Source\PSoC4/CapSense_1_Structure.c ****             CapSense_1_BUTTON0_NUM_SENSORS,
 125:Generated_Source\PSoC4/CapSense_1_Structure.c ****             (uint8)CapSense_1_WD_BUTTON_E,
 126:Generated_Source\PSoC4/CapSense_1_Structure.c ****             CapSense_1_BUTTON0_NUM_SENSORS,
 127:Generated_Source\PSoC4/CapSense_1_Structure.c ****             1u,
 128:Generated_Source\PSoC4/CapSense_1_Structure.c ****         },
 129:Generated_Source\PSoC4/CapSense_1_Structure.c ****         { /* Button1 */
 130:Generated_Source\PSoC4/CapSense_1_Structure.c ****             &CapSense_1_ioList[2u],
 131:Generated_Source\PSoC4/CapSense_1_Structure.c ****             (void *)&CapSense_1_dsRam.wdgtList.button1,
 132:Generated_Source\PSoC4/CapSense_1_Structure.c ****             CapSense_1_dsRam.snsList.button1,
 133:Generated_Source\PSoC4/CapSense_1_Structure.c ****             (void *)CapSense_1_fltrHistoryButton1,
 134:Generated_Source\PSoC4/CapSense_1_Structure.c ****             CapSense_1_debounceButton1,
 135:Generated_Source\PSoC4/CapSense_1_Structure.c ****             CapSense_1_BUTTON1_STATIC_CONFIG,
 136:Generated_Source\PSoC4/CapSense_1_Structure.c ****             CapSense_1_BUTTON1_NUM_SENSORS,
 137:Generated_Source\PSoC4/CapSense_1_Structure.c ****             (uint8)CapSense_1_WD_BUTTON_E,
 138:Generated_Source\PSoC4/CapSense_1_Structure.c ****             CapSense_1_BUTTON1_NUM_SENSORS,
 139:Generated_Source\PSoC4/CapSense_1_Structure.c ****             1u,
 140:Generated_Source\PSoC4/CapSense_1_Structure.c ****         },
 141:Generated_Source\PSoC4/CapSense_1_Structure.c ****         { /* Button2 */
 142:Generated_Source\PSoC4/CapSense_1_Structure.c ****             &CapSense_1_ioList[4u],
 143:Generated_Source\PSoC4/CapSense_1_Structure.c ****             (void *)&CapSense_1_dsRam.wdgtList.button2,
 144:Generated_Source\PSoC4/CapSense_1_Structure.c ****             CapSense_1_dsRam.snsList.button2,
 145:Generated_Source\PSoC4/CapSense_1_Structure.c ****             (void *)CapSense_1_fltrHistoryButton2,
ARM GAS  C:\Users\MICHAE~1.MAC\AppData\Local\Temp\ccOICTN7.s 			page 4


 146:Generated_Source\PSoC4/CapSense_1_Structure.c ****             CapSense_1_debounceButton2,
 147:Generated_Source\PSoC4/CapSense_1_Structure.c ****             CapSense_1_BUTTON2_STATIC_CONFIG,
 148:Generated_Source\PSoC4/CapSense_1_Structure.c ****             CapSense_1_BUTTON2_NUM_SENSORS,
 149:Generated_Source\PSoC4/CapSense_1_Structure.c ****             (uint8)CapSense_1_WD_BUTTON_E,
 150:Generated_Source\PSoC4/CapSense_1_Structure.c ****             CapSense_1_BUTTON2_NUM_SENSORS,
 151:Generated_Source\PSoC4/CapSense_1_Structure.c ****             1u,
 152:Generated_Source\PSoC4/CapSense_1_Structure.c ****         },
 153:Generated_Source\PSoC4/CapSense_1_Structure.c ****         { /* Button3 */
 154:Generated_Source\PSoC4/CapSense_1_Structure.c ****             &CapSense_1_ioList[6u],
 155:Generated_Source\PSoC4/CapSense_1_Structure.c ****             (void *)&CapSense_1_dsRam.wdgtList.button3,
 156:Generated_Source\PSoC4/CapSense_1_Structure.c ****             CapSense_1_dsRam.snsList.button3,
 157:Generated_Source\PSoC4/CapSense_1_Structure.c ****             (void *)CapSense_1_fltrHistoryButton3,
 158:Generated_Source\PSoC4/CapSense_1_Structure.c ****             CapSense_1_debounceButton3,
 159:Generated_Source\PSoC4/CapSense_1_Structure.c ****             CapSense_1_BUTTON3_STATIC_CONFIG,
 160:Generated_Source\PSoC4/CapSense_1_Structure.c ****             CapSense_1_BUTTON3_NUM_SENSORS,
 161:Generated_Source\PSoC4/CapSense_1_Structure.c ****             (uint8)CapSense_1_WD_BUTTON_E,
 162:Generated_Source\PSoC4/CapSense_1_Structure.c ****             CapSense_1_BUTTON3_NUM_SENSORS,
 163:Generated_Source\PSoC4/CapSense_1_Structure.c ****             1u,
 164:Generated_Source\PSoC4/CapSense_1_Structure.c ****         },
 165:Generated_Source\PSoC4/CapSense_1_Structure.c ****         { /* Button4 */
 166:Generated_Source\PSoC4/CapSense_1_Structure.c ****             &CapSense_1_ioList[8u],
 167:Generated_Source\PSoC4/CapSense_1_Structure.c ****             (void *)&CapSense_1_dsRam.wdgtList.button4,
 168:Generated_Source\PSoC4/CapSense_1_Structure.c ****             CapSense_1_dsRam.snsList.button4,
 169:Generated_Source\PSoC4/CapSense_1_Structure.c ****             (void *)CapSense_1_fltrHistoryButton4,
 170:Generated_Source\PSoC4/CapSense_1_Structure.c ****             CapSense_1_debounceButton4,
 171:Generated_Source\PSoC4/CapSense_1_Structure.c ****             CapSense_1_BUTTON4_STATIC_CONFIG,
 172:Generated_Source\PSoC4/CapSense_1_Structure.c ****             CapSense_1_BUTTON4_NUM_SENSORS,
 173:Generated_Source\PSoC4/CapSense_1_Structure.c ****             (uint8)CapSense_1_WD_BUTTON_E,
 174:Generated_Source\PSoC4/CapSense_1_Structure.c ****             CapSense_1_BUTTON4_NUM_SENSORS,
 175:Generated_Source\PSoC4/CapSense_1_Structure.c ****             1u,
 176:Generated_Source\PSoC4/CapSense_1_Structure.c ****         },
 177:Generated_Source\PSoC4/CapSense_1_Structure.c ****         { /* Button5 */
 178:Generated_Source\PSoC4/CapSense_1_Structure.c ****             &CapSense_1_ioList[10u],
 179:Generated_Source\PSoC4/CapSense_1_Structure.c ****             (void *)&CapSense_1_dsRam.wdgtList.button5,
 180:Generated_Source\PSoC4/CapSense_1_Structure.c ****             CapSense_1_dsRam.snsList.button5,
 181:Generated_Source\PSoC4/CapSense_1_Structure.c ****             (void *)CapSense_1_fltrHistoryButton5,
 182:Generated_Source\PSoC4/CapSense_1_Structure.c ****             CapSense_1_debounceButton5,
 183:Generated_Source\PSoC4/CapSense_1_Structure.c ****             CapSense_1_BUTTON5_STATIC_CONFIG,
 184:Generated_Source\PSoC4/CapSense_1_Structure.c ****             CapSense_1_BUTTON5_NUM_SENSORS,
 185:Generated_Source\PSoC4/CapSense_1_Structure.c ****             (uint8)CapSense_1_WD_BUTTON_E,
 186:Generated_Source\PSoC4/CapSense_1_Structure.c ****             CapSense_1_BUTTON5_NUM_SENSORS,
 187:Generated_Source\PSoC4/CapSense_1_Structure.c ****             1u,
 188:Generated_Source\PSoC4/CapSense_1_Structure.c ****         },
 189:Generated_Source\PSoC4/CapSense_1_Structure.c ****     },
 190:Generated_Source\PSoC4/CapSense_1_Structure.c **** };
 191:Generated_Source\PSoC4/CapSense_1_Structure.c **** 
 192:Generated_Source\PSoC4/CapSense_1_Structure.c **** /**
 193:Generated_Source\PSoC4/CapSense_1_Structure.c **** * The array of the pointers to the electrode specific register.
 194:Generated_Source\PSoC4/CapSense_1_Structure.c **** */
 195:Generated_Source\PSoC4/CapSense_1_Structure.c **** const CapSense_1_FLASH_IO_STRUCT CapSense_1_ioList[CapSense_1_TOTAL_ELECTRODES] =
 196:Generated_Source\PSoC4/CapSense_1_Structure.c **** {
 197:Generated_Source\PSoC4/CapSense_1_Structure.c ****     { /* 0: Button0_Rx0 */
 198:Generated_Source\PSoC4/CapSense_1_Structure.c ****         (reg32 *)CapSense_1_Rx__0__HSIOM,
 199:Generated_Source\PSoC4/CapSense_1_Structure.c ****         (reg32 *)CapSense_1_Rx__0__PC,
 200:Generated_Source\PSoC4/CapSense_1_Structure.c ****         (reg32 *)CapSense_1_Rx__0__DR,
 201:Generated_Source\PSoC4/CapSense_1_Structure.c ****         (reg32 *)CapSense_1_Rx__0__PS,
 202:Generated_Source\PSoC4/CapSense_1_Structure.c ****         CapSense_1_Rx__0__HSIOM_MASK,
ARM GAS  C:\Users\MICHAE~1.MAC\AppData\Local\Temp\ccOICTN7.s 			page 5


 203:Generated_Source\PSoC4/CapSense_1_Structure.c ****         CapSense_1_Rx__0__MASK,
 204:Generated_Source\PSoC4/CapSense_1_Structure.c ****         CapSense_1_Rx__0__HSIOM_SHIFT,
 205:Generated_Source\PSoC4/CapSense_1_Structure.c ****         (uint8)CapSense_1_Rx__0__SHIFT,
 206:Generated_Source\PSoC4/CapSense_1_Structure.c ****         (uint8)CapSense_1_Rx__0__SHIFT * 3u,
 207:Generated_Source\PSoC4/CapSense_1_Structure.c ****     },
 208:Generated_Source\PSoC4/CapSense_1_Structure.c ****     { /* 1: Button0_Tx */
 209:Generated_Source\PSoC4/CapSense_1_Structure.c ****         (reg32 *)CapSense_1_Tx__0__HSIOM,
 210:Generated_Source\PSoC4/CapSense_1_Structure.c ****         (reg32 *)CapSense_1_Tx__0__PC,
 211:Generated_Source\PSoC4/CapSense_1_Structure.c ****         (reg32 *)CapSense_1_Tx__0__DR,
 212:Generated_Source\PSoC4/CapSense_1_Structure.c ****         (reg32 *)CapSense_1_Tx__0__PS,
 213:Generated_Source\PSoC4/CapSense_1_Structure.c ****         CapSense_1_Tx__0__HSIOM_MASK,
 214:Generated_Source\PSoC4/CapSense_1_Structure.c ****         CapSense_1_Tx__0__MASK,
 215:Generated_Source\PSoC4/CapSense_1_Structure.c ****         CapSense_1_Tx__0__HSIOM_SHIFT,
 216:Generated_Source\PSoC4/CapSense_1_Structure.c ****         (uint8)CapSense_1_Tx__0__SHIFT,
 217:Generated_Source\PSoC4/CapSense_1_Structure.c ****         (uint8)CapSense_1_Tx__0__SHIFT * 3u,
 218:Generated_Source\PSoC4/CapSense_1_Structure.c ****     },
 219:Generated_Source\PSoC4/CapSense_1_Structure.c ****     { /* 2: Button1_Rx0 */
 220:Generated_Source\PSoC4/CapSense_1_Structure.c ****         (reg32 *)CapSense_1_Rx__1__HSIOM,
 221:Generated_Source\PSoC4/CapSense_1_Structure.c ****         (reg32 *)CapSense_1_Rx__1__PC,
 222:Generated_Source\PSoC4/CapSense_1_Structure.c ****         (reg32 *)CapSense_1_Rx__1__DR,
 223:Generated_Source\PSoC4/CapSense_1_Structure.c ****         (reg32 *)CapSense_1_Rx__1__PS,
 224:Generated_Source\PSoC4/CapSense_1_Structure.c ****         CapSense_1_Rx__1__HSIOM_MASK,
 225:Generated_Source\PSoC4/CapSense_1_Structure.c ****         CapSense_1_Rx__1__MASK,
 226:Generated_Source\PSoC4/CapSense_1_Structure.c ****         CapSense_1_Rx__1__HSIOM_SHIFT,
 227:Generated_Source\PSoC4/CapSense_1_Structure.c ****         (uint8)CapSense_1_Rx__1__SHIFT,
 228:Generated_Source\PSoC4/CapSense_1_Structure.c ****         (uint8)CapSense_1_Rx__1__SHIFT * 3u,
 229:Generated_Source\PSoC4/CapSense_1_Structure.c ****     },
 230:Generated_Source\PSoC4/CapSense_1_Structure.c ****     { /* 3: Button0_Tx ganged to Button1_Tx */
 231:Generated_Source\PSoC4/CapSense_1_Structure.c ****         (reg32 *)CapSense_1_Tx__0__HSIOM,
 232:Generated_Source\PSoC4/CapSense_1_Structure.c ****         (reg32 *)CapSense_1_Tx__0__PC,
 233:Generated_Source\PSoC4/CapSense_1_Structure.c ****         (reg32 *)CapSense_1_Tx__0__DR,
 234:Generated_Source\PSoC4/CapSense_1_Structure.c ****         (reg32 *)CapSense_1_Tx__0__PS,
 235:Generated_Source\PSoC4/CapSense_1_Structure.c ****         CapSense_1_Tx__0__HSIOM_MASK,
 236:Generated_Source\PSoC4/CapSense_1_Structure.c ****         CapSense_1_Tx__0__MASK,
 237:Generated_Source\PSoC4/CapSense_1_Structure.c ****         CapSense_1_Tx__0__HSIOM_SHIFT,
 238:Generated_Source\PSoC4/CapSense_1_Structure.c ****         (uint8)CapSense_1_Tx__0__SHIFT,
 239:Generated_Source\PSoC4/CapSense_1_Structure.c ****         (uint8)CapSense_1_Tx__0__SHIFT * 3u,
 240:Generated_Source\PSoC4/CapSense_1_Structure.c ****     },
 241:Generated_Source\PSoC4/CapSense_1_Structure.c ****     { /* 4: Button2_Rx0 */
 242:Generated_Source\PSoC4/CapSense_1_Structure.c ****         (reg32 *)CapSense_1_Rx__2__HSIOM,
 243:Generated_Source\PSoC4/CapSense_1_Structure.c ****         (reg32 *)CapSense_1_Rx__2__PC,
 244:Generated_Source\PSoC4/CapSense_1_Structure.c ****         (reg32 *)CapSense_1_Rx__2__DR,
 245:Generated_Source\PSoC4/CapSense_1_Structure.c ****         (reg32 *)CapSense_1_Rx__2__PS,
 246:Generated_Source\PSoC4/CapSense_1_Structure.c ****         CapSense_1_Rx__2__HSIOM_MASK,
 247:Generated_Source\PSoC4/CapSense_1_Structure.c ****         CapSense_1_Rx__2__MASK,
 248:Generated_Source\PSoC4/CapSense_1_Structure.c ****         CapSense_1_Rx__2__HSIOM_SHIFT,
 249:Generated_Source\PSoC4/CapSense_1_Structure.c ****         (uint8)CapSense_1_Rx__2__SHIFT,
 250:Generated_Source\PSoC4/CapSense_1_Structure.c ****         (uint8)CapSense_1_Rx__2__SHIFT * 3u,
 251:Generated_Source\PSoC4/CapSense_1_Structure.c ****     },
 252:Generated_Source\PSoC4/CapSense_1_Structure.c ****     { /* 5: Button0_Tx ganged to Button2_Tx */
 253:Generated_Source\PSoC4/CapSense_1_Structure.c ****         (reg32 *)CapSense_1_Tx__0__HSIOM,
 254:Generated_Source\PSoC4/CapSense_1_Structure.c ****         (reg32 *)CapSense_1_Tx__0__PC,
 255:Generated_Source\PSoC4/CapSense_1_Structure.c ****         (reg32 *)CapSense_1_Tx__0__DR,
 256:Generated_Source\PSoC4/CapSense_1_Structure.c ****         (reg32 *)CapSense_1_Tx__0__PS,
 257:Generated_Source\PSoC4/CapSense_1_Structure.c ****         CapSense_1_Tx__0__HSIOM_MASK,
 258:Generated_Source\PSoC4/CapSense_1_Structure.c ****         CapSense_1_Tx__0__MASK,
 259:Generated_Source\PSoC4/CapSense_1_Structure.c ****         CapSense_1_Tx__0__HSIOM_SHIFT,
ARM GAS  C:\Users\MICHAE~1.MAC\AppData\Local\Temp\ccOICTN7.s 			page 6


 260:Generated_Source\PSoC4/CapSense_1_Structure.c ****         (uint8)CapSense_1_Tx__0__SHIFT,
 261:Generated_Source\PSoC4/CapSense_1_Structure.c ****         (uint8)CapSense_1_Tx__0__SHIFT * 3u,
 262:Generated_Source\PSoC4/CapSense_1_Structure.c ****     },
 263:Generated_Source\PSoC4/CapSense_1_Structure.c ****     { /* 6: Button3_Rx0 */
 264:Generated_Source\PSoC4/CapSense_1_Structure.c ****         (reg32 *)CapSense_1_Rx__3__HSIOM,
 265:Generated_Source\PSoC4/CapSense_1_Structure.c ****         (reg32 *)CapSense_1_Rx__3__PC,
 266:Generated_Source\PSoC4/CapSense_1_Structure.c ****         (reg32 *)CapSense_1_Rx__3__DR,
 267:Generated_Source\PSoC4/CapSense_1_Structure.c ****         (reg32 *)CapSense_1_Rx__3__PS,
 268:Generated_Source\PSoC4/CapSense_1_Structure.c ****         CapSense_1_Rx__3__HSIOM_MASK,
 269:Generated_Source\PSoC4/CapSense_1_Structure.c ****         CapSense_1_Rx__3__MASK,
 270:Generated_Source\PSoC4/CapSense_1_Structure.c ****         CapSense_1_Rx__3__HSIOM_SHIFT,
 271:Generated_Source\PSoC4/CapSense_1_Structure.c ****         (uint8)CapSense_1_Rx__3__SHIFT,
 272:Generated_Source\PSoC4/CapSense_1_Structure.c ****         (uint8)CapSense_1_Rx__3__SHIFT * 3u,
 273:Generated_Source\PSoC4/CapSense_1_Structure.c ****     },
 274:Generated_Source\PSoC4/CapSense_1_Structure.c ****     { /* 7: Button0_Tx ganged to Button3_Tx */
 275:Generated_Source\PSoC4/CapSense_1_Structure.c ****         (reg32 *)CapSense_1_Tx__0__HSIOM,
 276:Generated_Source\PSoC4/CapSense_1_Structure.c ****         (reg32 *)CapSense_1_Tx__0__PC,
 277:Generated_Source\PSoC4/CapSense_1_Structure.c ****         (reg32 *)CapSense_1_Tx__0__DR,
 278:Generated_Source\PSoC4/CapSense_1_Structure.c ****         (reg32 *)CapSense_1_Tx__0__PS,
 279:Generated_Source\PSoC4/CapSense_1_Structure.c ****         CapSense_1_Tx__0__HSIOM_MASK,
 280:Generated_Source\PSoC4/CapSense_1_Structure.c ****         CapSense_1_Tx__0__MASK,
 281:Generated_Source\PSoC4/CapSense_1_Structure.c ****         CapSense_1_Tx__0__HSIOM_SHIFT,
 282:Generated_Source\PSoC4/CapSense_1_Structure.c ****         (uint8)CapSense_1_Tx__0__SHIFT,
 283:Generated_Source\PSoC4/CapSense_1_Structure.c ****         (uint8)CapSense_1_Tx__0__SHIFT * 3u,
 284:Generated_Source\PSoC4/CapSense_1_Structure.c ****     },
 285:Generated_Source\PSoC4/CapSense_1_Structure.c ****     { /* 8: Button4_Rx0 */
 286:Generated_Source\PSoC4/CapSense_1_Structure.c ****         (reg32 *)CapSense_1_Rx__4__HSIOM,
 287:Generated_Source\PSoC4/CapSense_1_Structure.c ****         (reg32 *)CapSense_1_Rx__4__PC,
 288:Generated_Source\PSoC4/CapSense_1_Structure.c ****         (reg32 *)CapSense_1_Rx__4__DR,
 289:Generated_Source\PSoC4/CapSense_1_Structure.c ****         (reg32 *)CapSense_1_Rx__4__PS,
 290:Generated_Source\PSoC4/CapSense_1_Structure.c ****         CapSense_1_Rx__4__HSIOM_MASK,
 291:Generated_Source\PSoC4/CapSense_1_Structure.c ****         CapSense_1_Rx__4__MASK,
 292:Generated_Source\PSoC4/CapSense_1_Structure.c ****         CapSense_1_Rx__4__HSIOM_SHIFT,
 293:Generated_Source\PSoC4/CapSense_1_Structure.c ****         (uint8)CapSense_1_Rx__4__SHIFT,
 294:Generated_Source\PSoC4/CapSense_1_Structure.c ****         (uint8)CapSense_1_Rx__4__SHIFT * 3u,
 295:Generated_Source\PSoC4/CapSense_1_Structure.c ****     },
 296:Generated_Source\PSoC4/CapSense_1_Structure.c ****     { /* 9: Button0_Tx ganged to Button4_Tx */
 297:Generated_Source\PSoC4/CapSense_1_Structure.c ****         (reg32 *)CapSense_1_Tx__0__HSIOM,
 298:Generated_Source\PSoC4/CapSense_1_Structure.c ****         (reg32 *)CapSense_1_Tx__0__PC,
 299:Generated_Source\PSoC4/CapSense_1_Structure.c ****         (reg32 *)CapSense_1_Tx__0__DR,
 300:Generated_Source\PSoC4/CapSense_1_Structure.c ****         (reg32 *)CapSense_1_Tx__0__PS,
 301:Generated_Source\PSoC4/CapSense_1_Structure.c ****         CapSense_1_Tx__0__HSIOM_MASK,
 302:Generated_Source\PSoC4/CapSense_1_Structure.c ****         CapSense_1_Tx__0__MASK,
 303:Generated_Source\PSoC4/CapSense_1_Structure.c ****         CapSense_1_Tx__0__HSIOM_SHIFT,
 304:Generated_Source\PSoC4/CapSense_1_Structure.c ****         (uint8)CapSense_1_Tx__0__SHIFT,
 305:Generated_Source\PSoC4/CapSense_1_Structure.c ****         (uint8)CapSense_1_Tx__0__SHIFT * 3u,
 306:Generated_Source\PSoC4/CapSense_1_Structure.c ****     },
 307:Generated_Source\PSoC4/CapSense_1_Structure.c ****     { /* 10: Button5_Rx0 */
 308:Generated_Source\PSoC4/CapSense_1_Structure.c ****         (reg32 *)CapSense_1_Rx__5__HSIOM,
 309:Generated_Source\PSoC4/CapSense_1_Structure.c ****         (reg32 *)CapSense_1_Rx__5__PC,
 310:Generated_Source\PSoC4/CapSense_1_Structure.c ****         (reg32 *)CapSense_1_Rx__5__DR,
 311:Generated_Source\PSoC4/CapSense_1_Structure.c ****         (reg32 *)CapSense_1_Rx__5__PS,
 312:Generated_Source\PSoC4/CapSense_1_Structure.c ****         CapSense_1_Rx__5__HSIOM_MASK,
 313:Generated_Source\PSoC4/CapSense_1_Structure.c ****         CapSense_1_Rx__5__MASK,
 314:Generated_Source\PSoC4/CapSense_1_Structure.c ****         CapSense_1_Rx__5__HSIOM_SHIFT,
 315:Generated_Source\PSoC4/CapSense_1_Structure.c ****         (uint8)CapSense_1_Rx__5__SHIFT,
 316:Generated_Source\PSoC4/CapSense_1_Structure.c ****         (uint8)CapSense_1_Rx__5__SHIFT * 3u,
ARM GAS  C:\Users\MICHAE~1.MAC\AppData\Local\Temp\ccOICTN7.s 			page 7


 317:Generated_Source\PSoC4/CapSense_1_Structure.c ****     },
 318:Generated_Source\PSoC4/CapSense_1_Structure.c ****     { /* 11: Button0_Tx ganged to Button5_Tx */
 319:Generated_Source\PSoC4/CapSense_1_Structure.c ****         (reg32 *)CapSense_1_Tx__0__HSIOM,
 320:Generated_Source\PSoC4/CapSense_1_Structure.c ****         (reg32 *)CapSense_1_Tx__0__PC,
 321:Generated_Source\PSoC4/CapSense_1_Structure.c ****         (reg32 *)CapSense_1_Tx__0__DR,
 322:Generated_Source\PSoC4/CapSense_1_Structure.c ****         (reg32 *)CapSense_1_Tx__0__PS,
 323:Generated_Source\PSoC4/CapSense_1_Structure.c ****         CapSense_1_Tx__0__HSIOM_MASK,
 324:Generated_Source\PSoC4/CapSense_1_Structure.c ****         CapSense_1_Tx__0__MASK,
 325:Generated_Source\PSoC4/CapSense_1_Structure.c ****         CapSense_1_Tx__0__HSIOM_SHIFT,
 326:Generated_Source\PSoC4/CapSense_1_Structure.c ****         (uint8)CapSense_1_Tx__0__SHIFT,
 327:Generated_Source\PSoC4/CapSense_1_Structure.c ****         (uint8)CapSense_1_Tx__0__SHIFT * 3u,
 328:Generated_Source\PSoC4/CapSense_1_Structure.c ****     },
 329:Generated_Source\PSoC4/CapSense_1_Structure.c **** };
 330:Generated_Source\PSoC4/CapSense_1_Structure.c **** 
 331:Generated_Source\PSoC4/CapSense_1_Structure.c **** 
 332:Generated_Source\PSoC4/CapSense_1_Structure.c **** 
 333:Generated_Source\PSoC4/CapSense_1_Structure.c **** /** \}
 334:Generated_Source\PSoC4/CapSense_1_Structure.c **** * \endcond */
 335:Generated_Source\PSoC4/CapSense_1_Structure.c **** 
 336:Generated_Source\PSoC4/CapSense_1_Structure.c **** /* Initialization data for RAM widget list */
 337:Generated_Source\PSoC4/CapSense_1_Structure.c **** const CapSense_1_RAM_WD_LIST_STRUCT CapSense_1_ramWidgetInit =
 338:Generated_Source\PSoC4/CapSense_1_Structure.c **** {
 339:Generated_Source\PSoC4/CapSense_1_Structure.c ****     { /* Button0 */
 340:Generated_Source\PSoC4/CapSense_1_Structure.c ****         CapSense_1_BUTTON0_RESOLUTION,
 341:Generated_Source\PSoC4/CapSense_1_Structure.c ****         CapSense_1_BUTTON0_FINGER_TH,
 342:Generated_Source\PSoC4/CapSense_1_Structure.c ****         CapSense_1_BUTTON0_NOISE_TH,
 343:Generated_Source\PSoC4/CapSense_1_Structure.c ****         CapSense_1_BUTTON0_NNOISE_TH,
 344:Generated_Source\PSoC4/CapSense_1_Structure.c ****         CapSense_1_BUTTON0_HYSTERESIS,
 345:Generated_Source\PSoC4/CapSense_1_Structure.c ****         CapSense_1_BUTTON0_ON_DEBOUNCE,
 346:Generated_Source\PSoC4/CapSense_1_Structure.c ****         CapSense_1_BUTTON0_LOW_BSLN_RST,
 347:Generated_Source\PSoC4/CapSense_1_Structure.c ****         CapSense_1_BUTTON0_SNS_CLK,
 348:Generated_Source\PSoC4/CapSense_1_Structure.c ****         CapSense_1_BUTTON0_SNS_CLK_SOURCE,
 349:Generated_Source\PSoC4/CapSense_1_Structure.c ****     },
 350:Generated_Source\PSoC4/CapSense_1_Structure.c ****     { /* Button1 */
 351:Generated_Source\PSoC4/CapSense_1_Structure.c ****         CapSense_1_BUTTON1_RESOLUTION,
 352:Generated_Source\PSoC4/CapSense_1_Structure.c ****         CapSense_1_BUTTON1_FINGER_TH,
 353:Generated_Source\PSoC4/CapSense_1_Structure.c ****         CapSense_1_BUTTON1_NOISE_TH,
 354:Generated_Source\PSoC4/CapSense_1_Structure.c ****         CapSense_1_BUTTON1_NNOISE_TH,
 355:Generated_Source\PSoC4/CapSense_1_Structure.c ****         CapSense_1_BUTTON1_HYSTERESIS,
 356:Generated_Source\PSoC4/CapSense_1_Structure.c ****         CapSense_1_BUTTON1_ON_DEBOUNCE,
 357:Generated_Source\PSoC4/CapSense_1_Structure.c ****         CapSense_1_BUTTON1_LOW_BSLN_RST,
 358:Generated_Source\PSoC4/CapSense_1_Structure.c ****         CapSense_1_BUTTON1_SNS_CLK,
 359:Generated_Source\PSoC4/CapSense_1_Structure.c ****         CapSense_1_BUTTON1_SNS_CLK_SOURCE,
 360:Generated_Source\PSoC4/CapSense_1_Structure.c ****     },
 361:Generated_Source\PSoC4/CapSense_1_Structure.c ****     { /* Button2 */
 362:Generated_Source\PSoC4/CapSense_1_Structure.c ****         CapSense_1_BUTTON2_RESOLUTION,
 363:Generated_Source\PSoC4/CapSense_1_Structure.c ****         CapSense_1_BUTTON2_FINGER_TH,
 364:Generated_Source\PSoC4/CapSense_1_Structure.c ****         CapSense_1_BUTTON2_NOISE_TH,
 365:Generated_Source\PSoC4/CapSense_1_Structure.c ****         CapSense_1_BUTTON2_NNOISE_TH,
 366:Generated_Source\PSoC4/CapSense_1_Structure.c ****         CapSense_1_BUTTON2_HYSTERESIS,
 367:Generated_Source\PSoC4/CapSense_1_Structure.c ****         CapSense_1_BUTTON2_ON_DEBOUNCE,
 368:Generated_Source\PSoC4/CapSense_1_Structure.c ****         CapSense_1_BUTTON2_LOW_BSLN_RST,
 369:Generated_Source\PSoC4/CapSense_1_Structure.c ****         CapSense_1_BUTTON2_SNS_CLK,
 370:Generated_Source\PSoC4/CapSense_1_Structure.c ****         CapSense_1_BUTTON2_SNS_CLK_SOURCE,
 371:Generated_Source\PSoC4/CapSense_1_Structure.c ****     },
 372:Generated_Source\PSoC4/CapSense_1_Structure.c ****     { /* Button3 */
 373:Generated_Source\PSoC4/CapSense_1_Structure.c ****         CapSense_1_BUTTON3_RESOLUTION,
ARM GAS  C:\Users\MICHAE~1.MAC\AppData\Local\Temp\ccOICTN7.s 			page 8


 374:Generated_Source\PSoC4/CapSense_1_Structure.c ****         CapSense_1_BUTTON3_FINGER_TH,
 375:Generated_Source\PSoC4/CapSense_1_Structure.c ****         CapSense_1_BUTTON3_NOISE_TH,
 376:Generated_Source\PSoC4/CapSense_1_Structure.c ****         CapSense_1_BUTTON3_NNOISE_TH,
 377:Generated_Source\PSoC4/CapSense_1_Structure.c ****         CapSense_1_BUTTON3_HYSTERESIS,
 378:Generated_Source\PSoC4/CapSense_1_Structure.c ****         CapSense_1_BUTTON3_ON_DEBOUNCE,
 379:Generated_Source\PSoC4/CapSense_1_Structure.c ****         CapSense_1_BUTTON3_LOW_BSLN_RST,
 380:Generated_Source\PSoC4/CapSense_1_Structure.c ****         CapSense_1_BUTTON3_SNS_CLK,
 381:Generated_Source\PSoC4/CapSense_1_Structure.c ****         CapSense_1_BUTTON3_SNS_CLK_SOURCE,
 382:Generated_Source\PSoC4/CapSense_1_Structure.c ****     },
 383:Generated_Source\PSoC4/CapSense_1_Structure.c ****     { /* Button4 */
 384:Generated_Source\PSoC4/CapSense_1_Structure.c ****         CapSense_1_BUTTON4_RESOLUTION,
 385:Generated_Source\PSoC4/CapSense_1_Structure.c ****         CapSense_1_BUTTON4_FINGER_TH,
 386:Generated_Source\PSoC4/CapSense_1_Structure.c ****         CapSense_1_BUTTON4_NOISE_TH,
 387:Generated_Source\PSoC4/CapSense_1_Structure.c ****         CapSense_1_BUTTON4_NNOISE_TH,
 388:Generated_Source\PSoC4/CapSense_1_Structure.c ****         CapSense_1_BUTTON4_HYSTERESIS,
 389:Generated_Source\PSoC4/CapSense_1_Structure.c ****         CapSense_1_BUTTON4_ON_DEBOUNCE,
 390:Generated_Source\PSoC4/CapSense_1_Structure.c ****         CapSense_1_BUTTON4_LOW_BSLN_RST,
 391:Generated_Source\PSoC4/CapSense_1_Structure.c ****         CapSense_1_BUTTON4_SNS_CLK,
 392:Generated_Source\PSoC4/CapSense_1_Structure.c ****         CapSense_1_BUTTON4_SNS_CLK_SOURCE,
 393:Generated_Source\PSoC4/CapSense_1_Structure.c ****     },
 394:Generated_Source\PSoC4/CapSense_1_Structure.c ****     { /* Button5 */
 395:Generated_Source\PSoC4/CapSense_1_Structure.c ****         CapSense_1_BUTTON5_RESOLUTION,
 396:Generated_Source\PSoC4/CapSense_1_Structure.c ****         CapSense_1_BUTTON5_FINGER_TH,
 397:Generated_Source\PSoC4/CapSense_1_Structure.c ****         CapSense_1_BUTTON5_NOISE_TH,
 398:Generated_Source\PSoC4/CapSense_1_Structure.c ****         CapSense_1_BUTTON5_NNOISE_TH,
 399:Generated_Source\PSoC4/CapSense_1_Structure.c ****         CapSense_1_BUTTON5_HYSTERESIS,
 400:Generated_Source\PSoC4/CapSense_1_Structure.c ****         CapSense_1_BUTTON5_ON_DEBOUNCE,
 401:Generated_Source\PSoC4/CapSense_1_Structure.c ****         CapSense_1_BUTTON5_LOW_BSLN_RST,
 402:Generated_Source\PSoC4/CapSense_1_Structure.c ****         CapSense_1_BUTTON5_SNS_CLK,
 403:Generated_Source\PSoC4/CapSense_1_Structure.c ****         CapSense_1_BUTTON5_SNS_CLK_SOURCE,
 404:Generated_Source\PSoC4/CapSense_1_Structure.c ****     },
 405:Generated_Source\PSoC4/CapSense_1_Structure.c **** };
 406:Generated_Source\PSoC4/CapSense_1_Structure.c **** 
 407:Generated_Source\PSoC4/CapSense_1_Structure.c **** 
 408:Generated_Source\PSoC4/CapSense_1_Structure.c **** /* IDAC Initialization Data */
 409:Generated_Source\PSoC4/CapSense_1_Structure.c **** const uint8 CapSense_1_ramIdacInit[CapSense_1_TOTAL_SENSORS * 3u] =
 410:Generated_Source\PSoC4/CapSense_1_Structure.c **** {
 411:Generated_Source\PSoC4/CapSense_1_Structure.c ****     /* Button0 */
 412:Generated_Source\PSoC4/CapSense_1_Structure.c ****     CapSense_1_BUTTON0_RX0_IDAC_COMP0,
 413:Generated_Source\PSoC4/CapSense_1_Structure.c ****     CapSense_1_BUTTON0_RX0_IDAC_COMP1,
 414:Generated_Source\PSoC4/CapSense_1_Structure.c ****     CapSense_1_BUTTON0_RX0_IDAC_COMP2,
 415:Generated_Source\PSoC4/CapSense_1_Structure.c **** 
 416:Generated_Source\PSoC4/CapSense_1_Structure.c ****     /* Button1 */
 417:Generated_Source\PSoC4/CapSense_1_Structure.c ****     CapSense_1_BUTTON1_RX0_IDAC_COMP0,
 418:Generated_Source\PSoC4/CapSense_1_Structure.c ****     CapSense_1_BUTTON1_RX0_IDAC_COMP1,
 419:Generated_Source\PSoC4/CapSense_1_Structure.c ****     CapSense_1_BUTTON1_RX0_IDAC_COMP2,
 420:Generated_Source\PSoC4/CapSense_1_Structure.c **** 
 421:Generated_Source\PSoC4/CapSense_1_Structure.c ****     /* Button2 */
 422:Generated_Source\PSoC4/CapSense_1_Structure.c ****     CapSense_1_BUTTON2_RX0_IDAC_COMP0,
 423:Generated_Source\PSoC4/CapSense_1_Structure.c ****     CapSense_1_BUTTON2_RX0_IDAC_COMP1,
 424:Generated_Source\PSoC4/CapSense_1_Structure.c ****     CapSense_1_BUTTON2_RX0_IDAC_COMP2,
 425:Generated_Source\PSoC4/CapSense_1_Structure.c **** 
 426:Generated_Source\PSoC4/CapSense_1_Structure.c ****     /* Button3 */
 427:Generated_Source\PSoC4/CapSense_1_Structure.c ****     CapSense_1_BUTTON3_RX0_IDAC_COMP0,
 428:Generated_Source\PSoC4/CapSense_1_Structure.c ****     CapSense_1_BUTTON3_RX0_IDAC_COMP1,
 429:Generated_Source\PSoC4/CapSense_1_Structure.c ****     CapSense_1_BUTTON3_RX0_IDAC_COMP2,
 430:Generated_Source\PSoC4/CapSense_1_Structure.c **** 
ARM GAS  C:\Users\MICHAE~1.MAC\AppData\Local\Temp\ccOICTN7.s 			page 9


 431:Generated_Source\PSoC4/CapSense_1_Structure.c ****     /* Button4 */
 432:Generated_Source\PSoC4/CapSense_1_Structure.c ****     CapSense_1_BUTTON4_RX0_IDAC_COMP0,
 433:Generated_Source\PSoC4/CapSense_1_Structure.c ****     CapSense_1_BUTTON4_RX0_IDAC_COMP1,
 434:Generated_Source\PSoC4/CapSense_1_Structure.c ****     CapSense_1_BUTTON4_RX0_IDAC_COMP2,
 435:Generated_Source\PSoC4/CapSense_1_Structure.c **** 
 436:Generated_Source\PSoC4/CapSense_1_Structure.c ****     /* Button5 */
 437:Generated_Source\PSoC4/CapSense_1_Structure.c ****     CapSense_1_BUTTON5_RX0_IDAC_COMP0,
 438:Generated_Source\PSoC4/CapSense_1_Structure.c ****     CapSense_1_BUTTON5_RX0_IDAC_COMP1,
 439:Generated_Source\PSoC4/CapSense_1_Structure.c ****     CapSense_1_BUTTON5_RX0_IDAC_COMP2,
 440:Generated_Source\PSoC4/CapSense_1_Structure.c **** };
 441:Generated_Source\PSoC4/CapSense_1_Structure.c **** 
 442:Generated_Source\PSoC4/CapSense_1_Structure.c **** 
 443:Generated_Source\PSoC4/CapSense_1_Structure.c **** 
 444:Generated_Source\PSoC4/CapSense_1_Structure.c **** /*******************************************************************************
 445:Generated_Source\PSoC4/CapSense_1_Structure.c **** * Defines internal data types and statements
 446:Generated_Source\PSoC4/CapSense_1_Structure.c **** *******************************************************************************/
 447:Generated_Source\PSoC4/CapSense_1_Structure.c **** #define PARAM_TYPE_OFFSET       (30u)
 448:Generated_Source\PSoC4/CapSense_1_Structure.c **** #define PARAM_TYPE_MASK         (3Lu << PARAM_TYPE_OFFSET)
 449:Generated_Source\PSoC4/CapSense_1_Structure.c **** #define PARAM_RWBIT_OFFSET      (29u)
 450:Generated_Source\PSoC4/CapSense_1_Structure.c **** #define PARAM_RWBIT_MASK        (1Lu << PARAM_RWBIT_OFFSET)
 451:Generated_Source\PSoC4/CapSense_1_Structure.c **** #define PARAM_FBIT_OFFSET       (28u)
 452:Generated_Source\PSoC4/CapSense_1_Structure.c **** #define PARAM_FBIT_MASK         (1Lu << PARAM_FBIT_OFFSET)
 453:Generated_Source\PSoC4/CapSense_1_Structure.c **** #define PARAM_UBIT_OFFSET       (23u)
 454:Generated_Source\PSoC4/CapSense_1_Structure.c **** #define PARAM_UBIT_MASK         (1Lu << PARAM_UBIT_OFFSET)
 455:Generated_Source\PSoC4/CapSense_1_Structure.c **** #define PARAM_WDID_OFFSET       (16u)
 456:Generated_Source\PSoC4/CapSense_1_Structure.c **** #define PARAM_WDID_MASK         (0x7FLu << PARAM_WDID_OFFSET)
 457:Generated_Source\PSoC4/CapSense_1_Structure.c **** #define PARAM_CRC_OFFSET        (24u)
 458:Generated_Source\PSoC4/CapSense_1_Structure.c **** #define PARAM_CRC_MASK          (0x0FLu << PARAM_CRC_OFFSET)
 459:Generated_Source\PSoC4/CapSense_1_Structure.c **** 
 460:Generated_Source\PSoC4/CapSense_1_Structure.c **** /* Defines align masks for uint16 and uint32 */
 461:Generated_Source\PSoC4/CapSense_1_Structure.c **** #define UINT16_ALIGN_MASK       (1Lu)
 462:Generated_Source\PSoC4/CapSense_1_Structure.c **** #define UINT32_ALIGN_MASK       (3Lu)
 463:Generated_Source\PSoC4/CapSense_1_Structure.c **** 
 464:Generated_Source\PSoC4/CapSense_1_Structure.c **** /* Defines supported parameter types */
 465:Generated_Source\PSoC4/CapSense_1_Structure.c **** #define DS_PARAM_TYPE_UINT8     (0x01u)
 466:Generated_Source\PSoC4/CapSense_1_Structure.c **** #define DS_PARAM_TYPE_UINT16    (0x02u)
 467:Generated_Source\PSoC4/CapSense_1_Structure.c **** #define DS_PARAM_TYPE_UINT32    (0x03u)
 468:Generated_Source\PSoC4/CapSense_1_Structure.c **** 
 469:Generated_Source\PSoC4/CapSense_1_Structure.c **** 
 470:Generated_Source\PSoC4/CapSense_1_Structure.c **** /* Defines PARAM_ID structure */
 471:Generated_Source\PSoC4/CapSense_1_Structure.c **** typedef struct
 472:Generated_Source\PSoC4/CapSense_1_Structure.c **** {
 473:Generated_Source\PSoC4/CapSense_1_Structure.c ****     uint16 offset;      /* parameter offset */
 474:Generated_Source\PSoC4/CapSense_1_Structure.c ****     uint8  widgetId;    /* widget Id parameter belongs to */
 475:Generated_Source\PSoC4/CapSense_1_Structure.c ****     uint8  affectsCrc;  /* parameter affects widget CRC */
 476:Generated_Source\PSoC4/CapSense_1_Structure.c ****     uint8  crc;         /* parameter CRC */
 477:Generated_Source\PSoC4/CapSense_1_Structure.c ****     uint8  flash;       /* parameter located in FLASH flag */
 478:Generated_Source\PSoC4/CapSense_1_Structure.c ****     uint8  rw;          /* parameter is read/write flag */
 479:Generated_Source\PSoC4/CapSense_1_Structure.c ****     uint8  type;        /* parameter type: uint8/uint16/uint32 */
 480:Generated_Source\PSoC4/CapSense_1_Structure.c **** } PARAM_ID_STRUCT;
 481:Generated_Source\PSoC4/CapSense_1_Structure.c **** 
 482:Generated_Source\PSoC4/CapSense_1_Structure.c **** 
 483:Generated_Source\PSoC4/CapSense_1_Structure.c **** /*******************************************************************************
 484:Generated_Source\PSoC4/CapSense_1_Structure.c **** * Static Function Prototypes
 485:Generated_Source\PSoC4/CapSense_1_Structure.c **** *******************************************************************************/
 486:Generated_Source\PSoC4/CapSense_1_Structure.c **** /**
 487:Generated_Source\PSoC4/CapSense_1_Structure.c **** * \cond SECTION_C_INTERNAL
ARM GAS  C:\Users\MICHAE~1.MAC\AppData\Local\Temp\ccOICTN7.s 			page 10


 488:Generated_Source\PSoC4/CapSense_1_Structure.c **** * \addtogroup group_c_internal
 489:Generated_Source\PSoC4/CapSense_1_Structure.c **** * \{
 490:Generated_Source\PSoC4/CapSense_1_Structure.c **** */
 491:Generated_Source\PSoC4/CapSense_1_Structure.c **** 
 492:Generated_Source\PSoC4/CapSense_1_Structure.c **** 
 493:Generated_Source\PSoC4/CapSense_1_Structure.c **** 
 494:Generated_Source\PSoC4/CapSense_1_Structure.c **** static cystatus DsParseParamId(uint32 paramId, PARAM_ID_STRUCT *pData);
 495:Generated_Source\PSoC4/CapSense_1_Structure.c **** 
 496:Generated_Source\PSoC4/CapSense_1_Structure.c **** /** \}
 497:Generated_Source\PSoC4/CapSense_1_Structure.c **** * \endcond */
 498:Generated_Source\PSoC4/CapSense_1_Structure.c **** 
 499:Generated_Source\PSoC4/CapSense_1_Structure.c **** 
 500:Generated_Source\PSoC4/CapSense_1_Structure.c **** /*******************************************************************************
 501:Generated_Source\PSoC4/CapSense_1_Structure.c **** * Function Name: CapSense_1_DsInitialize
 502:Generated_Source\PSoC4/CapSense_1_Structure.c **** ****************************************************************************//**
 503:Generated_Source\PSoC4/CapSense_1_Structure.c **** *
 504:Generated_Source\PSoC4/CapSense_1_Structure.c **** * \brief
 505:Generated_Source\PSoC4/CapSense_1_Structure.c **** *   This function initializes the Data Structure storage.
 506:Generated_Source\PSoC4/CapSense_1_Structure.c **** *
 507:Generated_Source\PSoC4/CapSense_1_Structure.c **** * \details
 508:Generated_Source\PSoC4/CapSense_1_Structure.c **** *   This function copies the default widget configuration parameters
 509:Generated_Source\PSoC4/CapSense_1_Structure.c **** *   from the Flash storage into the RAM Data Structure.
 510:Generated_Source\PSoC4/CapSense_1_Structure.c **** *
 511:Generated_Source\PSoC4/CapSense_1_Structure.c **** *******************************************************************************/
 512:Generated_Source\PSoC4/CapSense_1_Structure.c **** void CapSense_1_DsInitialize(void)
 513:Generated_Source\PSoC4/CapSense_1_Structure.c **** {
 514:Generated_Source\PSoC4/CapSense_1_Structure.c ****     #if ((CapSense_1_ENABLE == CapSense_1_CSX_EN) || \
 515:Generated_Source\PSoC4/CapSense_1_Structure.c ****          (CapSense_1_ENABLE == CapSense_1_CSD_IDAC_COMP_EN) || \
 516:Generated_Source\PSoC4/CapSense_1_Structure.c ****         ((CapSense_1_ENABLE == CapSense_1_CSX_EN) && \
 517:Generated_Source\PSoC4/CapSense_1_Structure.c ****          (CapSense_1_ENABLE == CapSense_1_CSX_SKIP_OVSMPL_SPECIFIC_NODES)))
 518:Generated_Source\PSoC4/CapSense_1_Structure.c ****         uint32 snsId;
 519:Generated_Source\PSoC4/CapSense_1_Structure.c ****         uint32 wdgtId;
 520:Generated_Source\PSoC4/CapSense_1_Structure.c ****         CapSense_1_RAM_SNS_STRUCT * ptrSnsTmp;
 521:Generated_Source\PSoC4/CapSense_1_Structure.c ****         CapSense_1_FLASH_WD_STRUCT const * ptrFlashWdgt;
 522:Generated_Source\PSoC4/CapSense_1_Structure.c ****     #endif
 523:Generated_Source\PSoC4/CapSense_1_Structure.c **** 
 524:Generated_Source\PSoC4/CapSense_1_Structure.c ****     #if ((CapSense_1_ENABLE == CapSense_1_CSX_EN) && \
 525:Generated_Source\PSoC4/CapSense_1_Structure.c ****          (CapSense_1_ENABLE == CapSense_1_CSX_SKIP_OVSMPL_SPECIFIC_NODES))
 526:Generated_Source\PSoC4/CapSense_1_Structure.c ****         uint16 subConvNumber;
 527:Generated_Source\PSoC4/CapSense_1_Structure.c ****     #endif
 528:Generated_Source\PSoC4/CapSense_1_Structure.c **** 
 529:Generated_Source\PSoC4/CapSense_1_Structure.c ****     #if ((0u != CapSense_1_CSX_EN) || (0 != CapSense_1_CSD_IDAC_COMP_EN))
 530:Generated_Source\PSoC4/CapSense_1_Structure.c ****         uint8 const * ptrIdacInit = CapSense_1_ramIdacInit;
 531:Generated_Source\PSoC4/CapSense_1_Structure.c ****     #endif
 532:Generated_Source\PSoC4/CapSense_1_Structure.c **** 
 533:Generated_Source\PSoC4/CapSense_1_Structure.c ****     /* Reset RAM data structure content */
 534:Generated_Source\PSoC4/CapSense_1_Structure.c ****     (void)memset(&CapSense_1_dsRam, 0, sizeof(CapSense_1_dsRam));
 535:Generated_Source\PSoC4/CapSense_1_Structure.c **** 
 536:Generated_Source\PSoC4/CapSense_1_Structure.c ****     /* Initialize configId, deviceId and hwClock registers */
 537:Generated_Source\PSoC4/CapSense_1_Structure.c ****     CapSense_1_dsRam.configId = CapSense_1_CONFIG_ID;
 538:Generated_Source\PSoC4/CapSense_1_Structure.c ****     CapSense_1_dsRam.deviceId = CapSense_1_DEVICE_ID;
 539:Generated_Source\PSoC4/CapSense_1_Structure.c ****     CapSense_1_dsRam.hwClock = CapSense_1_HW_CLOCK;
 540:Generated_Source\PSoC4/CapSense_1_Structure.c **** 
 541:Generated_Source\PSoC4/CapSense_1_Structure.c ****     /* Initialize global RAM data */
 542:Generated_Source\PSoC4/CapSense_1_Structure.c ****     CapSense_1_dsRam.csd0Config = CapSense_1_CSD0_CONFIG;
 543:Generated_Source\PSoC4/CapSense_1_Structure.c **** 
 544:Generated_Source\PSoC4/CapSense_1_Structure.c ****     #if (0u != CapSense_1_TOTAL_CSD_WIDGETS)
ARM GAS  C:\Users\MICHAE~1.MAC\AppData\Local\Temp\ccOICTN7.s 			page 11


 545:Generated_Source\PSoC4/CapSense_1_Structure.c ****         CapSense_1_dsRam.modCsdClk = CapSense_1_CSD_SCANSPEED_DIVIDER;
 546:Generated_Source\PSoC4/CapSense_1_Structure.c **** 
 547:Generated_Source\PSoC4/CapSense_1_Structure.c ****         #if (0u != CapSense_1_CSD_COMMON_SNS_CLK_EN)
 548:Generated_Source\PSoC4/CapSense_1_Structure.c ****             CapSense_1_dsRam.snsCsdClk = CapSense_1_CSD_SNS_CLK_DIVIDER;
 549:Generated_Source\PSoC4/CapSense_1_Structure.c ****         #endif /* #if (0u != CapSense_1_CSD_COMMON_SNS_CLK_EN) */
 550:Generated_Source\PSoC4/CapSense_1_Structure.c ****     #endif /* #if (0u != CapSense_1_TOTAL_CSD_WIDGETS) */
 551:Generated_Source\PSoC4/CapSense_1_Structure.c **** 
 552:Generated_Source\PSoC4/CapSense_1_Structure.c ****     #if (0u != CapSense_1_CSX_EN)
 553:Generated_Source\PSoC4/CapSense_1_Structure.c ****         CapSense_1_dsRam.modCsxClk = CapSense_1_CSX_SCANSPEED_DIVIDER;
 554:Generated_Source\PSoC4/CapSense_1_Structure.c **** 
 555:Generated_Source\PSoC4/CapSense_1_Structure.c ****         #if (0u != CapSense_1_CSX_COMMON_TX_CLK_EN)
 556:Generated_Source\PSoC4/CapSense_1_Structure.c ****             CapSense_1_dsRam.snsCsxClk = CapSense_1_CSX_TX_CLK_DIVIDER;
 557:Generated_Source\PSoC4/CapSense_1_Structure.c ****         #endif /* #if (0u != CapSense_1_CSX_COMMON_TX_CLK_EN) */
 558:Generated_Source\PSoC4/CapSense_1_Structure.c ****     #endif /* #if (0u != CapSense_1_CSX_EN) */
 559:Generated_Source\PSoC4/CapSense_1_Structure.c **** 
 560:Generated_Source\PSoC4/CapSense_1_Structure.c ****     #if (0u != CapSense_1_ISX_EN)
 561:Generated_Source\PSoC4/CapSense_1_Structure.c ****         CapSense_1_dsRam.modIsxClk = CapSense_1_ISX_SCANSPEED_DIVIDER;
 562:Generated_Source\PSoC4/CapSense_1_Structure.c ****     #endif /* #if (0u != CapSense_1_ISX_EN) */
 563:Generated_Source\PSoC4/CapSense_1_Structure.c **** 
 564:Generated_Source\PSoC4/CapSense_1_Structure.c ****     #if (0u != CapSense_1_SELF_TEST_EN)
 565:Generated_Source\PSoC4/CapSense_1_Structure.c ****         CapSense_1_dsRam.glbCrc = CapSense_1_GLB_CRC;
 566:Generated_Source\PSoC4/CapSense_1_Structure.c ****     #endif /* #if (0u != CapSense_1_SELF_TEST_EN) */
 567:Generated_Source\PSoC4/CapSense_1_Structure.c **** 
 568:Generated_Source\PSoC4/CapSense_1_Structure.c ****     /* Initialize RAM widget data */
 569:Generated_Source\PSoC4/CapSense_1_Structure.c ****     CapSense_1_dsRam.wdgtList = CapSense_1_ramWidgetInit;
 570:Generated_Source\PSoC4/CapSense_1_Structure.c **** 
 571:Generated_Source\PSoC4/CapSense_1_Structure.c ****     /* Initialize Gesture configuration structure */
 572:Generated_Source\PSoC4/CapSense_1_Structure.c ****     #if ((0u != CapSense_1_GES_GLOBAL_EN) || (0u != CapSense_1_BALLISTIC_MULTIPLIER_EN))
 573:Generated_Source\PSoC4/CapSense_1_Structure.c ****         CapSense_1_dsRam.timestampInterval = CapSense_1_TIMESTAMP_INTERVAL;
 574:Generated_Source\PSoC4/CapSense_1_Structure.c ****     #endif /* ((0u != CapSense_1_GES_GLOBAL_EN) || (0u != CapSense_1_BALLISTIC_MULTIPLIER_EN)) */
 575:Generated_Source\PSoC4/CapSense_1_Structure.c ****         
 576:Generated_Source\PSoC4/CapSense_1_Structure.c ****     #if (0u != CapSense_1_GES_GLOBAL_EN)
 577:Generated_Source\PSoC4/CapSense_1_Structure.c ****         CapSense_1_dsRam.gestures = CapSense_1_ramGesturesInit;
 578:Generated_Source\PSoC4/CapSense_1_Structure.c ****     #endif /* (0u != CapSense_1_GES_GLOBAL_EN) */
 579:Generated_Source\PSoC4/CapSense_1_Structure.c **** 
 580:Generated_Source\PSoC4/CapSense_1_Structure.c ****     #if (0u != CapSense_1_BALLISTIC_MULTIPLIER_EN)
 581:Generated_Source\PSoC4/CapSense_1_Structure.c ****         CapSense_1_dsRam.ballisticConfig = CapSense_1_ramBallisticInit;
 582:Generated_Source\PSoC4/CapSense_1_Structure.c ****     #endif /* (0u != CapSense_1_BALLISTIC_MULTIPLIER_EN) */
 583:Generated_Source\PSoC4/CapSense_1_Structure.c **** 
 584:Generated_Source\PSoC4/CapSense_1_Structure.c ****     #if (0u != CapSense_1_CSX_EN) || (0 != CapSense_1_CSD_IDAC_COMP_EN)
 585:Generated_Source\PSoC4/CapSense_1_Structure.c ****         /* Initialize IDAC data */
 586:Generated_Source\PSoC4/CapSense_1_Structure.c ****         ptrFlashWdgt = CapSense_1_dsFlash.wdgtArray;
 587:Generated_Source\PSoC4/CapSense_1_Structure.c **** 
 588:Generated_Source\PSoC4/CapSense_1_Structure.c ****         for (wdgtId = CapSense_1_TOTAL_WIDGETS; wdgtId-- > 0u; )
 589:Generated_Source\PSoC4/CapSense_1_Structure.c ****         {
 590:Generated_Source\PSoC4/CapSense_1_Structure.c ****             ptrSnsTmp = ptrFlashWdgt->ptr2SnsRam;
 591:Generated_Source\PSoC4/CapSense_1_Structure.c **** 
 592:Generated_Source\PSoC4/CapSense_1_Structure.c ****             for (snsId = CapSense_1_GET_SNS_CNT_BY_PTR(ptrFlashWdgt); snsId-- > 0u;)
 593:Generated_Source\PSoC4/CapSense_1_Structure.c ****             {
 594:Generated_Source\PSoC4/CapSense_1_Structure.c ****                 ptrSnsTmp->idacComp[0u] = *ptrIdacInit;
 595:Generated_Source\PSoC4/CapSense_1_Structure.c ****                 ptrIdacInit++;
 596:Generated_Source\PSoC4/CapSense_1_Structure.c **** 
 597:Generated_Source\PSoC4/CapSense_1_Structure.c ****                 #if (0u != CapSense_1_MULTI_FREQ_SCAN_EN)
 598:Generated_Source\PSoC4/CapSense_1_Structure.c ****                     ptrSnsTmp->idacComp[1u] = *ptrIdacInit;
 599:Generated_Source\PSoC4/CapSense_1_Structure.c ****                     ptrIdacInit++;
 600:Generated_Source\PSoC4/CapSense_1_Structure.c **** 
 601:Generated_Source\PSoC4/CapSense_1_Structure.c ****                     ptrSnsTmp->idacComp[2u] = *ptrIdacInit;
ARM GAS  C:\Users\MICHAE~1.MAC\AppData\Local\Temp\ccOICTN7.s 			page 12


 602:Generated_Source\PSoC4/CapSense_1_Structure.c ****                     ptrIdacInit++;
 603:Generated_Source\PSoC4/CapSense_1_Structure.c ****                 #endif /* #if (0u != CapSense_1_MULTI_FREQ_SCAN_EN) */
 604:Generated_Source\PSoC4/CapSense_1_Structure.c **** 
 605:Generated_Source\PSoC4/CapSense_1_Structure.c ****                 ptrSnsTmp++;
 606:Generated_Source\PSoC4/CapSense_1_Structure.c ****             }
 607:Generated_Source\PSoC4/CapSense_1_Structure.c **** 
 608:Generated_Source\PSoC4/CapSense_1_Structure.c ****             ptrFlashWdgt++; /* Move to next widget */
 609:Generated_Source\PSoC4/CapSense_1_Structure.c ****         }
 610:Generated_Source\PSoC4/CapSense_1_Structure.c ****     #endif /*(0u != CapSense_1_CSX_EN) || (0 != CapSense_1_CSD_IDAC_COMP_EN)*/
 611:Generated_Source\PSoC4/CapSense_1_Structure.c **** 
 612:Generated_Source\PSoC4/CapSense_1_Structure.c ****     #if ((CapSense_1_ENABLE == CapSense_1_CSX_EN) && \
 613:Generated_Source\PSoC4/CapSense_1_Structure.c ****          (CapSense_1_ENABLE == CapSense_1_CSX_SKIP_OVSMPL_SPECIFIC_NODES))
 614:Generated_Source\PSoC4/CapSense_1_Structure.c ****         /* Initialize Sub-Conversion Number for each node of each CSX widget */
 615:Generated_Source\PSoC4/CapSense_1_Structure.c ****         ptrFlashWdgt = CapSense_1_dsFlash.wdgtArray;
 616:Generated_Source\PSoC4/CapSense_1_Structure.c ****         for (wdgtId = CapSense_1_TOTAL_WIDGETS; wdgtId-- > 0u;)
 617:Generated_Source\PSoC4/CapSense_1_Structure.c ****         {
 618:Generated_Source\PSoC4/CapSense_1_Structure.c ****             /* Check for widget sense method */
 619:Generated_Source\PSoC4/CapSense_1_Structure.c ****             if (CapSense_1_SENSE_METHOD_CSX_E == CapSense_1_GET_SENSE_METHOD(ptrFlashWdgt))
 620:Generated_Source\PSoC4/CapSense_1_Structure.c ****             {
 621:Generated_Source\PSoC4/CapSense_1_Structure.c ****                 /* Take the sub-convesion number of a CSX widget and initialize each node of this w
 622:Generated_Source\PSoC4/CapSense_1_Structure.c ****                 subConvNumber = ((CapSense_1_RAM_WD_BASE_STRUCT *)(ptrFlashWdgt->ptr2WdgtRam))->res
 623:Generated_Source\PSoC4/CapSense_1_Structure.c ****                 ptrSnsTmp = ptrFlashWdgt->ptr2SnsRam;
 624:Generated_Source\PSoC4/CapSense_1_Structure.c ****                 for (snsId = CapSense_1_GET_SNS_CNT_BY_PTR(ptrFlashWdgt); snsId-- > 0u;)
 625:Generated_Source\PSoC4/CapSense_1_Structure.c ****                 {
 626:Generated_Source\PSoC4/CapSense_1_Structure.c ****                     ptrSnsTmp->subConvNum = subConvNumber;
 627:Generated_Source\PSoC4/CapSense_1_Structure.c ****                     ptrSnsTmp++;
 628:Generated_Source\PSoC4/CapSense_1_Structure.c ****                 }
 629:Generated_Source\PSoC4/CapSense_1_Structure.c ****             }
 630:Generated_Source\PSoC4/CapSense_1_Structure.c ****             /* Move to the next widget */
 631:Generated_Source\PSoC4/CapSense_1_Structure.c ****             ptrFlashWdgt++;
 632:Generated_Source\PSoC4/CapSense_1_Structure.c ****         }
 633:Generated_Source\PSoC4/CapSense_1_Structure.c ****     #endif /* ((CapSense_1_ENABLE == CapSense_1_CSX_EN) && \
 634:Generated_Source\PSoC4/CapSense_1_Structure.c ****                (CapSense_1_ENABLE == CapSense_1_CSX_SKIP_OVSMPL_SPECIFIC_NODES)) */
 635:Generated_Source\PSoC4/CapSense_1_Structure.c **** 
 636:Generated_Source\PSoC4/CapSense_1_Structure.c ****     #if (0u != CapSense_1_ADC_EN)
 637:Generated_Source\PSoC4/CapSense_1_Structure.c ****         CapSense_1_AdcDsInitialize();
 638:Generated_Source\PSoC4/CapSense_1_Structure.c ****     #endif /* (0u != CapSense_1_ADC_EN) */
 639:Generated_Source\PSoC4/CapSense_1_Structure.c **** }
 640:Generated_Source\PSoC4/CapSense_1_Structure.c **** 
 641:Generated_Source\PSoC4/CapSense_1_Structure.c **** 
 642:Generated_Source\PSoC4/CapSense_1_Structure.c **** #if (0u != CapSense_1_ADC_EN)
 643:Generated_Source\PSoC4/CapSense_1_Structure.c ****     /*******************************************************************************
 644:Generated_Source\PSoC4/CapSense_1_Structure.c ****     * Function Name: CapSense_1_AdcDsInitialize
 645:Generated_Source\PSoC4/CapSense_1_Structure.c ****     ****************************************************************************//**
 646:Generated_Source\PSoC4/CapSense_1_Structure.c ****     *
 647:Generated_Source\PSoC4/CapSense_1_Structure.c ****     * \brief
 648:Generated_Source\PSoC4/CapSense_1_Structure.c ****     *   Configures the initial Adc datastructure members.
 649:Generated_Source\PSoC4/CapSense_1_Structure.c ****     *
 650:Generated_Source\PSoC4/CapSense_1_Structure.c ****     *******************************************************************************/
 651:Generated_Source\PSoC4/CapSense_1_Structure.c ****     void CapSense_1_AdcDsInitialize(void)
 652:Generated_Source\PSoC4/CapSense_1_Structure.c ****     {
 653:Generated_Source\PSoC4/CapSense_1_Structure.c ****         CapSense_1_dsRam.adcResolution = CapSense_1_ADC_RESOLUTION;
 654:Generated_Source\PSoC4/CapSense_1_Structure.c ****         CapSense_1_dsRam.adcIdac = (uint8)(CapSense_1_ADC_IDAC_DEFAULT);
 655:Generated_Source\PSoC4/CapSense_1_Structure.c ****         CapSense_1_dsRam.adcActiveCh = CapSense_1_AdcNO_CHANNEL;
 656:Generated_Source\PSoC4/CapSense_1_Structure.c ****     }
 657:Generated_Source\PSoC4/CapSense_1_Structure.c **** #endif /* (0u != CapSense_1_ADC_EN) */
 658:Generated_Source\PSoC4/CapSense_1_Structure.c **** 
ARM GAS  C:\Users\MICHAE~1.MAC\AppData\Local\Temp\ccOICTN7.s 			page 13


 659:Generated_Source\PSoC4/CapSense_1_Structure.c **** 
 660:Generated_Source\PSoC4/CapSense_1_Structure.c **** /*******************************************************************************
 661:Generated_Source\PSoC4/CapSense_1_Structure.c **** * Function Name: DsParseParamId
 662:Generated_Source\PSoC4/CapSense_1_Structure.c **** ****************************************************************************//**
 663:Generated_Source\PSoC4/CapSense_1_Structure.c **** *
 664:Generated_Source\PSoC4/CapSense_1_Structure.c **** * \brief
 665:Generated_Source\PSoC4/CapSense_1_Structure.c **** *   This function parses the parameter ID and checks its correctness.
 666:Generated_Source\PSoC4/CapSense_1_Structure.c **** *
 667:Generated_Source\PSoC4/CapSense_1_Structure.c **** * \details
 668:Generated_Source\PSoC4/CapSense_1_Structure.c **** *   This function checks the parameter CRC if the self-test is enabled,
 669:Generated_Source\PSoC4/CapSense_1_Structure.c **** *   validates the offset value and parameter type.
 670:Generated_Source\PSoC4/CapSense_1_Structure.c **** *
 671:Generated_Source\PSoC4/CapSense_1_Structure.c **** * \param paramId The parameter to parse.
 672:Generated_Source\PSoC4/CapSense_1_Structure.c **** * \param pData   The pointer to the structure that will hold parsed data.
 673:Generated_Source\PSoC4/CapSense_1_Structure.c **** *
 674:Generated_Source\PSoC4/CapSense_1_Structure.c **** * \return CYRET_SUCCESS     If the parameter is valid
 675:Generated_Source\PSoC4/CapSense_1_Structure.c **** *         CYRET_BAD_PARAM   If the parameter is invalid
 676:Generated_Source\PSoC4/CapSense_1_Structure.c **** *
 677:Generated_Source\PSoC4/CapSense_1_Structure.c **** *******************************************************************************/
 678:Generated_Source\PSoC4/CapSense_1_Structure.c **** static cystatus DsParseParamId(uint32 paramId, PARAM_ID_STRUCT *pData)
 679:Generated_Source\PSoC4/CapSense_1_Structure.c **** {
  27              		.loc 1 679 0
  28              		.cfi_startproc
  29              		@ args = 0, pretend = 0, frame = 0
  30              		@ frame_needed = 0, uses_anonymous_args = 0
  31              	.LVL0:
  32 0000 70B5     		push	{r4, r5, r6, lr}
  33              		.cfi_def_cfa_offset 16
  34              		.cfi_offset 4, -16
  35              		.cfi_offset 5, -12
  36              		.cfi_offset 6, -8
  37              		.cfi_offset 14, -4
  38              	.LVL1:
 680:Generated_Source\PSoC4/CapSense_1_Structure.c ****     cystatus result = CYRET_SUCCESS;
 681:Generated_Source\PSoC4/CapSense_1_Structure.c **** 
 682:Generated_Source\PSoC4/CapSense_1_Structure.c ****     #if (0u != CapSense_1_SELF_TEST_EN)
 683:Generated_Source\PSoC4/CapSense_1_Structure.c ****         const uint8 crcTable[] =
 684:Generated_Source\PSoC4/CapSense_1_Structure.c ****         {
 685:Generated_Source\PSoC4/CapSense_1_Structure.c ****             0x00u, 0x09u, 0x0Bu, 0x02u, 0x0Fu, 0x06u, 0x04u, 0x0Du,
 686:Generated_Source\PSoC4/CapSense_1_Structure.c ****             0x07u, 0x0Eu, 0x0Cu, 0x05u, 0x08u, 0x01u, 0x03u, 0x0Au
 687:Generated_Source\PSoC4/CapSense_1_Structure.c ****         };
 688:Generated_Source\PSoC4/CapSense_1_Structure.c **** 
 689:Generated_Source\PSoC4/CapSense_1_Structure.c ****         uint32 i;
 690:Generated_Source\PSoC4/CapSense_1_Structure.c ****         uint32 actualCrc = 0u;
 691:Generated_Source\PSoC4/CapSense_1_Structure.c ****         uint32 crcIndex;
 692:Generated_Source\PSoC4/CapSense_1_Structure.c ****     #endif /* #if (0u != CapSense_1_SELF_TEST_EN) */
 693:Generated_Source\PSoC4/CapSense_1_Structure.c **** 
 694:Generated_Source\PSoC4/CapSense_1_Structure.c ****     /* Extract parameter data */
 695:Generated_Source\PSoC4/CapSense_1_Structure.c ****     pData->offset     = LO16(paramId);
  39              		.loc 1 695 0
  40 0002 85B2     		uxth	r5, r0
  41 0004 0D80     		strh	r5, [r1]
 696:Generated_Source\PSoC4/CapSense_1_Structure.c ****     pData->affectsCrc = LO8((paramId & PARAM_UBIT_MASK)  >> PARAM_UBIT_OFFSET);
  42              		.loc 1 696 0
  43 0006 C30D     		lsrs	r3, r0, #23
  44 0008 0124     		movs	r4, #1
  45 000a 2340     		ands	r3, r4
ARM GAS  C:\Users\MICHAE~1.MAC\AppData\Local\Temp\ccOICTN7.s 			page 14


  46 000c CB70     		strb	r3, [r1, #3]
 697:Generated_Source\PSoC4/CapSense_1_Structure.c ****     pData->widgetId   = LO8((paramId & PARAM_WDID_MASK)  >> PARAM_WDID_OFFSET);
  47              		.loc 1 697 0
  48 000e 030C     		lsrs	r3, r0, #16
  49 0010 7F22     		movs	r2, #127
  50 0012 1340     		ands	r3, r2
  51 0014 8B70     		strb	r3, [r1, #2]
 698:Generated_Source\PSoC4/CapSense_1_Structure.c ****     pData->type       = LO8((paramId & PARAM_TYPE_MASK)  >> PARAM_TYPE_OFFSET);
  52              		.loc 1 698 0
  53 0016 860F     		lsrs	r6, r0, #30
  54 0018 CE71     		strb	r6, [r1, #7]
 699:Generated_Source\PSoC4/CapSense_1_Structure.c ****     pData->flash      = LO8((paramId & PARAM_FBIT_MASK)  >> PARAM_FBIT_OFFSET);
  55              		.loc 1 699 0
  56 001a 030F     		lsrs	r3, r0, #28
  57 001c 2340     		ands	r3, r4
  58 001e 4B71     		strb	r3, [r1, #5]
 700:Generated_Source\PSoC4/CapSense_1_Structure.c ****     pData->rw         = LO8((paramId & PARAM_RWBIT_MASK) >> PARAM_RWBIT_OFFSET);
  59              		.loc 1 700 0
  60 0020 420F     		lsrs	r2, r0, #29
  61 0022 2240     		ands	r2, r4
  62 0024 8A71     		strb	r2, [r1, #6]
 701:Generated_Source\PSoC4/CapSense_1_Structure.c ****     pData->crc        = LO8((paramId & PARAM_CRC_MASK)   >> PARAM_CRC_OFFSET);
  63              		.loc 1 701 0
  64 0026 000E     		lsrs	r0, r0, #24
  65              	.LVL2:
  66 0028 0E34     		adds	r4, r4, #14
  67 002a 2040     		ands	r0, r4
  68 002c 0871     		strb	r0, [r1, #4]
 702:Generated_Source\PSoC4/CapSense_1_Structure.c **** 
 703:Generated_Source\PSoC4/CapSense_1_Structure.c ****     /* Check parameter CRC if self-test is enabled */
 704:Generated_Source\PSoC4/CapSense_1_Structure.c ****     #if (0u != CapSense_1_SELF_TEST_EN)
 705:Generated_Source\PSoC4/CapSense_1_Structure.c **** 
 706:Generated_Source\PSoC4/CapSense_1_Structure.c ****         /* Calculate CRC for bits 0..24.
 707:Generated_Source\PSoC4/CapSense_1_Structure.c ****          * The CRC is calculated using nibbles (4-bits).
 708:Generated_Source\PSoC4/CapSense_1_Structure.c ****          * So for 0..24 bits there are in total 6 nibbles. */
 709:Generated_Source\PSoC4/CapSense_1_Structure.c ****         for (i = 6u; i > 0u; i--)
 710:Generated_Source\PSoC4/CapSense_1_Structure.c ****         {
 711:Generated_Source\PSoC4/CapSense_1_Structure.c ****             crcIndex = actualCrc ^ (paramId & 0x0Fu);
 712:Generated_Source\PSoC4/CapSense_1_Structure.c ****             actualCrc = crcTable[crcIndex];
 713:Generated_Source\PSoC4/CapSense_1_Structure.c ****             paramId >>= 4u;
 714:Generated_Source\PSoC4/CapSense_1_Structure.c ****         }
 715:Generated_Source\PSoC4/CapSense_1_Structure.c **** 
 716:Generated_Source\PSoC4/CapSense_1_Structure.c ****         /* Add bits 28..32 */
 717:Generated_Source\PSoC4/CapSense_1_Structure.c ****         crcIndex = actualCrc ^ ((paramId >> 4u) & 0x0Fu);
 718:Generated_Source\PSoC4/CapSense_1_Structure.c ****         actualCrc = crcTable[crcIndex];
 719:Generated_Source\PSoC4/CapSense_1_Structure.c **** 
 720:Generated_Source\PSoC4/CapSense_1_Structure.c ****         /* Add bits 24..28 (CRC) */
 721:Generated_Source\PSoC4/CapSense_1_Structure.c ****         crcIndex = actualCrc ^ (paramId & 0x0Fu);
 722:Generated_Source\PSoC4/CapSense_1_Structure.c ****         actualCrc = crcTable[crcIndex];
 723:Generated_Source\PSoC4/CapSense_1_Structure.c **** 
 724:Generated_Source\PSoC4/CapSense_1_Structure.c ****         if (0u != actualCrc)
 725:Generated_Source\PSoC4/CapSense_1_Structure.c ****         {
 726:Generated_Source\PSoC4/CapSense_1_Structure.c ****             /* CRC mismatch */
 727:Generated_Source\PSoC4/CapSense_1_Structure.c ****             result = CYRET_BAD_PARAM;
 728:Generated_Source\PSoC4/CapSense_1_Structure.c ****         }
 729:Generated_Source\PSoC4/CapSense_1_Structure.c **** 
 730:Generated_Source\PSoC4/CapSense_1_Structure.c ****         if ((CYRET_SUCCESS == result) &&
ARM GAS  C:\Users\MICHAE~1.MAC\AppData\Local\Temp\ccOICTN7.s 			page 15


 731:Generated_Source\PSoC4/CapSense_1_Structure.c ****             (0u != pData->affectsCrc) && (pData->widgetId >= CapSense_1_TOTAL_WIDGETS ))
 732:Generated_Source\PSoC4/CapSense_1_Structure.c ****         {
 733:Generated_Source\PSoC4/CapSense_1_Structure.c ****             /* Wrong widgetId for protected parameter */
 734:Generated_Source\PSoC4/CapSense_1_Structure.c ****             result = CYRET_BAD_PARAM;
 735:Generated_Source\PSoC4/CapSense_1_Structure.c ****         }
 736:Generated_Source\PSoC4/CapSense_1_Structure.c **** 
 737:Generated_Source\PSoC4/CapSense_1_Structure.c ****         /* Check offset value range */
 738:Generated_Source\PSoC4/CapSense_1_Structure.c ****         if (CYRET_SUCCESS == result)
 739:Generated_Source\PSoC4/CapSense_1_Structure.c ****         {
 740:Generated_Source\PSoC4/CapSense_1_Structure.c ****             if (0u == pData->flash)
 741:Generated_Source\PSoC4/CapSense_1_Structure.c ****             {
 742:Generated_Source\PSoC4/CapSense_1_Structure.c ****                 /* Check offset for RAM Data Structure range */
 743:Generated_Source\PSoC4/CapSense_1_Structure.c ****                 if (pData->offset >= sizeof(CapSense_1_dsRam))
 744:Generated_Source\PSoC4/CapSense_1_Structure.c ****                 {
 745:Generated_Source\PSoC4/CapSense_1_Structure.c ****                     result = CYRET_BAD_PARAM;
 746:Generated_Source\PSoC4/CapSense_1_Structure.c ****                 }
 747:Generated_Source\PSoC4/CapSense_1_Structure.c ****             }
 748:Generated_Source\PSoC4/CapSense_1_Structure.c ****             else
 749:Generated_Source\PSoC4/CapSense_1_Structure.c ****             {
 750:Generated_Source\PSoC4/CapSense_1_Structure.c ****                 /* Check offset for Flash Data Structure range */
 751:Generated_Source\PSoC4/CapSense_1_Structure.c ****                 if (pData->offset >= sizeof(CapSense_1_dsFlash))
 752:Generated_Source\PSoC4/CapSense_1_Structure.c ****                 {
 753:Generated_Source\PSoC4/CapSense_1_Structure.c ****                     result = CYRET_BAD_PARAM;
 754:Generated_Source\PSoC4/CapSense_1_Structure.c ****                 }
 755:Generated_Source\PSoC4/CapSense_1_Structure.c **** 
 756:Generated_Source\PSoC4/CapSense_1_Structure.c ****                 /* Check if it is marked as Read Only */
 757:Generated_Source\PSoC4/CapSense_1_Structure.c ****                 if (0u != pData->rw)
 758:Generated_Source\PSoC4/CapSense_1_Structure.c ****                 {
 759:Generated_Source\PSoC4/CapSense_1_Structure.c ****                     result = CYRET_BAD_PARAM;
 760:Generated_Source\PSoC4/CapSense_1_Structure.c ****                 }
 761:Generated_Source\PSoC4/CapSense_1_Structure.c ****             }
 762:Generated_Source\PSoC4/CapSense_1_Structure.c ****         }
 763:Generated_Source\PSoC4/CapSense_1_Structure.c ****     #else /* #if (0u != CapSense_1_SELF_TEST_EN) */
 764:Generated_Source\PSoC4/CapSense_1_Structure.c ****         /* Check offset value range */
 765:Generated_Source\PSoC4/CapSense_1_Structure.c ****         if (0u == pData->flash)
  69              		.loc 1 765 0
  70 002e 002B     		cmp	r3, #0
  71 0030 05D1     		bne	.L2
 766:Generated_Source\PSoC4/CapSense_1_Structure.c ****         {
 767:Generated_Source\PSoC4/CapSense_1_Structure.c ****             /* Check offset for RAM Data Structure range */
 768:Generated_Source\PSoC4/CapSense_1_Structure.c ****             if (pData->offset >= sizeof(CapSense_1_dsRam))
  72              		.loc 1 768 0
  73 0032 1023     		movs	r3, #16
  74 0034 FF33     		adds	r3, r3, #255
  75 0036 9D42     		cmp	r5, r3
  76 0038 09D8     		bhi	.L9
 680:Generated_Source\PSoC4/CapSense_1_Structure.c **** 
  77              		.loc 1 680 0
  78 003a 0020     		movs	r0, #0
  79 003c 0AE0     		b	.L3
  80              	.L2:
 769:Generated_Source\PSoC4/CapSense_1_Structure.c ****             {
 770:Generated_Source\PSoC4/CapSense_1_Structure.c ****                 result = CYRET_BAD_PARAM;
 771:Generated_Source\PSoC4/CapSense_1_Structure.c ****             }
 772:Generated_Source\PSoC4/CapSense_1_Structure.c ****         }
 773:Generated_Source\PSoC4/CapSense_1_Structure.c ****         else
 774:Generated_Source\PSoC4/CapSense_1_Structure.c ****         {
ARM GAS  C:\Users\MICHAE~1.MAC\AppData\Local\Temp\ccOICTN7.s 			page 16


 775:Generated_Source\PSoC4/CapSense_1_Structure.c ****             /* Check offset for Flash Data Structure range */
 776:Generated_Source\PSoC4/CapSense_1_Structure.c ****             if (pData->offset >= sizeof(CapSense_1_dsFlash))
  81              		.loc 1 776 0
  82 003e BF2D     		cmp	r5, #191
  83 0040 01D8     		bhi	.L10
 680:Generated_Source\PSoC4/CapSense_1_Structure.c **** 
  84              		.loc 1 680 0
  85 0042 0020     		movs	r0, #0
  86 0044 00E0     		b	.L4
  87              	.L10:
 777:Generated_Source\PSoC4/CapSense_1_Structure.c ****             {
 778:Generated_Source\PSoC4/CapSense_1_Structure.c ****                 result = CYRET_BAD_PARAM;
  88              		.loc 1 778 0
  89 0046 0120     		movs	r0, #1
  90              	.L4:
  91              	.LVL3:
 779:Generated_Source\PSoC4/CapSense_1_Structure.c ****             }
 780:Generated_Source\PSoC4/CapSense_1_Structure.c **** 
 781:Generated_Source\PSoC4/CapSense_1_Structure.c ****             /* Check if it is marked as Read Only */
 782:Generated_Source\PSoC4/CapSense_1_Structure.c ****             if (0u != pData->rw)
  92              		.loc 1 782 0
  93 0048 002A     		cmp	r2, #0
  94 004a 02D1     		bne	.L11
  95 004c 02E0     		b	.L3
  96              	.LVL4:
  97              	.L9:
 770:Generated_Source\PSoC4/CapSense_1_Structure.c ****             }
  98              		.loc 1 770 0
  99 004e 0120     		movs	r0, #1
 100 0050 00E0     		b	.L3
 101              	.LVL5:
 102              	.L11:
 783:Generated_Source\PSoC4/CapSense_1_Structure.c ****             {
 784:Generated_Source\PSoC4/CapSense_1_Structure.c ****                 result = CYRET_BAD_PARAM;
 103              		.loc 1 784 0
 104 0052 0120     		movs	r0, #1
 105              	.LVL6:
 106              	.L3:
 785:Generated_Source\PSoC4/CapSense_1_Structure.c ****             }
 786:Generated_Source\PSoC4/CapSense_1_Structure.c ****         }
 787:Generated_Source\PSoC4/CapSense_1_Structure.c ****     #endif /* #if (0u != CapSense_1_SELF_TEST_EN) */
 788:Generated_Source\PSoC4/CapSense_1_Structure.c **** 
 789:Generated_Source\PSoC4/CapSense_1_Structure.c ****     if (CYRET_SUCCESS == result)
 107              		.loc 1 789 0
 108 0054 0028     		cmp	r0, #0
 109 0056 11D1     		bne	.L5
 790:Generated_Source\PSoC4/CapSense_1_Structure.c ****     {
 791:Generated_Source\PSoC4/CapSense_1_Structure.c ****         /* Check parameter type, offset alignment */
 792:Generated_Source\PSoC4/CapSense_1_Structure.c ****         switch (pData->type)
 110              		.loc 1 792 0
 111 0058 022E     		cmp	r6, #2
 112 005a 04D0     		beq	.L6
 113 005c 032E     		cmp	r6, #3
 114 005e 05D0     		beq	.L7
 115 0060 012E     		cmp	r6, #1
 116 0062 06D1     		bne	.L15
 117 0064 0AE0     		b	.L5
ARM GAS  C:\Users\MICHAE~1.MAC\AppData\Local\Temp\ccOICTN7.s 			page 17


 118              	.L6:
 793:Generated_Source\PSoC4/CapSense_1_Structure.c ****         {
 794:Generated_Source\PSoC4/CapSense_1_Structure.c ****         case DS_PARAM_TYPE_UINT16:
 795:Generated_Source\PSoC4/CapSense_1_Structure.c ****             if (0u != (pData->offset & UINT16_ALIGN_MASK))
 119              		.loc 1 795 0
 120 0066 EB07     		lsls	r3, r5, #31
 121 0068 05D4     		bmi	.L13
 122 006a 07E0     		b	.L5
 123              	.L7:
 796:Generated_Source\PSoC4/CapSense_1_Structure.c ****             {
 797:Generated_Source\PSoC4/CapSense_1_Structure.c ****                 result = CYRET_BAD_PARAM;
 798:Generated_Source\PSoC4/CapSense_1_Structure.c ****             }
 799:Generated_Source\PSoC4/CapSense_1_Structure.c ****             break;
 800:Generated_Source\PSoC4/CapSense_1_Structure.c **** 
 801:Generated_Source\PSoC4/CapSense_1_Structure.c ****         case DS_PARAM_TYPE_UINT32:
 802:Generated_Source\PSoC4/CapSense_1_Structure.c ****             if (0u != (pData->offset & UINT32_ALIGN_MASK))
 124              		.loc 1 802 0
 125 006c AB07     		lsls	r3, r5, #30
 126 006e 04D1     		bne	.L14
 127 0070 04E0     		b	.L5
 128              	.L15:
 803:Generated_Source\PSoC4/CapSense_1_Structure.c ****             {
 804:Generated_Source\PSoC4/CapSense_1_Structure.c ****                 result = CYRET_BAD_PARAM;
 805:Generated_Source\PSoC4/CapSense_1_Structure.c ****             }
 806:Generated_Source\PSoC4/CapSense_1_Structure.c ****             break;
 807:Generated_Source\PSoC4/CapSense_1_Structure.c **** 
 808:Generated_Source\PSoC4/CapSense_1_Structure.c ****         case DS_PARAM_TYPE_UINT8:
 809:Generated_Source\PSoC4/CapSense_1_Structure.c ****             break;
 810:Generated_Source\PSoC4/CapSense_1_Structure.c **** 
 811:Generated_Source\PSoC4/CapSense_1_Structure.c ****         default:
 812:Generated_Source\PSoC4/CapSense_1_Structure.c ****             result = CYRET_BAD_PARAM;
 129              		.loc 1 812 0
 130 0072 0120     		movs	r0, #1
 131              	.LVL7:
 132 0074 02E0     		b	.L5
 133              	.LVL8:
 134              	.L13:
 797:Generated_Source\PSoC4/CapSense_1_Structure.c ****             }
 135              		.loc 1 797 0
 136 0076 0120     		movs	r0, #1
 137              	.LVL9:
 138 0078 00E0     		b	.L5
 139              	.LVL10:
 140              	.L14:
 804:Generated_Source\PSoC4/CapSense_1_Structure.c ****             }
 141              		.loc 1 804 0
 142 007a 0120     		movs	r0, #1
 143              	.LVL11:
 144              	.L5:
 813:Generated_Source\PSoC4/CapSense_1_Structure.c ****             break;
 814:Generated_Source\PSoC4/CapSense_1_Structure.c ****         }
 815:Generated_Source\PSoC4/CapSense_1_Structure.c ****     }
 816:Generated_Source\PSoC4/CapSense_1_Structure.c **** 
 817:Generated_Source\PSoC4/CapSense_1_Structure.c ****     return result;
 818:Generated_Source\PSoC4/CapSense_1_Structure.c **** }
 145              		.loc 1 818 0
 146              		@ sp needed
ARM GAS  C:\Users\MICHAE~1.MAC\AppData\Local\Temp\ccOICTN7.s 			page 18


 147 007c 70BD     		pop	{r4, r5, r6, pc}
 148              		.cfi_endproc
 149              	.LFE2:
 150              		.size	DsParseParamId, .-DsParseParamId
 151 007e C046     		.section	.text.CapSense_1_DsInitialize,"ax",%progbits
 152              		.align	2
 153              		.global	CapSense_1_DsInitialize
 154              		.code	16
 155              		.thumb_func
 156              		.type	CapSense_1_DsInitialize, %function
 157              	CapSense_1_DsInitialize:
 158              	.LFB1:
 513:Generated_Source\PSoC4/CapSense_1_Structure.c ****     #if ((CapSense_1_ENABLE == CapSense_1_CSX_EN) || \
 159              		.loc 1 513 0
 160              		.cfi_startproc
 161              		@ args = 0, pretend = 0, frame = 0
 162              		@ frame_needed = 0, uses_anonymous_args = 0
 163 0000 70B5     		push	{r4, r5, r6, lr}
 164              		.cfi_def_cfa_offset 16
 165              		.cfi_offset 4, -16
 166              		.cfi_offset 5, -12
 167              		.cfi_offset 6, -8
 168              		.cfi_offset 14, -4
 169              	.LVL12:
 534:Generated_Source\PSoC4/CapSense_1_Structure.c **** 
 170              		.loc 1 534 0
 171 0002 1A4C     		ldr	r4, .L21
 172 0004 8822     		movs	r2, #136
 173 0006 5200     		lsls	r2, r2, #1
 174 0008 0021     		movs	r1, #0
 175 000a 2000     		movs	r0, r4
 176 000c FFF7FEFF 		bl	memset
 177              	.LVL13:
 537:Generated_Source\PSoC4/CapSense_1_Structure.c ****     CapSense_1_dsRam.deviceId = CapSense_1_DEVICE_ID;
 178              		.loc 1 537 0
 179 0010 174B     		ldr	r3, .L21+4
 180 0012 2380     		strh	r3, [r4]
 538:Generated_Source\PSoC4/CapSense_1_Structure.c ****     CapSense_1_dsRam.hwClock = CapSense_1_HW_CLOCK;
 181              		.loc 1 538 0
 182 0014 9023     		movs	r3, #144
 183 0016 1B01     		lsls	r3, r3, #4
 184 0018 6380     		strh	r3, [r4, #2]
 539:Generated_Source\PSoC4/CapSense_1_Structure.c **** 
 185              		.loc 1 539 0
 186 001a 164B     		ldr	r3, .L21+8
 187 001c A380     		strh	r3, [r4, #4]
 542:Generated_Source\PSoC4/CapSense_1_Structure.c **** 
 188              		.loc 1 542 0
 189 001e 0923     		movs	r3, #9
 190 0020 E383     		strh	r3, [r4, #30]
 553:Generated_Source\PSoC4/CapSense_1_Structure.c **** 
 191              		.loc 1 553 0
 192 0022 0122     		movs	r2, #1
 193 0024 1733     		adds	r3, r3, #23
 194 0026 E254     		strb	r2, [r4, r3]
 569:Generated_Source\PSoC4/CapSense_1_Structure.c **** 
 195              		.loc 1 569 0
ARM GAS  C:\Users\MICHAE~1.MAC\AppData\Local\Temp\ccOICTN7.s 			page 19


 196 0028 2000     		movs	r0, r4
 197 002a 2230     		adds	r0, r0, #34
 198 002c 5332     		adds	r2, r2, #83
 199 002e 1249     		ldr	r1, .L21+12
 200 0030 5431     		adds	r1, r1, #84
 201 0032 FFF7FEFF 		bl	memcpy
 202              	.LVL14:
 530:Generated_Source\PSoC4/CapSense_1_Structure.c ****     #endif
 203              		.loc 1 530 0
 204 0036 114A     		ldr	r2, .L21+16
 586:Generated_Source\PSoC4/CapSense_1_Structure.c **** 
 205              		.loc 1 586 0
 206 0038 1400     		movs	r4, r2
 207 003a 1434     		adds	r4, r4, #20
 588:Generated_Source\PSoC4/CapSense_1_Structure.c ****         {
 208              		.loc 1 588 0
 209 003c 0623     		movs	r3, #6
 210 003e 10E0     		b	.L17
 211              	.LVL15:
 212              	.L20:
 590:Generated_Source\PSoC4/CapSense_1_Structure.c **** 
 213              		.loc 1 590 0
 214 0040 A368     		ldr	r3, [r4, #8]
 215              	.LVL16:
 592:Generated_Source\PSoC4/CapSense_1_Structure.c ****             {
 216              		.loc 1 592 0
 217 0042 218B     		ldrh	r1, [r4, #24]
 218              	.LVL17:
 219 0044 08E0     		b	.L18
 220              	.LVL18:
 221              	.L19:
 594:Generated_Source\PSoC4/CapSense_1_Structure.c ****                 ptrIdacInit++;
 222              		.loc 1 594 0
 223 0046 1178     		ldrb	r1, [r2]
 224 0048 5975     		strb	r1, [r3, #21]
 225              	.LVL19:
 598:Generated_Source\PSoC4/CapSense_1_Structure.c ****                     ptrIdacInit++;
 226              		.loc 1 598 0
 227 004a 5178     		ldrb	r1, [r2, #1]
 228 004c 9975     		strb	r1, [r3, #22]
 229              	.LVL20:
 601:Generated_Source\PSoC4/CapSense_1_Structure.c ****                     ptrIdacInit++;
 230              		.loc 1 601 0
 231 004e 9178     		ldrb	r1, [r2, #2]
 232 0050 D975     		strb	r1, [r3, #23]
 602:Generated_Source\PSoC4/CapSense_1_Structure.c ****                 #endif /* #if (0u != CapSense_1_MULTI_FREQ_SCAN_EN) */
 233              		.loc 1 602 0
 234 0052 0332     		adds	r2, r2, #3
 235              	.LVL21:
 605:Generated_Source\PSoC4/CapSense_1_Structure.c ****             }
 236              		.loc 1 605 0
 237 0054 1833     		adds	r3, r3, #24
 238              	.LVL22:
 592:Generated_Source\PSoC4/CapSense_1_Structure.c ****             {
 239              		.loc 1 592 0
 240 0056 0100     		movs	r1, r0
 241              	.LVL23:
ARM GAS  C:\Users\MICHAE~1.MAC\AppData\Local\Temp\ccOICTN7.s 			page 20


 242              	.L18:
 592:Generated_Source\PSoC4/CapSense_1_Structure.c ****             {
 243              		.loc 1 592 0 is_stmt 0 discriminator 1
 244 0058 481E     		subs	r0, r1, #1
 245              	.LVL24:
 246 005a 0029     		cmp	r1, #0
 247 005c F3D1     		bne	.L19
 608:Generated_Source\PSoC4/CapSense_1_Structure.c ****         }
 248              		.loc 1 608 0 is_stmt 1
 249 005e 2034     		adds	r4, r4, #32
 250              	.LVL25:
 588:Generated_Source\PSoC4/CapSense_1_Structure.c ****         {
 251              		.loc 1 588 0
 252 0060 2B00     		movs	r3, r5
 253              	.LVL26:
 254              	.L17:
 588:Generated_Source\PSoC4/CapSense_1_Structure.c ****         {
 255              		.loc 1 588 0 is_stmt 0 discriminator 1
 256 0062 5D1E     		subs	r5, r3, #1
 257              	.LVL27:
 258 0064 002B     		cmp	r3, #0
 259 0066 EBD1     		bne	.L20
 639:Generated_Source\PSoC4/CapSense_1_Structure.c **** 
 260              		.loc 1 639 0 is_stmt 1
 261              		@ sp needed
 262              	.LVL28:
 263              	.LVL29:
 264 0068 70BD     		pop	{r4, r5, r6, pc}
 265              	.L22:
 266 006a C046     		.align	2
 267              	.L21:
 268 006c 00000000 		.word	CapSense_1_dsRam
 269 0070 28A6FFFF 		.word	-23000
 270 0074 70170000 		.word	6000
 271 0078 80000000 		.word	.LANCHOR1
 272 007c 00000000 		.word	.LANCHOR0
 273              		.cfi_endproc
 274              	.LFE1:
 275              		.size	CapSense_1_DsInitialize, .-CapSense_1_DsInitialize
 276              		.section	.text.CapSense_1_GetParam,"ax",%progbits
 277              		.align	2
 278              		.global	CapSense_1_GetParam
 279              		.code	16
 280              		.thumb_func
 281              		.type	CapSense_1_GetParam, %function
 282              	CapSense_1_GetParam:
 283              	.LFB3:
 819:Generated_Source\PSoC4/CapSense_1_Structure.c **** 
 820:Generated_Source\PSoC4/CapSense_1_Structure.c **** /*******************************************************************************
 821:Generated_Source\PSoC4/CapSense_1_Structure.c **** * Function Name: CapSense_1_GetParam
 822:Generated_Source\PSoC4/CapSense_1_Structure.c **** ****************************************************************************//**
 823:Generated_Source\PSoC4/CapSense_1_Structure.c **** *
 824:Generated_Source\PSoC4/CapSense_1_Structure.c **** * \brief
 825:Generated_Source\PSoC4/CapSense_1_Structure.c **** *  Gets the specified parameter value from the \ref group_structures.
 826:Generated_Source\PSoC4/CapSense_1_Structure.c **** *
 827:Generated_Source\PSoC4/CapSense_1_Structure.c **** * \details
 828:Generated_Source\PSoC4/CapSense_1_Structure.c **** *  This function gets the value of the specified parameter by the paramId
ARM GAS  C:\Users\MICHAE~1.MAC\AppData\Local\Temp\ccOICTN7.s 			page 21


 829:Generated_Source\PSoC4/CapSense_1_Structure.c **** *  argument. The paramId for each register is available in the
 830:Generated_Source\PSoC4/CapSense_1_Structure.c **** *  CapSense_1 RegisterMap header file as
 831:Generated_Source\PSoC4/CapSense_1_Structure.c **** *  CapSense_1_<ParameterName>_PARAM_ID. The paramId is a special
 832:Generated_Source\PSoC4/CapSense_1_Structure.c **** *  enumerated value generated by the customizer. The format of paramId is as
 833:Generated_Source\PSoC4/CapSense_1_Structure.c **** *  follows:
 834:Generated_Source\PSoC4/CapSense_1_Structure.c **** *    1. [ byte 3 byte 2 byte 1 byte 0 ]
 835:Generated_Source\PSoC4/CapSense_1_Structure.c **** *    2. [ TTWFCCCC UIIIIIII MMMMMMMM LLLLLLLL ]
 836:Generated_Source\PSoC4/CapSense_1_Structure.c **** *    3. T - encodes the parameter type:
 837:Generated_Source\PSoC4/CapSense_1_Structure.c **** *      - 01b: uint8
 838:Generated_Source\PSoC4/CapSense_1_Structure.c **** *      - 10b: uint16
 839:Generated_Source\PSoC4/CapSense_1_Structure.c **** *      - 11b: uint32
 840:Generated_Source\PSoC4/CapSense_1_Structure.c **** *    4. W - indicates whether the parameter is writable:
 841:Generated_Source\PSoC4/CapSense_1_Structure.c **** *      - 0: ReadOnly
 842:Generated_Source\PSoC4/CapSense_1_Structure.c **** *      - 1: Read/Write
 843:Generated_Source\PSoC4/CapSense_1_Structure.c **** *    5. C - 4 bit CRC (X^3 + 1) of the whole paramId word, the C bits are
 844:Generated_Source\PSoC4/CapSense_1_Structure.c **** *       filled with 0s when the CRC is calculated.
 845:Generated_Source\PSoC4/CapSense_1_Structure.c **** *    6. U - indicates if the parameter affects the RAM Widget Object CRC.
 846:Generated_Source\PSoC4/CapSense_1_Structure.c **** *    7. I - specifies that the widgetId parameter belongs to
 847:Generated_Source\PSoC4/CapSense_1_Structure.c **** *    8. M,L - the parameter offset MSB and LSB accordingly in:
 848:Generated_Source\PSoC4/CapSense_1_Structure.c **** *      - Flash Data Structure if W bit is 0.
 849:Generated_Source\PSoC4/CapSense_1_Structure.c **** *      - RAM Data Structure if W bit is 1.
 850:Generated_Source\PSoC4/CapSense_1_Structure.c **** *
 851:Generated_Source\PSoC4/CapSense_1_Structure.c **** *  Refer to the \ref group_structures section for details of the data structure
 852:Generated_Source\PSoC4/CapSense_1_Structure.c **** *  organization and examples of its register access.
 853:Generated_Source\PSoC4/CapSense_1_Structure.c **** *
 854:Generated_Source\PSoC4/CapSense_1_Structure.c **** * \param paramId
 855:Generated_Source\PSoC4/CapSense_1_Structure.c **** *  Specifies the ID of parameter to get its value.
 856:Generated_Source\PSoC4/CapSense_1_Structure.c **** *  A macro for the parameter ID can be found in the CapSense_1 RegisterMap header
 857:Generated_Source\PSoC4/CapSense_1_Structure.c **** *  file defined as CapSense_1_<ParameterName>_PARAM_ID.
 858:Generated_Source\PSoC4/CapSense_1_Structure.c **** *
 859:Generated_Source\PSoC4/CapSense_1_Structure.c **** * \param value
 860:Generated_Source\PSoC4/CapSense_1_Structure.c **** *  The pointer to a variable to be updated with the obtained value.
 861:Generated_Source\PSoC4/CapSense_1_Structure.c **** *
 862:Generated_Source\PSoC4/CapSense_1_Structure.c **** * \return
 863:Generated_Source\PSoC4/CapSense_1_Structure.c **** *  Returns the status of the operation:
 864:Generated_Source\PSoC4/CapSense_1_Structure.c **** *    - CYRET_SUCCESS - The operation is successfully completed.
 865:Generated_Source\PSoC4/CapSense_1_Structure.c **** *    - CYRET_BAD_PARAM - The input parameter is invalid.
 866:Generated_Source\PSoC4/CapSense_1_Structure.c **** *
 867:Generated_Source\PSoC4/CapSense_1_Structure.c **** *******************************************************************************/
 868:Generated_Source\PSoC4/CapSense_1_Structure.c **** cystatus CapSense_1_GetParam(uint32 paramId, uint32 *value)
 869:Generated_Source\PSoC4/CapSense_1_Structure.c **** {
 284              		.loc 1 869 0
 285              		.cfi_startproc
 286              		@ args = 0, pretend = 0, frame = 8
 287              		@ frame_needed = 0, uses_anonymous_args = 0
 288              	.LVL30:
 289 0000 30B5     		push	{r4, r5, lr}
 290              		.cfi_def_cfa_offset 12
 291              		.cfi_offset 4, -12
 292              		.cfi_offset 5, -8
 293              		.cfi_offset 14, -4
 294 0002 83B0     		sub	sp, sp, #12
 295              		.cfi_def_cfa_offset 24
 296 0004 0D00     		movs	r5, r1
 870:Generated_Source\PSoC4/CapSense_1_Structure.c ****     PARAM_ID_STRUCT pData;
 871:Generated_Source\PSoC4/CapSense_1_Structure.c ****     cystatus result;
 872:Generated_Source\PSoC4/CapSense_1_Structure.c **** 
ARM GAS  C:\Users\MICHAE~1.MAC\AppData\Local\Temp\ccOICTN7.s 			page 22


 873:Generated_Source\PSoC4/CapSense_1_Structure.c ****     union
 874:Generated_Source\PSoC4/CapSense_1_Structure.c ****     {
 875:Generated_Source\PSoC4/CapSense_1_Structure.c ****         volatile void   const * ptr;
 876:Generated_Source\PSoC4/CapSense_1_Structure.c ****         volatile uint8  const * ptrUint8;
 877:Generated_Source\PSoC4/CapSense_1_Structure.c ****         volatile uint16 const * ptrUint16;
 878:Generated_Source\PSoC4/CapSense_1_Structure.c ****         volatile uint32 const * ptrUint32;
 879:Generated_Source\PSoC4/CapSense_1_Structure.c ****     } ptrData;
 880:Generated_Source\PSoC4/CapSense_1_Structure.c **** 
 881:Generated_Source\PSoC4/CapSense_1_Structure.c ****     result = DsParseParamId(paramId, &pData);
 297              		.loc 1 881 0
 298 0006 6946     		mov	r1, sp
 299              	.LVL31:
 300 0008 FFF7FEFF 		bl	DsParseParamId
 301              	.LVL32:
 302 000c 041E     		subs	r4, r0, #0
 303              	.LVL33:
 882:Generated_Source\PSoC4/CapSense_1_Structure.c **** 
 883:Generated_Source\PSoC4/CapSense_1_Structure.c ****     /* Parse and validate paramId */
 884:Generated_Source\PSoC4/CapSense_1_Structure.c ****     if (CYRET_SUCCESS == result)
 304              		.loc 1 884 0
 305 000e 1FD1     		bne	.L24
 885:Generated_Source\PSoC4/CapSense_1_Structure.c ****     {
 886:Generated_Source\PSoC4/CapSense_1_Structure.c ****         /* Get base address of parameter */
 887:Generated_Source\PSoC4/CapSense_1_Structure.c ****         if (0u == pData.flash)
 306              		.loc 1 887 0
 307 0010 6B46     		mov	r3, sp
 308 0012 5B79     		ldrb	r3, [r3, #5]
 309 0014 002B     		cmp	r3, #0
 310 0016 01D1     		bne	.L25
 888:Generated_Source\PSoC4/CapSense_1_Structure.c ****         {
 889:Generated_Source\PSoC4/CapSense_1_Structure.c ****             ptrData.ptr = &CapSense_1_dsRam;
 311              		.loc 1 889 0
 312 0018 0F4A     		ldr	r2, .L30
 313              	.LVL34:
 314 001a 02E0     		b	.L26
 315              	.L25:
 890:Generated_Source\PSoC4/CapSense_1_Structure.c ****         }
 891:Generated_Source\PSoC4/CapSense_1_Structure.c ****         else
 892:Generated_Source\PSoC4/CapSense_1_Structure.c ****         {
 893:Generated_Source\PSoC4/CapSense_1_Structure.c ****             ptrData.ptr = &CapSense_1_dsFlash;
 316              		.loc 1 893 0
 317 001c 0F4B     		ldr	r3, .L30+4
 318 001e 1433     		adds	r3, r3, #20
 319 0020 1A00     		movs	r2, r3
 320              	.L26:
 894:Generated_Source\PSoC4/CapSense_1_Structure.c ****         }
 895:Generated_Source\PSoC4/CapSense_1_Structure.c **** 
 896:Generated_Source\PSoC4/CapSense_1_Structure.c ****         /* Add offset to base address */
 897:Generated_Source\PSoC4/CapSense_1_Structure.c ****         ptrData.ptrUint8 += pData.offset;
 321              		.loc 1 897 0
 322 0022 6B46     		mov	r3, sp
 323 0024 1B88     		ldrh	r3, [r3]
 324              	.LVL35:
 325 0026 D318     		adds	r3, r2, r3
 898:Generated_Source\PSoC4/CapSense_1_Structure.c **** 
 899:Generated_Source\PSoC4/CapSense_1_Structure.c ****         /* Read data */
 900:Generated_Source\PSoC4/CapSense_1_Structure.c ****         if (DS_PARAM_TYPE_UINT8 == pData.type)
ARM GAS  C:\Users\MICHAE~1.MAC\AppData\Local\Temp\ccOICTN7.s 			page 23


 326              		.loc 1 900 0
 327 0028 6A46     		mov	r2, sp
 328              	.LVL36:
 329 002a D279     		ldrb	r2, [r2, #7]
 330 002c 012A     		cmp	r2, #1
 331 002e 02D1     		bne	.L27
 901:Generated_Source\PSoC4/CapSense_1_Structure.c ****         {
 902:Generated_Source\PSoC4/CapSense_1_Structure.c ****             *value = (uint32) (*ptrData.ptrUint8);
 332              		.loc 1 902 0
 333 0030 1B78     		ldrb	r3, [r3]
 334 0032 2B60     		str	r3, [r5]
 335 0034 0CE0     		b	.L24
 336              	.L27:
 903:Generated_Source\PSoC4/CapSense_1_Structure.c ****         }
 904:Generated_Source\PSoC4/CapSense_1_Structure.c ****         else if (DS_PARAM_TYPE_UINT16 == pData.type)
 337              		.loc 1 904 0
 338 0036 022A     		cmp	r2, #2
 339 0038 02D1     		bne	.L28
 905:Generated_Source\PSoC4/CapSense_1_Structure.c ****         {
 906:Generated_Source\PSoC4/CapSense_1_Structure.c ****             *value = (uint32) (*ptrData.ptrUint16);
 340              		.loc 1 906 0
 341 003a 1B88     		ldrh	r3, [r3]
 342 003c 2B60     		str	r3, [r5]
 343 003e 07E0     		b	.L24
 344              	.L28:
 907:Generated_Source\PSoC4/CapSense_1_Structure.c ****         }
 908:Generated_Source\PSoC4/CapSense_1_Structure.c ****         else if (DS_PARAM_TYPE_UINT32 == pData.type)
 345              		.loc 1 908 0
 346 0040 032A     		cmp	r2, #3
 347 0042 02D1     		bne	.L29
 909:Generated_Source\PSoC4/CapSense_1_Structure.c ****         {
 910:Generated_Source\PSoC4/CapSense_1_Structure.c ****             *value = *ptrData.ptrUint32;
 348              		.loc 1 910 0
 349 0044 1B68     		ldr	r3, [r3]
 350 0046 2B60     		str	r3, [r5]
 351 0048 02E0     		b	.L24
 352              	.L29:
 911:Generated_Source\PSoC4/CapSense_1_Structure.c ****         }
 912:Generated_Source\PSoC4/CapSense_1_Structure.c ****         else
 913:Generated_Source\PSoC4/CapSense_1_Structure.c ****         {
 914:Generated_Source\PSoC4/CapSense_1_Structure.c ****             /* Parameter comes here already validated. */
 915:Generated_Source\PSoC4/CapSense_1_Structure.c ****             CYASSERT(0u);
 353              		.loc 1 915 0 discriminator 1
 354 004a 0020     		movs	r0, #0
 355              	.LVL37:
 356 004c FFF7FEFF 		bl	CyHalt
 357              	.LVL38:
 358              	.L24:
 916:Generated_Source\PSoC4/CapSense_1_Structure.c ****         }
 917:Generated_Source\PSoC4/CapSense_1_Structure.c ****     }
 918:Generated_Source\PSoC4/CapSense_1_Structure.c **** 
 919:Generated_Source\PSoC4/CapSense_1_Structure.c ****     return result;
 920:Generated_Source\PSoC4/CapSense_1_Structure.c **** }
 359              		.loc 1 920 0
 360 0050 2000     		movs	r0, r4
 361 0052 03B0     		add	sp, sp, #12
 362              		@ sp needed
ARM GAS  C:\Users\MICHAE~1.MAC\AppData\Local\Temp\ccOICTN7.s 			page 24


 363              	.LVL39:
 364              	.LVL40:
 365 0054 30BD     		pop	{r4, r5, pc}
 366              	.L31:
 367 0056 C046     		.align	2
 368              	.L30:
 369 0058 00000000 		.word	CapSense_1_dsRam
 370 005c 00000000 		.word	.LANCHOR0
 371              		.cfi_endproc
 372              	.LFE3:
 373              		.size	CapSense_1_GetParam, .-CapSense_1_GetParam
 374              		.section	.text.CapSense_1_SetParam,"ax",%progbits
 375              		.align	2
 376              		.global	CapSense_1_SetParam
 377              		.code	16
 378              		.thumb_func
 379              		.type	CapSense_1_SetParam, %function
 380              	CapSense_1_SetParam:
 381              	.LFB4:
 921:Generated_Source\PSoC4/CapSense_1_Structure.c **** 
 922:Generated_Source\PSoC4/CapSense_1_Structure.c **** 
 923:Generated_Source\PSoC4/CapSense_1_Structure.c **** /*******************************************************************************
 924:Generated_Source\PSoC4/CapSense_1_Structure.c **** * Function Name: CapSense_1_SetParam
 925:Generated_Source\PSoC4/CapSense_1_Structure.c **** ****************************************************************************//**
 926:Generated_Source\PSoC4/CapSense_1_Structure.c **** *
 927:Generated_Source\PSoC4/CapSense_1_Structure.c **** * \brief
 928:Generated_Source\PSoC4/CapSense_1_Structure.c **** *  Sets a new value for the specified parameter in the \ref group_structures.
 929:Generated_Source\PSoC4/CapSense_1_Structure.c **** *
 930:Generated_Source\PSoC4/CapSense_1_Structure.c **** * \details
 931:Generated_Source\PSoC4/CapSense_1_Structure.c **** *  This function sets the value of the specified parameter by the paramId
 932:Generated_Source\PSoC4/CapSense_1_Structure.c **** *  argument. The paramId for each register is available in the
 933:Generated_Source\PSoC4/CapSense_1_Structure.c **** *  CapSense_1 RegisterMap header file as
 934:Generated_Source\PSoC4/CapSense_1_Structure.c **** *  CapSense_1_<ParameterName>_PARAM_ID. The paramId is a special
 935:Generated_Source\PSoC4/CapSense_1_Structure.c **** *  enumerated value generated by the customizer. The format of paramId is as
 936:Generated_Source\PSoC4/CapSense_1_Structure.c **** *  follows:
 937:Generated_Source\PSoC4/CapSense_1_Structure.c **** *    1. [ byte 3 byte 2 byte 1 byte 0 ]
 938:Generated_Source\PSoC4/CapSense_1_Structure.c **** *    2. [ TTWFCCCC UIIIIIII MMMMMMMM LLLLLLLL ]
 939:Generated_Source\PSoC4/CapSense_1_Structure.c **** *    3. T - encodes the parameter type:
 940:Generated_Source\PSoC4/CapSense_1_Structure.c **** *      - 01b: uint8
 941:Generated_Source\PSoC4/CapSense_1_Structure.c **** *      - 10b: uint16
 942:Generated_Source\PSoC4/CapSense_1_Structure.c **** *      - 11b: uint32
 943:Generated_Source\PSoC4/CapSense_1_Structure.c **** *    4. W - indicates whether the parameter is writable:
 944:Generated_Source\PSoC4/CapSense_1_Structure.c **** *      - 0: ReadOnly
 945:Generated_Source\PSoC4/CapSense_1_Structure.c **** *      - 1: Read/Write
 946:Generated_Source\PSoC4/CapSense_1_Structure.c **** *    5. C - 4 bit CRC (X^3 + 1) of the whole paramId word, the C bits are
 947:Generated_Source\PSoC4/CapSense_1_Structure.c **** *       filled with 0s when the CRC is calculated.
 948:Generated_Source\PSoC4/CapSense_1_Structure.c **** *    6. U - indicates if the parameter affects the RAM Widget Object CRC.
 949:Generated_Source\PSoC4/CapSense_1_Structure.c **** *    7. I - specifies that the widgetId parameter belongs to
 950:Generated_Source\PSoC4/CapSense_1_Structure.c **** *    8. M,L - the parameter offset MSB and LSB accordingly in:
 951:Generated_Source\PSoC4/CapSense_1_Structure.c **** *      - Flash Data Structure if W bit is 0.
 952:Generated_Source\PSoC4/CapSense_1_Structure.c **** *      - RAM Data Structure if W bit is 1.
 953:Generated_Source\PSoC4/CapSense_1_Structure.c **** *
 954:Generated_Source\PSoC4/CapSense_1_Structure.c **** *  Refer to the \ref group_structures section for details of the data structure
 955:Generated_Source\PSoC4/CapSense_1_Structure.c **** *  organization and examples of its register access.
 956:Generated_Source\PSoC4/CapSense_1_Structure.c **** *
 957:Generated_Source\PSoC4/CapSense_1_Structure.c **** *  This function writes specified value into the desired register without
 958:Generated_Source\PSoC4/CapSense_1_Structure.c **** *  other registers update. It is application layer responsibility to keep all
ARM GAS  C:\Users\MICHAE~1.MAC\AppData\Local\Temp\ccOICTN7.s 			page 25


 959:Generated_Source\PSoC4/CapSense_1_Structure.c **** *  the data structure registers aligned. Repeated call of
 960:Generated_Source\PSoC4/CapSense_1_Structure.c **** *  CapSense_1_Start() function helps aligning dependent register values.
 961:Generated_Source\PSoC4/CapSense_1_Structure.c **** *
 962:Generated_Source\PSoC4/CapSense_1_Structure.c **** * \param paramId
 963:Generated_Source\PSoC4/CapSense_1_Structure.c **** *  Specifies the ID of parameter to set its value.
 964:Generated_Source\PSoC4/CapSense_1_Structure.c **** *  A macro for the parameter ID can be found in the CapSense_1 RegisterMap header
 965:Generated_Source\PSoC4/CapSense_1_Structure.c **** *  file defined as CapSense_1_<ParameterName>_PARAM_ID.
 966:Generated_Source\PSoC4/CapSense_1_Structure.c **** 
 967:Generated_Source\PSoC4/CapSense_1_Structure.c **** * \param value
 968:Generated_Source\PSoC4/CapSense_1_Structure.c **** *  Specifies the new parameter's value.
 969:Generated_Source\PSoC4/CapSense_1_Structure.c **** *
 970:Generated_Source\PSoC4/CapSense_1_Structure.c **** * \return
 971:Generated_Source\PSoC4/CapSense_1_Structure.c **** *  Returns the status of the operation:
 972:Generated_Source\PSoC4/CapSense_1_Structure.c **** *    - CYRET_SUCCESS - The operation is successfully completed.
 973:Generated_Source\PSoC4/CapSense_1_Structure.c **** *    - CYRET_BAD_PARAM - The input parameter is invalid.
 974:Generated_Source\PSoC4/CapSense_1_Structure.c **** *
 975:Generated_Source\PSoC4/CapSense_1_Structure.c **** *******************************************************************************/
 976:Generated_Source\PSoC4/CapSense_1_Structure.c **** cystatus CapSense_1_SetParam(uint32 paramId, uint32 value)
 977:Generated_Source\PSoC4/CapSense_1_Structure.c **** {
 382              		.loc 1 977 0
 383              		.cfi_startproc
 384              		@ args = 0, pretend = 0, frame = 8
 385              		@ frame_needed = 0, uses_anonymous_args = 0
 386              	.LVL41:
 387 0000 30B5     		push	{r4, r5, lr}
 388              		.cfi_def_cfa_offset 12
 389              		.cfi_offset 4, -12
 390              		.cfi_offset 5, -8
 391              		.cfi_offset 14, -4
 392 0002 83B0     		sub	sp, sp, #12
 393              		.cfi_def_cfa_offset 24
 394 0004 0D00     		movs	r5, r1
 978:Generated_Source\PSoC4/CapSense_1_Structure.c ****     cystatus result;
 979:Generated_Source\PSoC4/CapSense_1_Structure.c ****     PARAM_ID_STRUCT pData;
 980:Generated_Source\PSoC4/CapSense_1_Structure.c **** 
 981:Generated_Source\PSoC4/CapSense_1_Structure.c ****     union
 982:Generated_Source\PSoC4/CapSense_1_Structure.c ****     {
 983:Generated_Source\PSoC4/CapSense_1_Structure.c ****         volatile void   * ptr;
 984:Generated_Source\PSoC4/CapSense_1_Structure.c ****         volatile uint8  * ptrUint8;
 985:Generated_Source\PSoC4/CapSense_1_Structure.c ****         volatile uint16 * ptrUint16;
 986:Generated_Source\PSoC4/CapSense_1_Structure.c ****         volatile uint32 * ptrUint32;
 987:Generated_Source\PSoC4/CapSense_1_Structure.c ****     } ptrData;
 988:Generated_Source\PSoC4/CapSense_1_Structure.c **** 
 989:Generated_Source\PSoC4/CapSense_1_Structure.c ****     result = DsParseParamId(paramId, &pData);
 395              		.loc 1 989 0
 396 0006 6946     		mov	r1, sp
 397              	.LVL42:
 398 0008 FFF7FEFF 		bl	DsParseParamId
 399              	.LVL43:
 400 000c 041E     		subs	r4, r0, #0
 401              	.LVL44:
 990:Generated_Source\PSoC4/CapSense_1_Structure.c **** 
 991:Generated_Source\PSoC4/CapSense_1_Structure.c ****     /* verify if parameter is writable */
 992:Generated_Source\PSoC4/CapSense_1_Structure.c ****     if (CYRET_SUCCESS == result)
 402              		.loc 1 992 0
 403 000e 04D1     		bne	.L33
 993:Generated_Source\PSoC4/CapSense_1_Structure.c ****     {
ARM GAS  C:\Users\MICHAE~1.MAC\AppData\Local\Temp\ccOICTN7.s 			page 26


 994:Generated_Source\PSoC4/CapSense_1_Structure.c ****         if (0u == pData.rw)
 404              		.loc 1 994 0
 405 0010 6B46     		mov	r3, sp
 406 0012 9B79     		ldrb	r3, [r3, #6]
 407 0014 002B     		cmp	r3, #0
 408 0016 00D1     		bne	.L33
 995:Generated_Source\PSoC4/CapSense_1_Structure.c ****         {
 996:Generated_Source\PSoC4/CapSense_1_Structure.c ****             result = CYRET_BAD_PARAM;
 409              		.loc 1 996 0
 410 0018 0134     		adds	r4, r4, #1
 411              	.L33:
 412              	.LVL45:
 997:Generated_Source\PSoC4/CapSense_1_Structure.c ****         }
 998:Generated_Source\PSoC4/CapSense_1_Structure.c ****     }
 999:Generated_Source\PSoC4/CapSense_1_Structure.c **** 
1000:Generated_Source\PSoC4/CapSense_1_Structure.c ****     /* Parse and validate paramId */
1001:Generated_Source\PSoC4/CapSense_1_Structure.c ****     if (CYRET_SUCCESS == result)
 413              		.loc 1 1001 0
 414 001a 002C     		cmp	r4, #0
 415 001c 16D1     		bne	.L34
1002:Generated_Source\PSoC4/CapSense_1_Structure.c ****     {
1003:Generated_Source\PSoC4/CapSense_1_Structure.c ****         /* Get base address of parameter */
1004:Generated_Source\PSoC4/CapSense_1_Structure.c ****         ptrData.ptr = &CapSense_1_dsRam;
1005:Generated_Source\PSoC4/CapSense_1_Structure.c **** 
1006:Generated_Source\PSoC4/CapSense_1_Structure.c ****         /* Add offset to base address */
1007:Generated_Source\PSoC4/CapSense_1_Structure.c ****         ptrData.ptrUint8 += pData.offset;
 416              		.loc 1 1007 0
 417 001e 6B46     		mov	r3, sp
 418 0020 1A88     		ldrh	r2, [r3]
 419 0022 0C4B     		ldr	r3, .L39
 420 0024 D318     		adds	r3, r2, r3
1008:Generated_Source\PSoC4/CapSense_1_Structure.c **** 
1009:Generated_Source\PSoC4/CapSense_1_Structure.c ****         /* Write data */
1010:Generated_Source\PSoC4/CapSense_1_Structure.c ****         if (DS_PARAM_TYPE_UINT8 == pData.type)
 421              		.loc 1 1010 0
 422 0026 6A46     		mov	r2, sp
 423 0028 D279     		ldrb	r2, [r2, #7]
 424 002a 012A     		cmp	r2, #1
 425 002c 02D1     		bne	.L35
1011:Generated_Source\PSoC4/CapSense_1_Structure.c ****         {
1012:Generated_Source\PSoC4/CapSense_1_Structure.c ****             *ptrData.ptrUint8 = LO8(value);
 426              		.loc 1 1012 0
 427 002e EDB2     		uxtb	r5, r5
 428              	.LVL46:
 429 0030 1D70     		strb	r5, [r3]
 430 0032 0BE0     		b	.L34
 431              	.LVL47:
 432              	.L35:
1013:Generated_Source\PSoC4/CapSense_1_Structure.c ****         }
1014:Generated_Source\PSoC4/CapSense_1_Structure.c ****         else if (DS_PARAM_TYPE_UINT16 == pData.type)
 433              		.loc 1 1014 0
 434 0034 022A     		cmp	r2, #2
 435 0036 02D1     		bne	.L36
1015:Generated_Source\PSoC4/CapSense_1_Structure.c ****         {
1016:Generated_Source\PSoC4/CapSense_1_Structure.c ****             *ptrData.ptrUint16 = LO16(value);
 436              		.loc 1 1016 0
 437 0038 ADB2     		uxth	r5, r5
ARM GAS  C:\Users\MICHAE~1.MAC\AppData\Local\Temp\ccOICTN7.s 			page 27


 438              	.LVL48:
 439 003a 1D80     		strh	r5, [r3]
 440 003c 06E0     		b	.L34
 441              	.LVL49:
 442              	.L36:
1017:Generated_Source\PSoC4/CapSense_1_Structure.c ****         }
1018:Generated_Source\PSoC4/CapSense_1_Structure.c ****         else if (DS_PARAM_TYPE_UINT32 == pData.type)
 443              		.loc 1 1018 0
 444 003e 032A     		cmp	r2, #3
 445 0040 01D1     		bne	.L37
1019:Generated_Source\PSoC4/CapSense_1_Structure.c ****         {
1020:Generated_Source\PSoC4/CapSense_1_Structure.c ****             *ptrData.ptrUint32 = value;
 446              		.loc 1 1020 0
 447 0042 1D60     		str	r5, [r3]
 448 0044 02E0     		b	.L34
 449              	.L37:
1021:Generated_Source\PSoC4/CapSense_1_Structure.c ****         }
1022:Generated_Source\PSoC4/CapSense_1_Structure.c ****         else
1023:Generated_Source\PSoC4/CapSense_1_Structure.c ****         {
1024:Generated_Source\PSoC4/CapSense_1_Structure.c ****             /* Parameter comes here already validated. */
1025:Generated_Source\PSoC4/CapSense_1_Structure.c ****             CYASSERT(0u);
 450              		.loc 1 1025 0 discriminator 1
 451 0046 0020     		movs	r0, #0
 452 0048 FFF7FEFF 		bl	CyHalt
 453              	.LVL50:
 454              	.L34:
1026:Generated_Source\PSoC4/CapSense_1_Structure.c ****         }
1027:Generated_Source\PSoC4/CapSense_1_Structure.c **** 
1028:Generated_Source\PSoC4/CapSense_1_Structure.c ****         #if (CapSense_1_ENABLE == (CapSense_1_TST_WDGT_CRC_EN || CapSense_1_TST_GLOBAL_CRC_EN))
1029:Generated_Source\PSoC4/CapSense_1_Structure.c ****             /* Update widget or global CRC if self-test is enabled and parameter affects it */
1030:Generated_Source\PSoC4/CapSense_1_Structure.c ****             if (0u != pData.affectsCrc)
1031:Generated_Source\PSoC4/CapSense_1_Structure.c ****             {
1032:Generated_Source\PSoC4/CapSense_1_Structure.c ****                 if ((ptrData.ptrUint16 >= &CapSense_1_dsRam.csd0Config) &&
1033:Generated_Source\PSoC4/CapSense_1_Structure.c ****                     (ptrData.ptrUint16 <  &CapSense_1_dsRam.glbCrc))
1034:Generated_Source\PSoC4/CapSense_1_Structure.c ****                 {
1035:Generated_Source\PSoC4/CapSense_1_Structure.c **** 
1036:Generated_Source\PSoC4/CapSense_1_Structure.c ****                     #if (CapSense_1_ENABLE == CapSense_1_TST_GLOBAL_CRC_EN)
1037:Generated_Source\PSoC4/CapSense_1_Structure.c ****                         CapSense_1_DsUpdateGlobalCrc();
1038:Generated_Source\PSoC4/CapSense_1_Structure.c ****                     #endif /* (CapSense_1_ENABLE == CapSense_1_TST_GLOBAL_CRC_EN) */
1039:Generated_Source\PSoC4/CapSense_1_Structure.c **** 
1040:Generated_Source\PSoC4/CapSense_1_Structure.c ****                 }
1041:Generated_Source\PSoC4/CapSense_1_Structure.c ****                 else
1042:Generated_Source\PSoC4/CapSense_1_Structure.c ****                 {
1043:Generated_Source\PSoC4/CapSense_1_Structure.c ****                     #if (CapSense_1_ENABLE == CapSense_1_TST_WDGT_CRC_EN)
1044:Generated_Source\PSoC4/CapSense_1_Structure.c ****                         CapSense_1_DsUpdateWidgetCrc((uint32)pData.widgetId);
1045:Generated_Source\PSoC4/CapSense_1_Structure.c ****                     #endif /* (CapSense_1_ENABLE == CapSense_1_TST_WDGT_CRC_EN) */
1046:Generated_Source\PSoC4/CapSense_1_Structure.c ****                 }
1047:Generated_Source\PSoC4/CapSense_1_Structure.c ****             }
1048:Generated_Source\PSoC4/CapSense_1_Structure.c ****         #endif /* (CapSense_1_ENABLE == (CapSense_1_TST_WDGT_CRC_EN || CapSense_1_TST_GLOBAL_CRC_EN
1049:Generated_Source\PSoC4/CapSense_1_Structure.c ****     }
1050:Generated_Source\PSoC4/CapSense_1_Structure.c **** 
1051:Generated_Source\PSoC4/CapSense_1_Structure.c ****     return result;
1052:Generated_Source\PSoC4/CapSense_1_Structure.c **** }
 455              		.loc 1 1052 0
 456 004c 2000     		movs	r0, r4
 457 004e 03B0     		add	sp, sp, #12
 458              		@ sp needed
ARM GAS  C:\Users\MICHAE~1.MAC\AppData\Local\Temp\ccOICTN7.s 			page 28


 459              	.LVL51:
 460 0050 30BD     		pop	{r4, r5, pc}
 461              	.L40:
 462 0052 C046     		.align	2
 463              	.L39:
 464 0054 00000000 		.word	CapSense_1_dsRam
 465              		.cfi_endproc
 466              	.LFE4:
 467              		.size	CapSense_1_SetParam, .-CapSense_1_SetParam
 468              		.section	.text.CapSense_1_IsAnyWidgetActive,"ax",%progbits
 469              		.align	2
 470              		.global	CapSense_1_IsAnyWidgetActive
 471              		.code	16
 472              		.thumb_func
 473              		.type	CapSense_1_IsAnyWidgetActive, %function
 474              	CapSense_1_IsAnyWidgetActive:
 475              	.LFB5:
1053:Generated_Source\PSoC4/CapSense_1_Structure.c **** 
1054:Generated_Source\PSoC4/CapSense_1_Structure.c **** /*******************************************************************************
1055:Generated_Source\PSoC4/CapSense_1_Structure.c **** * Function Name: CapSense_1_IsAnyWidgetActive
1056:Generated_Source\PSoC4/CapSense_1_Structure.c **** ****************************************************************************//**
1057:Generated_Source\PSoC4/CapSense_1_Structure.c **** *
1058:Generated_Source\PSoC4/CapSense_1_Structure.c **** * \brief
1059:Generated_Source\PSoC4/CapSense_1_Structure.c **** *  Reports if any widget has detected a touch.
1060:Generated_Source\PSoC4/CapSense_1_Structure.c **** *
1061:Generated_Source\PSoC4/CapSense_1_Structure.c **** * \details
1062:Generated_Source\PSoC4/CapSense_1_Structure.c **** *  This function reports if any widget has detected a touch or not by extracting
1063:Generated_Source\PSoC4/CapSense_1_Structure.c **** *  information from the wdgtStatus registers
1064:Generated_Source\PSoC4/CapSense_1_Structure.c **** *  (CapSense_1_WDGT_STATUS<X>_VALUE). This function does not process a
1065:Generated_Source\PSoC4/CapSense_1_Structure.c **** *  widget but extracts processed results from the \ref group_structures.
1066:Generated_Source\PSoC4/CapSense_1_Structure.c **** *
1067:Generated_Source\PSoC4/CapSense_1_Structure.c **** * \return
1068:Generated_Source\PSoC4/CapSense_1_Structure.c **** *   Returns the touch detection status of all the widgets:
1069:Generated_Source\PSoC4/CapSense_1_Structure.c **** *     - Zero - No touch is detected in all the widgets or sensors.
1070:Generated_Source\PSoC4/CapSense_1_Structure.c **** *     - Non-zero - At least one widget or sensor detected a touch.
1071:Generated_Source\PSoC4/CapSense_1_Structure.c **** *
1072:Generated_Source\PSoC4/CapSense_1_Structure.c **** *******************************************************************************/
1073:Generated_Source\PSoC4/CapSense_1_Structure.c **** uint32 CapSense_1_IsAnyWidgetActive(void)
1074:Generated_Source\PSoC4/CapSense_1_Structure.c **** {
 476              		.loc 1 1074 0
 477              		.cfi_startproc
 478              		@ args = 0, pretend = 0, frame = 0
 479              		@ frame_needed = 0, uses_anonymous_args = 0
 480              		@ link register save eliminated.
 481              	.LVL52:
1075:Generated_Source\PSoC4/CapSense_1_Structure.c ****     uint32 result = 0Lu;
1076:Generated_Source\PSoC4/CapSense_1_Structure.c ****     uint32 wdWord;
1077:Generated_Source\PSoC4/CapSense_1_Structure.c **** 
1078:Generated_Source\PSoC4/CapSense_1_Structure.c ****     for (wdWord = CapSense_1_WDGT_STATUS_WORDS; wdWord-- > 0u;)
 482              		.loc 1 1078 0
 483 0000 0123     		movs	r3, #1
1075:Generated_Source\PSoC4/CapSense_1_Structure.c ****     uint32 result = 0Lu;
 484              		.loc 1 1075 0
 485 0002 0020     		movs	r0, #0
 486              		.loc 1 1078 0
 487 0004 06E0     		b	.L42
 488              	.LVL53:
ARM GAS  C:\Users\MICHAE~1.MAC\AppData\Local\Temp\ccOICTN7.s 			page 29


 489              	.L43:
1079:Generated_Source\PSoC4/CapSense_1_Structure.c ****     {
1080:Generated_Source\PSoC4/CapSense_1_Structure.c ****         result |= CapSense_1_dsRam.wdgtStatus[wdWord];
 490              		.loc 1 1080 0
 491 0006 131D     		adds	r3, r2, #4
 492 0008 9B00     		lsls	r3, r3, #2
 493 000a 0449     		ldr	r1, .L44
 494 000c CB18     		adds	r3, r1, r3
 495 000e 5B68     		ldr	r3, [r3, #4]
 496 0010 1843     		orrs	r0, r3
 497              	.LVL54:
1078:Generated_Source\PSoC4/CapSense_1_Structure.c ****     {
 498              		.loc 1 1078 0
 499 0012 1300     		movs	r3, r2
 500              	.LVL55:
 501              	.L42:
1078:Generated_Source\PSoC4/CapSense_1_Structure.c ****     {
 502              		.loc 1 1078 0 is_stmt 0 discriminator 1
 503 0014 5A1E     		subs	r2, r3, #1
 504              	.LVL56:
 505 0016 002B     		cmp	r3, #0
 506 0018 F5D1     		bne	.L43
1081:Generated_Source\PSoC4/CapSense_1_Structure.c ****     }
1082:Generated_Source\PSoC4/CapSense_1_Structure.c **** 
1083:Generated_Source\PSoC4/CapSense_1_Structure.c ****     return result;
1084:Generated_Source\PSoC4/CapSense_1_Structure.c **** }
 507              		.loc 1 1084 0 is_stmt 1
 508              		@ sp needed
 509 001a 7047     		bx	lr
 510              	.L45:
 511              		.align	2
 512              	.L44:
 513 001c 00000000 		.word	CapSense_1_dsRam
 514              		.cfi_endproc
 515              	.LFE5:
 516              		.size	CapSense_1_IsAnyWidgetActive, .-CapSense_1_IsAnyWidgetActive
 517              		.section	.text.CapSense_1_IsWidgetActive,"ax",%progbits
 518              		.align	2
 519              		.global	CapSense_1_IsWidgetActive
 520              		.code	16
 521              		.thumb_func
 522              		.type	CapSense_1_IsWidgetActive, %function
 523              	CapSense_1_IsWidgetActive:
 524              	.LFB6:
1085:Generated_Source\PSoC4/CapSense_1_Structure.c **** 
1086:Generated_Source\PSoC4/CapSense_1_Structure.c **** 
1087:Generated_Source\PSoC4/CapSense_1_Structure.c **** /*******************************************************************************
1088:Generated_Source\PSoC4/CapSense_1_Structure.c **** * Function Name: CapSense_1_IsWidgetActive
1089:Generated_Source\PSoC4/CapSense_1_Structure.c **** ****************************************************************************//**
1090:Generated_Source\PSoC4/CapSense_1_Structure.c **** *
1091:Generated_Source\PSoC4/CapSense_1_Structure.c **** * \brief
1092:Generated_Source\PSoC4/CapSense_1_Structure.c **** *  Reports if the specified widget detects a touch on any of its sensors.
1093:Generated_Source\PSoC4/CapSense_1_Structure.c **** *
1094:Generated_Source\PSoC4/CapSense_1_Structure.c **** * \details
1095:Generated_Source\PSoC4/CapSense_1_Structure.c **** *  This function reports if the specified widget has detected a touch or not by
1096:Generated_Source\PSoC4/CapSense_1_Structure.c **** *  extracting information from the wdgtStatus registers
1097:Generated_Source\PSoC4/CapSense_1_Structure.c **** *  (CapSense_1_WDGT_STATUS<X>_VALUE). This function does not process the
ARM GAS  C:\Users\MICHAE~1.MAC\AppData\Local\Temp\ccOICTN7.s 			page 30


1098:Generated_Source\PSoC4/CapSense_1_Structure.c **** *  widget but extracts processed results from the \ref group_structures.
1099:Generated_Source\PSoC4/CapSense_1_Structure.c **** *
1100:Generated_Source\PSoC4/CapSense_1_Structure.c **** * \param widgetId
1101:Generated_Source\PSoC4/CapSense_1_Structure.c **** *  Specifies the ID number of the widget to get its status.
1102:Generated_Source\PSoC4/CapSense_1_Structure.c **** *  A macro for the widget ID can be found in the CapSense_1 Configuration header
1103:Generated_Source\PSoC4/CapSense_1_Structure.c **** *  file defined as CapSense_1_<WidgetName>_WDGT_ID.
1104:Generated_Source\PSoC4/CapSense_1_Structure.c **** *
1105:Generated_Source\PSoC4/CapSense_1_Structure.c **** * \return
1106:Generated_Source\PSoC4/CapSense_1_Structure.c **** *  Returns the touch detection status of the specified widgets:
1107:Generated_Source\PSoC4/CapSense_1_Structure.c **** *    - Zero - No touch is detected in the specified widget or a wrong widgetId
1108:Generated_Source\PSoC4/CapSense_1_Structure.c **** *      is specified.
1109:Generated_Source\PSoC4/CapSense_1_Structure.c **** *    - Non-zero if at least one sensor of the specified widget is active, i.e.
1110:Generated_Source\PSoC4/CapSense_1_Structure.c **** *      a touch is detected.
1111:Generated_Source\PSoC4/CapSense_1_Structure.c **** *
1112:Generated_Source\PSoC4/CapSense_1_Structure.c **** *******************************************************************************/
1113:Generated_Source\PSoC4/CapSense_1_Structure.c **** uint32 CapSense_1_IsWidgetActive(uint32 widgetId)
1114:Generated_Source\PSoC4/CapSense_1_Structure.c **** {
 525              		.loc 1 1114 0
 526              		.cfi_startproc
 527              		@ args = 0, pretend = 0, frame = 0
 528              		@ frame_needed = 0, uses_anonymous_args = 0
 529              		@ link register save eliminated.
 530              	.LVL57:
1115:Generated_Source\PSoC4/CapSense_1_Structure.c ****     uint32 result = 0Lu;
1116:Generated_Source\PSoC4/CapSense_1_Structure.c **** 
1117:Generated_Source\PSoC4/CapSense_1_Structure.c ****     if (widgetId < CapSense_1_TOTAL_WIDGETS)
 531              		.loc 1 1117 0
 532 0000 0528     		cmp	r0, #5
 533 0002 0BD8     		bhi	.L48
1118:Generated_Source\PSoC4/CapSense_1_Structure.c ****     {
1119:Generated_Source\PSoC4/CapSense_1_Structure.c ****         result = CapSense_1_GET_WIDGET_ACTIVE_STATUS(widgetId);
 534              		.loc 1 1119 0
 535 0004 1F23     		movs	r3, #31
 536 0006 0340     		ands	r3, r0
 537 0008 0122     		movs	r2, #1
 538 000a 9A40     		lsls	r2, r2, r3
 539 000c 4009     		lsrs	r0, r0, #5
 540              	.LVL58:
 541 000e 031D     		adds	r3, r0, #4
 542 0010 9B00     		lsls	r3, r3, #2
 543 0012 0348     		ldr	r0, .L49
 544 0014 C318     		adds	r3, r0, r3
 545 0016 5868     		ldr	r0, [r3, #4]
 546 0018 1040     		ands	r0, r2
 547              	.LVL59:
 548 001a 00E0     		b	.L47
 549              	.LVL60:
 550              	.L48:
1115:Generated_Source\PSoC4/CapSense_1_Structure.c ****     uint32 result = 0Lu;
 551              		.loc 1 1115 0
 552 001c 0020     		movs	r0, #0
 553              	.LVL61:
 554              	.L47:
1120:Generated_Source\PSoC4/CapSense_1_Structure.c ****     }
1121:Generated_Source\PSoC4/CapSense_1_Structure.c ****     return result;
1122:Generated_Source\PSoC4/CapSense_1_Structure.c **** }
 555              		.loc 1 1122 0
ARM GAS  C:\Users\MICHAE~1.MAC\AppData\Local\Temp\ccOICTN7.s 			page 31


 556              		@ sp needed
 557 001e 7047     		bx	lr
 558              	.L50:
 559              		.align	2
 560              	.L49:
 561 0020 00000000 		.word	CapSense_1_dsRam
 562              		.cfi_endproc
 563              	.LFE6:
 564              		.size	CapSense_1_IsWidgetActive, .-CapSense_1_IsWidgetActive
 565              		.section	.text.CapSense_1_IsSensorActive,"ax",%progbits
 566              		.align	2
 567              		.global	CapSense_1_IsSensorActive
 568              		.code	16
 569              		.thumb_func
 570              		.type	CapSense_1_IsSensorActive, %function
 571              	CapSense_1_IsSensorActive:
 572              	.LFB7:
1123:Generated_Source\PSoC4/CapSense_1_Structure.c **** 
1124:Generated_Source\PSoC4/CapSense_1_Structure.c **** 
1125:Generated_Source\PSoC4/CapSense_1_Structure.c **** /*******************************************************************************
1126:Generated_Source\PSoC4/CapSense_1_Structure.c **** * Function Name: CapSense_1_IsSensorActive
1127:Generated_Source\PSoC4/CapSense_1_Structure.c **** ****************************************************************************//**
1128:Generated_Source\PSoC4/CapSense_1_Structure.c **** *
1129:Generated_Source\PSoC4/CapSense_1_Structure.c **** * \brief
1130:Generated_Source\PSoC4/CapSense_1_Structure.c **** *  Reports if the specified sensor in the widget detects a touch.
1131:Generated_Source\PSoC4/CapSense_1_Structure.c **** *
1132:Generated_Source\PSoC4/CapSense_1_Structure.c **** * \details
1133:Generated_Source\PSoC4/CapSense_1_Structure.c **** *  This function reports if the specified sensor in the widget has detected a
1134:Generated_Source\PSoC4/CapSense_1_Structure.c **** *  touch or not by extracting information from the wdgtStatus registers
1135:Generated_Source\PSoC4/CapSense_1_Structure.c **** *  (CapSense_1_WDGT_STATUS<X>_VALUE). This function does not process the
1136:Generated_Source\PSoC4/CapSense_1_Structure.c **** *  widget or sensor but extracts processed results from the \ref group_structures.
1137:Generated_Source\PSoC4/CapSense_1_Structure.c **** *
1138:Generated_Source\PSoC4/CapSense_1_Structure.c **** *  For proximity sensors, this function returns the proximity detection status. To
1139:Generated_Source\PSoC4/CapSense_1_Structure.c **** *  get the finger touch status of proximity sensors, use the
1140:Generated_Source\PSoC4/CapSense_1_Structure.c **** *  CapSense_1_IsProximitySensorActive() function.
1141:Generated_Source\PSoC4/CapSense_1_Structure.c **** *
1142:Generated_Source\PSoC4/CapSense_1_Structure.c **** * \param widgetId
1143:Generated_Source\PSoC4/CapSense_1_Structure.c **** *  Specifies the ID number of the widget.
1144:Generated_Source\PSoC4/CapSense_1_Structure.c **** *  A macro for the widget ID can be found in the CapSense_1 Configuration header
1145:Generated_Source\PSoC4/CapSense_1_Structure.c **** *  file defined as CapSense_1_<WidgetName>_WDGT_ID.
1146:Generated_Source\PSoC4/CapSense_1_Structure.c **** 
1147:Generated_Source\PSoC4/CapSense_1_Structure.c **** * \param sensorId
1148:Generated_Source\PSoC4/CapSense_1_Structure.c **** *  Specifies the ID number of the sensor within the widget to get its touch
1149:Generated_Source\PSoC4/CapSense_1_Structure.c **** *  detection status.
1150:Generated_Source\PSoC4/CapSense_1_Structure.c **** *  A macro for the sensor ID within the specified widget can be found in the
1151:Generated_Source\PSoC4/CapSense_1_Structure.c **** *  CapSense_1 Configuration header file defined as
1152:Generated_Source\PSoC4/CapSense_1_Structure.c **** *  CapSense_1_<WidgetName>_SNS<SensorNumber>_ID.
1153:Generated_Source\PSoC4/CapSense_1_Structure.c **** *
1154:Generated_Source\PSoC4/CapSense_1_Structure.c **** * \return
1155:Generated_Source\PSoC4/CapSense_1_Structure.c **** *  Returns the touch detection status of the specified sensor / widget:
1156:Generated_Source\PSoC4/CapSense_1_Structure.c **** *    - Zero if no touch is detected in the specified sensor / widget or a wrong
1157:Generated_Source\PSoC4/CapSense_1_Structure.c **** *      widget ID / sensor ID is specified.
1158:Generated_Source\PSoC4/CapSense_1_Structure.c **** *    - Non-zero if the specified sensor is active i.e. touch is detected. If the
1159:Generated_Source\PSoC4/CapSense_1_Structure.c **** *      specific sensor belongs to a proximity widget, the proximity detection
1160:Generated_Source\PSoC4/CapSense_1_Structure.c **** *      status is returned.
1161:Generated_Source\PSoC4/CapSense_1_Structure.c **** *
1162:Generated_Source\PSoC4/CapSense_1_Structure.c **** *******************************************************************************/
ARM GAS  C:\Users\MICHAE~1.MAC\AppData\Local\Temp\ccOICTN7.s 			page 32


1163:Generated_Source\PSoC4/CapSense_1_Structure.c **** uint32 CapSense_1_IsSensorActive(uint32 widgetId, uint32 sensorId)
1164:Generated_Source\PSoC4/CapSense_1_Structure.c **** {
 573              		.loc 1 1164 0
 574              		.cfi_startproc
 575              		@ args = 0, pretend = 0, frame = 0
 576              		@ frame_needed = 0, uses_anonymous_args = 0
 577              		@ link register save eliminated.
 578              	.LVL62:
1165:Generated_Source\PSoC4/CapSense_1_Structure.c ****     uint32 result = 0Lu;
1166:Generated_Source\PSoC4/CapSense_1_Structure.c **** 
1167:Generated_Source\PSoC4/CapSense_1_Structure.c ****     if ((widgetId < CapSense_1_TOTAL_WIDGETS) &&
 579              		.loc 1 1167 0
 580 0000 0528     		cmp	r0, #5
 581 0002 0CD8     		bhi	.L53
1168:Generated_Source\PSoC4/CapSense_1_Structure.c ****         (sensorId < CapSense_1_GET_SENSOR_COUNT(widgetId)))
 582              		.loc 1 1168 0 discriminator 1
 583 0004 4301     		lsls	r3, r0, #5
 584 0006 084A     		ldr	r2, .L55
 585 0008 D318     		adds	r3, r2, r3
 586 000a 9B8D     		ldrh	r3, [r3, #44]
1167:Generated_Source\PSoC4/CapSense_1_Structure.c ****         (sensorId < CapSense_1_GET_SENSOR_COUNT(widgetId)))
 587              		.loc 1 1167 0 discriminator 1
 588 000c 8B42     		cmp	r3, r1
 589 000e 08D9     		bls	.L54
1169:Generated_Source\PSoC4/CapSense_1_Structure.c ****     {
1170:Generated_Source\PSoC4/CapSense_1_Structure.c ****         #if (CapSense_1_ENABLE == CapSense_1_PROXIMITY_WIDGET_EN)
1171:Generated_Source\PSoC4/CapSense_1_Structure.c ****             if (CapSense_1_WD_PROXIMITY_E ==
1172:Generated_Source\PSoC4/CapSense_1_Structure.c ****                 (CapSense_1_WD_TYPE_ENUM)CapSense_1_dsFlash.wdgtArray[widgetId].wdgtType)
1173:Generated_Source\PSoC4/CapSense_1_Structure.c ****             {
1174:Generated_Source\PSoC4/CapSense_1_Structure.c ****                 sensorId = CapSense_1_PROX_STS_OFFSET(sensorId);
1175:Generated_Source\PSoC4/CapSense_1_Structure.c ****             }
1176:Generated_Source\PSoC4/CapSense_1_Structure.c ****         #endif /* (CapSense_1_ENABLE != CapSense_1_PROXIMITY_WIDGET_EN) */
1177:Generated_Source\PSoC4/CapSense_1_Structure.c ****         result = CapSense_1_dsRam.snsStatus[widgetId] & (1Lu << sensorId);
 590              		.loc 1 1177 0
 591 0010 064B     		ldr	r3, .L55+4
 592 0012 1818     		adds	r0, r3, r0
 593              	.LVL63:
 594 0014 037E     		ldrb	r3, [r0, #24]
 595 0016 0120     		movs	r0, #1
 596 0018 8840     		lsls	r0, r0, r1
 597 001a 1840     		ands	r0, r3
 598              	.LVL64:
 599 001c 02E0     		b	.L52
 600              	.LVL65:
 601              	.L53:
1165:Generated_Source\PSoC4/CapSense_1_Structure.c **** 
 602              		.loc 1 1165 0
 603 001e 0020     		movs	r0, #0
 604              	.LVL66:
 605 0020 00E0     		b	.L52
 606              	.LVL67:
 607              	.L54:
 608 0022 0020     		movs	r0, #0
 609              	.LVL68:
 610              	.L52:
1178:Generated_Source\PSoC4/CapSense_1_Structure.c ****     }
1179:Generated_Source\PSoC4/CapSense_1_Structure.c **** 
ARM GAS  C:\Users\MICHAE~1.MAC\AppData\Local\Temp\ccOICTN7.s 			page 33


1180:Generated_Source\PSoC4/CapSense_1_Structure.c ****     return result;
1181:Generated_Source\PSoC4/CapSense_1_Structure.c **** }
 611              		.loc 1 1181 0
 612              		@ sp needed
 613 0024 7047     		bx	lr
 614              	.L56:
 615 0026 C046     		.align	2
 616              	.L55:
 617 0028 00000000 		.word	.LANCHOR0
 618 002c 00000000 		.word	CapSense_1_dsRam
 619              		.cfi_endproc
 620              	.LFE7:
 621              		.size	CapSense_1_IsSensorActive, .-CapSense_1_IsSensorActive
 622              		.global	CapSense_1_ramIdacInit
 623              		.global	CapSense_1_ramWidgetInit
 624              		.global	CapSense_1_ioList
 625              		.global	CapSense_1_dsFlash
 626              		.comm	CapSense_1_dsRam,272,4
 627              		.section	.rodata
 628              		.align	2
 629              		.set	.LANCHOR0,. + 0
 630              		.set	.LANCHOR1,. + 128
 631              		.type	CapSense_1_ramIdacInit, %object
 632              		.size	CapSense_1_ramIdacInit, 18
 633              	CapSense_1_ramIdacInit:
 634 0000 20       		.byte	32
 635 0001 20       		.byte	32
 636 0002 20       		.byte	32
 637 0003 20       		.byte	32
 638 0004 20       		.byte	32
 639 0005 20       		.byte	32
 640 0006 20       		.byte	32
 641 0007 20       		.byte	32
 642 0008 20       		.byte	32
 643 0009 20       		.byte	32
 644 000a 20       		.byte	32
 645 000b 20       		.byte	32
 646 000c 20       		.byte	32
 647 000d 20       		.byte	32
 648 000e 20       		.byte	32
 649 000f 20       		.byte	32
 650 0010 20       		.byte	32
 651 0011 20       		.byte	32
 652 0012 0000     		.space	2
 653              		.type	CapSense_1_dsFlash, %object
 654              		.size	CapSense_1_dsFlash, 192
 655              	CapSense_1_dsFlash:
 656 0014 00000000 		.word	CapSense_1_ioList
 657 0018 22000000 		.word	CapSense_1_dsRam+34
 658 001c 76000000 		.word	CapSense_1_dsRam+118
 659 0020 B4000000 		.word	CapSense_1_fltrHistoryButton0
 660 0024 EC000000 		.word	CapSense_1_debounceButton0
 661 0028 09280000 		.word	10249
 662 002c 0100     		.short	1
 663 002e 01       		.byte	1
 664 002f 01       		.byte	1
 665 0030 01       		.byte	1
ARM GAS  C:\Users\MICHAE~1.MAC\AppData\Local\Temp\ccOICTN7.s 			page 34


 666 0031 000000   		.space	3
 667 0034 38000000 		.word	CapSense_1_ioList+56
 668 0038 30000000 		.word	CapSense_1_dsRam+48
 669 003c 8E000000 		.word	CapSense_1_dsRam+142
 670 0040 90000000 		.word	CapSense_1_fltrHistoryButton1
 671 0044 E8000000 		.word	CapSense_1_debounceButton1
 672 0048 01280000 		.word	10241
 673 004c 0100     		.short	1
 674 004e 01       		.byte	1
 675 004f 01       		.byte	1
 676 0050 01       		.byte	1
 677 0051 000000   		.space	3
 678 0054 70000000 		.word	CapSense_1_ioList+112
 679 0058 3E000000 		.word	CapSense_1_dsRam+62
 680 005c A6000000 		.word	CapSense_1_dsRam+166
 681 0060 6C000000 		.word	CapSense_1_fltrHistoryButton2
 682 0064 E4000000 		.word	CapSense_1_debounceButton2
 683 0068 01280000 		.word	10241
 684 006c 0100     		.short	1
 685 006e 01       		.byte	1
 686 006f 01       		.byte	1
 687 0070 01       		.byte	1
 688 0071 000000   		.space	3
 689 0074 A8000000 		.word	CapSense_1_ioList+168
 690 0078 4C000000 		.word	CapSense_1_dsRam+76
 691 007c BE000000 		.word	CapSense_1_dsRam+190
 692 0080 48000000 		.word	CapSense_1_fltrHistoryButton3
 693 0084 E0000000 		.word	CapSense_1_debounceButton3
 694 0088 01280000 		.word	10241
 695 008c 0100     		.short	1
 696 008e 01       		.byte	1
 697 008f 01       		.byte	1
 698 0090 01       		.byte	1
 699 0091 000000   		.space	3
 700 0094 E0000000 		.word	CapSense_1_ioList+224
 701 0098 5A000000 		.word	CapSense_1_dsRam+90
 702 009c D6000000 		.word	CapSense_1_dsRam+214
 703 00a0 24000000 		.word	CapSense_1_fltrHistoryButton4
 704 00a4 DC000000 		.word	CapSense_1_debounceButton4
 705 00a8 01280000 		.word	10241
 706 00ac 0100     		.short	1
 707 00ae 01       		.byte	1
 708 00af 01       		.byte	1
 709 00b0 01       		.byte	1
 710 00b1 000000   		.space	3
 711 00b4 18010000 		.word	CapSense_1_ioList+280
 712 00b8 68000000 		.word	CapSense_1_dsRam+104
 713 00bc EE000000 		.word	CapSense_1_dsRam+238
 714 00c0 00000000 		.word	CapSense_1_fltrHistoryButton5
 715 00c4 D8000000 		.word	CapSense_1_debounceButton5
 716 00c8 01280000 		.word	10241
 717 00cc 0100     		.short	1
 718 00ce 01       		.byte	1
 719 00cf 01       		.byte	1
 720 00d0 01       		.byte	1
 721 00d1 000000   		.space	3
 722              		.type	CapSense_1_ramWidgetInit, %object
ARM GAS  C:\Users\MICHAE~1.MAC\AppData\Local\Temp\ccOICTN7.s 			page 35


 723              		.size	CapSense_1_ramWidgetInit, 84
 724              	CapSense_1_ramWidgetInit:
 725 00d4 4B00     		.short	75
 726 00d6 2C01     		.short	300
 727 00d8 4B       		.byte	75
 728 00d9 4B       		.byte	75
 729 00da 14       		.byte	20
 730 00db 02       		.byte	2
 731 00dc 1E       		.byte	30
 732 00dd 00       		.space	1
 733 00de A000     		.short	160
 734 00e0 00       		.byte	0
 735 00e1 00       		.space	1
 736 00e2 6400     		.short	100
 737 00e4 2C01     		.short	300
 738 00e6 28       		.byte	40
 739 00e7 28       		.byte	40
 740 00e8 0A       		.byte	10
 741 00e9 03       		.byte	3
 742 00ea 1E       		.byte	30
 743 00eb 00       		.space	1
 744 00ec A000     		.short	160
 745 00ee 00       		.byte	0
 746 00ef 00       		.space	1
 747 00f0 6400     		.short	100
 748 00f2 2C01     		.short	300
 749 00f4 28       		.byte	40
 750 00f5 28       		.byte	40
 751 00f6 0A       		.byte	10
 752 00f7 03       		.byte	3
 753 00f8 1E       		.byte	30
 754 00f9 00       		.space	1
 755 00fa A000     		.short	160
 756 00fc 00       		.byte	0
 757 00fd 00       		.space	1
 758 00fe 6400     		.short	100
 759 0100 2C01     		.short	300
 760 0102 28       		.byte	40
 761 0103 28       		.byte	40
 762 0104 0A       		.byte	10
 763 0105 03       		.byte	3
 764 0106 1E       		.byte	30
 765 0107 00       		.space	1
 766 0108 A000     		.short	160
 767 010a 00       		.byte	0
 768 010b 00       		.space	1
 769 010c 6400     		.short	100
 770 010e 2C01     		.short	300
 771 0110 28       		.byte	40
 772 0111 28       		.byte	40
 773 0112 0A       		.byte	10
 774 0113 03       		.byte	3
 775 0114 1E       		.byte	30
 776 0115 00       		.space	1
 777 0116 A000     		.short	160
 778 0118 00       		.byte	0
 779 0119 00       		.space	1
ARM GAS  C:\Users\MICHAE~1.MAC\AppData\Local\Temp\ccOICTN7.s 			page 36


 780 011a 6400     		.short	100
 781 011c 2C01     		.short	300
 782 011e 28       		.byte	40
 783 011f 28       		.byte	40
 784 0120 0A       		.byte	10
 785 0121 03       		.byte	3
 786 0122 1E       		.byte	30
 787 0123 00       		.space	1
 788 0124 A000     		.short	160
 789 0126 00       		.byte	0
 790 0127 00       		.space	1
 791              		.type	CapSense_1_ioList, %object
 792              		.size	CapSense_1_ioList, 336
 793              	CapSense_1_ioList:
 794 0128 00000240 		.word	1073872896
 795 012c 08000440 		.word	1074003976
 796 0130 00000440 		.word	1074003968
 797 0134 04000440 		.word	1074003972
 798 0138 0F000000 		.word	15
 799 013c 01000000 		.word	1
 800 0140 00       		.byte	0
 801 0141 00       		.byte	0
 802 0142 00       		.byte	0
 803 0143 00       		.space	1
 804 0144 00000240 		.word	1073872896
 805 0148 08000440 		.word	1074003976
 806 014c 00000440 		.word	1074003968
 807 0150 04000440 		.word	1074003972
 808 0154 000000F0 		.word	-268435456
 809 0158 80000000 		.word	128
 810 015c 1C       		.byte	28
 811 015d 07       		.byte	7
 812 015e 15       		.byte	21
 813 015f 00       		.space	1
 814 0160 00000240 		.word	1073872896
 815 0164 08000440 		.word	1074003976
 816 0168 00000440 		.word	1074003968
 817 016c 04000440 		.word	1074003972
 818 0170 F0000000 		.word	240
 819 0174 02000000 		.word	2
 820 0178 04       		.byte	4
 821 0179 01       		.byte	1
 822 017a 03       		.byte	3
 823 017b 00       		.space	1
 824 017c 00000240 		.word	1073872896
 825 0180 08000440 		.word	1074003976
 826 0184 00000440 		.word	1074003968
 827 0188 04000440 		.word	1074003972
 828 018c 000000F0 		.word	-268435456
 829 0190 80000000 		.word	128
 830 0194 1C       		.byte	28
 831 0195 07       		.byte	7
 832 0196 15       		.byte	21
 833 0197 00       		.space	1
 834 0198 00000240 		.word	1073872896
 835 019c 08000440 		.word	1074003976
 836 01a0 00000440 		.word	1074003968
ARM GAS  C:\Users\MICHAE~1.MAC\AppData\Local\Temp\ccOICTN7.s 			page 37


 837 01a4 04000440 		.word	1074003972
 838 01a8 000F0000 		.word	3840
 839 01ac 04000000 		.word	4
 840 01b0 08       		.byte	8
 841 01b1 02       		.byte	2
 842 01b2 06       		.byte	6
 843 01b3 00       		.space	1
 844 01b4 00000240 		.word	1073872896
 845 01b8 08000440 		.word	1074003976
 846 01bc 00000440 		.word	1074003968
 847 01c0 04000440 		.word	1074003972
 848 01c4 000000F0 		.word	-268435456
 849 01c8 80000000 		.word	128
 850 01cc 1C       		.byte	28
 851 01cd 07       		.byte	7
 852 01ce 15       		.byte	21
 853 01cf 00       		.space	1
 854 01d0 00000240 		.word	1073872896
 855 01d4 08000440 		.word	1074003976
 856 01d8 00000440 		.word	1074003968
 857 01dc 04000440 		.word	1074003972
 858 01e0 00F00000 		.word	61440
 859 01e4 08000000 		.word	8
 860 01e8 0C       		.byte	12
 861 01e9 03       		.byte	3
 862 01ea 09       		.byte	9
 863 01eb 00       		.space	1
 864 01ec 00000240 		.word	1073872896
 865 01f0 08000440 		.word	1074003976
 866 01f4 00000440 		.word	1074003968
 867 01f8 04000440 		.word	1074003972
 868 01fc 000000F0 		.word	-268435456
 869 0200 80000000 		.word	128
 870 0204 1C       		.byte	28
 871 0205 07       		.byte	7
 872 0206 15       		.byte	21
 873 0207 00       		.space	1
 874 0208 00000240 		.word	1073872896
 875 020c 08000440 		.word	1074003976
 876 0210 00000440 		.word	1074003968
 877 0214 04000440 		.word	1074003972
 878 0218 00000F00 		.word	983040
 879 021c 10000000 		.word	16
 880 0220 10       		.byte	16
 881 0221 04       		.byte	4
 882 0222 0C       		.byte	12
 883 0223 00       		.space	1
 884 0224 00000240 		.word	1073872896
 885 0228 08000440 		.word	1074003976
 886 022c 00000440 		.word	1074003968
 887 0230 04000440 		.word	1074003972
 888 0234 000000F0 		.word	-268435456
 889 0238 80000000 		.word	128
 890 023c 1C       		.byte	28
 891 023d 07       		.byte	7
 892 023e 15       		.byte	21
 893 023f 00       		.space	1
ARM GAS  C:\Users\MICHAE~1.MAC\AppData\Local\Temp\ccOICTN7.s 			page 38


 894 0240 00000240 		.word	1073872896
 895 0244 08000440 		.word	1074003976
 896 0248 00000440 		.word	1074003968
 897 024c 04000440 		.word	1074003972
 898 0250 0000F000 		.word	15728640
 899 0254 20000000 		.word	32
 900 0258 14       		.byte	20
 901 0259 05       		.byte	5
 902 025a 0F       		.byte	15
 903 025b 00       		.space	1
 904 025c 00000240 		.word	1073872896
 905 0260 08000440 		.word	1074003976
 906 0264 00000440 		.word	1074003968
 907 0268 04000440 		.word	1074003972
 908 026c 000000F0 		.word	-268435456
 909 0270 80000000 		.word	128
 910 0274 1C       		.byte	28
 911 0275 07       		.byte	7
 912 0276 15       		.byte	21
 913 0277 00       		.space	1
 914              		.bss
 915              		.align	2
 916              		.type	CapSense_1_fltrHistoryButton5, %object
 917              		.size	CapSense_1_fltrHistoryButton5, 36
 918              	CapSense_1_fltrHistoryButton5:
 919 0000 00000000 		.space	36
 919      00000000 
 919      00000000 
 919      00000000 
 919      00000000 
 920              		.type	CapSense_1_fltrHistoryButton4, %object
 921              		.size	CapSense_1_fltrHistoryButton4, 36
 922              	CapSense_1_fltrHistoryButton4:
 923 0024 00000000 		.space	36
 923      00000000 
 923      00000000 
 923      00000000 
 923      00000000 
 924              		.type	CapSense_1_fltrHistoryButton3, %object
 925              		.size	CapSense_1_fltrHistoryButton3, 36
 926              	CapSense_1_fltrHistoryButton3:
 927 0048 00000000 		.space	36
 927      00000000 
 927      00000000 
 927      00000000 
 927      00000000 
 928              		.type	CapSense_1_fltrHistoryButton2, %object
 929              		.size	CapSense_1_fltrHistoryButton2, 36
 930              	CapSense_1_fltrHistoryButton2:
 931 006c 00000000 		.space	36
 931      00000000 
 931      00000000 
 931      00000000 
 931      00000000 
 932              		.type	CapSense_1_fltrHistoryButton1, %object
 933              		.size	CapSense_1_fltrHistoryButton1, 36
 934              	CapSense_1_fltrHistoryButton1:
ARM GAS  C:\Users\MICHAE~1.MAC\AppData\Local\Temp\ccOICTN7.s 			page 39


 935 0090 00000000 		.space	36
 935      00000000 
 935      00000000 
 935      00000000 
 935      00000000 
 936              		.type	CapSense_1_fltrHistoryButton0, %object
 937              		.size	CapSense_1_fltrHistoryButton0, 36
 938              	CapSense_1_fltrHistoryButton0:
 939 00b4 00000000 		.space	36
 939      00000000 
 939      00000000 
 939      00000000 
 939      00000000 
 940              		.type	CapSense_1_debounceButton5, %object
 941              		.size	CapSense_1_debounceButton5, 1
 942              	CapSense_1_debounceButton5:
 943 00d8 00       		.space	1
 944 00d9 000000   		.space	3
 945              		.type	CapSense_1_debounceButton4, %object
 946              		.size	CapSense_1_debounceButton4, 1
 947              	CapSense_1_debounceButton4:
 948 00dc 00       		.space	1
 949 00dd 000000   		.space	3
 950              		.type	CapSense_1_debounceButton3, %object
 951              		.size	CapSense_1_debounceButton3, 1
 952              	CapSense_1_debounceButton3:
 953 00e0 00       		.space	1
 954 00e1 000000   		.space	3
 955              		.type	CapSense_1_debounceButton2, %object
 956              		.size	CapSense_1_debounceButton2, 1
 957              	CapSense_1_debounceButton2:
 958 00e4 00       		.space	1
 959 00e5 000000   		.space	3
 960              		.type	CapSense_1_debounceButton1, %object
 961              		.size	CapSense_1_debounceButton1, 1
 962              	CapSense_1_debounceButton1:
 963 00e8 00       		.space	1
 964 00e9 000000   		.space	3
 965              		.type	CapSense_1_debounceButton0, %object
 966              		.size	CapSense_1_debounceButton0, 1
 967              	CapSense_1_debounceButton0:
 968 00ec 00       		.space	1
 969              		.text
 970              	.Letext0:
 971              		.file 2 "Generated_Source\\PSoC4/cytypes.h"
 972              		.file 3 "Generated_Source\\PSoC4\\CapSense_1_Configuration.h"
 973              		.file 4 "Generated_Source\\PSoC4\\CapSense_1_Structure.h"
 974              		.file 5 "Generated_Source\\PSoC4\\CyLib.h"