ARM GAS  C:\Users\MICHAE~1.MAC\AppData\Local\Temp\ccM1UI6U.s 			page 1


   1              		.syntax unified
   2              		.cpu cortex-m0plus
   3              		.fpu softvfp
   4              		.eabi_attribute 20, 1
   5              		.eabi_attribute 21, 1
   6              		.eabi_attribute 23, 3
   7              		.eabi_attribute 24, 1
   8              		.eabi_attribute 25, 1
   9              		.eabi_attribute 26, 1
  10              		.eabi_attribute 30, 1
  11              		.eabi_attribute 34, 0
  12              		.eabi_attribute 18, 4
  13              		.thumb
  14              		.syntax unified
  15              		.file	"Comp.c"
  16              		.text
  17              	.Ltext0:
  18              		.cfi_sections	.debug_frame
  19              		.section	.text.Comp_Init,"ax",%progbits
  20              		.align	2
  21              		.global	Comp_Init
  22              		.code	16
  23              		.thumb_func
  24              		.type	Comp_Init, %function
  25              	Comp_Init:
  26              	.LFB2:
  27              		.file 1 "Generated_Source\\PSoC4\\Comp.c"
   1:Generated_Source\PSoC4/Comp.c **** /*******************************************************************************
   2:Generated_Source\PSoC4/Comp.c **** * File Name: Comp.c
   3:Generated_Source\PSoC4/Comp.c **** * Version 2.20
   4:Generated_Source\PSoC4/Comp.c **** *
   5:Generated_Source\PSoC4/Comp.c **** * Description:
   6:Generated_Source\PSoC4/Comp.c **** *  This file provides the source code to the API for the Low Power Comparator
   7:Generated_Source\PSoC4/Comp.c **** *  component.
   8:Generated_Source\PSoC4/Comp.c **** *
   9:Generated_Source\PSoC4/Comp.c **** * Note:
  10:Generated_Source\PSoC4/Comp.c **** *  None
  11:Generated_Source\PSoC4/Comp.c **** *
  12:Generated_Source\PSoC4/Comp.c **** ********************************************************************************
  13:Generated_Source\PSoC4/Comp.c **** * Copyright 2013-2016, Cypress Semiconductor Corporation.  All rights reserved.
  14:Generated_Source\PSoC4/Comp.c **** * You may use this file only in accordance with the license, terms, conditions,
  15:Generated_Source\PSoC4/Comp.c **** * disclaimers, and limitations in the end user license agreement accompanying
  16:Generated_Source\PSoC4/Comp.c **** * the software package with which this file was provided.
  17:Generated_Source\PSoC4/Comp.c **** *******************************************************************************/
  18:Generated_Source\PSoC4/Comp.c **** 
  19:Generated_Source\PSoC4/Comp.c **** #include "Comp.h"
  20:Generated_Source\PSoC4/Comp.c **** #include "CyLib.h"
  21:Generated_Source\PSoC4/Comp.c **** #include "cyPm.h"
  22:Generated_Source\PSoC4/Comp.c **** 
  23:Generated_Source\PSoC4/Comp.c **** uint8 Comp_initVar = 0u;
  24:Generated_Source\PSoC4/Comp.c **** static uint32 Comp_internalIntr = 0u;
  25:Generated_Source\PSoC4/Comp.c **** #if(Comp_CY_LPCOMP_V2)
  26:Generated_Source\PSoC4/Comp.c ****     #if(CY_IP_SRSSV2)
  27:Generated_Source\PSoC4/Comp.c ****         /* This variable saves INTR_MASK register since it get reset after wakeup 
  28:Generated_Source\PSoC4/Comp.c ****         * from Hibernate. Attribute CY_NOINIT puts SRAM variable in memory section 
  29:Generated_Source\PSoC4/Comp.c ****         * which is retained in low power modes 
  30:Generated_Source\PSoC4/Comp.c ****         */
ARM GAS  C:\Users\MICHAE~1.MAC\AppData\Local\Temp\ccM1UI6U.s 			page 2


  31:Generated_Source\PSoC4/Comp.c ****         CY_NOINIT static uint32 Comp_intrMaskRegState;
  32:Generated_Source\PSoC4/Comp.c ****     #endif /* (CY_IP_SRSSV2) */
  33:Generated_Source\PSoC4/Comp.c **** #endif /* (Comp_CY_LPCOMP_V2) */
  34:Generated_Source\PSoC4/Comp.c **** 
  35:Generated_Source\PSoC4/Comp.c **** 
  36:Generated_Source\PSoC4/Comp.c **** /*******************************************************************************
  37:Generated_Source\PSoC4/Comp.c **** * Function Name: Comp_Start
  38:Generated_Source\PSoC4/Comp.c **** ********************************************************************************
  39:Generated_Source\PSoC4/Comp.c **** *
  40:Generated_Source\PSoC4/Comp.c **** * Summary:
  41:Generated_Source\PSoC4/Comp.c **** *  Performs all of the required initialization for the component and enables
  42:Generated_Source\PSoC4/Comp.c **** *  power to the block. The first time the routine is executed, the component is
  43:Generated_Source\PSoC4/Comp.c **** *  initialized to the configuration from the customizer. When called to restart
  44:Generated_Source\PSoC4/Comp.c **** *  the comparator following a Comp_Stop() call, the current
  45:Generated_Source\PSoC4/Comp.c **** *  component parameter settings are retained.
  46:Generated_Source\PSoC4/Comp.c **** *
  47:Generated_Source\PSoC4/Comp.c **** * Parameters:
  48:Generated_Source\PSoC4/Comp.c **** *   None
  49:Generated_Source\PSoC4/Comp.c **** *
  50:Generated_Source\PSoC4/Comp.c **** * Return:
  51:Generated_Source\PSoC4/Comp.c **** *  None
  52:Generated_Source\PSoC4/Comp.c **** *
  53:Generated_Source\PSoC4/Comp.c **** * Global variables:
  54:Generated_Source\PSoC4/Comp.c **** *  Comp_initVar: Is modified when this function is called for the
  55:Generated_Source\PSoC4/Comp.c **** *   first time. Is used to ensure that initialization happens only once.
  56:Generated_Source\PSoC4/Comp.c **** *
  57:Generated_Source\PSoC4/Comp.c **** *******************************************************************************/
  58:Generated_Source\PSoC4/Comp.c **** void Comp_Start(void)
  59:Generated_Source\PSoC4/Comp.c **** {
  60:Generated_Source\PSoC4/Comp.c ****     if(0u == Comp_initVar)
  61:Generated_Source\PSoC4/Comp.c ****     {
  62:Generated_Source\PSoC4/Comp.c ****         Comp_Init();
  63:Generated_Source\PSoC4/Comp.c ****         Comp_initVar = 1u;
  64:Generated_Source\PSoC4/Comp.c ****     }
  65:Generated_Source\PSoC4/Comp.c ****     Comp_Enable();
  66:Generated_Source\PSoC4/Comp.c **** }
  67:Generated_Source\PSoC4/Comp.c **** 
  68:Generated_Source\PSoC4/Comp.c **** 
  69:Generated_Source\PSoC4/Comp.c **** /*******************************************************************************
  70:Generated_Source\PSoC4/Comp.c **** * Function Name: Comp_Init
  71:Generated_Source\PSoC4/Comp.c **** ********************************************************************************
  72:Generated_Source\PSoC4/Comp.c **** *
  73:Generated_Source\PSoC4/Comp.c **** * Summary:
  74:Generated_Source\PSoC4/Comp.c **** *  Initializes or restores the component according to the customizer settings.
  75:Generated_Source\PSoC4/Comp.c **** *  It is not necessary to call Comp_Init() because the
  76:Generated_Source\PSoC4/Comp.c **** *  Comp_Start() API calls this function and is the preferred method
  77:Generated_Source\PSoC4/Comp.c **** *  to begin component operation.
  78:Generated_Source\PSoC4/Comp.c **** *
  79:Generated_Source\PSoC4/Comp.c **** * Parameters:
  80:Generated_Source\PSoC4/Comp.c **** *  None
  81:Generated_Source\PSoC4/Comp.c **** *
  82:Generated_Source\PSoC4/Comp.c **** * Return:
  83:Generated_Source\PSoC4/Comp.c **** *  None
  84:Generated_Source\PSoC4/Comp.c **** *
  85:Generated_Source\PSoC4/Comp.c **** *******************************************************************************/
  86:Generated_Source\PSoC4/Comp.c **** void Comp_Init(void)
  87:Generated_Source\PSoC4/Comp.c **** {
ARM GAS  C:\Users\MICHAE~1.MAC\AppData\Local\Temp\ccM1UI6U.s 			page 3


  28              		.loc 1 87 0
  29              		.cfi_startproc
  30              		@ args = 0, pretend = 0, frame = 0
  31              		@ frame_needed = 0, uses_anonymous_args = 0
  32 0000 10B5     		push	{r4, lr}
  33              		.cfi_def_cfa_offset 8
  34              		.cfi_offset 4, -8
  35              		.cfi_offset 14, -4
  88:Generated_Source\PSoC4/Comp.c ****     uint8 enableInterrupts;
  89:Generated_Source\PSoC4/Comp.c **** 
  90:Generated_Source\PSoC4/Comp.c ****     enableInterrupts = CyEnterCriticalSection();
  36              		.loc 1 90 0
  37 0002 FFF7FEFF 		bl	CyEnterCriticalSection
  38              	.LVL0:
  91:Generated_Source\PSoC4/Comp.c ****     Comp_CONFIG_REG |= Comp_CONFIG_REG_DEFAULT;
  39              		.loc 1 91 0
  40 0006 074A     		ldr	r2, .L2
  41 0008 1368     		ldr	r3, [r2]
  42 000a 0749     		ldr	r1, .L2+4
  43 000c 0B43     		orrs	r3, r1
  44 000e 1360     		str	r3, [r2]
  92:Generated_Source\PSoC4/Comp.c ****     Comp_internalIntr = Comp_GET_CONFIG_INTR(Comp_INTERRUPT);
  45              		.loc 1 92 0
  46 0010 C022     		movs	r2, #192
  47 0012 9201     		lsls	r2, r2, #6
  48 0014 054B     		ldr	r3, .L2+8
  49 0016 1A60     		str	r2, [r3]
  93:Generated_Source\PSoC4/Comp.c ****     
  94:Generated_Source\PSoC4/Comp.c ****     #if (Comp_CY_LPCOMP_V2)
  95:Generated_Source\PSoC4/Comp.c ****         #if(CY_IP_SRSSV2)
  96:Generated_Source\PSoC4/Comp.c ****             if (CySysPmGetResetReason() == CY_PM_RESET_REASON_WAKEUP_HIB)
  97:Generated_Source\PSoC4/Comp.c ****             {
  98:Generated_Source\PSoC4/Comp.c ****                 /* Restore the INTR_MASK register state since it get reset after 
  99:Generated_Source\PSoC4/Comp.c ****                 * wakeup from Hibernate.  
 100:Generated_Source\PSoC4/Comp.c ****                 */
 101:Generated_Source\PSoC4/Comp.c ****                 Comp_INTR_MASK_REG |= Comp_intrMaskRegState;  
 102:Generated_Source\PSoC4/Comp.c ****             }
 103:Generated_Source\PSoC4/Comp.c ****             else
 104:Generated_Source\PSoC4/Comp.c ****             {
 105:Generated_Source\PSoC4/Comp.c ****                 Comp_INTR_MASK_REG |= Comp_INTR_MASK_REG_DEFAULT;    
 106:Generated_Source\PSoC4/Comp.c ****                 Comp_intrMaskRegState = Comp_INTR_MASK_REG;
 107:Generated_Source\PSoC4/Comp.c ****             }
 108:Generated_Source\PSoC4/Comp.c ****         #else
 109:Generated_Source\PSoC4/Comp.c ****             Comp_INTR_MASK_REG |= Comp_INTR_MASK_REG_DEFAULT;
  50              		.loc 1 109 0
  51 0018 054B     		ldr	r3, .L2+12
  52 001a 1A68     		ldr	r2, [r3]
  53 001c 1A60     		str	r2, [r3]
 110:Generated_Source\PSoC4/Comp.c ****         #endif /* (Comp_CY_LPCOMP_V2) */
 111:Generated_Source\PSoC4/Comp.c ****     #endif /* (Comp_CY_LPCOMP_V2) */
 112:Generated_Source\PSoC4/Comp.c ****     
 113:Generated_Source\PSoC4/Comp.c ****     CyExitCriticalSection(enableInterrupts);
  54              		.loc 1 113 0
  55 001e FFF7FEFF 		bl	CyExitCriticalSection
  56              	.LVL1:
 114:Generated_Source\PSoC4/Comp.c **** }
  57              		.loc 1 114 0
ARM GAS  C:\Users\MICHAE~1.MAC\AppData\Local\Temp\ccM1UI6U.s 			page 4


  58              		@ sp needed
  59 0022 10BD     		pop	{r4, pc}
  60              	.L3:
  61              		.align	2
  62              	.L2:
  63 0024 04000C40 		.word	1074528260
  64 0028 00011000 		.word	1048832
  65 002c 00000000 		.word	.LANCHOR0
  66 0030 18000C40 		.word	1074528280
  67              		.cfi_endproc
  68              	.LFE2:
  69              		.size	Comp_Init, .-Comp_Init
  70              		.section	.text.Comp_Enable,"ax",%progbits
  71              		.align	2
  72              		.global	Comp_Enable
  73              		.code	16
  74              		.thumb_func
  75              		.type	Comp_Enable, %function
  76              	Comp_Enable:
  77              	.LFB3:
 115:Generated_Source\PSoC4/Comp.c **** 
 116:Generated_Source\PSoC4/Comp.c **** 
 117:Generated_Source\PSoC4/Comp.c **** /*******************************************************************************
 118:Generated_Source\PSoC4/Comp.c **** * Function Name: Comp_Enable
 119:Generated_Source\PSoC4/Comp.c **** ********************************************************************************
 120:Generated_Source\PSoC4/Comp.c **** *
 121:Generated_Source\PSoC4/Comp.c **** * Summary:
 122:Generated_Source\PSoC4/Comp.c **** *  Activates the hardware and begins component operation. It is not necessary
 123:Generated_Source\PSoC4/Comp.c **** *  to call Comp_Enable() because the Comp_Start() API
 124:Generated_Source\PSoC4/Comp.c **** *  calls this function, which is the preferred method to begin component
 125:Generated_Source\PSoC4/Comp.c **** *  operation.
 126:Generated_Source\PSoC4/Comp.c **** *
 127:Generated_Source\PSoC4/Comp.c **** * Parameters:
 128:Generated_Source\PSoC4/Comp.c **** *  None
 129:Generated_Source\PSoC4/Comp.c **** *
 130:Generated_Source\PSoC4/Comp.c **** * Return:
 131:Generated_Source\PSoC4/Comp.c **** *  None
 132:Generated_Source\PSoC4/Comp.c **** *
 133:Generated_Source\PSoC4/Comp.c **** *******************************************************************************/
 134:Generated_Source\PSoC4/Comp.c **** void Comp_Enable(void)
 135:Generated_Source\PSoC4/Comp.c **** {
  78              		.loc 1 135 0
  79              		.cfi_startproc
  80              		@ args = 0, pretend = 0, frame = 0
  81              		@ frame_needed = 0, uses_anonymous_args = 0
  82 0000 10B5     		push	{r4, lr}
  83              		.cfi_def_cfa_offset 8
  84              		.cfi_offset 4, -8
  85              		.cfi_offset 14, -4
 136:Generated_Source\PSoC4/Comp.c ****     uint8 enableInterrupts;
 137:Generated_Source\PSoC4/Comp.c ****     
 138:Generated_Source\PSoC4/Comp.c ****     enableInterrupts = CyEnterCriticalSection();
  86              		.loc 1 138 0
  87 0002 FFF7FEFF 		bl	CyEnterCriticalSection
  88              	.LVL2:
 139:Generated_Source\PSoC4/Comp.c ****     Comp_CONFIG_REG |= Comp_CONFIG_EN;
  89              		.loc 1 139 0
ARM GAS  C:\Users\MICHAE~1.MAC\AppData\Local\Temp\ccM1UI6U.s 			page 5


  90 0006 074B     		ldr	r3, .L5
  91 0008 1A68     		ldr	r2, [r3]
  92 000a 8021     		movs	r1, #128
  93 000c 0902     		lsls	r1, r1, #8
  94 000e 0A43     		orrs	r2, r1
  95 0010 1A60     		str	r2, [r3]
 140:Generated_Source\PSoC4/Comp.c ****     
 141:Generated_Source\PSoC4/Comp.c ****     /*******************************************************
 142:Generated_Source\PSoC4/Comp.c ****     * When the Enable() API is called the CONFIG_EN bit is set. 
 143:Generated_Source\PSoC4/Comp.c ****     * This can cause fake interrupt because of the output delay 
 144:Generated_Source\PSoC4/Comp.c ****     * of the analog. This requires setting the CONFIG_INTR bits 
 145:Generated_Source\PSoC4/Comp.c ****     * after the CONFIG_EN bit is set.
 146:Generated_Source\PSoC4/Comp.c ****     *******************************************************/
 147:Generated_Source\PSoC4/Comp.c ****     Comp_CONFIG_REG |= Comp_internalIntr;
  96              		.loc 1 147 0
  97 0012 1968     		ldr	r1, [r3]
  98 0014 044A     		ldr	r2, .L5+4
  99 0016 1268     		ldr	r2, [r2]
 100 0018 0A43     		orrs	r2, r1
 101 001a 1A60     		str	r2, [r3]
 148:Generated_Source\PSoC4/Comp.c ****     CyExitCriticalSection(enableInterrupts);
 102              		.loc 1 148 0
 103 001c FFF7FEFF 		bl	CyExitCriticalSection
 104              	.LVL3:
 149:Generated_Source\PSoC4/Comp.c **** }
 105              		.loc 1 149 0
 106              		@ sp needed
 107 0020 10BD     		pop	{r4, pc}
 108              	.L6:
 109 0022 C046     		.align	2
 110              	.L5:
 111 0024 04000C40 		.word	1074528260
 112 0028 00000000 		.word	.LANCHOR0
 113              		.cfi_endproc
 114              	.LFE3:
 115              		.size	Comp_Enable, .-Comp_Enable
 116              		.section	.text.Comp_Start,"ax",%progbits
 117              		.align	2
 118              		.global	Comp_Start
 119              		.code	16
 120              		.thumb_func
 121              		.type	Comp_Start, %function
 122              	Comp_Start:
 123              	.LFB1:
  59:Generated_Source\PSoC4/Comp.c ****     if(0u == Comp_initVar)
 124              		.loc 1 59 0
 125              		.cfi_startproc
 126              		@ args = 0, pretend = 0, frame = 0
 127              		@ frame_needed = 0, uses_anonymous_args = 0
 128 0000 10B5     		push	{r4, lr}
 129              		.cfi_def_cfa_offset 8
 130              		.cfi_offset 4, -8
 131              		.cfi_offset 14, -4
  60:Generated_Source\PSoC4/Comp.c ****     {
 132              		.loc 1 60 0
 133 0002 064B     		ldr	r3, .L9
 134 0004 1B79     		ldrb	r3, [r3, #4]
ARM GAS  C:\Users\MICHAE~1.MAC\AppData\Local\Temp\ccM1UI6U.s 			page 6


 135 0006 002B     		cmp	r3, #0
 136 0008 04D1     		bne	.L8
  62:Generated_Source\PSoC4/Comp.c ****         Comp_initVar = 1u;
 137              		.loc 1 62 0
 138 000a FFF7FEFF 		bl	Comp_Init
 139              	.LVL4:
  63:Generated_Source\PSoC4/Comp.c ****     }
 140              		.loc 1 63 0
 141 000e 0122     		movs	r2, #1
 142 0010 024B     		ldr	r3, .L9
 143 0012 1A71     		strb	r2, [r3, #4]
 144              	.L8:
  65:Generated_Source\PSoC4/Comp.c **** }
 145              		.loc 1 65 0
 146 0014 FFF7FEFF 		bl	Comp_Enable
 147              	.LVL5:
  66:Generated_Source\PSoC4/Comp.c **** 
 148              		.loc 1 66 0
 149              		@ sp needed
 150 0018 10BD     		pop	{r4, pc}
 151              	.L10:
 152 001a C046     		.align	2
 153              	.L9:
 154 001c 00000000 		.word	.LANCHOR0
 155              		.cfi_endproc
 156              	.LFE1:
 157              		.size	Comp_Start, .-Comp_Start
 158              		.section	.text.Comp_Stop,"ax",%progbits
 159              		.align	2
 160              		.global	Comp_Stop
 161              		.code	16
 162              		.thumb_func
 163              		.type	Comp_Stop, %function
 164              	Comp_Stop:
 165              	.LFB4:
 150:Generated_Source\PSoC4/Comp.c **** 
 151:Generated_Source\PSoC4/Comp.c **** 
 152:Generated_Source\PSoC4/Comp.c **** /*******************************************************************************
 153:Generated_Source\PSoC4/Comp.c **** * Function Name: Comp_Stop
 154:Generated_Source\PSoC4/Comp.c **** ********************************************************************************
 155:Generated_Source\PSoC4/Comp.c **** *
 156:Generated_Source\PSoC4/Comp.c **** * Summary:
 157:Generated_Source\PSoC4/Comp.c **** *  Turns off the LP Comparator.
 158:Generated_Source\PSoC4/Comp.c **** *
 159:Generated_Source\PSoC4/Comp.c **** * Parameters:
 160:Generated_Source\PSoC4/Comp.c **** *  None
 161:Generated_Source\PSoC4/Comp.c **** *
 162:Generated_Source\PSoC4/Comp.c **** * Return:
 163:Generated_Source\PSoC4/Comp.c **** *  None
 164:Generated_Source\PSoC4/Comp.c **** *
 165:Generated_Source\PSoC4/Comp.c **** * Side Effects:
 166:Generated_Source\PSoC4/Comp.c **** *  The function doesn't change component Speed settings.
 167:Generated_Source\PSoC4/Comp.c **** *
 168:Generated_Source\PSoC4/Comp.c **** *******************************************************************************/
 169:Generated_Source\PSoC4/Comp.c **** void Comp_Stop(void)
 170:Generated_Source\PSoC4/Comp.c **** {
 166              		.loc 1 170 0
ARM GAS  C:\Users\MICHAE~1.MAC\AppData\Local\Temp\ccM1UI6U.s 			page 7


 167              		.cfi_startproc
 168              		@ args = 0, pretend = 0, frame = 0
 169              		@ frame_needed = 0, uses_anonymous_args = 0
 170 0000 10B5     		push	{r4, lr}
 171              		.cfi_def_cfa_offset 8
 172              		.cfi_offset 4, -8
 173              		.cfi_offset 14, -4
 171:Generated_Source\PSoC4/Comp.c ****     uint8 enableInterrupts;
 172:Generated_Source\PSoC4/Comp.c ****     
 173:Generated_Source\PSoC4/Comp.c ****     enableInterrupts = CyEnterCriticalSection();
 174              		.loc 1 173 0
 175 0002 FFF7FEFF 		bl	CyEnterCriticalSection
 176              	.LVL6:
 174:Generated_Source\PSoC4/Comp.c ****     #if (Comp_CY_LPCOMP_V0)
 175:Generated_Source\PSoC4/Comp.c ****         /*******************************************************
 176:Generated_Source\PSoC4/Comp.c ****         * When the Stop() API is called the CONFIG_EN bit is 
 177:Generated_Source\PSoC4/Comp.c ****         * cleared. This causes the output of the comparator to go 
 178:Generated_Source\PSoC4/Comp.c ****         * low. If the comparator output was high and the Interrupt 
 179:Generated_Source\PSoC4/Comp.c ****         * Configuration is set for Falling edge disabling the 
 180:Generated_Source\PSoC4/Comp.c ****         * comparator will cause an fake interrupt. This requires 
 181:Generated_Source\PSoC4/Comp.c ****         * to clear the CONFIG_INTR bits before the CONFIG_EN bit 
 182:Generated_Source\PSoC4/Comp.c ****         * is cleared.
 183:Generated_Source\PSoC4/Comp.c ****         *******************************************************/
 184:Generated_Source\PSoC4/Comp.c ****         Comp_CONFIG_REG &= (uint32)~Comp_CONFIG_INTR_MASK;
 185:Generated_Source\PSoC4/Comp.c ****     #endif /* (Comp_CY_LPCOMP_V0) */
 186:Generated_Source\PSoC4/Comp.c **** 
 187:Generated_Source\PSoC4/Comp.c ****     Comp_CONFIG_REG &= (uint32)~Comp_CONFIG_EN;
 177              		.loc 1 187 0
 178 0006 044A     		ldr	r2, .L12
 179 0008 1168     		ldr	r1, [r2]
 180 000a 044B     		ldr	r3, .L12+4
 181 000c 0B40     		ands	r3, r1
 182 000e 1360     		str	r3, [r2]
 188:Generated_Source\PSoC4/Comp.c ****     CyExitCriticalSection(enableInterrupts);
 183              		.loc 1 188 0
 184 0010 FFF7FEFF 		bl	CyExitCriticalSection
 185              	.LVL7:
 189:Generated_Source\PSoC4/Comp.c **** }
 186              		.loc 1 189 0
 187              		@ sp needed
 188 0014 10BD     		pop	{r4, pc}
 189              	.L13:
 190 0016 C046     		.align	2
 191              	.L12:
 192 0018 04000C40 		.word	1074528260
 193 001c FF7FFFFF 		.word	-32769
 194              		.cfi_endproc
 195              	.LFE4:
 196              		.size	Comp_Stop, .-Comp_Stop
 197              		.section	.text.Comp_SetSpeed,"ax",%progbits
 198              		.align	2
 199              		.global	Comp_SetSpeed
 200              		.code	16
 201              		.thumb_func
 202              		.type	Comp_SetSpeed, %function
 203              	Comp_SetSpeed:
 204              	.LFB5:
ARM GAS  C:\Users\MICHAE~1.MAC\AppData\Local\Temp\ccM1UI6U.s 			page 8


 190:Generated_Source\PSoC4/Comp.c **** 
 191:Generated_Source\PSoC4/Comp.c **** 
 192:Generated_Source\PSoC4/Comp.c **** /*******************************************************************************
 193:Generated_Source\PSoC4/Comp.c **** * Function Name: Comp_SetSpeed
 194:Generated_Source\PSoC4/Comp.c **** *
 195:Generated_Source\PSoC4/Comp.c **** * Summary:
 196:Generated_Source\PSoC4/Comp.c **** *  Sets the drive power and speed to one of three settings.
 197:Generated_Source\PSoC4/Comp.c **** *
 198:Generated_Source\PSoC4/Comp.c **** * Parameters:
 199:Generated_Source\PSoC4/Comp.c **** *  uint32 speed: Sets operation mode of the component:
 200:Generated_Source\PSoC4/Comp.c **** *   Comp_LOW_SPEED  - Slow/ultra low 
 201:Generated_Source\PSoC4/Comp.c **** *   Comp_MED_SPEED  - Medium/low 
 202:Generated_Source\PSoC4/Comp.c **** *   Comp_HIGH_SPEED - Fast/normal 
 203:Generated_Source\PSoC4/Comp.c **** *
 204:Generated_Source\PSoC4/Comp.c **** * Return:
 205:Generated_Source\PSoC4/Comp.c **** *  None
 206:Generated_Source\PSoC4/Comp.c **** *
 207:Generated_Source\PSoC4/Comp.c **** *******************************************************************************/
 208:Generated_Source\PSoC4/Comp.c **** void Comp_SetSpeed(uint32 speed)
 209:Generated_Source\PSoC4/Comp.c **** {
 205              		.loc 1 209 0
 206              		.cfi_startproc
 207              		@ args = 0, pretend = 0, frame = 0
 208              		@ frame_needed = 0, uses_anonymous_args = 0
 209              	.LVL8:
 210 0000 70B5     		push	{r4, r5, r6, lr}
 211              		.cfi_def_cfa_offset 16
 212              		.cfi_offset 4, -16
 213              		.cfi_offset 5, -12
 214              		.cfi_offset 6, -8
 215              		.cfi_offset 14, -4
 216 0002 0400     		movs	r4, r0
 210:Generated_Source\PSoC4/Comp.c ****     uint32 config;
 211:Generated_Source\PSoC4/Comp.c ****     uint8 enableInterrupts;
 212:Generated_Source\PSoC4/Comp.c ****     
 213:Generated_Source\PSoC4/Comp.c ****     enableInterrupts = CyEnterCriticalSection();
 217              		.loc 1 213 0
 218 0004 FFF7FEFF 		bl	CyEnterCriticalSection
 219              	.LVL9:
 214:Generated_Source\PSoC4/Comp.c ****     config = Comp_CONFIG_REG & (uint32)~Comp_CONFIG_SPEED_MODE_MASK;
 220              		.loc 1 214 0
 221 0008 064D     		ldr	r5, .L15
 222 000a 2B68     		ldr	r3, [r5]
 223 000c 064A     		ldr	r2, .L15+4
 224 000e 1340     		ands	r3, r2
 225 0010 1900     		movs	r1, r3
 226              	.LVL10:
 215:Generated_Source\PSoC4/Comp.c ****     Comp_CONFIG_REG = config | Comp_GET_CONFIG_SPEED_MODE(speed);
 227              		.loc 1 215 0
 228 0012 2302     		lsls	r3, r4, #8
 229 0014 C022     		movs	r2, #192
 230 0016 9200     		lsls	r2, r2, #2
 231 0018 1340     		ands	r3, r2
 232 001a 0B43     		orrs	r3, r1
 233 001c 2B60     		str	r3, [r5]
 216:Generated_Source\PSoC4/Comp.c ****     CyExitCriticalSection(enableInterrupts);
 234              		.loc 1 216 0
ARM GAS  C:\Users\MICHAE~1.MAC\AppData\Local\Temp\ccM1UI6U.s 			page 9


 235 001e FFF7FEFF 		bl	CyExitCriticalSection
 236              	.LVL11:
 217:Generated_Source\PSoC4/Comp.c **** }
 237              		.loc 1 217 0
 238              		@ sp needed
 239              	.LVL12:
 240 0022 70BD     		pop	{r4, r5, r6, pc}
 241              	.L16:
 242              		.align	2
 243              	.L15:
 244 0024 04000C40 		.word	1074528260
 245 0028 FFFCFFFF 		.word	-769
 246              		.cfi_endproc
 247              	.LFE5:
 248              		.size	Comp_SetSpeed, .-Comp_SetSpeed
 249              		.section	.text.Comp_SetInterruptMode,"ax",%progbits
 250              		.align	2
 251              		.global	Comp_SetInterruptMode
 252              		.code	16
 253              		.thumb_func
 254              		.type	Comp_SetInterruptMode, %function
 255              	Comp_SetInterruptMode:
 256              	.LFB6:
 218:Generated_Source\PSoC4/Comp.c **** 
 219:Generated_Source\PSoC4/Comp.c **** 
 220:Generated_Source\PSoC4/Comp.c **** /*******************************************************************************
 221:Generated_Source\PSoC4/Comp.c **** * Function Name: Comp_SetInterruptMode
 222:Generated_Source\PSoC4/Comp.c **** ********************************************************************************
 223:Generated_Source\PSoC4/Comp.c **** *
 224:Generated_Source\PSoC4/Comp.c **** * Summary:
 225:Generated_Source\PSoC4/Comp.c **** *  Sets the interrupt edge detect mode. This also controls the value provided
 226:Generated_Source\PSoC4/Comp.c **** *  on the output.
 227:Generated_Source\PSoC4/Comp.c **** *
 228:Generated_Source\PSoC4/Comp.c **** * Parameters:
 229:Generated_Source\PSoC4/Comp.c **** *  uint32 mode: Enumerated edge detect mode value:
 230:Generated_Source\PSoC4/Comp.c **** *  Comp_INTR_DISABLE - Disable
 231:Generated_Source\PSoC4/Comp.c **** *  Comp_INTR_RISING  - Rising edge detect
 232:Generated_Source\PSoC4/Comp.c **** *  Comp_INTR_FALLING - Falling edge detect
 233:Generated_Source\PSoC4/Comp.c **** *  Comp_INTR_BOTH    - Detect both edges
 234:Generated_Source\PSoC4/Comp.c **** *
 235:Generated_Source\PSoC4/Comp.c **** * Return:
 236:Generated_Source\PSoC4/Comp.c **** *  None
 237:Generated_Source\PSoC4/Comp.c **** *
 238:Generated_Source\PSoC4/Comp.c **** *******************************************************************************/
 239:Generated_Source\PSoC4/Comp.c **** void Comp_SetInterruptMode(uint32 mode)
 240:Generated_Source\PSoC4/Comp.c **** {
 257              		.loc 1 240 0
 258              		.cfi_startproc
 259              		@ args = 0, pretend = 0, frame = 0
 260              		@ frame_needed = 0, uses_anonymous_args = 0
 261              	.LVL13:
 262 0000 10B5     		push	{r4, lr}
 263              		.cfi_def_cfa_offset 8
 264              		.cfi_offset 4, -8
 265              		.cfi_offset 14, -4
 241:Generated_Source\PSoC4/Comp.c ****     uint32 config;
 242:Generated_Source\PSoC4/Comp.c ****     uint8 enableInterrupts;
ARM GAS  C:\Users\MICHAE~1.MAC\AppData\Local\Temp\ccM1UI6U.s 			page 10


 243:Generated_Source\PSoC4/Comp.c ****     
 244:Generated_Source\PSoC4/Comp.c ****     Comp_internalIntr = Comp_GET_CONFIG_INTR(mode);
 266              		.loc 1 244 0
 267 0002 0003     		lsls	r0, r0, #12
 268              	.LVL14:
 269 0004 C023     		movs	r3, #192
 270 0006 9B01     		lsls	r3, r3, #6
 271 0008 1840     		ands	r0, r3
 272 000a 074C     		ldr	r4, .L18
 273 000c 2060     		str	r0, [r4]
 245:Generated_Source\PSoC4/Comp.c **** 
 246:Generated_Source\PSoC4/Comp.c ****     enableInterrupts = CyEnterCriticalSection();
 274              		.loc 1 246 0
 275 000e FFF7FEFF 		bl	CyEnterCriticalSection
 276              	.LVL15:
 247:Generated_Source\PSoC4/Comp.c ****     config = Comp_CONFIG_REG & (uint32)~Comp_CONFIG_INTR_MASK;
 277              		.loc 1 247 0
 278 0012 0649     		ldr	r1, .L18+4
 279 0014 0A68     		ldr	r2, [r1]
 280 0016 064B     		ldr	r3, .L18+8
 281 0018 1340     		ands	r3, r2
 282              	.LVL16:
 248:Generated_Source\PSoC4/Comp.c ****     Comp_CONFIG_REG = config | Comp_internalIntr;
 283              		.loc 1 248 0
 284 001a 2268     		ldr	r2, [r4]
 285 001c 1343     		orrs	r3, r2
 286              	.LVL17:
 287 001e 0B60     		str	r3, [r1]
 249:Generated_Source\PSoC4/Comp.c ****     CyExitCriticalSection(enableInterrupts);
 288              		.loc 1 249 0
 289 0020 FFF7FEFF 		bl	CyExitCriticalSection
 290              	.LVL18:
 250:Generated_Source\PSoC4/Comp.c **** }
 291              		.loc 1 250 0
 292              		@ sp needed
 293 0024 10BD     		pop	{r4, pc}
 294              	.L19:
 295 0026 C046     		.align	2
 296              	.L18:
 297 0028 00000000 		.word	.LANCHOR0
 298 002c 04000C40 		.word	1074528260
 299 0030 FFCFFFFF 		.word	-12289
 300              		.cfi_endproc
 301              	.LFE6:
 302              		.size	Comp_SetInterruptMode, .-Comp_SetInterruptMode
 303              		.section	.text.Comp_GetInterruptSource,"ax",%progbits
 304              		.align	2
 305              		.global	Comp_GetInterruptSource
 306              		.code	16
 307              		.thumb_func
 308              		.type	Comp_GetInterruptSource, %function
 309              	Comp_GetInterruptSource:
 310              	.LFB7:
 251:Generated_Source\PSoC4/Comp.c **** 
 252:Generated_Source\PSoC4/Comp.c **** 
 253:Generated_Source\PSoC4/Comp.c **** /*******************************************************************************
 254:Generated_Source\PSoC4/Comp.c **** * Function Name: Comp_GetInterruptSource
ARM GAS  C:\Users\MICHAE~1.MAC\AppData\Local\Temp\ccM1UI6U.s 			page 11


 255:Generated_Source\PSoC4/Comp.c **** ********************************************************************************
 256:Generated_Source\PSoC4/Comp.c **** *
 257:Generated_Source\PSoC4/Comp.c **** * Summary:
 258:Generated_Source\PSoC4/Comp.c **** *  Gets the interrupt requests. This function is for use when using the combined
 259:Generated_Source\PSoC4/Comp.c **** *  interrupt signal from the global signal reference. This function from either
 260:Generated_Source\PSoC4/Comp.c **** *  component instance can be used to determine the interrupt source for both the
 261:Generated_Source\PSoC4/Comp.c **** *  interrupts combined.
 262:Generated_Source\PSoC4/Comp.c **** *
 263:Generated_Source\PSoC4/Comp.c **** * Parameters:
 264:Generated_Source\PSoC4/Comp.c **** *  None
 265:Generated_Source\PSoC4/Comp.c **** *
 266:Generated_Source\PSoC4/Comp.c **** * Return:
 267:Generated_Source\PSoC4/Comp.c **** *  uint32: Interrupt source. Each component instance has a mask value:
 268:Generated_Source\PSoC4/Comp.c **** *  Comp_INTR.
 269:Generated_Source\PSoC4/Comp.c **** *
 270:Generated_Source\PSoC4/Comp.c **** *******************************************************************************/
 271:Generated_Source\PSoC4/Comp.c **** uint32 Comp_GetInterruptSource(void)
 272:Generated_Source\PSoC4/Comp.c **** {
 311              		.loc 1 272 0
 312              		.cfi_startproc
 313              		@ args = 0, pretend = 0, frame = 0
 314              		@ frame_needed = 0, uses_anonymous_args = 0
 315              		@ link register save eliminated.
 273:Generated_Source\PSoC4/Comp.c ****     return (Comp_INTR_REG); 
 316              		.loc 1 273 0
 317 0000 014B     		ldr	r3, .L21
 318 0002 1868     		ldr	r0, [r3]
 274:Generated_Source\PSoC4/Comp.c **** }
 319              		.loc 1 274 0
 320              		@ sp needed
 321 0004 7047     		bx	lr
 322              	.L22:
 323 0006 C046     		.align	2
 324              	.L21:
 325 0008 10000C40 		.word	1074528272
 326              		.cfi_endproc
 327              	.LFE7:
 328              		.size	Comp_GetInterruptSource, .-Comp_GetInterruptSource
 329              		.section	.text.Comp_ClearInterrupt,"ax",%progbits
 330              		.align	2
 331              		.global	Comp_ClearInterrupt
 332              		.code	16
 333              		.thumb_func
 334              		.type	Comp_ClearInterrupt, %function
 335              	Comp_ClearInterrupt:
 336              	.LFB8:
 275:Generated_Source\PSoC4/Comp.c **** 
 276:Generated_Source\PSoC4/Comp.c **** 
 277:Generated_Source\PSoC4/Comp.c **** /*******************************************************************************
 278:Generated_Source\PSoC4/Comp.c **** * Function Name: Comp_ClearInterrupt
 279:Generated_Source\PSoC4/Comp.c **** ********************************************************************************
 280:Generated_Source\PSoC4/Comp.c **** *
 281:Generated_Source\PSoC4/Comp.c **** * Summary:
 282:Generated_Source\PSoC4/Comp.c **** *  Clears the interrupt request. This function is for use when using the
 283:Generated_Source\PSoC4/Comp.c **** *  combined interrupt signal from the global signal reference. This function
 284:Generated_Source\PSoC4/Comp.c **** *  from either component instance can be used to clear either or both
 285:Generated_Source\PSoC4/Comp.c **** *  interrupts.
ARM GAS  C:\Users\MICHAE~1.MAC\AppData\Local\Temp\ccM1UI6U.s 			page 12


 286:Generated_Source\PSoC4/Comp.c **** *
 287:Generated_Source\PSoC4/Comp.c **** * Parameters:
 288:Generated_Source\PSoC4/Comp.c **** *  uint32 interruptMask: Mask of interrupts to clear. Each component instance
 289:Generated_Source\PSoC4/Comp.c **** *  has a mask value: Comp_INTR.
 290:Generated_Source\PSoC4/Comp.c **** *
 291:Generated_Source\PSoC4/Comp.c **** * Return:
 292:Generated_Source\PSoC4/Comp.c **** *  None
 293:Generated_Source\PSoC4/Comp.c **** *
 294:Generated_Source\PSoC4/Comp.c **** *******************************************************************************/
 295:Generated_Source\PSoC4/Comp.c **** void Comp_ClearInterrupt(uint32 interruptMask)
 296:Generated_Source\PSoC4/Comp.c **** {   
 337              		.loc 1 296 0
 338              		.cfi_startproc
 339              		@ args = 0, pretend = 0, frame = 0
 340              		@ frame_needed = 0, uses_anonymous_args = 0
 341              		@ link register save eliminated.
 342              	.LVL19:
 297:Generated_Source\PSoC4/Comp.c ****     Comp_INTR_REG = interruptMask;
 343              		.loc 1 297 0
 344 0000 014B     		ldr	r3, .L24
 345 0002 1860     		str	r0, [r3]
 298:Generated_Source\PSoC4/Comp.c **** }
 346              		.loc 1 298 0
 347              		@ sp needed
 348 0004 7047     		bx	lr
 349              	.L25:
 350 0006 C046     		.align	2
 351              	.L24:
 352 0008 10000C40 		.word	1074528272
 353              		.cfi_endproc
 354              	.LFE8:
 355              		.size	Comp_ClearInterrupt, .-Comp_ClearInterrupt
 356              		.section	.text.Comp_SetInterrupt,"ax",%progbits
 357              		.align	2
 358              		.global	Comp_SetInterrupt
 359              		.code	16
 360              		.thumb_func
 361              		.type	Comp_SetInterrupt, %function
 362              	Comp_SetInterrupt:
 363              	.LFB9:
 299:Generated_Source\PSoC4/Comp.c **** 
 300:Generated_Source\PSoC4/Comp.c **** 
 301:Generated_Source\PSoC4/Comp.c **** /*******************************************************************************
 302:Generated_Source\PSoC4/Comp.c **** * Function Name: Comp_SetInterrupt
 303:Generated_Source\PSoC4/Comp.c **** ********************************************************************************
 304:Generated_Source\PSoC4/Comp.c **** *
 305:Generated_Source\PSoC4/Comp.c **** * Summary:
 306:Generated_Source\PSoC4/Comp.c **** *  Sets a software interrupt request. This function is for use when using the
 307:Generated_Source\PSoC4/Comp.c **** *  combined interrupt signal from the global signal reference. This function
 308:Generated_Source\PSoC4/Comp.c **** *  from either component instance can be used to trigger either or both software
 309:Generated_Source\PSoC4/Comp.c **** *  interrupts.
 310:Generated_Source\PSoC4/Comp.c **** *
 311:Generated_Source\PSoC4/Comp.c **** * Parameters:
 312:Generated_Source\PSoC4/Comp.c **** *  uint32 interruptMask: Mask of interrupts to set. Each component instance has
 313:Generated_Source\PSoC4/Comp.c **** *  a mask value: Comp_INTR_SET.
 314:Generated_Source\PSoC4/Comp.c **** *
 315:Generated_Source\PSoC4/Comp.c **** * Return:
ARM GAS  C:\Users\MICHAE~1.MAC\AppData\Local\Temp\ccM1UI6U.s 			page 13


 316:Generated_Source\PSoC4/Comp.c **** *  None
 317:Generated_Source\PSoC4/Comp.c **** *
 318:Generated_Source\PSoC4/Comp.c **** *******************************************************************************/
 319:Generated_Source\PSoC4/Comp.c **** void Comp_SetInterrupt(uint32 interruptMask)
 320:Generated_Source\PSoC4/Comp.c **** {
 364              		.loc 1 320 0
 365              		.cfi_startproc
 366              		@ args = 0, pretend = 0, frame = 0
 367              		@ frame_needed = 0, uses_anonymous_args = 0
 368              	.LVL20:
 369 0000 10B5     		push	{r4, lr}
 370              		.cfi_def_cfa_offset 8
 371              		.cfi_offset 4, -8
 372              		.cfi_offset 14, -4
 373 0002 0400     		movs	r4, r0
 321:Generated_Source\PSoC4/Comp.c ****     uint8 enableInterrupts;
 322:Generated_Source\PSoC4/Comp.c ****     
 323:Generated_Source\PSoC4/Comp.c ****     enableInterrupts = CyEnterCriticalSection();
 374              		.loc 1 323 0
 375 0004 FFF7FEFF 		bl	CyEnterCriticalSection
 376              	.LVL21:
 324:Generated_Source\PSoC4/Comp.c ****     Comp_INTR_SET_REG |= interruptMask;
 377              		.loc 1 324 0
 378 0008 034B     		ldr	r3, .L27
 379 000a 1A68     		ldr	r2, [r3]
 380 000c 1443     		orrs	r4, r2
 381              	.LVL22:
 382 000e 1C60     		str	r4, [r3]
 325:Generated_Source\PSoC4/Comp.c ****     CyExitCriticalSection(enableInterrupts);
 383              		.loc 1 325 0
 384 0010 FFF7FEFF 		bl	CyExitCriticalSection
 385              	.LVL23:
 326:Generated_Source\PSoC4/Comp.c **** }
 386              		.loc 1 326 0
 387              		@ sp needed
 388 0014 10BD     		pop	{r4, pc}
 389              	.L28:
 390 0016 C046     		.align	2
 391              	.L27:
 392 0018 14000C40 		.word	1074528276
 393              		.cfi_endproc
 394              	.LFE9:
 395              		.size	Comp_SetInterrupt, .-Comp_SetInterrupt
 396              		.section	.text.Comp_SetHysteresis,"ax",%progbits
 397              		.align	2
 398              		.global	Comp_SetHysteresis
 399              		.code	16
 400              		.thumb_func
 401              		.type	Comp_SetHysteresis, %function
 402              	Comp_SetHysteresis:
 403              	.LFB10:
 327:Generated_Source\PSoC4/Comp.c **** 
 328:Generated_Source\PSoC4/Comp.c **** 
 329:Generated_Source\PSoC4/Comp.c **** /*******************************************************************************
 330:Generated_Source\PSoC4/Comp.c **** * Function Name: Comp_SetHysteresis
 331:Generated_Source\PSoC4/Comp.c **** ********************************************************************************
 332:Generated_Source\PSoC4/Comp.c **** *
ARM GAS  C:\Users\MICHAE~1.MAC\AppData\Local\Temp\ccM1UI6U.s 			page 14


 333:Generated_Source\PSoC4/Comp.c **** * Summary:
 334:Generated_Source\PSoC4/Comp.c **** *  Enables or disables the hysteresis.
 335:Generated_Source\PSoC4/Comp.c **** *
 336:Generated_Source\PSoC4/Comp.c **** * Parameters:
 337:Generated_Source\PSoC4/Comp.c **** *  hysteresis: (uint32) Enables or disables the hysteresis setting.
 338:Generated_Source\PSoC4/Comp.c **** *  Comp_HYST_ENABLE     - Enable hysteresis
 339:Generated_Source\PSoC4/Comp.c **** *  Comp_HYST_DISABLE    - Disable hysteresis
 340:Generated_Source\PSoC4/Comp.c **** *
 341:Generated_Source\PSoC4/Comp.c **** * Return:
 342:Generated_Source\PSoC4/Comp.c **** *  None
 343:Generated_Source\PSoC4/Comp.c **** *
 344:Generated_Source\PSoC4/Comp.c **** *******************************************************************************/
 345:Generated_Source\PSoC4/Comp.c **** void Comp_SetHysteresis(uint32 hysteresis)
 346:Generated_Source\PSoC4/Comp.c **** {
 404              		.loc 1 346 0
 405              		.cfi_startproc
 406              		@ args = 0, pretend = 0, frame = 0
 407              		@ frame_needed = 0, uses_anonymous_args = 0
 408              	.LVL24:
 409 0000 10B5     		push	{r4, lr}
 410              		.cfi_def_cfa_offset 8
 411              		.cfi_offset 4, -8
 412              		.cfi_offset 14, -4
 413 0002 0400     		movs	r4, r0
 347:Generated_Source\PSoC4/Comp.c ****     uint8 enableInterrupts;
 348:Generated_Source\PSoC4/Comp.c ****     
 349:Generated_Source\PSoC4/Comp.c ****     enableInterrupts = CyEnterCriticalSection();
 414              		.loc 1 349 0
 415 0004 FFF7FEFF 		bl	CyEnterCriticalSection
 416              	.LVL25:
 350:Generated_Source\PSoC4/Comp.c ****     if(0u != hysteresis)
 417              		.loc 1 350 0
 418 0008 002C     		cmp	r4, #0
 419 000a 06D0     		beq	.L30
 351:Generated_Source\PSoC4/Comp.c ****     {
 352:Generated_Source\PSoC4/Comp.c ****         Comp_CONFIG_REG |= Comp_CONFIG_HYST;
 420              		.loc 1 352 0
 421 000c 074A     		ldr	r2, .L32
 422 000e 1368     		ldr	r3, [r2]
 423 0010 8021     		movs	r1, #128
 424 0012 C900     		lsls	r1, r1, #3
 425 0014 0B43     		orrs	r3, r1
 426 0016 1360     		str	r3, [r2]
 427 0018 04E0     		b	.L31
 428              	.L30:
 353:Generated_Source\PSoC4/Comp.c ****     }
 354:Generated_Source\PSoC4/Comp.c ****     else
 355:Generated_Source\PSoC4/Comp.c ****     {
 356:Generated_Source\PSoC4/Comp.c ****         Comp_CONFIG_REG &= (uint32)~Comp_CONFIG_HYST;
 429              		.loc 1 356 0
 430 001a 044A     		ldr	r2, .L32
 431 001c 1168     		ldr	r1, [r2]
 432 001e 044B     		ldr	r3, .L32+4
 433 0020 0B40     		ands	r3, r1
 434 0022 1360     		str	r3, [r2]
 435              	.L31:
 357:Generated_Source\PSoC4/Comp.c ****     }
ARM GAS  C:\Users\MICHAE~1.MAC\AppData\Local\Temp\ccM1UI6U.s 			page 15


 358:Generated_Source\PSoC4/Comp.c ****     CyExitCriticalSection(enableInterrupts);
 436              		.loc 1 358 0
 437 0024 FFF7FEFF 		bl	CyExitCriticalSection
 438              	.LVL26:
 359:Generated_Source\PSoC4/Comp.c **** }
 439              		.loc 1 359 0
 440              		@ sp needed
 441              	.LVL27:
 442 0028 10BD     		pop	{r4, pc}
 443              	.L33:
 444 002a C046     		.align	2
 445              	.L32:
 446 002c 04000C40 		.word	1074528260
 447 0030 FFFBFFFF 		.word	-1025
 448              		.cfi_endproc
 449              	.LFE10:
 450              		.size	Comp_SetHysteresis, .-Comp_SetHysteresis
 451              		.section	.text.Comp_SetFilter,"ax",%progbits
 452              		.align	2
 453              		.global	Comp_SetFilter
 454              		.code	16
 455              		.thumb_func
 456              		.type	Comp_SetFilter, %function
 457              	Comp_SetFilter:
 458              	.LFB11:
 360:Generated_Source\PSoC4/Comp.c **** 
 361:Generated_Source\PSoC4/Comp.c **** 
 362:Generated_Source\PSoC4/Comp.c **** /*******************************************************************************
 363:Generated_Source\PSoC4/Comp.c **** * Function Name: Comp_SetFilter
 364:Generated_Source\PSoC4/Comp.c **** ********************************************************************************
 365:Generated_Source\PSoC4/Comp.c **** *
 366:Generated_Source\PSoC4/Comp.c **** * Summary:
 367:Generated_Source\PSoC4/Comp.c **** *  Enables or disables the digital filter. This still exists for saving backward 
 368:Generated_Source\PSoC4/Comp.c **** *  compatibility, but not recommended for using.
 369:Generated_Source\PSoC4/Comp.c **** *  This API is DEPRECATED and should not be used in new projects.
 370:Generated_Source\PSoC4/Comp.c **** *
 371:Generated_Source\PSoC4/Comp.c **** * Parameters:
 372:Generated_Source\PSoC4/Comp.c **** *  uint32 filter: filter enable.
 373:Generated_Source\PSoC4/Comp.c **** *  Comp_FILT_ENABLE  - Enable filter
 374:Generated_Source\PSoC4/Comp.c **** *  Comp_FILT_DISABLE - Disable filter
 375:Generated_Source\PSoC4/Comp.c **** *
 376:Generated_Source\PSoC4/Comp.c **** * Return:
 377:Generated_Source\PSoC4/Comp.c **** *  None
 378:Generated_Source\PSoC4/Comp.c **** *
 379:Generated_Source\PSoC4/Comp.c **** *******************************************************************************/
 380:Generated_Source\PSoC4/Comp.c **** void Comp_SetFilter(uint32 filter)
 381:Generated_Source\PSoC4/Comp.c **** {
 459              		.loc 1 381 0
 460              		.cfi_startproc
 461              		@ args = 0, pretend = 0, frame = 0
 462              		@ frame_needed = 0, uses_anonymous_args = 0
 463              	.LVL28:
 464 0000 10B5     		push	{r4, lr}
 465              		.cfi_def_cfa_offset 8
 466              		.cfi_offset 4, -8
 467              		.cfi_offset 14, -4
 468 0002 0400     		movs	r4, r0
ARM GAS  C:\Users\MICHAE~1.MAC\AppData\Local\Temp\ccM1UI6U.s 			page 16


 382:Generated_Source\PSoC4/Comp.c ****     uint8 enableInterrupts;
 383:Generated_Source\PSoC4/Comp.c ****     
 384:Generated_Source\PSoC4/Comp.c ****     enableInterrupts = CyEnterCriticalSection();
 469              		.loc 1 384 0
 470 0004 FFF7FEFF 		bl	CyEnterCriticalSection
 471              	.LVL29:
 385:Generated_Source\PSoC4/Comp.c ****     if( 0u != filter)
 472              		.loc 1 385 0
 473 0008 002C     		cmp	r4, #0
 474 000a 06D0     		beq	.L35
 386:Generated_Source\PSoC4/Comp.c ****     {
 387:Generated_Source\PSoC4/Comp.c ****         Comp_CONFIG_REG |= Comp_CONFIG_FILT;
 475              		.loc 1 387 0
 476 000c 074A     		ldr	r2, .L37
 477 000e 1368     		ldr	r3, [r2]
 478 0010 8021     		movs	r1, #128
 479 0012 0901     		lsls	r1, r1, #4
 480 0014 0B43     		orrs	r3, r1
 481 0016 1360     		str	r3, [r2]
 482 0018 04E0     		b	.L36
 483              	.L35:
 388:Generated_Source\PSoC4/Comp.c ****     }
 389:Generated_Source\PSoC4/Comp.c ****     else
 390:Generated_Source\PSoC4/Comp.c ****     {
 391:Generated_Source\PSoC4/Comp.c ****         Comp_CONFIG_REG &= (uint32)~Comp_CONFIG_FILT;
 484              		.loc 1 391 0
 485 001a 044A     		ldr	r2, .L37
 486 001c 1168     		ldr	r1, [r2]
 487 001e 044B     		ldr	r3, .L37+4
 488 0020 0B40     		ands	r3, r1
 489 0022 1360     		str	r3, [r2]
 490              	.L36:
 392:Generated_Source\PSoC4/Comp.c ****     }
 393:Generated_Source\PSoC4/Comp.c ****     CyExitCriticalSection(enableInterrupts);
 491              		.loc 1 393 0
 492 0024 FFF7FEFF 		bl	CyExitCriticalSection
 493              	.LVL30:
 394:Generated_Source\PSoC4/Comp.c **** }
 494              		.loc 1 394 0
 495              		@ sp needed
 496              	.LVL31:
 497 0028 10BD     		pop	{r4, pc}
 498              	.L38:
 499 002a C046     		.align	2
 500              	.L37:
 501 002c 04000C40 		.word	1074528260
 502 0030 FFF7FFFF 		.word	-2049
 503              		.cfi_endproc
 504              	.LFE11:
 505              		.size	Comp_SetFilter, .-Comp_SetFilter
 506              		.section	.text.Comp_GetCompare,"ax",%progbits
 507              		.align	2
 508              		.global	Comp_GetCompare
 509              		.code	16
 510              		.thumb_func
 511              		.type	Comp_GetCompare, %function
 512              	Comp_GetCompare:
ARM GAS  C:\Users\MICHAE~1.MAC\AppData\Local\Temp\ccM1UI6U.s 			page 17


 513              	.LFB12:
 395:Generated_Source\PSoC4/Comp.c **** 
 396:Generated_Source\PSoC4/Comp.c **** 
 397:Generated_Source\PSoC4/Comp.c **** /*******************************************************************************
 398:Generated_Source\PSoC4/Comp.c **** * Function Name: Comp_GetCompare
 399:Generated_Source\PSoC4/Comp.c **** ********************************************************************************
 400:Generated_Source\PSoC4/Comp.c **** *
 401:Generated_Source\PSoC4/Comp.c **** * Summary:
 402:Generated_Source\PSoC4/Comp.c **** *  This function returns a nonzero value when the voltage connected to the
 403:Generated_Source\PSoC4/Comp.c **** *  positive input is greater than the negative input voltage.
 404:Generated_Source\PSoC4/Comp.c **** *  This function reads the direct (unflopped) comparator output which can also be 
 405:Generated_Source\PSoC4/Comp.c **** *  metastable (since it may result in incorrect data).
 406:Generated_Source\PSoC4/Comp.c **** *
 407:Generated_Source\PSoC4/Comp.c **** * Parameters:
 408:Generated_Source\PSoC4/Comp.c **** *  None
 409:Generated_Source\PSoC4/Comp.c **** *
 410:Generated_Source\PSoC4/Comp.c **** * Return:
 411:Generated_Source\PSoC4/Comp.c **** *  (uint32) Comparator output state. This value is not impacted by the interrupt
 412:Generated_Source\PSoC4/Comp.c **** *  edge detect setting:
 413:Generated_Source\PSoC4/Comp.c **** *   0 - if positive input is less than negative one.
 414:Generated_Source\PSoC4/Comp.c **** *   1 - if positive input greater than negative one.
 415:Generated_Source\PSoC4/Comp.c **** *
 416:Generated_Source\PSoC4/Comp.c **** *******************************************************************************/
 417:Generated_Source\PSoC4/Comp.c **** uint32 Comp_GetCompare(void)
 418:Generated_Source\PSoC4/Comp.c **** {
 514              		.loc 1 418 0
 515              		.cfi_startproc
 516              		@ args = 0, pretend = 0, frame = 0
 517              		@ frame_needed = 0, uses_anonymous_args = 0
 518              		@ link register save eliminated.
 419:Generated_Source\PSoC4/Comp.c ****     return((uint32)((0u == (Comp_CONFIG_REG & Comp_CONFIG_OUT)) ? 0u : 1u));
 519              		.loc 1 419 0
 520 0000 044B     		ldr	r3, .L40
 521 0002 1868     		ldr	r0, [r3]
 522 0004 8023     		movs	r3, #128
 523 0006 DB01     		lsls	r3, r3, #7
 524 0008 1840     		ands	r0, r3
 525 000a 431E     		subs	r3, r0, #1
 526 000c 9841     		sbcs	r0, r0, r3
 527 000e C0B2     		uxtb	r0, r0
 420:Generated_Source\PSoC4/Comp.c **** }
 528              		.loc 1 420 0
 529              		@ sp needed
 530 0010 7047     		bx	lr
 531              	.L41:
 532 0012 C046     		.align	2
 533              	.L40:
 534 0014 04000C40 		.word	1074528260
 535              		.cfi_endproc
 536              	.LFE12:
 537              		.size	Comp_GetCompare, .-Comp_GetCompare
 538              		.section	.text.Comp_ZeroCal,"ax",%progbits
 539              		.align	2
 540              		.global	Comp_ZeroCal
 541              		.code	16
 542              		.thumb_func
 543              		.type	Comp_ZeroCal, %function
ARM GAS  C:\Users\MICHAE~1.MAC\AppData\Local\Temp\ccM1UI6U.s 			page 18


 544              	Comp_ZeroCal:
 545              	.LFB13:
 421:Generated_Source\PSoC4/Comp.c **** 
 422:Generated_Source\PSoC4/Comp.c **** 
 423:Generated_Source\PSoC4/Comp.c **** /*******************************************************************************
 424:Generated_Source\PSoC4/Comp.c **** * Function Name: Comp_ZeroCal
 425:Generated_Source\PSoC4/Comp.c **** ********************************************************************************
 426:Generated_Source\PSoC4/Comp.c **** *
 427:Generated_Source\PSoC4/Comp.c **** * Summary:
 428:Generated_Source\PSoC4/Comp.c **** *  Performs custom calibration of the input offset to minimize error for a
 429:Generated_Source\PSoC4/Comp.c **** *  specific set of conditions: comparator reference voltage, supply voltage,
 430:Generated_Source\PSoC4/Comp.c **** *  and operating temperature. A reference voltage in the range at which the
 431:Generated_Source\PSoC4/Comp.c **** *  comparator will be used must be applied to one of the inputs. The two inputs
 432:Generated_Source\PSoC4/Comp.c **** *  will be shorted internally to perform the offset calibration.
 433:Generated_Source\PSoC4/Comp.c **** *
 434:Generated_Source\PSoC4/Comp.c **** * Parameters:
 435:Generated_Source\PSoC4/Comp.c **** *  None
 436:Generated_Source\PSoC4/Comp.c **** *
 437:Generated_Source\PSoC4/Comp.c **** * Return:
 438:Generated_Source\PSoC4/Comp.c **** *  The value from the comparator trim register after the offset calibration is
 439:Generated_Source\PSoC4/Comp.c **** *  complete. This value has the same format as the input parameter for the
 440:Generated_Source\PSoC4/Comp.c **** *  Comp_LoadTrim() API routine.
 441:Generated_Source\PSoC4/Comp.c **** *
 442:Generated_Source\PSoC4/Comp.c **** *******************************************************************************/
 443:Generated_Source\PSoC4/Comp.c **** uint32 Comp_ZeroCal(void)
 444:Generated_Source\PSoC4/Comp.c **** {
 546              		.loc 1 444 0
 547              		.cfi_startproc
 548              		@ args = 0, pretend = 0, frame = 0
 549              		@ frame_needed = 0, uses_anonymous_args = 0
 550 0000 70B5     		push	{r4, r5, r6, lr}
 551              		.cfi_def_cfa_offset 16
 552              		.cfi_offset 4, -16
 553              		.cfi_offset 5, -12
 554              		.cfi_offset 6, -8
 555              		.cfi_offset 14, -4
 445:Generated_Source\PSoC4/Comp.c ****     uint32 cmpOut;
 446:Generated_Source\PSoC4/Comp.c ****     uint32 i;
 447:Generated_Source\PSoC4/Comp.c **** 
 448:Generated_Source\PSoC4/Comp.c ****     Comp_DFT_REG |= Comp_DFT_CAL_EN;
 556              		.loc 1 448 0
 557 0002 264A     		ldr	r2, .L51
 558 0004 1168     		ldr	r1, [r2]
 559 0006 0123     		movs	r3, #1
 560 0008 0B43     		orrs	r3, r1
 561 000a 1360     		str	r3, [r2]
 449:Generated_Source\PSoC4/Comp.c ****     Comp_TRIMA_REG = 0u;
 562              		.loc 1 449 0
 563 000c 0023     		movs	r3, #0
 564 000e 244A     		ldr	r2, .L51+4
 565 0010 1360     		str	r3, [r2]
 450:Generated_Source\PSoC4/Comp.c ****     Comp_TRIMB_REG = 0u;
 566              		.loc 1 450 0
 567 0012 244A     		ldr	r2, .L51+8
 568 0014 1360     		str	r3, [r2]
 451:Generated_Source\PSoC4/Comp.c **** 
 452:Generated_Source\PSoC4/Comp.c ****     CyDelayUs(1u);
ARM GAS  C:\Users\MICHAE~1.MAC\AppData\Local\Temp\ccM1UI6U.s 			page 19


 569              		.loc 1 452 0
 570 0016 0120     		movs	r0, #1
 571 0018 FFF7FEFF 		bl	CyDelayUs
 572              	.LVL32:
 453:Generated_Source\PSoC4/Comp.c **** 
 454:Generated_Source\PSoC4/Comp.c ****     cmpOut = Comp_GetCompare();
 573              		.loc 1 454 0
 574 001c FFF7FEFF 		bl	Comp_GetCompare
 575              	.LVL33:
 576 0020 051E     		subs	r5, r0, #0
 577              	.LVL34:
 455:Generated_Source\PSoC4/Comp.c **** 
 456:Generated_Source\PSoC4/Comp.c ****     if(0u != cmpOut)
 578              		.loc 1 456 0
 579 0022 02D0     		beq	.L43
 457:Generated_Source\PSoC4/Comp.c ****     {
 458:Generated_Source\PSoC4/Comp.c ****         Comp_TRIMA_REG = ((uint32) 0x01u << Comp_TRIMA_SIGNBIT);
 580              		.loc 1 458 0
 581 0024 1022     		movs	r2, #16
 582 0026 1E4B     		ldr	r3, .L51+4
 583 0028 1A60     		str	r2, [r3]
 584              	.L43:
 444:Generated_Source\PSoC4/Comp.c ****     uint32 cmpOut;
 585              		.loc 1 444 0 discriminator 1
 586 002a 1024     		movs	r4, #16
 587 002c 0BE0     		b	.L44
 588              	.LVL35:
 589              	.L46:
 459:Generated_Source\PSoC4/Comp.c ****     }
 460:Generated_Source\PSoC4/Comp.c **** 
 461:Generated_Source\PSoC4/Comp.c ****     for(i = (Comp_TRIMA_MAX_VALUE +1u ); i != 0u; i--)
 462:Generated_Source\PSoC4/Comp.c ****     {
 463:Generated_Source\PSoC4/Comp.c ****         Comp_TRIMA_REG++;
 590              		.loc 1 463 0
 591 002e 1C4A     		ldr	r2, .L51+4
 592 0030 1368     		ldr	r3, [r2]
 593 0032 0133     		adds	r3, r3, #1
 594 0034 1360     		str	r3, [r2]
 464:Generated_Source\PSoC4/Comp.c ****         CyDelayUs(1u);
 595              		.loc 1 464 0
 596 0036 0120     		movs	r0, #1
 597 0038 FFF7FEFF 		bl	CyDelayUs
 598              	.LVL36:
 465:Generated_Source\PSoC4/Comp.c ****         if(cmpOut != Comp_GetCompare())
 599              		.loc 1 465 0
 600 003c FFF7FEFF 		bl	Comp_GetCompare
 601              	.LVL37:
 602 0040 8542     		cmp	r5, r0
 603 0042 02D1     		bne	.L45
 461:Generated_Source\PSoC4/Comp.c ****     {
 604              		.loc 1 461 0 discriminator 2
 605 0044 013C     		subs	r4, r4, #1
 606              	.LVL38:
 607              	.L44:
 461:Generated_Source\PSoC4/Comp.c ****     {
 608              		.loc 1 461 0 is_stmt 0 discriminator 1
 609 0046 002C     		cmp	r4, #0
ARM GAS  C:\Users\MICHAE~1.MAC\AppData\Local\Temp\ccM1UI6U.s 			page 20


 610 0048 F1D1     		bne	.L46
 611              	.L45:
 466:Generated_Source\PSoC4/Comp.c ****         {
 467:Generated_Source\PSoC4/Comp.c ****             break;
 468:Generated_Source\PSoC4/Comp.c ****         }
 469:Generated_Source\PSoC4/Comp.c ****     }
 470:Generated_Source\PSoC4/Comp.c **** 
 471:Generated_Source\PSoC4/Comp.c ****     if(((uint32)(Comp_CONFIG_REG >> Comp_CONFIG_REG_SHIFT) &
 612              		.loc 1 471 0 is_stmt 1
 613 004a 174B     		ldr	r3, .L51+12
 614 004c 1B68     		ldr	r3, [r3]
 615 004e 1B0A     		lsrs	r3, r3, #8
 616 0050 9B07     		lsls	r3, r3, #30
 617 0052 16D1     		bne	.L47
 472:Generated_Source\PSoC4/Comp.c ****         Comp_SPEED_PARAM_MASK) == Comp_MED_SPEED)
 473:Generated_Source\PSoC4/Comp.c ****     {
 474:Generated_Source\PSoC4/Comp.c ****         cmpOut = Comp_GetCompare();
 618              		.loc 1 474 0
 619 0054 FFF7FEFF 		bl	Comp_GetCompare
 620              	.LVL39:
 621 0058 051E     		subs	r5, r0, #0
 622              	.LVL40:
 475:Generated_Source\PSoC4/Comp.c **** 
 476:Generated_Source\PSoC4/Comp.c ****         if(0u == cmpOut)
 623              		.loc 1 476 0
 624 005a 02D1     		bne	.L48
 477:Generated_Source\PSoC4/Comp.c ****         {
 478:Generated_Source\PSoC4/Comp.c ****             Comp_TRIMB_REG = ((uint32)1u << Comp_TRIMB_SIGNBIT);
 625              		.loc 1 478 0
 626 005c 1022     		movs	r2, #16
 627 005e 114B     		ldr	r3, .L51+8
 628 0060 1A60     		str	r2, [r3]
 629              	.L48:
 444:Generated_Source\PSoC4/Comp.c ****     uint32 cmpOut;
 630              		.loc 1 444 0 discriminator 1
 631 0062 1024     		movs	r4, #16
 632              	.LVL41:
 633 0064 0BE0     		b	.L49
 634              	.LVL42:
 635              	.L50:
 479:Generated_Source\PSoC4/Comp.c ****         }
 480:Generated_Source\PSoC4/Comp.c **** 
 481:Generated_Source\PSoC4/Comp.c ****         for(i = (Comp_TRIMB_MAX_VALUE +1u ); i != 0u; i--)
 482:Generated_Source\PSoC4/Comp.c ****         {
 483:Generated_Source\PSoC4/Comp.c ****             Comp_TRIMB_REG++;
 636              		.loc 1 483 0
 637 0066 0F4A     		ldr	r2, .L51+8
 638 0068 1368     		ldr	r3, [r2]
 639 006a 0133     		adds	r3, r3, #1
 640 006c 1360     		str	r3, [r2]
 484:Generated_Source\PSoC4/Comp.c ****             CyDelayUs(1u);
 641              		.loc 1 484 0
 642 006e 0120     		movs	r0, #1
 643 0070 FFF7FEFF 		bl	CyDelayUs
 644              	.LVL43:
 485:Generated_Source\PSoC4/Comp.c ****             if(cmpOut != Comp_GetCompare())
 645              		.loc 1 485 0
ARM GAS  C:\Users\MICHAE~1.MAC\AppData\Local\Temp\ccM1UI6U.s 			page 21


 646 0074 FFF7FEFF 		bl	Comp_GetCompare
 647              	.LVL44:
 648 0078 8542     		cmp	r5, r0
 649 007a 02D1     		bne	.L47
 481:Generated_Source\PSoC4/Comp.c ****         {
 650              		.loc 1 481 0 discriminator 2
 651 007c 013C     		subs	r4, r4, #1
 652              	.LVL45:
 653              	.L49:
 481:Generated_Source\PSoC4/Comp.c ****         {
 654              		.loc 1 481 0 is_stmt 0 discriminator 1
 655 007e 002C     		cmp	r4, #0
 656 0080 F1D1     		bne	.L50
 657              	.L47:
 486:Generated_Source\PSoC4/Comp.c ****             {
 487:Generated_Source\PSoC4/Comp.c ****                 break;
 488:Generated_Source\PSoC4/Comp.c ****             }
 489:Generated_Source\PSoC4/Comp.c ****         }
 490:Generated_Source\PSoC4/Comp.c ****     }
 491:Generated_Source\PSoC4/Comp.c **** 
 492:Generated_Source\PSoC4/Comp.c ****     Comp_DFT_REG &= ((uint32)~Comp_DFT_CAL_EN);
 658              		.loc 1 492 0 is_stmt 1
 659 0082 064A     		ldr	r2, .L51
 660 0084 1368     		ldr	r3, [r2]
 661 0086 0121     		movs	r1, #1
 662 0088 8B43     		bics	r3, r1
 663 008a 1360     		str	r3, [r2]
 493:Generated_Source\PSoC4/Comp.c **** 
 494:Generated_Source\PSoC4/Comp.c ****     return (Comp_TRIMA_REG | ((uint32)Comp_TRIMB_REG << Comp_TRIMB_SHIFT));
 664              		.loc 1 494 0
 665 008c 044B     		ldr	r3, .L51+4
 666 008e 1B68     		ldr	r3, [r3]
 667 0090 044A     		ldr	r2, .L51+8
 668 0092 1068     		ldr	r0, [r2]
 669 0094 0002     		lsls	r0, r0, #8
 670 0096 1843     		orrs	r0, r3
 495:Generated_Source\PSoC4/Comp.c **** }
 671              		.loc 1 495 0
 672              		@ sp needed
 673              	.LVL46:
 674              	.LVL47:
 675 0098 70BD     		pop	{r4, r5, r6, pc}
 676              	.L52:
 677 009a C046     		.align	2
 678              	.L51:
 679 009c 08000C40 		.word	1074528264
 680 00a0 08FF0C40 		.word	1074593544
 681 00a4 0CFF0C40 		.word	1074593548
 682 00a8 04000C40 		.word	1074528260
 683              		.cfi_endproc
 684              	.LFE13:
 685              		.size	Comp_ZeroCal, .-Comp_ZeroCal
 686              		.section	.text.Comp_LoadTrim,"ax",%progbits
 687              		.align	2
 688              		.global	Comp_LoadTrim
 689              		.code	16
 690              		.thumb_func
ARM GAS  C:\Users\MICHAE~1.MAC\AppData\Local\Temp\ccM1UI6U.s 			page 22


 691              		.type	Comp_LoadTrim, %function
 692              	Comp_LoadTrim:
 693              	.LFB14:
 496:Generated_Source\PSoC4/Comp.c **** 
 497:Generated_Source\PSoC4/Comp.c **** 
 498:Generated_Source\PSoC4/Comp.c **** /*******************************************************************************
 499:Generated_Source\PSoC4/Comp.c **** * Function Name: Comp_LoadTrim
 500:Generated_Source\PSoC4/Comp.c **** ********************************************************************************
 501:Generated_Source\PSoC4/Comp.c **** *
 502:Generated_Source\PSoC4/Comp.c **** * Summary:
 503:Generated_Source\PSoC4/Comp.c **** *  This function writes a value into the comparator offset trim register.
 504:Generated_Source\PSoC4/Comp.c **** *
 505:Generated_Source\PSoC4/Comp.c **** * Parameters:
 506:Generated_Source\PSoC4/Comp.c **** *  trimVal: Value to be stored in the comparator offset trim register. This
 507:Generated_Source\PSoC4/Comp.c **** *  value has the same format as the parameter returned by the
 508:Generated_Source\PSoC4/Comp.c **** *  Comp_ZeroCal() API routine.
 509:Generated_Source\PSoC4/Comp.c **** *
 510:Generated_Source\PSoC4/Comp.c **** * Return:
 511:Generated_Source\PSoC4/Comp.c **** *  None
 512:Generated_Source\PSoC4/Comp.c **** *
 513:Generated_Source\PSoC4/Comp.c **** *******************************************************************************/
 514:Generated_Source\PSoC4/Comp.c **** void Comp_LoadTrim(uint32 trimVal)
 515:Generated_Source\PSoC4/Comp.c **** {
 694              		.loc 1 515 0
 695              		.cfi_startproc
 696              		@ args = 0, pretend = 0, frame = 0
 697              		@ frame_needed = 0, uses_anonymous_args = 0
 698              		@ link register save eliminated.
 699              	.LVL48:
 516:Generated_Source\PSoC4/Comp.c ****     Comp_TRIMA_REG = (trimVal & Comp_TRIMA_MASK);
 700              		.loc 1 516 0
 701 0000 1F23     		movs	r3, #31
 702 0002 1900     		movs	r1, r3
 703 0004 0140     		ands	r1, r0
 704 0006 034A     		ldr	r2, .L54
 705 0008 1160     		str	r1, [r2]
 517:Generated_Source\PSoC4/Comp.c ****     Comp_TRIMB_REG = ((trimVal >> Comp_TRIMB_SHIFT) & Comp_TRIMB_MASK);
 706              		.loc 1 517 0
 707 000a 000A     		lsrs	r0, r0, #8
 708              	.LVL49:
 709 000c 1840     		ands	r0, r3
 710 000e 024B     		ldr	r3, .L54+4
 711 0010 1860     		str	r0, [r3]
 518:Generated_Source\PSoC4/Comp.c **** }
 712              		.loc 1 518 0
 713              		@ sp needed
 714 0012 7047     		bx	lr
 715              	.L55:
 716              		.align	2
 717              	.L54:
 718 0014 08FF0C40 		.word	1074593544
 719 0018 0CFF0C40 		.word	1074593548
 720              		.cfi_endproc
 721              	.LFE14:
 722              		.size	Comp_LoadTrim, .-Comp_LoadTrim
 723              		.section	.text.Comp_SetOutputMode,"ax",%progbits
 724              		.align	2
ARM GAS  C:\Users\MICHAE~1.MAC\AppData\Local\Temp\ccM1UI6U.s 			page 23


 725              		.global	Comp_SetOutputMode
 726              		.code	16
 727              		.thumb_func
 728              		.type	Comp_SetOutputMode, %function
 729              	Comp_SetOutputMode:
 730              	.LFB15:
 519:Generated_Source\PSoC4/Comp.c **** 
 520:Generated_Source\PSoC4/Comp.c **** 
 521:Generated_Source\PSoC4/Comp.c **** #if (Comp_CY_LPCOMP_V2)
 522:Generated_Source\PSoC4/Comp.c ****     
 523:Generated_Source\PSoC4/Comp.c **** /*******************************************************************************
 524:Generated_Source\PSoC4/Comp.c **** * Function Name: Comp_SetOutputMode
 525:Generated_Source\PSoC4/Comp.c **** ********************************************************************************
 526:Generated_Source\PSoC4/Comp.c **** *
 527:Generated_Source\PSoC4/Comp.c **** * Summary:
 528:Generated_Source\PSoC4/Comp.c **** *  Set comparator output mode. 
 529:Generated_Source\PSoC4/Comp.c **** *
 530:Generated_Source\PSoC4/Comp.c **** * Parameters:
 531:Generated_Source\PSoC4/Comp.c **** *  uint32 mode: Comparator output mode value
 532:Generated_Source\PSoC4/Comp.c **** *  Comp_OUT_DIRECT - Direct output
 533:Generated_Source\PSoC4/Comp.c **** *  Comp_OUT_SYNC   - Synchronized output
 534:Generated_Source\PSoC4/Comp.c **** *  Comp_OUT_PULSE  - Pulse output
 535:Generated_Source\PSoC4/Comp.c **** *
 536:Generated_Source\PSoC4/Comp.c **** * Return:
 537:Generated_Source\PSoC4/Comp.c **** *  None
 538:Generated_Source\PSoC4/Comp.c **** *
 539:Generated_Source\PSoC4/Comp.c **** *******************************************************************************/
 540:Generated_Source\PSoC4/Comp.c **** void Comp_SetOutputMode(uint32 mode)
 541:Generated_Source\PSoC4/Comp.c **** {
 731              		.loc 1 541 0
 732              		.cfi_startproc
 733              		@ args = 0, pretend = 0, frame = 0
 734              		@ frame_needed = 0, uses_anonymous_args = 0
 735              	.LVL50:
 736 0000 10B5     		push	{r4, lr}
 737              		.cfi_def_cfa_offset 8
 738              		.cfi_offset 4, -8
 739              		.cfi_offset 14, -4
 740 0002 0400     		movs	r4, r0
 542:Generated_Source\PSoC4/Comp.c ****     uint32 config;
 543:Generated_Source\PSoC4/Comp.c ****     uint8 enableInterrupts;
 544:Generated_Source\PSoC4/Comp.c ****     
 545:Generated_Source\PSoC4/Comp.c ****     enableInterrupts = CyEnterCriticalSection();
 741              		.loc 1 545 0
 742 0004 FFF7FEFF 		bl	CyEnterCriticalSection
 743              	.LVL51:
 546:Generated_Source\PSoC4/Comp.c ****     config = Comp_CONFIG_REG & ((uint32)~(Comp_CONFIG_DSI_BYPASS | \
 744              		.loc 1 546 0
 745 0008 0A4B     		ldr	r3, .L59
 746 000a 1968     		ldr	r1, [r3]
 747 000c 0A4A     		ldr	r2, .L59+4
 748 000e 1140     		ands	r1, r2
 749              	.LVL52:
 547:Generated_Source\PSoC4/Comp.c ****                                                      Comp_CONFIG_DSI_LEVEL));
 548:Generated_Source\PSoC4/Comp.c ****     Comp_CONFIG_REG = config | Comp_GET_CONFIG_DSI_BYPASS(mode) | \
 750              		.loc 1 548 0
 751 0010 0223     		movs	r3, #2
ARM GAS  C:\Users\MICHAE~1.MAC\AppData\Local\Temp\ccM1UI6U.s 			page 24


 752 0012 2340     		ands	r3, r4
 753 0014 01D0     		beq	.L57
 754 0016 8023     		movs	r3, #128
 755 0018 5B03     		lsls	r3, r3, #13
 756              	.L57:
 757              		.loc 1 548 0 is_stmt 0 discriminator 4
 758 001a 0B43     		orrs	r3, r1
 759 001c 1A00     		movs	r2, r3
 549:Generated_Source\PSoC4/Comp.c ****                                            Comp_GET_CONFIG_DSI_LEVEL(mode);
 760              		.loc 1 549 0 is_stmt 1 discriminator 4
 761 001e 0123     		movs	r3, #1
 762 0020 2340     		ands	r3, r4
 763 0022 01D0     		beq	.L58
 764              		.loc 1 549 0 is_stmt 0
 765 0024 8023     		movs	r3, #128
 766 0026 9B03     		lsls	r3, r3, #14
 767              	.L58:
 548:Generated_Source\PSoC4/Comp.c ****                                            Comp_GET_CONFIG_DSI_LEVEL(mode);
 768              		.loc 1 548 0 is_stmt 1
 769 0028 1343     		orrs	r3, r2
 770 002a 024A     		ldr	r2, .L59
 771 002c 1360     		str	r3, [r2]
 550:Generated_Source\PSoC4/Comp.c ****     CyExitCriticalSection(enableInterrupts);
 772              		.loc 1 550 0
 773 002e FFF7FEFF 		bl	CyExitCriticalSection
 774              	.LVL53:
 551:Generated_Source\PSoC4/Comp.c **** }
 775              		.loc 1 551 0
 776              		@ sp needed
 777              	.LVL54:
 778 0032 10BD     		pop	{r4, pc}
 779              	.L60:
 780              		.align	2
 781              	.L59:
 782 0034 04000C40 		.word	1074528260
 783 0038 FFFFCFFF 		.word	-3145729
 784              		.cfi_endproc
 785              	.LFE15:
 786              		.size	Comp_SetOutputMode, .-Comp_SetOutputMode
 787              		.section	.text.Comp_SetInterruptMask,"ax",%progbits
 788              		.align	2
 789              		.global	Comp_SetInterruptMask
 790              		.code	16
 791              		.thumb_func
 792              		.type	Comp_SetInterruptMask, %function
 793              	Comp_SetInterruptMask:
 794              	.LFB16:
 552:Generated_Source\PSoC4/Comp.c **** 
 553:Generated_Source\PSoC4/Comp.c **** 
 554:Generated_Source\PSoC4/Comp.c **** /*******************************************************************************
 555:Generated_Source\PSoC4/Comp.c **** * Function Name: Comp_SetInterruptMask
 556:Generated_Source\PSoC4/Comp.c **** ********************************************************************************
 557:Generated_Source\PSoC4/Comp.c **** *
 558:Generated_Source\PSoC4/Comp.c **** * Summary:
 559:Generated_Source\PSoC4/Comp.c **** *  Configures which bits of interrupt request register will trigger an interrupt 
 560:Generated_Source\PSoC4/Comp.c **** *  event.
 561:Generated_Source\PSoC4/Comp.c **** *
ARM GAS  C:\Users\MICHAE~1.MAC\AppData\Local\Temp\ccM1UI6U.s 			page 25


 562:Generated_Source\PSoC4/Comp.c **** * Parameters:
 563:Generated_Source\PSoC4/Comp.c **** *  uint32 interruptMask: Mask of interrupts to set. Each component instance has
 564:Generated_Source\PSoC4/Comp.c **** *  a mask value: Comp_INTR_MASK.
 565:Generated_Source\PSoC4/Comp.c **** *
 566:Generated_Source\PSoC4/Comp.c **** * Return:
 567:Generated_Source\PSoC4/Comp.c **** *  None
 568:Generated_Source\PSoC4/Comp.c **** *
 569:Generated_Source\PSoC4/Comp.c **** *******************************************************************************/
 570:Generated_Source\PSoC4/Comp.c **** void Comp_SetInterruptMask(uint32 interruptMask)
 571:Generated_Source\PSoC4/Comp.c **** {
 795              		.loc 1 571 0
 796              		.cfi_startproc
 797              		@ args = 0, pretend = 0, frame = 0
 798              		@ frame_needed = 0, uses_anonymous_args = 0
 799              		@ link register save eliminated.
 800              	.LVL55:
 572:Generated_Source\PSoC4/Comp.c ****     #if(CY_IP_SRSSV2)
 573:Generated_Source\PSoC4/Comp.c ****         Comp_intrMaskRegState = interruptMask;
 574:Generated_Source\PSoC4/Comp.c ****     #endif /* (CY_IP_SRSSV2) */
 575:Generated_Source\PSoC4/Comp.c ****     
 576:Generated_Source\PSoC4/Comp.c ****     Comp_INTR_MASK_REG = interruptMask;
 801              		.loc 1 576 0
 802 0000 014B     		ldr	r3, .L62
 803 0002 1860     		str	r0, [r3]
 577:Generated_Source\PSoC4/Comp.c **** }
 804              		.loc 1 577 0
 805              		@ sp needed
 806 0004 7047     		bx	lr
 807              	.L63:
 808 0006 C046     		.align	2
 809              	.L62:
 810 0008 18000C40 		.word	1074528280
 811              		.cfi_endproc
 812              	.LFE16:
 813              		.size	Comp_SetInterruptMask, .-Comp_SetInterruptMask
 814              		.section	.text.Comp_GetInterruptMask,"ax",%progbits
 815              		.align	2
 816              		.global	Comp_GetInterruptMask
 817              		.code	16
 818              		.thumb_func
 819              		.type	Comp_GetInterruptMask, %function
 820              	Comp_GetInterruptMask:
 821              	.LFB17:
 578:Generated_Source\PSoC4/Comp.c **** 
 579:Generated_Source\PSoC4/Comp.c **** 
 580:Generated_Source\PSoC4/Comp.c **** /*******************************************************************************
 581:Generated_Source\PSoC4/Comp.c **** * Function Name: Comp_GetInterruptMask
 582:Generated_Source\PSoC4/Comp.c **** ********************************************************************************
 583:Generated_Source\PSoC4/Comp.c **** *
 584:Generated_Source\PSoC4/Comp.c **** * Summary:
 585:Generated_Source\PSoC4/Comp.c **** *  Returns interrupt mask.
 586:Generated_Source\PSoC4/Comp.c **** *
 587:Generated_Source\PSoC4/Comp.c **** * Parameters:
 588:Generated_Source\PSoC4/Comp.c **** *  None
 589:Generated_Source\PSoC4/Comp.c **** *
 590:Generated_Source\PSoC4/Comp.c **** * Return:
 591:Generated_Source\PSoC4/Comp.c **** *  uint32:  Mask of enabled interrupt source. Each component instance 
ARM GAS  C:\Users\MICHAE~1.MAC\AppData\Local\Temp\ccM1UI6U.s 			page 26


 592:Generated_Source\PSoC4/Comp.c **** *  has a mask value: Comp_INTR_MASK.
 593:Generated_Source\PSoC4/Comp.c **** *
 594:Generated_Source\PSoC4/Comp.c **** *******************************************************************************/
 595:Generated_Source\PSoC4/Comp.c **** uint32 Comp_GetInterruptMask(void)
 596:Generated_Source\PSoC4/Comp.c **** {
 822              		.loc 1 596 0
 823              		.cfi_startproc
 824              		@ args = 0, pretend = 0, frame = 0
 825              		@ frame_needed = 0, uses_anonymous_args = 0
 826              		@ link register save eliminated.
 597:Generated_Source\PSoC4/Comp.c ****     return (Comp_INTR_MASK_REG);
 827              		.loc 1 597 0
 828 0000 014B     		ldr	r3, .L65
 829 0002 1868     		ldr	r0, [r3]
 598:Generated_Source\PSoC4/Comp.c **** }
 830              		.loc 1 598 0
 831              		@ sp needed
 832 0004 7047     		bx	lr
 833              	.L66:
 834 0006 C046     		.align	2
 835              	.L65:
 836 0008 18000C40 		.word	1074528280
 837              		.cfi_endproc
 838              	.LFE17:
 839              		.size	Comp_GetInterruptMask, .-Comp_GetInterruptMask
 840              		.section	.text.Comp_GetInterruptSourceMasked,"ax",%progbits
 841              		.align	2
 842              		.global	Comp_GetInterruptSourceMasked
 843              		.code	16
 844              		.thumb_func
 845              		.type	Comp_GetInterruptSourceMasked, %function
 846              	Comp_GetInterruptSourceMasked:
 847              	.LFB18:
 599:Generated_Source\PSoC4/Comp.c **** 
 600:Generated_Source\PSoC4/Comp.c **** 
 601:Generated_Source\PSoC4/Comp.c **** /*******************************************************************************
 602:Generated_Source\PSoC4/Comp.c **** * Function Name: Comp_GetInterruptSourceMasked
 603:Generated_Source\PSoC4/Comp.c **** ********************************************************************************
 604:Generated_Source\PSoC4/Comp.c **** *
 605:Generated_Source\PSoC4/Comp.c **** * Summary:
 606:Generated_Source\PSoC4/Comp.c **** *  Returns interrupt request register masked by interrupt mask. Returns the result 
 607:Generated_Source\PSoC4/Comp.c **** *  of bitwise AND operation between corresponding interrupt request and mask bits.
 608:Generated_Source\PSoC4/Comp.c **** *
 609:Generated_Source\PSoC4/Comp.c **** * Parameters:
 610:Generated_Source\PSoC4/Comp.c **** *  None
 611:Generated_Source\PSoC4/Comp.c **** *
 612:Generated_Source\PSoC4/Comp.c **** * Return:
 613:Generated_Source\PSoC4/Comp.c **** *  uint32: Status of enabled interrupt source. Each component instance 
 614:Generated_Source\PSoC4/Comp.c **** *  has a mask value: Comp_INTR_MASKED.
 615:Generated_Source\PSoC4/Comp.c **** *
 616:Generated_Source\PSoC4/Comp.c **** *******************************************************************************/
 617:Generated_Source\PSoC4/Comp.c **** uint32 Comp_GetInterruptSourceMasked(void)
 618:Generated_Source\PSoC4/Comp.c **** {
 848              		.loc 1 618 0
 849              		.cfi_startproc
 850              		@ args = 0, pretend = 0, frame = 0
 851              		@ frame_needed = 0, uses_anonymous_args = 0
ARM GAS  C:\Users\MICHAE~1.MAC\AppData\Local\Temp\ccM1UI6U.s 			page 27


 852              		@ link register save eliminated.
 619:Generated_Source\PSoC4/Comp.c ****     return (Comp_INTR_MASKED_REG);
 853              		.loc 1 619 0
 854 0000 014B     		ldr	r3, .L68
 855 0002 1868     		ldr	r0, [r3]
 620:Generated_Source\PSoC4/Comp.c **** }
 856              		.loc 1 620 0
 857              		@ sp needed
 858 0004 7047     		bx	lr
 859              	.L69:
 860 0006 C046     		.align	2
 861              	.L68:
 862 0008 1C000C40 		.word	1074528284
 863              		.cfi_endproc
 864              	.LFE18:
 865              		.size	Comp_GetInterruptSourceMasked, .-Comp_GetInterruptSourceMasked
 866              		.global	Comp_initVar
 867              		.bss
 868              		.align	2
 869              		.set	.LANCHOR0,. + 0
 870              		.type	Comp_internalIntr, %object
 871              		.size	Comp_internalIntr, 4
 872              	Comp_internalIntr:
 873 0000 00000000 		.space	4
 874              		.type	Comp_initVar, %object
 875              		.size	Comp_initVar, 1
 876              	Comp_initVar:
 877 0004 00       		.space	1
 878              		.text
 879              	.Letext0:
 880              		.file 2 "Generated_Source\\PSoC4\\cytypes.h"
 881              		.file 3 "Generated_Source\\PSoC4\\CyLib.h"